
pongers.elf:     file format elf32-littlenios2
pongers.elf
architecture: nios2:r1, flags 0x00000112:
EXEC_P, HAS_SYMS, D_PAGED
start address 0x08040230

Program Header:
    LOAD off    0x00001000 vaddr 0x08040000 paddr 0x08040000 align 2**12
         filesz 0x00000020 memsz 0x00000020 flags r-x
    LOAD off    0x00001020 vaddr 0x08040020 paddr 0x08040020 align 2**12
         filesz 0x00014804 memsz 0x00014804 flags r-x
    LOAD off    0x00015824 vaddr 0x08054824 paddr 0x080563f4 align 2**12
         filesz 0x00001bd0 memsz 0x00001bd0 flags rw-
    LOAD off    0x00017fc4 vaddr 0x08057fc4 paddr 0x08057fc4 align 2**12
         filesz 0x00000000 memsz 0x00000180 flags rw-

Sections:
Idx Name          Size      VMA       LMA       File off  Algn
  0 .entry        00000020  08040000  08040000  00001000  2**5
                  CONTENTS, ALLOC, LOAD, READONLY, CODE
  1 .exceptions   00000210  08040020  08040020  00001020  2**2
                  CONTENTS, ALLOC, LOAD, READONLY, CODE
  2 .text         00014040  08040230  08040230  00001230  2**2
                  CONTENTS, ALLOC, LOAD, READONLY, CODE
  3 .rodata       000005b4  08054270  08054270  00015270  2**2
                  CONTENTS, ALLOC, LOAD, READONLY, DATA
  4 .rwdata       00001bd0  08054824  080563f4  00015824  2**2
                  CONTENTS, ALLOC, LOAD, DATA, SMALL_DATA
  5 .bss          00000180  08057fc4  08057fc4  00017fc4  2**2
                  ALLOC, SMALL_DATA
  6 .new_sdram_controller_0 00000000  04000000  04000000  000173f4  2**0
                  CONTENTS
  7 .onchip_memory2_0 00000000  08058144  08058144  000173f4  2**0
                  CONTENTS
  8 .comment      00000023  00000000  00000000  000173f4  2**0
                  CONTENTS, READONLY
  9 .debug_aranges 00000fb0  00000000  00000000  00017418  2**3
                  CONTENTS, READONLY, DEBUGGING
 10 .debug_info   000246bc  00000000  00000000  000183c8  2**0
                  CONTENTS, READONLY, DEBUGGING
 11 .debug_abbrev 000096a4  00000000  00000000  0003ca84  2**0
                  CONTENTS, READONLY, DEBUGGING
 12 .debug_line   0000c300  00000000  00000000  00046128  2**0
                  CONTENTS, READONLY, DEBUGGING
 13 .debug_frame  00002ac4  00000000  00000000  00052428  2**2
                  CONTENTS, READONLY, DEBUGGING
 14 .debug_str    000043d4  00000000  00000000  00054eec  2**0
                  CONTENTS, READONLY, DEBUGGING
 15 .debug_loc    00017e00  00000000  00000000  000592c0  2**0
                  CONTENTS, READONLY, DEBUGGING
 16 .debug_alt_sim_info 00000040  00000000  00000000  000710c0  2**2
                  CONTENTS, READONLY, DEBUGGING
 17 .debug_ranges 00001928  00000000  00000000  00071100  2**3
                  CONTENTS, READONLY, DEBUGGING
 18 .thread_model 00000003  00000000  00000000  0007669a  2**0
                  CONTENTS, READONLY
 19 .cpu          00000009  00000000  00000000  0007669d  2**0
                  CONTENTS, READONLY
 20 .qsys         00000001  00000000  00000000  000766a6  2**0
                  CONTENTS, READONLY
 21 .simulation_enabled 00000001  00000000  00000000  000766a7  2**0
                  CONTENTS, READONLY
 22 .sysid_hash   00000004  00000000  00000000  000766a8  2**0
                  CONTENTS, READONLY
 23 .sysid_base   00000004  00000000  00000000  000766ac  2**0
                  CONTENTS, READONLY
 24 .sysid_time   00000004  00000000  00000000  000766b0  2**0
                  CONTENTS, READONLY
 25 .stderr_dev   0000000b  00000000  00000000  000766b4  2**0
                  CONTENTS, READONLY
 26 .stdin_dev    0000000b  00000000  00000000  000766bf  2**0
                  CONTENTS, READONLY
 27 .stdout_dev   0000000b  00000000  00000000  000766ca  2**0
                  CONTENTS, READONLY
 28 .sopc_system_name 00000009  00000000  00000000  000766d5  2**0
                  CONTENTS, READONLY
 29 .quartus_project_dir 00000030  00000000  00000000  000766de  2**0
                  CONTENTS, READONLY
 30 .jdi          00003d27  00000000  00000000  0007670e  2**0
                  CONTENTS, READONLY
 31 .sopcinfo     000a866b  00000000  00000000  0007a435  2**0
                  CONTENTS, READONLY
SYMBOL TABLE:
08040000 l    d  .entry	00000000 .entry
08040020 l    d  .exceptions	00000000 .exceptions
08040230 l    d  .text	00000000 .text
08054270 l    d  .rodata	00000000 .rodata
08054824 l    d  .rwdata	00000000 .rwdata
08057fc4 l    d  .bss	00000000 .bss
04000000 l    d  .new_sdram_controller_0	00000000 .new_sdram_controller_0
08058144 l    d  .onchip_memory2_0	00000000 .onchip_memory2_0
00000000 l    d  .comment	00000000 .comment
00000000 l    d  .debug_aranges	00000000 .debug_aranges
00000000 l    d  .debug_info	00000000 .debug_info
00000000 l    d  .debug_abbrev	00000000 .debug_abbrev
00000000 l    d  .debug_line	00000000 .debug_line
00000000 l    d  .debug_frame	00000000 .debug_frame
00000000 l    d  .debug_str	00000000 .debug_str
00000000 l    d  .debug_loc	00000000 .debug_loc
00000000 l    d  .debug_alt_sim_info	00000000 .debug_alt_sim_info
00000000 l    d  .debug_ranges	00000000 .debug_ranges
00000000 l    df *ABS*	00000000 ../pongers_bsp//obj/HAL/src/crt0.o
08040268 l       .text	00000000 alt_after_alt_main
00000000 l    df *ABS*	00000000 alt_irq_handler.c
00000000 l    df *ABS*	00000000 alt_instruction_exception_entry.c
00000000 l    df *ABS*	00000000 pongers.c
0804026c l     F .text	00000048 pio_isr
08040318 l     F .text	00000060 alarm_callback.3516
08058004 l     O .bss	00000018 alarm.3518
08041ac8 l     F .text	0000004c clear.3557
08041d1c l     F .text	0000007c reset_game.3580
08042704 l     F .text	000000d0 reset_game_snake.3652
08041fc4 l     F .text	0000005c pause_menu.3603
08042020 l     F .text	0000005c clear_pause_menu.3606
08041e10 l     F .text	0000014c run_game_tick.3591
08042878 l     F .text	0000030c run_game_tick_snake.3665
08040d5c l     F .text	000000c8 cheat_code.3520
08040e24 l     F .text	000003c0 update_paddle.3525
080411e4 l     F .text	00000038 sign.3539
0804121c l     F .text	00000054 collision_sound.3541
08041270 l     F .text	00000858 update_ball.3544
08041b14 l     F .text	00000174 draw.3564
08041c88 l     F .text	00000094 get_user_input.3571
08041d98 l     F .text	00000078 check_win.3584
08041f5c l     F .text	00000034 music_on.3598
08041f90 l     F .text	00000034 music_off.3600
0804207c l     F .text	000000d8 generate_fruit.3609
08042154 l     F .text	0000008c check_opposite_direction.3613
080421e0 l     F .text	00000060 check_fruit_eaten.3616
08042240 l     F .text	000003b4 update_snake.3620
080425f4 l     F .text	00000110 check_snake_collision.3641
080427d4 l     F .text	000000a4 snake_game_over.3658
00000000 l    df *ABS*	00000000 libgcc2.c
00000000 l    df *ABS*	00000000 lib2-divmod.c
00000000 l    df *ABS*	00000000 lib2-mul.c
00000000 l    df *ABS*	00000000 tramp.c
00000000 l    df *ABS*	00000000 subsf3.c
00000000 l    df *ABS*	00000000 fixsfsi.c
00000000 l    df *ABS*	00000000 floatunsisf.c
00000000 l    df *ABS*	00000000 divdf3.c
00000000 l    df *ABS*	00000000 gedf2.c
00000000 l    df *ABS*	00000000 ledf2.c
00000000 l    df *ABS*	00000000 muldf3.c
00000000 l    df *ABS*	00000000 subdf3.c
00000000 l    df *ABS*	00000000 fixdfsi.c
00000000 l    df *ABS*	00000000 extendsfdf2.c
00000000 l    df *ABS*	00000000 truncdfsf2.c
00000000 l    df *ABS*	00000000 libgcc2.c
00000000 l    df *ABS*	00000000 libgcc2.c
00000000 l    df *ABS*	00000000 memcpy.c
00000000 l    df *ABS*	00000000 memset.c
00000000 l    df *ABS*	00000000 puts.c
00000000 l    df *ABS*	00000000 rand.c
00000000 l    df *ABS*	00000000 sprintf.c
00000000 l    df *ABS*	00000000 strlen.c
00000000 l    df *ABS*	00000000 vfprintf.c
080545ca l     O .rodata	00000010 zeroes.4389
080545da l     O .rodata	00000010 blanks.4388
00000000 l    df *ABS*	00000000 dtoa.c
08047d20 l     F .text	00000228 quorem
00000000 l    df *ABS*	00000000 findfp.c
080495d0 l     F .text	00000008 __fp_unlock
080495e4 l     F .text	0000019c __sinit.part.1
08049780 l     F .text	00000008 __fp_lock
00000000 l    df *ABS*	00000000 fvwrite.c
00000000 l    df *ABS*	00000000 fwalk.c
00000000 l    df *ABS*	00000000 impure.c
08054824 l     O .rwdata	00000424 impure_data
00000000 l    df *ABS*	00000000 locale.c
08054c68 l     O .rwdata	00000020 lc_ctype_charset
08054c48 l     O .rwdata	00000020 lc_message_charset
08054c88 l     O .rwdata	00000038 lconv
00000000 l    df *ABS*	00000000 mallocr.c
00000000 l    df *ABS*	00000000 memchr.c
00000000 l    df *ABS*	00000000 memmove.c
00000000 l    df *ABS*	00000000 mprec.c
0805460c l     O .rodata	0000000c p05.2768
00000000 l    df *ABS*	00000000 mallocr.c
00000000 l    df *ABS*	00000000 s_fpclassify.c
00000000 l    df *ABS*	00000000 sbrkr.c
00000000 l    df *ABS*	00000000 stdio.c
00000000 l    df *ABS*	00000000 strcmp.c
00000000 l    df *ABS*	00000000 vfprintf.c
08054730 l     O .rodata	00000010 zeroes.4333
08054740 l     O .rodata	00000010 blanks.4332
00000000 l    df *ABS*	00000000 writer.c
00000000 l    df *ABS*	00000000 wsetup.c
00000000 l    df *ABS*	00000000 closer.c
00000000 l    df *ABS*	00000000 mallocr.c
00000000 l    df *ABS*	00000000 fclose.c
00000000 l    df *ABS*	00000000 fflush.c
00000000 l    df *ABS*	00000000 mallocr.c
00000000 l    df *ABS*	00000000 int_errno.c
00000000 l    df *ABS*	00000000 lseekr.c
00000000 l    df *ABS*	00000000 makebuf.c
00000000 l    df *ABS*	00000000 readr.c
00000000 l    df *ABS*	00000000 fstatr.c
00000000 l    df *ABS*	00000000 isattyr.c
00000000 l    df *ABS*	00000000 libgcc2.c
00000000 l    df *ABS*	00000000 libgcc2.c
00000000 l    df *ABS*	00000000 libgcc2.c
00000000 l    df *ABS*	00000000 adddf3.c
00000000 l    df *ABS*	00000000 eqdf2.c
00000000 l    df *ABS*	00000000 floatsidf.c
00000000 l    df *ABS*	00000000 floatunsidf.c
00000000 l    df *ABS*	00000000 alt_alarm_start.c
00000000 l    df *ABS*	00000000 alt_close.c
08050004 l     F .text	0000003c alt_get_errno
00000000 l    df *ABS*	00000000 alt_dev.c
08050118 l     F .text	0000002c alt_dev_null_write
00000000 l    df *ABS*	00000000 alt_errno.c
00000000 l    df *ABS*	00000000 alt_fstat.c
08050144 l     F .text	0000003c alt_get_errno
00000000 l    df *ABS*	00000000 alt_iic.c
00000000 l    df *ABS*	00000000 alt_iic_isr_register.c
00000000 l    df *ABS*	00000000 alt_irq_vars.c
00000000 l    df *ABS*	00000000 alt_isatty.c
080504d8 l     F .text	0000003c alt_get_errno
00000000 l    df *ABS*	00000000 alt_load.c
080505c0 l     F .text	00000068 alt_load_section
00000000 l    df *ABS*	00000000 alt_lseek.c
080506ac l     F .text	0000003c alt_get_errno
00000000 l    df *ABS*	00000000 alt_main.c
00000000 l    df *ABS*	00000000 alt_malloc_lock.c
00000000 l    df *ABS*	00000000 alt_read.c
08050888 l     F .text	0000003c alt_get_errno
00000000 l    df *ABS*	00000000 alt_release_fd.c
00000000 l    df *ABS*	00000000 alt_sbrk.c
080563e0 l     O .rwdata	00000004 heap_end
00000000 l    df *ABS*	00000000 alt_tick.c
00000000 l    df *ABS*	00000000 alt_usleep.c
00000000 l    df *ABS*	00000000 alt_write.c
08050cd0 l     F .text	0000003c alt_get_errno
00000000 l    df *ABS*	00000000 alt_sys_init.c
08050e0c l     F .text	00000034 alt_dev_reg
08055270 l     O .rwdata	00001060 jtag_uart_0
080562d0 l     O .rwdata	0000003c modular_adc_0
0805630c l     O .rwdata	00000048 video_character_buffer_with_dma_0
08056354 l     O .rwdata	00000054 video_pixel_buffer_dma_0
00000000 l    df *ABS*	00000000 altera_avalon_jtag_uart_fd.c
00000000 l    df *ABS*	00000000 altera_avalon_jtag_uart_init.c
080513a8 l     F .text	0000020c altera_avalon_jtag_uart_irq
080515b4 l     F .text	000000a0 altera_avalon_jtag_uart_timeout
00000000 l    df *ABS*	00000000 altera_avalon_jtag_uart_ioctl.c
00000000 l    df *ABS*	00000000 altera_avalon_jtag_uart_read.c
00000000 l    df *ABS*	00000000 altera_avalon_jtag_uart_write.c
00000000 l    df *ABS*	00000000 altera_avalon_timer_sc.c
08051bec l     F .text	00000078 alt_avalon_timer_sc_irq
00000000 l    df *ABS*	00000000 altera_modular_adc.c
08051ce0 l     F .text	000000a8 alt_adc_irq
00000000 l    df *ABS*	00000000 altera_up_avalon_video_character_buffer_with_dma.c
00000000 l    df *ABS*	00000000 altera_up_avalon_video_pixel_buffer_dma.c
00000000 l    df *ABS*	00000000 alt_busy_sleep.c
00000000 l    df *ABS*	00000000 alt_dcache_flush_all.c
00000000 l    df *ABS*	00000000 alt_dev_llist_insert.c
0805361c l     F .text	0000003c alt_get_errno
00000000 l    df *ABS*	00000000 alt_do_ctors.c
00000000 l    df *ABS*	00000000 alt_do_dtors.c
00000000 l    df *ABS*	00000000 alt_find_dev.c
00000000 l    df *ABS*	00000000 alt_icache_flush_all.c
00000000 l    df *ABS*	00000000 alt_io_redirect.c
08053908 l     F .text	000000e4 alt_open_fd
00000000 l    df *ABS*	00000000 alt_open.c
08053a68 l     F .text	0000003c alt_get_errno
08053aa4 l     F .text	000000ec alt_file_locked
00000000 l    df *ABS*	00000000 altera_nios2_gen2_irq.c
00000000 l    df *ABS*	00000000 alt_find_file.c
00000000 l    df *ABS*	00000000 alt_get_fd.c
00000000 l    df *ABS*	00000000 atexit.c
00000000 l    df *ABS*	00000000 exit.c
00000000 l    df *ABS*	00000000 memcmp.c
00000000 l    df *ABS*	00000000 __atexit.c
00000000 l    df *ABS*	00000000 __call_atexit.c
00000000 l    df *ABS*	00000000 alt_exit.c
08058000 g     O .bss	00000004 alt_instruction_exception_handler
0804ba38 g     F .text	00000074 _mprec_log10
08051f80 g     F .text	00000050 adc_stop
080563ac g     O .rwdata	00000004 game_flag
0804bb24 g     F .text	0000008c __any_on
0804e700 g     F .text	00000054 _isatty_r
08054618 g     O .rodata	00000028 __mprec_tinytens
080507c4 g     F .text	0000007c alt_main
08052e68 g     F .text	0000026c alt_up_pixel_buffer_dma_draw_vline
080457b8 g     F .text	000000c0 _puts_r
08058044 g     O .bss	00000100 alt_irq
0804e428 g     F .text	00000060 _lseek_r
080563f4 g       *ABS*	00000000 __flash_rwdata_start
0804fccc g     F .text	00000088 .hidden __eqdf2
08058144 g       *ABS*	00000000 __alt_heap_start
0804c2b4 g     F .text	0000005c __sseek
08049930 g     F .text	00000010 __sinit
080523d4 g     F .text	000000fc alt_up_char_buffer_string
08049fd0 g     F .text	0000007c _setlocale_r
08049788 g     F .text	00000078 __sfmoreglue
08050864 g     F .text	00000024 __malloc_unlock
08052308 g     F .text	000000cc alt_up_char_buffer_draw
0804a99c g     F .text	0000015c memmove
08049918 g     F .text	00000018 _cleanup
0804aaf8 g     F .text	000000a8 _Balloc
08043344 g     F .text	00000070 .hidden __fixsfsi
08052568 g     F .text	000001a8 alt_up_pixel_buffer_dma_draw
08043e74 g     F .text	000000dc .hidden __gtdf2
08053cec g     F .text	00000024 altera_nios2_gen2_irq_init
0805252c g     F .text	0000003c alt_up_pixel_buffer_dma_open_dev
08040000 g     F .entry	0000000c __reset
08052144 g     F .text	00000048 adc_interrupt_disable
08040020 g       *ABS*	00000000 __flash_exceptions_start
0804e6a4 g     F .text	0000005c _fstat_r
08057fe4 g     O .bss	00000004 errno
0804c230 g     F .text	00000008 __seofread
0804c5c4 g     F .text	000013a0 ___svfiprintf_internal_r
08051e34 g     F .text	00000074 altera_modular_adc_init
08057ff0 g     O .bss	00000004 alt_argv
0805e3a8 g       *ABS*	00000000 _gp
08050ca0 g     F .text	00000030 usleep
08042e60 g     F .text	000004e4 .hidden __subsf3
08052710 g     F .text	0000005c alt_up_pixel_buffer_dma_change_back_buffer_address
080550f0 g     O .rwdata	00000180 alt_fd_list
080537bc g     F .text	00000090 alt_find_dev
08045548 g     F .text	00000148 memcpy
080524d0 g     F .text	0000005c alt_up_char_buffer_clear
080495d8 g     F .text	0000000c _cleanup_r
0804fd54 g     F .text	000000dc .hidden __floatsidf
08052048 g     F .text	0000003c adc_set_mode_run_continuously
080539ec g     F .text	0000007c alt_io_redirect
08043f50 g     F .text	000000f4 .hidden __ltdf2
08054270 g       *ABS*	00000000 __DTOR_END__
08045878 g     F .text	00000014 puts
0805386c g     F .text	0000009c alt_exception_cause_generated_bad_addr
0804c114 g     F .text	00000074 __fpclassifyd
0804b994 g     F .text	000000a4 __ratio
080527cc g     F .text	00000034 alt_up_pixel_buffer_dma_check_swap_buffers_status
080517ac g     F .text	0000021c altera_avalon_jtag_uart_read
08040000 g       *ABS*	00000000 __alt_mem_onchip_memory2_0
08042cf0 g     F .text	00000064 .hidden __udivsi3
08050514 g     F .text	000000ac isatty
08054668 g     O .rodata	000000c8 __mprec_tens
08052c38 g     F .text	00000230 alt_up_pixel_buffer_dma_draw_hline
0804a04c g     F .text	0000000c __locale_charset
08042b84 g     F .text	00000074 .hidden __fixunsdfsi
080563a8 g     O .rwdata	00000004 main_menu_flag
08057fe0 g     O .bss	00000004 __malloc_top_pad
080563b8 g     O .rwdata	00000004 __mb_cur_max
0804a07c g     F .text	0000000c _localeconv_r
0804af2c g     F .text	0000003c __i2b
08049980 g     F .text	000004c8 __sfvwrite_r
0804c188 g     F .text	00000054 _sbrk_r
0805319c g     F .text	000000c0 helper_plot_pixel
0804e644 g     F .text	00000060 _read_r
080563ec g     O .rwdata	00000008 altera_modular_adc_list
080563d4 g     O .rwdata	00000004 alt_max_fd
0804dc48 g     F .text	000000f0 _fclose_r
0804dfc4 g     F .text	00000030 fflush
08057fdc g     O .bss	00000004 __malloc_max_sbrked_mem
0804522c g     F .text	00000110 .hidden __extendsfdf2
0804f420 g     F .text	000008ac .hidden __adddf3
0804b73c g     F .text	0000010c __b2d
08052800 g     F .text	0000013c alt_up_pixel_buffer_dma_clear_screen
0804ee5c g     F .text	000005c4 .hidden __umoddi3
080506e8 g     F .text	000000dc lseek
080563b0 g     O .rwdata	00000004 _global_impure_ptr
0804bbb0 g     F .text	00000564 _realloc_r
08058144 g       *ABS*	00000000 __bss_end
080503e8 g     F .text	000000f0 alt_iic_isr_register
0805293c g     F .text	000002fc alt_up_pixel_buffer_dma_draw_box
08050b98 g     F .text	00000108 alt_tick
0804e860 g     F .text	000005fc .hidden __udivdi3
08052210 g     F .text	0000003c adc_wait_for_interrupt
08054640 g     O .rodata	00000028 __mprec_bigtens
0804ad10 g     F .text	00000104 __s2b
0804fe30 g     F .text	000000a8 .hidden __floatunsidf
0804b47c g     F .text	00000060 __mcmp
08049950 g     F .text	00000018 __fp_lock_all
0805039c g     F .text	0000004c alt_ic_irq_enabled
08050afc g     F .text	0000009c alt_alarm_stop
08057fe8 g     O .bss	00000004 alt_irq_active
080400fc g     F .exceptions	000000d4 alt_irq_handler
080550c8 g     O .rwdata	00000028 alt_dev_null
08052008 g     F .text	00000040 adc_set_mode_run_once
080535fc g     F .text	00000020 alt_dcache_flush_all
0804ae14 g     F .text	00000068 __hi0bits
080530d4 g     F .text	000000c8 alt_up_pixel_buffer_dma_draw_rectangle
080451ac g     F .text	00000080 .hidden __fixdfsi
080563f4 g       *ABS*	00000000 __ram_rwdata_end
080563cc g     O .rwdata	00000008 alt_dev_list
08050d0c g     F .text	00000100 write
0805325c g     F .text	00000248 alt_up_pixel_buffer_dma_draw_line
08054824 g       *ABS*	00000000 __ram_rodata_end
08050180 g     F .text	000000b8 fstat
08043f50 g     F .text	000000f4 .hidden __ledf2
0804b1f4 g     F .text	00000140 __pow5mult
08051fd0 g     F .text	00000038 adc_start
08057fd4 g     O .bss	00000004 __nlocale_changed
08042d54 g     F .text	00000058 .hidden __umodsi3
08058144 g       *ABS*	00000000 end
0805224c g     F .text	00000080 alt_up_char_buffer_init
080512e8 g     F .text	000000c0 altera_avalon_jtag_uart_init
080401d0 g     F .exceptions	00000060 alt_instruction_exception_entry
08042dd4 g     F .text	0000008c .hidden __trampoline_setup
08054270 g       *ABS*	00000000 __CTOR_LIST__
080680a0 g       *ABS*	00000000 __alt_stack_pointer
08051c64 g     F .text	0000007c alt_avalon_timer_sc_init
080454e4 g     F .text	00000064 .hidden __clzsi2
080519c8 g     F .text	00000224 altera_avalon_jtag_uart_write
08049940 g     F .text	00000004 __sfp_lock_acquire
0804a8b8 g     F .text	000000e4 memchr
08045908 g     F .text	00000058 _sprintf_r
0804e118 g     F .text	00000310 _free_r
0804a058 g     F .text	00000010 __locale_mb_cur_max
080540bc g     F .text	00000180 __call_exitprocs
08057fd0 g     O .bss	00000004 __mlocale_changed
080563bc g     O .rwdata	00000004 __malloc_sbrk_base
08040230 g     F .text	0000003c _start
08057ff8 g     O .bss	00000004 _alt_tick_rate
080458a4 g     F .text	00000064 rand
0804b334 g     F .text	00000148 __lshift
08057ffc g     O .bss	00000004 _alt_nticks
080508c4 g     F .text	00000104 read
08050e78 g     F .text	0000030c alt_sys_init
0804c3f4 g     F .text	000001d0 __ssprint_r
08053fa4 g     F .text	00000118 __register_exitproc
0804af68 g     F .text	0000028c __multiply
08051654 g     F .text	00000068 altera_avalon_jtag_uart_close
08042dac g     F .text	00000028 .hidden __mulsi3
08054824 g       *ABS*	00000000 __ram_rwdata_start
08054270 g       *ABS*	00000000 __ram_rodata_start
0805801c g     O .bss	00000028 __malloc_current_mallinfo
0804b848 g     F .text	0000014c __d2b
08051184 g     F .text	00000060 altera_avalon_jtag_uart_read_fd
08053e18 g     F .text	000000c4 alt_get_fd
080534a4 g     F .text	00000158 alt_busy_sleep
0804db18 g     F .text	00000054 _close_r
08053f28 g     F .text	0000007c memcmp
08051244 g     F .text	00000050 altera_avalon_jtag_uart_close_fd
08058144 g       *ABS*	00000000 __alt_stack_base
08051294 g     F .text	00000054 altera_avalon_jtag_uart_ioctl_fd
0804d9c4 g     F .text	00000154 __swsetup_r
08052100 g     F .text	00000044 adc_interrupt_enable
080434a4 g     F .text	000009d0 .hidden __divdf3
08049800 g     F .text	00000118 __sfp
0804baac g     F .text	00000078 __copybits
08057fc4 g     O .bss	00000004 pause_flag
08054cc0 g     O .rwdata	00000408 __malloc_av_
0804994c g     F .text	00000004 __sinit_lock_release
08044044 g     F .text	0000086c .hidden __muldf3
0804c1dc g     F .text	00000054 __sread
08053d10 g     F .text	00000108 alt_find_file
08053658 g     F .text	000000a4 alt_dev_llist_insert
08050840 g     F .text	00000024 __malloc_lock
08050a4c g     F .text	000000b0 sbrk
08045a64 g     F .text	000022bc ___svfprintf_internal_r
0804df68 g     F .text	0000005c _fflush_r
0804db6c g     F .text	000000dc _calloc_r
08057fc4 g       *ABS*	00000000 __bss_start
08045690 g     F .text	00000128 memset
08040378 g     F .text	000009e4 main
08057ff4 g     O .bss	00000004 alt_envp
08057fd8 g     O .bss	00000004 __malloc_max_total_mem
0805276c g     F .text	00000060 alt_up_pixel_buffer_dma_swap_buffers
080522cc g     F .text	0000003c alt_up_char_buffer_open_dev
080511e4 g     F .text	00000060 altera_avalon_jtag_uart_write_fd
0804588c g     F .text	00000018 srand
08051d88 g     F .text	000000ac alt_adc_word_read
0804c310 g     F .text	00000008 __sclose
080680a0 g       *ABS*	00000000 __alt_heap_limit
0804dd38 g     F .text	00000014 fclose
0804533c g     F .text	000001a8 .hidden __truncdfsf2
08047f48 g     F .text	00001688 _dtoa_r
0804a0ac g     F .text	0000080c _malloc_r
080563d8 g     O .rwdata	00000004 alt_errno
08049e48 g     F .text	000000c4 _fwalk
08042bf8 g     F .text	00000084 .hidden __divsi3
0804dff4 g     F .text	00000124 _malloc_trim_r
08054270 g       *ABS*	00000000 __CTOR_END__
0804c318 g     F .text	000000dc strcmp
08054270 g       *ABS*	00000000 __flash_rodata_start
08054270 g       *ABS*	00000000 __DTOR_LIST__
080402b4 g     F .text	00000064 init_pio_interrupt
0804fccc g     F .text	00000088 .hidden __nedf2
08050e40 g     F .text	00000038 alt_irq_init
080509c8 g     F .text	00000084 alt_release_fd
08045960 g     F .text	0000006c sprintf
08054482 g     O .rodata	00000100 .hidden __clz_tab
08057fcc g     O .bss	00000004 _PathLocale
08053edc g     F .text	00000014 atexit
0804d964 g     F .text	00000060 _write_r
0804a088 g     F .text	00000018 setlocale
080563b4 g     O .rwdata	00000004 _impure_ptr
08057fec g     O .bss	00000004 alt_argc
0804dd4c g     F .text	0000021c __sflush_r
0805375c g     F .text	00000060 _do_dtors
0804a074 g     F .text	00000008 __locale_cjk_lang
08040020 g       .exceptions	00000000 alt_irq_entry
0804b6d8 g     F .text	00000064 __ulp
08049968 g     F .text	00000018 __fp_unlock_all
080563c4 g     O .rwdata	00000008 alt_fs_list
08040020 g       *ABS*	00000000 __ram_exceptions_start
0804a0a0 g     F .text	0000000c localeconv
04000000 g       *ABS*	00000000 __alt_mem_new_sdram_controller_0
08050238 g     F .text	00000050 alt_ic_isr_register
080563f4 g       *ABS*	00000000 _edata
08058144 g       *ABS*	00000000 _end
080521d0 g     F .text	00000040 adc_interrupt_asserted
08040230 g       *ABS*	00000000 __ram_exceptions_end
080516bc g     F .text	000000f0 altera_avalon_jtag_uart_ioctl
08057fc8 g     O .bss	00000004 game_clear_flag
08050310 g     F .text	0000008c alt_ic_irq_disable
0804c238 g     F .text	0000007c __swrite
080563c0 g     O .rwdata	00000004 __malloc_trim_threshold
0805218c g     F .text	00000044 adc_clear_interrupt_status
0804a068 g     F .text	0000000c __locale_msgcharset
08053ef0 g     F .text	00000038 exit
08049f0c g     F .text	000000c4 _fwalk_reent
080433b4 g     F .text	000000f0 .hidden __floatunsisf
0804b4dc g     F .text	000001fc __mdiff
08042c7c g     F .text	00000074 .hidden __modsi3
080680a0 g       *ABS*	00000000 __alt_data_end
08040020 g     F .exceptions	00000000 alt_exception
08049944 g     F .text	00000004 __sfp_lock_release
08051f40 g     F .text	00000040 altera_modular_adc_open
0805423c g     F .text	00000034 _exit
0804fed8 g     F .text	0000012c alt_alarm_start
0804e754 g     F .text	0000010c .hidden __muldi3
0804e488 g     F .text	000001bc __smakebuf_r
080459cc g     F .text	00000098 strlen
08053b90 g     F .text	0000015c open
08043e74 g     F .text	000000dc .hidden __gedf2
08052084 g     F .text	0000007c adc_recalibrate
0805384c g     F .text	00000020 alt_icache_flush_all
080563dc g     O .rwdata	00000004 alt_priority_mask
08050288 g     F .text	00000088 alt_ic_irq_enable
080448b0 g     F .text	000008fc .hidden __subdf3
0804ae7c g     F .text	000000b0 __lo0bits
080563e4 g     O .rwdata	00000008 alt_alarm_list
080536fc g     F .text	00000060 _do_ctors
08050040 g     F .text	000000d8 close
08050628 g     F .text	00000084 alt_load
08051ea8 g     F .text	00000098 alt_adc_register_callback
08049948 g     F .text	00000004 __sinit_lock_acquire
0804abc8 g     F .text	00000148 __multadd
0804aba0 g     F .text	00000028 _Bfree



Disassembly of section .entry:

08040000 <__reset>:
 * Jump to the _start entry point in the .text section if reset code
 * is allowed or if optimizing for RTL simulation.
 */
#if defined(ALT_ALLOW_CODE_AT_RESET) || defined(ALT_SIM_OPTIMIZE)
    /* Jump to the _start entry point in the .text section. */
    movhi r1, %hi(_start)
 8040000:	00420134 	movhi	at,2052
    ori r1, r1, %lo(_start)
 8040004:	08408c14 	ori	at,at,560
    jmp r1
 8040008:	0800683a 	jmp	at
	...

Disassembly of section .exceptions:

08040020 <alt_exception>:

#else /* ALT_EXCEPTION_STACK disabled */
        /* 
         * Reserve space on normal stack for registers about to be pushed.
         */
        addi  sp, sp, -76
 8040020:	deffed04 	addi	sp,sp,-76
         * documentation for details).
         *
         * Leave a gap in the stack frame at 4(sp) for the muldiv handler to
         * store zero into.
         */
        stw   ra,  0(sp)
 8040024:	dfc00015 	stw	ra,0(sp)
        stw   r1,   8(sp)
 8040028:	d8400215 	stw	at,8(sp)
        stw   r2,  12(sp)
 804002c:	d8800315 	stw	r2,12(sp)
        stw   r3,  16(sp)
 8040030:	d8c00415 	stw	r3,16(sp)
        stw   r4,  20(sp)
 8040034:	d9000515 	stw	r4,20(sp)
        stw   r5,  24(sp)
 8040038:	d9400615 	stw	r5,24(sp)
        stw   r6,  28(sp)
 804003c:	d9800715 	stw	r6,28(sp)
        stw   r7,  32(sp)
 8040040:	d9c00815 	stw	r7,32(sp)
        rdctl r5, estatus   /* Read early to avoid usage stall */
 8040044:	000b307a 	rdctl	r5,estatus
        stw   r8,  36(sp)
 8040048:	da000915 	stw	r8,36(sp)
        stw   r9,  40(sp)
 804004c:	da400a15 	stw	r9,40(sp)
        stw   r10, 44(sp)
 8040050:	da800b15 	stw	r10,44(sp)
        stw   r11, 48(sp)
 8040054:	dac00c15 	stw	r11,48(sp)
        stw   r12, 52(sp)
 8040058:	db000d15 	stw	r12,52(sp)
        stw   r13, 56(sp)
 804005c:	db400e15 	stw	r13,56(sp)
        stw   r14, 60(sp)
 8040060:	db800f15 	stw	r14,60(sp)
        stw   r15, 64(sp)
 8040064:	dbc01015 	stw	r15,64(sp)
        /*
         * ea-4 contains the address of the instruction being executed
         * when the exception occured. For interrupt exceptions, we will
         * will be re-issue the isntruction. Store it in 72(sp)
         */
        stw   r5,  68(sp)  /* estatus */
 8040068:	d9401115 	stw	r5,68(sp)
        addi  r15, ea, -4  /* instruction that caused exception */
 804006c:	ebffff04 	addi	r15,ea,-4
        stw   r15,  72(sp)
 8040070:	dbc01215 	stw	r15,72(sp)
#else
        /*
         * Test to see if the exception was a software exception or caused 
         * by an external interrupt, and vector accordingly.
         */
        rdctl r4, ipending
 8040074:	0009313a 	rdctl	r4,ipending
        andi  r2, r5, 1
 8040078:	2880004c 	andi	r2,r5,1
        beq   r2, zero, .Lnot_irq
 804007c:	10000326 	beq	r2,zero,804008c <alt_exception+0x6c>
        beq   r4, zero, .Lnot_irq
 8040080:	20000226 	beq	r4,zero,804008c <alt_exception+0x6c>
        /*
         * Now that all necessary registers have been preserved, call 
         * alt_irq_handler() to process the interrupts.
         */

        call alt_irq_handler
 8040084:	80400fc0 	call	80400fc <alt_irq_handler>

        .section .exceptions.irqreturn, "xa"

        br    .Lexception_exit
 8040088:	00000706 	br	80400a8 <alt_exception+0x88>
         * upon completion, so we write ea (address of instruction *after*
         * the one where the exception occured) into 72(sp). The actual
         * instruction that caused the exception is written in r2, which these
         * handlers will utilize.
         */
        stw ea, 72(sp) /* EA is PC+4 so will skip over instruction causing exception */
 804008c:	df401215 	stw	ea,72(sp)
.Lunknown_16bit:
        addi.n r4, r4, 2 /* Need PC+2 to skip over instruction causing exception */
        stw r4, 72(sp)

#else /* CDX is not Enabled and all instructions are 32bits */
        ldw r2, -4(ea) /* Instruction value that caused exception */
 8040090:	e8bfff17 	ldw	r2,-4(ea)
         * debugger is present) or go into an infinite loop since the
         * handling behavior is undefined; in that case we will not return here.
         */

        /* Load exception-causing address as first argument (r4) */
        addi   r4, ea, -4
 8040094:	e93fff04 	addi	r4,ea,-4

        /* Call the instruction-exception entry */
        call   alt_instruction_exception_entry
 8040098:	80401d00 	call	80401d0 <alt_instruction_exception_entry>
         * instruction
         *
         * Return code was 0: Skip. The instruction after the exception is
         * already stored in 72(sp).
         */
        bne   r2, r0, .Lexception_exit
 804009c:	1000021e 	bne	r2,zero,80400a8 <alt_exception+0x88>

        /*
         * Otherwise, modify 72(sp) to re-issue the instruction that caused the
         * exception.
         */
        addi  r15, ea, -4  /* instruction that caused exception */
 80400a0:	ebffff04 	addi	r15,ea,-4
        stw   r15,  72(sp)
 80400a4:	dbc01215 	stw	r15,72(sp)
        /* 
         * Restore the saved registers, so that all general purpose registers 
         * have been restored to their state at the time the interrupt occured.
         */

        ldw   r5,  68(sp)
 80400a8:	d9401117 	ldw	r5,68(sp)
        ldw   ea,  72(sp)  /* This becomes the PC once eret is executed */
 80400ac:	df401217 	ldw	ea,72(sp)
        ldw   ra,   0(sp)
 80400b0:	dfc00017 	ldw	ra,0(sp)

        wrctl estatus, r5
 80400b4:	2801707a 	wrctl	estatus,r5

        ldw   r1,   8(sp)
 80400b8:	d8400217 	ldw	at,8(sp)
        ldw   r2,  12(sp)
 80400bc:	d8800317 	ldw	r2,12(sp)
        ldw   r3,  16(sp)
 80400c0:	d8c00417 	ldw	r3,16(sp)
        ldw   r4,  20(sp)
 80400c4:	d9000517 	ldw	r4,20(sp)
        ldw   r5,  24(sp)
 80400c8:	d9400617 	ldw	r5,24(sp)
        ldw   r6,  28(sp)
 80400cc:	d9800717 	ldw	r6,28(sp)
        ldw   r7,  32(sp)
 80400d0:	d9c00817 	ldw	r7,32(sp)

#if defined(ALT_EXCEPTION_STACK) && defined(ALT_STACK_CHECK)
        ldw   et, %gprel(alt_exception_old_stack_limit)(gp)
#endif

        ldw   r8,  36(sp)
 80400d4:	da000917 	ldw	r8,36(sp)
        ldw   r9,  40(sp)
 80400d8:	da400a17 	ldw	r9,40(sp)
        ldw   r10, 44(sp)
 80400dc:	da800b17 	ldw	r10,44(sp)
        ldw   r11, 48(sp)
 80400e0:	dac00c17 	ldw	r11,48(sp)
        ldw   r12, 52(sp)
 80400e4:	db000d17 	ldw	r12,52(sp)
        ldw   r13, 56(sp)
 80400e8:	db400e17 	ldw	r13,56(sp)
        ldw   r14, 60(sp)
 80400ec:	db800f17 	ldw	r14,60(sp)
        ldw   r15, 64(sp)
 80400f0:	dbc01017 	ldw	r15,64(sp)
        stw   et, %gprel(alt_stack_limit_value)(gp)
        stw   zero, %gprel(alt_exception_old_stack_limit)(gp)
#endif /* ALT_STACK_CHECK */
        ldw   sp,  76(sp)
#else /* ALT_EXCEPTION_STACK disabled */
        addi  sp, sp, 76
 80400f4:	dec01304 	addi	sp,sp,76

        /*
         * Return to the interrupted instruction.
         */

        eret
 80400f8:	ef80083a 	eret

080400fc <alt_irq_handler>:
 * instruction is present if the macro ALT_CI_INTERRUPT_VECTOR defined.
 */

void alt_irq_handler (void) __attribute__ ((section (".exceptions")));
void alt_irq_handler (void)
{
 80400fc:	defff904 	addi	sp,sp,-28
 8040100:	dfc00615 	stw	ra,24(sp)
 8040104:	df000515 	stw	fp,20(sp)
 8040108:	df000504 	addi	fp,sp,20
  
  /*
   * Notify the operating system that we are at interrupt level.
   */ 
  
  ALT_OS_INT_ENTER();
 804010c:	0001883a 	nop
#ifndef NIOS2_EIC_PRESENT
static ALT_INLINE alt_u32 ALT_ALWAYS_INLINE alt_irq_pending (void)
{
  alt_u32 active;

  NIOS2_READ_IPENDING (active);
 8040110:	0005313a 	rdctl	r2,ipending
 8040114:	e0bffe15 	stw	r2,-8(fp)

  return active;
 8040118:	e0bffe17 	ldw	r2,-8(fp)
   * Consider the case where the high priority interupt is asserted during
   * the interrupt entry sequence for a lower priority interrupt to see why
   * this is the case.
   */

  active = alt_irq_pending ();
 804011c:	e0bffb15 	stw	r2,-20(fp)

  do
  {
    i = 0;
 8040120:	e03ffd15 	stw	zero,-12(fp)
    mask = 1;
 8040124:	00800044 	movi	r2,1
 8040128:	e0bffc15 	stw	r2,-16(fp)
     * called to clear the interrupt condition.
     */

    do
    {
      if (active & mask)
 804012c:	e0fffb17 	ldw	r3,-20(fp)
 8040130:	e0bffc17 	ldw	r2,-16(fp)
 8040134:	1884703a 	and	r2,r3,r2
 8040138:	10001426 	beq	r2,zero,804018c <alt_irq_handler+0x90>
      { 
#ifdef ALT_ENHANCED_INTERRUPT_API_PRESENT
        alt_irq[i].handler(alt_irq[i].context); 
 804013c:	008201b4 	movhi	r2,2054
 8040140:	10a01104 	addi	r2,r2,-32700
 8040144:	e0fffd17 	ldw	r3,-12(fp)
 8040148:	180690fa 	slli	r3,r3,3
 804014c:	10c5883a 	add	r2,r2,r3
 8040150:	10c00017 	ldw	r3,0(r2)
 8040154:	008201b4 	movhi	r2,2054
 8040158:	10a01104 	addi	r2,r2,-32700
 804015c:	e13ffd17 	ldw	r4,-12(fp)
 8040160:	200890fa 	slli	r4,r4,3
 8040164:	1105883a 	add	r2,r2,r4
 8040168:	10800104 	addi	r2,r2,4
 804016c:	10800017 	ldw	r2,0(r2)
 8040170:	1009883a 	mov	r4,r2
 8040174:	183ee83a 	callr	r3
#else
        alt_irq[i].handler(alt_irq[i].context, i); 
#endif
        break;
 8040178:	0001883a 	nop
#ifndef NIOS2_EIC_PRESENT
static ALT_INLINE alt_u32 ALT_ALWAYS_INLINE alt_irq_pending (void)
{
  alt_u32 active;

  NIOS2_READ_IPENDING (active);
 804017c:	0005313a 	rdctl	r2,ipending
 8040180:	e0bfff15 	stw	r2,-4(fp)

  return active;
 8040184:	e0bfff17 	ldw	r2,-4(fp)
 8040188:	00000706 	br	80401a8 <alt_irq_handler+0xac>
      }
      mask <<= 1;
 804018c:	e0bffc17 	ldw	r2,-16(fp)
 8040190:	1085883a 	add	r2,r2,r2
 8040194:	e0bffc15 	stw	r2,-16(fp)
      i++;
 8040198:	e0bffd17 	ldw	r2,-12(fp)
 804019c:	10800044 	addi	r2,r2,1
 80401a0:	e0bffd15 	stw	r2,-12(fp)

    } while (1);
 80401a4:	003fe106 	br	804012c <__alt_data_end+0xfffd808c>

    active = alt_irq_pending ();
 80401a8:	e0bffb15 	stw	r2,-20(fp)
    
  } while (active);
 80401ac:	e0bffb17 	ldw	r2,-20(fp)
 80401b0:	103fdb1e 	bne	r2,zero,8040120 <__alt_data_end+0xfffd8080>

  /*
   * Notify the operating system that interrupt processing is complete.
   */ 

  ALT_OS_INT_EXIT();
 80401b4:	0001883a 	nop
}
 80401b8:	0001883a 	nop
 80401bc:	e037883a 	mov	sp,fp
 80401c0:	dfc00117 	ldw	ra,4(sp)
 80401c4:	df000017 	ldw	fp,0(sp)
 80401c8:	dec00204 	addi	sp,sp,8
 80401cc:	f800283a 	ret

080401d0 <alt_instruction_exception_entry>:
 * that handler if it has been registered. Absent a handler, it will
 * break break or hang as discussed below.
 */
int 
alt_instruction_exception_entry (alt_u32 exception_pc)
{
 80401d0:	defffb04 	addi	sp,sp,-20
 80401d4:	dfc00415 	stw	ra,16(sp)
 80401d8:	df000315 	stw	fp,12(sp)
 80401dc:	df000304 	addi	fp,sp,12
 80401e0:	e13fff15 	stw	r4,-4(fp)
  cause = ( (cause & NIOS2_EXCEPTION_REG_CAUSE_MASK) >>
              NIOS2_EXCEPTION_REG_CAUSE_OFST );

  NIOS2_READ_BADADDR(badaddr);
#else
  cause = NIOS2_EXCEPTION_CAUSE_NOT_PRESENT;
 80401e4:	00bfffc4 	movi	r2,-1
 80401e8:	e0bffd15 	stw	r2,-12(fp)
  badaddr = 0;
 80401ec:	e03ffe15 	stw	zero,-8(fp)
#endif /* NIOS2_HAS_EXTRA_EXCEPTION_INFO */

  if(alt_instruction_exception_handler) {
 80401f0:	d0a71617 	ldw	r2,-25512(gp)
 80401f4:	10000726 	beq	r2,zero,8040214 <alt_instruction_exception_entry+0x44>
     * Call handler. Its return value indicates whether the exception-causing
     * instruction should be re-issued. The code that called us,
     * alt_eceptions_entry.S, will look at this value and adjust the ea
     * register as necessary
     */
    return alt_instruction_exception_handler(cause, exception_pc, badaddr);
 80401f8:	d0a71617 	ldw	r2,-25512(gp)
 80401fc:	e0fffd17 	ldw	r3,-12(fp)
 8040200:	e1bffe17 	ldw	r6,-8(fp)
 8040204:	e17fff17 	ldw	r5,-4(fp)
 8040208:	1809883a 	mov	r4,r3
 804020c:	103ee83a 	callr	r2
 8040210:	00000206 	br	804021c <alt_instruction_exception_entry+0x4c>
   *    (a peripheral which negates its interrupt output before its
   *    interrupt handler has been executed will cause spurious interrupts)
   */
  else {
#ifdef NIOS2_HAS_DEBUG_STUB
    NIOS2_BREAK();
 8040214:	003da03a 	break	0
      ;
#endif /* NIOS2_HAS_DEBUG_STUB */
  }

  /* We should not get here. Remove compiler warning. */
  return NIOS2_EXCEPTION_RETURN_REISSUE_INST;
 8040218:	0005883a 	mov	r2,zero
}
 804021c:	e037883a 	mov	sp,fp
 8040220:	dfc00117 	ldw	ra,4(sp)
 8040224:	df000017 	ldw	fp,0(sp)
 8040228:	dec00204 	addi	sp,sp,8
 804022c:	f800283a 	ret

Disassembly of section .text:

08040230 <_start>:

    /*
     * Now that the caches are initialized, set up the stack pointer and global pointer.
     * The values provided by the linker are assumed to be correctly aligned.
     */
    movhi sp, %hi(__alt_stack_pointer)
 8040230:	06c201b4 	movhi	sp,2054
    ori sp, sp, %lo(__alt_stack_pointer)
 8040234:	dee02814 	ori	sp,sp,32928
    movhi gp, %hi(_gp)
 8040238:	06820174 	movhi	gp,2053
    ori gp, gp, %lo(_gp)
 804023c:	d6b8ea14 	ori	gp,gp,58280
 */
#ifndef ALT_SIM_OPTIMIZE
    /* Log that the BSS is about to be cleared. */
    ALT_LOG_PUTS(alt_log_msg_bss)

    movhi r2, %hi(__bss_start)
 8040240:	00820174 	movhi	r2,2053
    ori r2, r2, %lo(__bss_start)
 8040244:	109ff114 	ori	r2,r2,32708

    movhi r3, %hi(__bss_end)
 8040248:	00c20174 	movhi	r3,2053
    ori r3, r3, %lo(__bss_end)
 804024c:	18e05114 	ori	r3,r3,33092

    beq r2, r3, 1f
 8040250:	10c00326 	beq	r2,r3,8040260 <_start+0x30>

0:
    stw zero, (r2)
 8040254:	10000015 	stw	zero,0(r2)
    addi r2, r2, 4
 8040258:	10800104 	addi	r2,r2,4
    bltu r2, r3, 0b
 804025c:	10fffd36 	bltu	r2,r3,8040254 <__alt_data_end+0xfffd81b4>
     * section aren't defined until alt_load() has been called).
     */
    mov   et, zero
#endif

    call alt_load
 8040260:	80506280 	call	8050628 <alt_load>

    /* Log that alt_main is about to be called. */
    ALT_LOG_PUTS(alt_log_msg_alt_main)

    /* Call the C entry point. It should never return. */
    call alt_main
 8040264:	80507c40 	call	80507c4 <alt_main>

08040268 <alt_after_alt_main>:

    /* Wait in infinite loop in case alt_main does return. */
alt_after_alt_main:
    br alt_after_alt_main
 8040268:	003fff06 	br	8040268 <__alt_data_end+0xfffd81c8>

0804026c <pio_isr>:
int game_clear_flag = 0;
int game_flag = SNAKE_FLAG;

// Interrupt setup for PIO
static void pio_isr(void * context, alt_u32 id)    //this is the ISR
{
 804026c:	defffd04 	addi	sp,sp,-12
 8040270:	df000215 	stw	fp,8(sp)
 8040274:	df000204 	addi	fp,sp,8
 8040278:	e13ffe15 	stw	r4,-8(fp)
 804027c:	e17fff15 	stw	r5,-4(fp)
	pause_flag = !pause_flag;
 8040280:	d0a70717 	ldw	r2,-25572(gp)
 8040284:	1005003a 	cmpeq	r2,r2,zero
 8040288:	10803fcc 	andi	r2,r2,255
 804028c:	d0a70715 	stw	r2,-25572(gp)
	IOWR_ALTERA_AVALON_PIO_EDGE_CAP(SW_BASE, 0x0);    //resets edge capture register so interrupt can be triggered again
 8040290:	0007883a 	mov	r3,zero
 8040294:	00820234 	movhi	r2,2056
 8040298:	108c9f04 	addi	r2,r2,12924
 804029c:	10c00035 	stwio	r3,0(r2)
	                                                    //can write anything to the register to reset it, does not have to be 0x0
}
 80402a0:	0001883a 	nop
 80402a4:	e037883a 	mov	sp,fp
 80402a8:	df000017 	ldw	fp,0(sp)
 80402ac:	dec00104 	addi	sp,sp,4
 80402b0:	f800283a 	ret

080402b4 <init_pio_interrupt>:
void init_pio_interrupt()
{
 80402b4:	defffd04 	addi	sp,sp,-12
 80402b8:	dfc00215 	stw	ra,8(sp)
 80402bc:	df000115 	stw	fp,4(sp)
 80402c0:	df000104 	addi	fp,sp,4
	alt_ic_isr_register(SW_IRQ_INTERRUPT_CONTROLLER_ID, SW_IRQ, (void *)pio_isr, NULL, 0x0);    //connects the ISR with the IRQ. Also requires *context and can choose a flag?
 80402c4:	d8000015 	stw	zero,0(sp)
 80402c8:	000f883a 	mov	r7,zero
 80402cc:	01820134 	movhi	r6,2052
 80402d0:	31809b04 	addi	r6,r6,620
 80402d4:	01400084 	movi	r5,2
 80402d8:	0009883a 	mov	r4,zero
 80402dc:	80502380 	call	8050238 <alt_ic_isr_register>
	IOWR_ALTERA_AVALON_PIO_IRQ_MASK(SW_BASE, 0x20);    //0x20 = 0b0010_0000, so this will trigger an interrupt on rising edge of sw[2]
 80402e0:	00c00804 	movi	r3,32
 80402e4:	00820234 	movhi	r2,2056
 80402e8:	108c9e04 	addi	r2,r2,12920
 80402ec:	10c00035 	stwio	r3,0(r2)
	IOWR_ALTERA_AVALON_PIO_EDGE_CAP(SW_BASE, 0x0);    //resets edge capture register
 80402f0:	0007883a 	mov	r3,zero
 80402f4:	00820234 	movhi	r2,2056
 80402f8:	108c9f04 	addi	r2,r2,12924
 80402fc:	10c00035 	stwio	r3,0(r2)
}
 8040300:	0001883a 	nop
 8040304:	e037883a 	mov	sp,fp
 8040308:	dfc00117 	ldw	ra,4(sp)
 804030c:	df000017 	ldw	fp,0(sp)
 8040310:	dec00204 	addi	sp,sp,8
 8040314:	f800283a 	ret

08040318 <alarm_callback.3516>:
	char time_str[10];
	sprintf(time_str, "Time: %u", pong_game.time);
	char score_str[20];

	// Alarm setup - executes the callback function periodically (every second)
	alt_u32 alarm_callback(void *context) {
 8040318:	defffc04 	addi	sp,sp,-16
 804031c:	dfc00315 	stw	ra,12(sp)
 8040320:	df000215 	stw	fp,8(sp)
 8040324:	df000204 	addi	fp,sp,8
 8040328:	e13ffe15 	stw	r4,-8(fp)
 804032c:	6005883a 	mov	r2,r12
 8040330:	e33fff15 	stw	r12,-4(fp)
		pong_game.time += 1;
 8040334:	10c02717 	ldw	r3,156(r2)
 8040338:	18c00044 	addi	r3,r3,1
 804033c:	10c02715 	stw	r3,156(r2)
		sprintf(time_str, "Time: %u", pong_game.time);
 8040340:	10c02804 	addi	r3,r2,160
 8040344:	10802717 	ldw	r2,156(r2)
 8040348:	100d883a 	mov	r6,r2
 804034c:	01420174 	movhi	r5,2053
 8040350:	29509c04 	addi	r5,r5,17008
 8040354:	1809883a 	mov	r4,r3
 8040358:	80459600 	call	8045960 <sprintf>
 * Obtain the system clock rate in ticks/s. 
 */

static ALT_INLINE alt_u32 ALT_ALWAYS_INLINE alt_ticks_per_second (void)
{
  return _alt_tick_rate;
 804035c:	d0a71417 	ldw	r2,-25520(gp)
		return alt_ticks_per_second();
 8040360:	0001883a 	nop
	}
 8040364:	e037883a 	mov	sp,fp
 8040368:	dfc00117 	ldw	ra,4(sp)
 804036c:	df000017 	ldw	fp,0(sp)
 8040370:	dec00204 	addi	sp,sp,8
 8040374:	f800283a 	ret

08040378 <main>:
	IOWR_ALTERA_AVALON_PIO_IRQ_MASK(SW_BASE, 0x20);    //0x20 = 0b0010_0000, so this will trigger an interrupt on rising edge of sw[2]
	IOWR_ALTERA_AVALON_PIO_EDGE_CAP(SW_BASE, 0x0);    //resets edge capture register
}

int main()
{
 8040378:	defc8604 	addi	sp,sp,-3560
 804037c:	dfc37915 	stw	ra,3556(sp)
 8040380:	df037815 	stw	fp,3552(sp)
 8040384:	df037804 	addi	fp,sp,3552
	alt_ic_isr_register(SW_IRQ_INTERRUPT_CONTROLLER_ID, SW_IRQ, (void *)pio_isr, NULL, 0x0);    //connects the ISR with the IRQ. Also requires *context and can choose a flag?
	IOWR_ALTERA_AVALON_PIO_IRQ_MASK(SW_BASE, 0x20);    //0x20 = 0b0010_0000, so this will trigger an interrupt on rising edge of sw[2]
	IOWR_ALTERA_AVALON_PIO_EDGE_CAP(SW_BASE, 0x0);    //resets edge capture register
}

int main()
 8040388:	e0bc9b04 	addi	r2,fp,-3476
 804038c:	10802b04 	addi	r2,r2,172
 8040390:	e0fc9b04 	addi	r3,fp,-3476
 8040394:	180d883a 	mov	r6,r3
 8040398:	01420134 	movhi	r5,2052
 804039c:	2940c604 	addi	r5,r5,792
 80403a0:	1009883a 	mov	r4,r2
 80403a4:	8042dd40 	call	8042dd4 <__trampoline_setup>
{
	// Have to set up these pointers to open the device
	// Reference : https://faculty-web.msoe.edu/johnsontimoj/EE3921/files3921/nios_pixel_sw.pdf
	alt_up_pixel_buffer_dma_dev * pixel_buf_dma_dev;
	pixel_buf_dma_dev = alt_up_pixel_buffer_dma_open_dev(VIDEO_PIXEL_BUFFER_DMA_0_NAME);
 80403a8:	01020174 	movhi	r4,2053
 80403ac:	21109f04 	addi	r4,r4,17020
 80403b0:	805252c0 	call	805252c <alt_up_pixel_buffer_dma_open_dev>
 80403b4:	e0bc8e15 	stw	r2,-3528(fp)
	// Check for error
	if ( pixel_buf_dma_dev == NULL)
 80403b8:	e0bc8e17 	ldw	r2,-3528(fp)
 80403bc:	1000041e 	bne	r2,zero,80403d0 <main+0x58>
		printf ("Error: could not open pixel buffer device \n");
 80403c0:	01020174 	movhi	r4,2053
 80403c4:	2110a704 	addi	r4,r4,17052
 80403c8:	80458780 	call	8045878 <puts>
 80403cc:	00000306 	br	80403dc <main+0x64>
	else
		printf ("Opened pixel buffer device \n");
 80403d0:	01020174 	movhi	r4,2053
 80403d4:	2110b204 	addi	r4,r4,17096
 80403d8:	80458780 	call	8045878 <puts>
	alt_up_char_buffer_dev * char_buf_dev;
	char_buf_dev = alt_up_char_buffer_open_dev("/dev/video_character_buffer_with_dma_0");
 80403dc:	01020174 	movhi	r4,2053
 80403e0:	2110b904 	addi	r4,r4,17124
 80403e4:	80522cc0 	call	80522cc <alt_up_char_buffer_open_dev>
 80403e8:	e0bc8f15 	stw	r2,-3524(fp)
	if ( char_buf_dev == NULL)
 80403ec:	e0bc8f17 	ldw	r2,-3524(fp)
 80403f0:	1000041e 	bne	r2,zero,8040404 <main+0x8c>
		printf ("Error: could not open char buffer device \n");
 80403f4:	01020174 	movhi	r4,2053
 80403f8:	2110c304 	addi	r4,r4,17164
 80403fc:	80458780 	call	8045878 <puts>
 8040400:	00000306 	br	8040410 <main+0x98>
	else
		printf ("Opened char buffer device \n");
 8040404:	01020174 	movhi	r4,2053
 8040408:	2110ce04 	addi	r4,r4,17208
 804040c:	80458780 	call	8045878 <puts>

	alt_up_char_buffer_init(char_buf_dev);
 8040410:	e13c8f17 	ldw	r4,-3524(fp)
 8040414:	805224c0 	call	805224c <alt_up_char_buffer_init>
	alt_up_char_buffer_init(char_buf_dev);
 8040418:	e13c8f17 	ldw	r4,-3524(fp)
 804041c:	805224c0 	call	805224c <alt_up_char_buffer_init>

	// Game objects
	Game pong_game = {SCREEN_WIDTH, SCREEN_HEIGHT, {0,0}, NUM_BALLS, NUM_PADDLES,
 8040420:	00820174 	movhi	r2,2053
 8040424:	1090ed04 	addi	r2,r2,17332
 8040428:	e0fc9b04 	addi	r3,fp,-3476
 804042c:	1009883a 	mov	r4,r2
 8040430:	00802804 	movi	r2,160
 8040434:	100d883a 	mov	r6,r2
 8040438:	200b883a 	mov	r5,r4
 804043c:	1809883a 	mov	r4,r3
 8040440:	80455480 	call	8045548 <memcpy>
					{SCREEN_WIDTH-PADDLE_WIDTH, 0, 0, 0, PADDLE_WIDTH, PADDLE_HEIGHT, PADDLE_COLOUR}},
			0,0,0,0, // ADC values
			{0,0,0,0,0,0,0,0}, //User input
			0 // Game time in s
	};
	SnakeGame snake_game = {
 8040444:	e0bcf304 	addi	r2,fp,-3124
 8040448:	00c2d304 	movi	r3,2892
 804044c:	180d883a 	mov	r6,r3
 8040450:	000b883a 	mov	r5,zero
 8040454:	1009883a 	mov	r4,r2
 8040458:	80456900 	call	8045690 <memset>
 804045c:	00802804 	movi	r2,160
 8040460:	e0bcf315 	stw	r2,-3124(fp)
 8040464:	00801e04 	movi	r2,120
 8040468:	e0bcf415 	stw	r2,-3120(fp)
 804046c:	00800144 	movi	r2,5
 8040470:	e0bcf715 	stw	r2,-3108(fp)
 8040474:	00800144 	movi	r2,5
 8040478:	e0bcf815 	stw	r2,-3104(fp)
 804047c:	0083fc04 	movi	r2,4080
 8040480:	e0bcf915 	stw	r2,-3100(fp)
 8040484:	00800044 	movi	r2,1
 8040488:	e0bfaf15 	stw	r2,-324(fp)
 804048c:	00802d04 	movi	r2,180
 8040490:	e0bfb015 	stw	r2,-320(fp)
 8040494:	00801e04 	movi	r2,120
 8040498:	e0bfb115 	stw	r2,-316(fp)
 804049c:	00800144 	movi	r2,5
 80404a0:	e0bfb415 	stw	r2,-304(fp)
 80404a4:	00800144 	movi	r2,5
 80404a8:	e0bfb515 	stw	r2,-300(fp)
 80404ac:	00bc0014 	movui	r2,61440
 80404b0:	e0bfb615 	stw	r2,-296(fp)
 80404b4:	00800044 	movi	r2,1
 80404b8:	e0bfc215 	stw	r2,-248(fp)
 80404bc:	00800044 	movi	r2,1
 80404c0:	e0bfc315 	stw	r2,-244(fp)
			0 // Game over flag: 1=game over, 0=game running
	};

	//Display strings
	char time_str[10];
	sprintf(time_str, "Time: %u", pong_game.time);
 80404c4:	e0fcc217 	ldw	r3,-3320(fp)
 80404c8:	e0bc9b04 	addi	r2,fp,-3476
 80404cc:	10802804 	addi	r2,r2,160
 80404d0:	180d883a 	mov	r6,r3
 80404d4:	01420174 	movhi	r5,2053
 80404d8:	29509c04 	addi	r5,r5,17008
 80404dc:	1009883a 	mov	r4,r2
 80404e0:	80459600 	call	8045960 <sprintf>
 80404e4:	d0e71417 	ldw	r3,-25520(gp)
		sprintf(time_str, "Time: %u", pong_game.time);
		return alt_ticks_per_second();
	}
	static alt_alarm alarm;
	// Setup alarm to call the callback function every N_TICKS
	if (alt_alarm_start(&alarm, alt_ticks_per_second(), alarm_callback, NULL) < 0){
 80404e8:	e0bc9b04 	addi	r2,fp,-3476
 80404ec:	10802b04 	addi	r2,r2,172
 80404f0:	000f883a 	mov	r7,zero
 80404f4:	100d883a 	mov	r6,r2
 80404f8:	180b883a 	mov	r5,r3
 80404fc:	010201b4 	movhi	r4,2054
 8040500:	21200104 	addi	r4,r4,-32764
 8040504:	804fed80 	call	804fed8 <alt_alarm_start>
 8040508:	1000030e 	bge	r2,zero,8040518 <main+0x1a0>
		printf ("No System Clock Available\n");
 804050c:	01020174 	movhi	r4,2053
 8040510:	2110d504 	addi	r4,r4,17236
 8040514:	80458780 	call	8045878 <puts>

	}
	// ****************

	// Clear screen
	clear(pixel_buf_dma_dev, char_buf_dev,0); // Current screen
 8040518:	e0bc9b04 	addi	r2,fp,-3476
 804051c:	1019883a 	mov	r12,r2
 8040520:	000d883a 	mov	r6,zero
 8040524:	e17c8f17 	ldw	r5,-3524(fp)
 8040528:	e13c8e17 	ldw	r4,-3528(fp)
 804052c:	8041ac80 	call	8041ac8 <clear.3557>
	//clear(pixel_buf_dma_dev, 0, char_buf_dev); // Char buffer

	// Initialize interrupts
	init_pio_interrupt();
 8040530:	80402b40 	call	80402b4 <init_pio_interrupt>

	// ADC setup
	adc_stop(MODULAR_ADC_0_SEQUENCER_CSR_BASE);
 8040534:	01020234 	movhi	r4,2056
 8040538:	210ca804 	addi	r4,r4,12960
 804053c:	8051f800 	call	8051f80 <adc_stop>
	adc_set_mode_run_once(MODULAR_ADC_0_SEQUENCER_CSR_BASE);
 8040540:	01020234 	movhi	r4,2056
 8040544:	210ca804 	addi	r4,r4,12960
 8040548:	80520080 	call	8052008 <adc_set_mode_run_once>

	int count = 0;
 804054c:	e03c8b15 	stw	zero,-3540(fp)
	int MAX_COUNT = 500;
 8040550:	00807d04 	movi	r2,500
 8040554:	e0bc9015 	stw	r2,-3520(fp)
	while(1) {
		int bt = IORD(GPIO_BASE, 0);
 8040558:	00820234 	movhi	r2,2056
 804055c:	108c9804 	addi	r2,r2,12896
 8040560:	10800037 	ldwio	r2,0(r2)
 8040564:	e0bc9115 	stw	r2,-3516(fp)
		int btns[4];
		for(int i = 0; i<4; i++) {
 8040568:	e03c8c15 	stw	zero,-3536(fp)
 804056c:	00000f06 	br	80405ac <main+0x234>
			btns[i] = bt & (0b1 << i);
 8040570:	00c00044 	movi	r3,1
 8040574:	e0bc8c17 	ldw	r2,-3536(fp)
 8040578:	1886983a 	sll	r3,r3,r2
 804057c:	e0bc9117 	ldw	r2,-3516(fp)
 8040580:	1886703a 	and	r3,r3,r2
 8040584:	e0bc8c17 	ldw	r2,-3536(fp)
 8040588:	1085883a 	add	r2,r2,r2
 804058c:	1085883a 	add	r2,r2,r2
 8040590:	e13c8b04 	addi	r4,fp,-3540
 8040594:	2085883a 	add	r2,r4,r2
 8040598:	10834304 	addi	r2,r2,3340
 804059c:	10c00015 	stw	r3,0(r2)
	int count = 0;
	int MAX_COUNT = 500;
	while(1) {
		int bt = IORD(GPIO_BASE, 0);
		int btns[4];
		for(int i = 0; i<4; i++) {
 80405a0:	e0bc8c17 	ldw	r2,-3536(fp)
 80405a4:	10800044 	addi	r2,r2,1
 80405a8:	e0bc8c15 	stw	r2,-3536(fp)
 80405ac:	e0bc8c17 	ldw	r2,-3536(fp)
 80405b0:	10800110 	cmplti	r2,r2,4
 80405b4:	103fee1e 	bne	r2,zero,8040570 <__alt_data_end+0xfffd84d0>
			btns[i] = bt & (0b1 << i);
		}
		if(btns[0]){
 80405b8:	e0bfce17 	ldw	r2,-200(fp)
 80405bc:	10000226 	beq	r2,zero,80405c8 <main+0x250>
			main_menu_flag=1;
 80405c0:	00800044 	movi	r2,1
 80405c4:	d0a00015 	stw	r2,-32768(gp)
		}
		if(main_menu_flag) { // Main menu
 80405c8:	d0a00017 	ldw	r2,-32768(gp)
 80405cc:	10013026 	beq	r2,zero,8040a90 <main+0x718>
			if(!game_clear_flag){
 80405d0:	d0a70817 	ldw	r2,-25568(gp)
 80405d4:	1000081e 	bne	r2,zero,80405f8 <main+0x280>
				clear(pixel_buf_dma_dev, char_buf_dev,0);
 80405d8:	e0bc9b04 	addi	r2,fp,-3476
 80405dc:	1019883a 	mov	r12,r2
 80405e0:	000d883a 	mov	r6,zero
 80405e4:	e17c8f17 	ldw	r5,-3524(fp)
 80405e8:	e13c8e17 	ldw	r4,-3528(fp)
 80405ec:	8041ac80 	call	8041ac8 <clear.3557>
				game_clear_flag = 1;
 80405f0:	00800044 	movi	r2,1
 80405f4:	d0a70815 	stw	r2,-25568(gp)
			}
			reset_game(&pong_game);
 80405f8:	e0bc9b04 	addi	r2,fp,-3476
 80405fc:	e0fc9b04 	addi	r3,fp,-3476
 8040600:	1819883a 	mov	r12,r3
 8040604:	1009883a 	mov	r4,r2
 8040608:	8041d1c0 	call	8041d1c <reset_game.3580>
			reset_game_snake(&snake_game, pixel_buf_dma_dev, char_buf_dev);
 804060c:	e0bcf304 	addi	r2,fp,-3124
 8040610:	e0fc9b04 	addi	r3,fp,-3476
 8040614:	1819883a 	mov	r12,r3
 8040618:	e1bc8f17 	ldw	r6,-3524(fp)
 804061c:	e17c8e17 	ldw	r5,-3528(fp)
 8040620:	1009883a 	mov	r4,r2
 8040624:	80427040 	call	8042704 <reset_game_snake.3652>
			alt_up_char_buffer_string(char_buf_dev, "PONGERS!!!!", 37, 8);
 8040628:	01c00204 	movi	r7,8
 804062c:	01800944 	movi	r6,37
 8040630:	01420174 	movhi	r5,2053
 8040634:	2950dc04 	addi	r5,r5,17264
 8040638:	e13c8f17 	ldw	r4,-3524(fp)
 804063c:	80523d40 	call	80523d4 <alt_up_char_buffer_string>
			//Game selection Buttons
			//draw a white box at a specific location
			//Write text "Pong" to the white box
			//Clear and unclear the text by writing "		" to give blinking effect
			Rectangle pong_button = {149,120,	//x, y
 8040640:	00802544 	movi	r2,149
 8040644:	e0bfd215 	stw	r2,-184(fp)
 8040648:	00801e04 	movi	r2,120
 804064c:	e0bfd315 	stw	r2,-180(fp)
 8040650:	e03fd415 	stw	zero,-176(fp)
 8040654:	e03fd515 	stw	zero,-172(fp)
 8040658:	00800784 	movi	r2,30
 804065c:	e0bfd615 	stw	r2,-168(fp)
 8040660:	008003c4 	movi	r2,15
 8040664:	e0bfd715 	stw	r2,-164(fp)
 8040668:	009e0004 	movi	r2,30720
 804066c:	e0bfd815 	stw	r2,-160(fp)
									0,0,		//xspeed, yspeed
									30,15,	//width, height
									0x7800};	//colour
			Rectangle snake_button = {149,140,	//x, y
 8040670:	00802544 	movi	r2,149
 8040674:	e0bfd915 	stw	r2,-156(fp)
 8040678:	00802304 	movi	r2,140
 804067c:	e0bfda15 	stw	r2,-152(fp)
 8040680:	e03fdb15 	stw	zero,-148(fp)
 8040684:	e03fdc15 	stw	zero,-144(fp)
 8040688:	00800784 	movi	r2,30
 804068c:	e0bfdd15 	stw	r2,-140(fp)
 8040690:	008003c4 	movi	r2,15
 8040694:	e0bfde15 	stw	r2,-136(fp)
 8040698:	0080c004 	movi	r2,768
 804069c:	e0bfdf15 	stw	r2,-132(fp)
									0,0,		//xspeed, yspeed
									30,15,	//width, height
									0x0300};	//colour

			Rectangle menu_select_buttons[2] = {pong_button, snake_button};
 80406a0:	e0bfd217 	ldw	r2,-184(fp)
 80406a4:	e0bff215 	stw	r2,-56(fp)
 80406a8:	e0bfd317 	ldw	r2,-180(fp)
 80406ac:	e0bff315 	stw	r2,-52(fp)
 80406b0:	e0bfd417 	ldw	r2,-176(fp)
 80406b4:	e0bff415 	stw	r2,-48(fp)
 80406b8:	e0bfd517 	ldw	r2,-172(fp)
 80406bc:	e0bff515 	stw	r2,-44(fp)
 80406c0:	e0bfd617 	ldw	r2,-168(fp)
 80406c4:	e0bff615 	stw	r2,-40(fp)
 80406c8:	e0bfd717 	ldw	r2,-164(fp)
 80406cc:	e0bff715 	stw	r2,-36(fp)
 80406d0:	e0bfd817 	ldw	r2,-160(fp)
 80406d4:	e0bff815 	stw	r2,-32(fp)
 80406d8:	e0bfd917 	ldw	r2,-156(fp)
 80406dc:	e0bff915 	stw	r2,-28(fp)
 80406e0:	e0bfda17 	ldw	r2,-152(fp)
 80406e4:	e0bffa15 	stw	r2,-24(fp)
 80406e8:	e0bfdb17 	ldw	r2,-148(fp)
 80406ec:	e0bffb15 	stw	r2,-20(fp)
 80406f0:	e0bfdc17 	ldw	r2,-144(fp)
 80406f4:	e0bffc15 	stw	r2,-16(fp)
 80406f8:	e0bfdd17 	ldw	r2,-140(fp)
 80406fc:	e0bffd15 	stw	r2,-12(fp)
 8040700:	e0bfde17 	ldw	r2,-136(fp)
 8040704:	e0bffe15 	stw	r2,-8(fp)
 8040708:	e0bfdf17 	ldw	r2,-132(fp)
 804070c:	e0bfff15 	stw	r2,-4(fp)
			Rectangle ponge[1] = {pong_button};
 8040710:	e0bfd217 	ldw	r2,-184(fp)
 8040714:	e0bfe015 	stw	r2,-128(fp)
 8040718:	e0bfd317 	ldw	r2,-180(fp)
 804071c:	e0bfe115 	stw	r2,-124(fp)
 8040720:	e0bfd417 	ldw	r2,-176(fp)
 8040724:	e0bfe215 	stw	r2,-120(fp)
 8040728:	e0bfd517 	ldw	r2,-172(fp)
 804072c:	e0bfe315 	stw	r2,-116(fp)
 8040730:	e0bfd617 	ldw	r2,-168(fp)
 8040734:	e0bfe415 	stw	r2,-112(fp)
 8040738:	e0bfd717 	ldw	r2,-164(fp)
 804073c:	e0bfe515 	stw	r2,-108(fp)
 8040740:	e0bfd817 	ldw	r2,-160(fp)
 8040744:	e0bfe615 	stw	r2,-104(fp)
			Rectangle snock[1] = {snake_button};
 8040748:	e0bfd917 	ldw	r2,-156(fp)
 804074c:	e0bfe715 	stw	r2,-100(fp)
 8040750:	e0bfda17 	ldw	r2,-152(fp)
 8040754:	e0bfe815 	stw	r2,-96(fp)
 8040758:	e0bfdb17 	ldw	r2,-148(fp)
 804075c:	e0bfe915 	stw	r2,-92(fp)
 8040760:	e0bfdc17 	ldw	r2,-144(fp)
 8040764:	e0bfea15 	stw	r2,-88(fp)
 8040768:	e0bfdd17 	ldw	r2,-140(fp)
 804076c:	e0bfeb15 	stw	r2,-84(fp)
 8040770:	e0bfde17 	ldw	r2,-136(fp)
 8040774:	e0bfec15 	stw	r2,-80(fp)
 8040778:	e0bfdf17 	ldw	r2,-132(fp)
 804077c:	e0bfed15 	stw	r2,-76(fp)
			alt_up_pixel_buffer_dma_draw_box (pixel_buf_dma_dev,
 8040780:	e13fd917 	ldw	r4,-156(fp)
 8040784:	e17fda17 	ldw	r5,-152(fp)
						snake_button.x, snake_button.y, snake_button.x + snake_button.width - 1,
 8040788:	e0ffd917 	ldw	r3,-156(fp)
 804078c:	e0bfdd17 	ldw	r2,-140(fp)
 8040790:	1885883a 	add	r2,r3,r2
									0x0300};	//colour

			Rectangle menu_select_buttons[2] = {pong_button, snake_button};
			Rectangle ponge[1] = {pong_button};
			Rectangle snock[1] = {snake_button};
			alt_up_pixel_buffer_dma_draw_box (pixel_buf_dma_dev,
 8040794:	11bfffc4 	addi	r6,r2,-1
						snake_button.x, snake_button.y, snake_button.x + snake_button.width - 1,
						snake_button.y + snake_button.height - 1,
 8040798:	e0ffda17 	ldw	r3,-152(fp)
 804079c:	e0bfde17 	ldw	r2,-136(fp)
 80407a0:	1885883a 	add	r2,r3,r2
									0x0300};	//colour

			Rectangle menu_select_buttons[2] = {pong_button, snake_button};
			Rectangle ponge[1] = {pong_button};
			Rectangle snock[1] = {snake_button};
			alt_up_pixel_buffer_dma_draw_box (pixel_buf_dma_dev,
 80407a4:	10bfffc4 	addi	r2,r2,-1
 80407a8:	e0ffdf17 	ldw	r3,-132(fp)
 80407ac:	d8000215 	stw	zero,8(sp)
 80407b0:	d8c00115 	stw	r3,4(sp)
 80407b4:	d8800015 	stw	r2,0(sp)
 80407b8:	300f883a 	mov	r7,r6
 80407bc:	280d883a 	mov	r6,r5
 80407c0:	200b883a 	mov	r5,r4
 80407c4:	e13c8e17 	ldw	r4,-3528(fp)
 80407c8:	805293c0 	call	805293c <alt_up_pixel_buffer_dma_draw_box>
						snake_button.x, snake_button.y, snake_button.x + snake_button.width - 1,
						snake_button.y + snake_button.height - 1,
						snake_button.colour, 0);
			alt_up_pixel_buffer_dma_draw_box (pixel_buf_dma_dev,
 80407cc:	e13fd217 	ldw	r4,-184(fp)
 80407d0:	e17fd317 	ldw	r5,-180(fp)
							pong_button.x, pong_button.y, pong_button.x + pong_button.width - 1,
 80407d4:	e0ffd217 	ldw	r3,-184(fp)
 80407d8:	e0bfd617 	ldw	r2,-168(fp)
 80407dc:	1885883a 	add	r2,r3,r2
			Rectangle snock[1] = {snake_button};
			alt_up_pixel_buffer_dma_draw_box (pixel_buf_dma_dev,
						snake_button.x, snake_button.y, snake_button.x + snake_button.width - 1,
						snake_button.y + snake_button.height - 1,
						snake_button.colour, 0);
			alt_up_pixel_buffer_dma_draw_box (pixel_buf_dma_dev,
 80407e0:	11bfffc4 	addi	r6,r2,-1
							pong_button.x, pong_button.y, pong_button.x + pong_button.width - 1,
							pong_button.y + pong_button.height - 1,
 80407e4:	e0ffd317 	ldw	r3,-180(fp)
 80407e8:	e0bfd717 	ldw	r2,-164(fp)
 80407ec:	1885883a 	add	r2,r3,r2
			Rectangle snock[1] = {snake_button};
			alt_up_pixel_buffer_dma_draw_box (pixel_buf_dma_dev,
						snake_button.x, snake_button.y, snake_button.x + snake_button.width - 1,
						snake_button.y + snake_button.height - 1,
						snake_button.colour, 0);
			alt_up_pixel_buffer_dma_draw_box (pixel_buf_dma_dev,
 80407f0:	10bfffc4 	addi	r2,r2,-1
 80407f4:	e0ffd817 	ldw	r3,-160(fp)
 80407f8:	d8000215 	stw	zero,8(sp)
 80407fc:	d8c00115 	stw	r3,4(sp)
 8040800:	d8800015 	stw	r2,0(sp)
 8040804:	300f883a 	mov	r7,r6
 8040808:	280d883a 	mov	r6,r5
 804080c:	200b883a 	mov	r5,r4
 8040810:	e13c8e17 	ldw	r4,-3528(fp)
 8040814:	805293c0 	call	805293c <alt_up_pixel_buffer_dma_draw_box>
							pong_button.x, pong_button.y, pong_button.x + pong_button.width - 1,
							pong_button.y + pong_button.height - 1,
							pong_button.colour, 0);

			alt_up_char_buffer_string(char_buf_dev, "PONG", 39, 31);
 8040818:	01c007c4 	movi	r7,31
 804081c:	018009c4 	movi	r6,39
 8040820:	01420174 	movhi	r5,2053
 8040824:	2950df04 	addi	r5,r5,17276
 8040828:	e13c8f17 	ldw	r4,-3524(fp)
 804082c:	80523d40 	call	80523d4 <alt_up_char_buffer_string>
			alt_up_char_buffer_string(char_buf_dev, "SNAKE", 38, 36);
 8040830:	01c00904 	movi	r7,36
 8040834:	01800984 	movi	r6,38
 8040838:	01420174 	movhi	r5,2053
 804083c:	2950e104 	addi	r5,r5,17284
 8040840:	e13c8f17 	ldw	r4,-3524(fp)
 8040844:	80523d40 	call	80523d4 <alt_up_char_buffer_string>
			while(main_menu_flag) {
 8040848:	00008e06 	br	8040a84 <main+0x70c>
				// Read joystick
				// ADC
				adc_start(MODULAR_ADC_0_SEQUENCER_CSR_BASE);
 804084c:	01020234 	movhi	r4,2056
 8040850:	210ca804 	addi	r4,r4,12960
 8040854:	8051fd00 	call	8051fd0 <adc_start>
				//usleep(10000);
				alt_u32* adc_val_left = &(pong_game.adc_val_left);
 8040858:	e0bc9b04 	addi	r2,fp,-3476
 804085c:	10801b04 	addi	r2,r2,108
 8040860:	e0bc9215 	stw	r2,-3512(fp)
				float* adc_volt_left = &(pong_game.adc_volt_left);
 8040864:	e0bc9b04 	addi	r2,fp,-3476
 8040868:	10801d04 	addi	r2,r2,116
 804086c:	e0bc9315 	stw	r2,-3508(fp)
				// Read joystick values
				alt_adc_word_read(MODULAR_ADC_0_SAMPLE_STORE_CSR_BASE+4, adc_val_left, 1);
 8040870:	01800044 	movi	r6,1
 8040874:	e17c9217 	ldw	r5,-3512(fp)
 8040878:	01020234 	movhi	r4,2056
 804087c:	210c0104 	addi	r4,r4,12292
 8040880:	8051d880 	call	8051d88 <alt_adc_word_read>
				*adc_volt_left = (float)*adc_val_left * 5.0 / 4096.0;
 8040884:	e0bc9217 	ldw	r2,-3512(fp)
 8040888:	10800017 	ldw	r2,0(r2)
 804088c:	1009883a 	mov	r4,r2
 8040890:	80433b40 	call	80433b4 <__floatunsisf>
 8040894:	1007883a 	mov	r3,r2
 8040898:	1809883a 	mov	r4,r3
 804089c:	804522c0 	call	804522c <__extendsfdf2>
 80408a0:	1011883a 	mov	r8,r2
 80408a4:	1813883a 	mov	r9,r3
 80408a8:	000d883a 	mov	r6,zero
 80408ac:	01d00534 	movhi	r7,16404
 80408b0:	4009883a 	mov	r4,r8
 80408b4:	480b883a 	mov	r5,r9
 80408b8:	80440440 	call	8044044 <__muldf3>
 80408bc:	1009883a 	mov	r4,r2
 80408c0:	180b883a 	mov	r5,r3
 80408c4:	2005883a 	mov	r2,r4
 80408c8:	2807883a 	mov	r3,r5
 80408cc:	000d883a 	mov	r6,zero
 80408d0:	01d02c34 	movhi	r7,16560
 80408d4:	1009883a 	mov	r4,r2
 80408d8:	180b883a 	mov	r5,r3
 80408dc:	80434a40 	call	80434a4 <__divdf3>
 80408e0:	1009883a 	mov	r4,r2
 80408e4:	180b883a 	mov	r5,r3
 80408e8:	2005883a 	mov	r2,r4
 80408ec:	2807883a 	mov	r3,r5
 80408f0:	1009883a 	mov	r4,r2
 80408f4:	180b883a 	mov	r5,r3
 80408f8:	804533c0 	call	804533c <__truncdfsf2>
 80408fc:	1007883a 	mov	r3,r2
 8040900:	e0bc9317 	ldw	r2,-3508(fp)
 8040904:	10c00015 	stw	r3,0(r2)
				if(*adc_volt_left < 2.4) {
 8040908:	e0bc9317 	ldw	r2,-3508(fp)
 804090c:	10c00017 	ldw	r3,0(r2)
 8040910:	1809883a 	mov	r4,r3
 8040914:	804522c0 	call	804522c <__extendsfdf2>
 8040918:	1011883a 	mov	r8,r2
 804091c:	1813883a 	mov	r9,r3
 8040920:	018cccf4 	movhi	r6,13107
 8040924:	318cccc4 	addi	r6,r6,13107
 8040928:	01d000f4 	movhi	r7,16387
 804092c:	39ccccc4 	addi	r7,r7,13107
 8040930:	4009883a 	mov	r4,r8
 8040934:	480b883a 	mov	r5,r9
 8040938:	8043f500 	call	8043f50 <__ledf2>
 804093c:	1000020e 	bge	r2,zero,8040948 <main+0x5d0>
					game_flag = PONG_FLAG;
 8040940:	d0200115 	stw	zero,-32764(gp)
 8040944:	00001006 	br	8040988 <main+0x610>
				}
				else if(*adc_volt_left > 2.6) {
 8040948:	e0bc9317 	ldw	r2,-3508(fp)
 804094c:	10c00017 	ldw	r3,0(r2)
 8040950:	1809883a 	mov	r4,r3
 8040954:	804522c0 	call	804522c <__extendsfdf2>
 8040958:	1011883a 	mov	r8,r2
 804095c:	1813883a 	mov	r9,r3
 8040960:	01b33374 	movhi	r6,52429
 8040964:	31b33344 	addi	r6,r6,-13107
 8040968:	01d00174 	movhi	r7,16389
 804096c:	39f33304 	addi	r7,r7,-13108
 8040970:	4009883a 	mov	r4,r8
 8040974:	480b883a 	mov	r5,r9
 8040978:	8043e740 	call	8043e74 <__gedf2>
 804097c:	0080020e 	bge	zero,r2,8040988 <main+0x610>
					game_flag = SNAKE_FLAG;
 8040980:	00800044 	movi	r2,1
 8040984:	d0a00115 	stw	r2,-32764(gp)
				}
				// ADC - end
				alt_up_char_buffer_string(char_buf_dev, " PONG", 39, 31);
 8040988:	01c007c4 	movi	r7,31
 804098c:	018009c4 	movi	r6,39
 8040990:	01420174 	movhi	r5,2053
 8040994:	2950e304 	addi	r5,r5,17292
 8040998:	e13c8f17 	ldw	r4,-3524(fp)
 804099c:	80523d40 	call	80523d4 <alt_up_char_buffer_string>
				alt_up_char_buffer_string(char_buf_dev, " SNAKE", 38, 36);
 80409a0:	01c00904 	movi	r7,36
 80409a4:	01800984 	movi	r6,38
 80409a8:	01420174 	movhi	r5,2053
 80409ac:	2950e504 	addi	r5,r5,17300
 80409b0:	e13c8f17 	ldw	r4,-3524(fp)
 80409b4:	80523d40 	call	80523d4 <alt_up_char_buffer_string>
				if(game_flag==PONG_FLAG) {
 80409b8:	d0a00117 	ldw	r2,-32764(gp)
 80409bc:	1000071e 	bne	r2,zero,80409dc <main+0x664>
					alt_up_char_buffer_string(char_buf_dev, ">PONG", 39, 31);
 80409c0:	01c007c4 	movi	r7,31
 80409c4:	018009c4 	movi	r6,39
 80409c8:	01420174 	movhi	r5,2053
 80409cc:	2950e704 	addi	r5,r5,17308
 80409d0:	e13c8f17 	ldw	r4,-3524(fp)
 80409d4:	80523d40 	call	80523d4 <alt_up_char_buffer_string>
 80409d8:	00000906 	br	8040a00 <main+0x688>
				}
				else if(game_flag==SNAKE_FLAG) {
 80409dc:	d0a00117 	ldw	r2,-32764(gp)
 80409e0:	10800058 	cmpnei	r2,r2,1
 80409e4:	1000061e 	bne	r2,zero,8040a00 <main+0x688>
					alt_up_char_buffer_string(char_buf_dev, ">SNAKE", 38, 36);
 80409e8:	01c00904 	movi	r7,36
 80409ec:	01800984 	movi	r6,38
 80409f0:	01420174 	movhi	r5,2053
 80409f4:	2950e904 	addi	r5,r5,17316
 80409f8:	e13c8f17 	ldw	r4,-3524(fp)
 80409fc:	80523d40 	call	80523d4 <alt_up_char_buffer_string>
				}

				int botn = IORD(GPIO_BASE, 0);
 8040a00:	00820234 	movhi	r2,2056
 8040a04:	108c9804 	addi	r2,r2,12896
 8040a08:	10800037 	ldwio	r2,0(r2)
 8040a0c:	e0bc9415 	stw	r2,-3504(fp)
				int botns[4];
				for(int i = 0; i<4; i++) {
 8040a10:	e03c8d15 	stw	zero,-3532(fp)
 8040a14:	00000f06 	br	8040a54 <main+0x6dc>
					botns[i] = botn & (0b1 << i);
 8040a18:	00c00044 	movi	r3,1
 8040a1c:	e0bc8d17 	ldw	r2,-3532(fp)
 8040a20:	1886983a 	sll	r3,r3,r2
 8040a24:	e0bc9417 	ldw	r2,-3504(fp)
 8040a28:	1886703a 	and	r3,r3,r2
 8040a2c:	e0bc8d17 	ldw	r2,-3532(fp)
 8040a30:	1085883a 	add	r2,r2,r2
 8040a34:	1085883a 	add	r2,r2,r2
 8040a38:	e13c8b04 	addi	r4,fp,-3540
 8040a3c:	2085883a 	add	r2,r4,r2
 8040a40:	10836304 	addi	r2,r2,3468
 8040a44:	10c00015 	stw	r3,0(r2)
					alt_up_char_buffer_string(char_buf_dev, ">SNAKE", 38, 36);
				}

				int botn = IORD(GPIO_BASE, 0);
				int botns[4];
				for(int i = 0; i<4; i++) {
 8040a48:	e0bc8d17 	ldw	r2,-3532(fp)
 8040a4c:	10800044 	addi	r2,r2,1
 8040a50:	e0bc8d15 	stw	r2,-3532(fp)
 8040a54:	e0bc8d17 	ldw	r2,-3532(fp)
 8040a58:	10800110 	cmplti	r2,r2,4
 8040a5c:	103fee1e 	bne	r2,zero,8040a18 <__alt_data_end+0xfffd8978>
					botns[i] = botn & (0b1 << i);
				}
				if(!botns[1]) { // Start button
 8040a60:	e0bfef17 	ldw	r2,-68(fp)
 8040a64:	1000071e 	bne	r2,zero,8040a84 <main+0x70c>
					main_menu_flag=0;
 8040a68:	d0200015 	stw	zero,-32768(gp)
					clear(pixel_buf_dma_dev, char_buf_dev, 0);
 8040a6c:	e0bc9b04 	addi	r2,fp,-3476
 8040a70:	1019883a 	mov	r12,r2
 8040a74:	000d883a 	mov	r6,zero
 8040a78:	e17c8f17 	ldw	r5,-3524(fp)
 8040a7c:	e13c8e17 	ldw	r4,-3528(fp)
 8040a80:	8041ac80 	call	8041ac8 <clear.3557>
							pong_button.y + pong_button.height - 1,
							pong_button.colour, 0);

			alt_up_char_buffer_string(char_buf_dev, "PONG", 39, 31);
			alt_up_char_buffer_string(char_buf_dev, "SNAKE", 38, 36);
			while(main_menu_flag) {
 8040a84:	d0a00017 	ldw	r2,-32768(gp)
 8040a88:	103f701e 	bne	r2,zero,804084c <__alt_data_end+0xfffd87ac>
 8040a8c:	0000af06 	br	8040d4c <main+0x9d4>
					clear(pixel_buf_dma_dev, char_buf_dev, 0);
				}

			}
		}
		else if(pause_flag) { // Pause menu
 8040a90:	d0a70717 	ldw	r2,-25572(gp)
 8040a94:	10000526 	beq	r2,zero,8040aac <main+0x734>
			pause_menu(char_buf_dev);
 8040a98:	e0bc9b04 	addi	r2,fp,-3476
 8040a9c:	1019883a 	mov	r12,r2
 8040aa0:	e13c8f17 	ldw	r4,-3524(fp)
 8040aa4:	8041fc40 	call	8041fc4 <pause_menu.3603>
 8040aa8:	0000a806 	br	8040d4c <main+0x9d4>
		}
		else if(game_flag==PONG_FLAG){
 8040aac:	d0a00117 	ldw	r2,-32764(gp)
 8040ab0:	10007e1e 	bne	r2,zero,8040cac <main+0x934>
			clear_pause_menu(char_buf_dev);
 8040ab4:	e0bc9b04 	addi	r2,fp,-3476
 8040ab8:	1019883a 	mov	r12,r2
 8040abc:	e13c8f17 	ldw	r4,-3524(fp)
 8040ac0:	80420200 	call	8042020 <clear_pause_menu.3606>
			// Run Pong game
			// ADC
			adc_start(MODULAR_ADC_0_SEQUENCER_CSR_BASE);
 8040ac4:	01020234 	movhi	r4,2056
 8040ac8:	210ca804 	addi	r4,r4,12960
 8040acc:	8051fd00 	call	8051fd0 <adc_start>
			//usleep(10000);
			alt_u32* adc_val_left = &(pong_game.adc_val_left);
 8040ad0:	e0bc9b04 	addi	r2,fp,-3476
 8040ad4:	10801b04 	addi	r2,r2,108
 8040ad8:	e0bc9515 	stw	r2,-3500(fp)
			alt_u32* adc_val_right = &(pong_game.adc_val_right);
 8040adc:	e0bc9b04 	addi	r2,fp,-3476
 8040ae0:	10801c04 	addi	r2,r2,112
 8040ae4:	e0bc9615 	stw	r2,-3496(fp)
			float* adc_volt_left = &(pong_game.adc_volt_left);
 8040ae8:	e0bc9b04 	addi	r2,fp,-3476
 8040aec:	10801d04 	addi	r2,r2,116
 8040af0:	e0bc9715 	stw	r2,-3492(fp)
			float* adc_volt_right = &(pong_game.adc_volt_right);
 8040af4:	e0bc9b04 	addi	r2,fp,-3476
 8040af8:	10801e04 	addi	r2,r2,120
 8040afc:	e0bc9815 	stw	r2,-3488(fp)
			// Read joystick values
			alt_adc_word_read(MODULAR_ADC_0_SAMPLE_STORE_CSR_BASE+4, adc_val_left, 1);
 8040b00:	01800044 	movi	r6,1
 8040b04:	e17c9517 	ldw	r5,-3500(fp)
 8040b08:	01020234 	movhi	r4,2056
 8040b0c:	210c0104 	addi	r4,r4,12292
 8040b10:	8051d880 	call	8051d88 <alt_adc_word_read>
			alt_adc_word_read(MODULAR_ADC_0_SAMPLE_STORE_CSR_BASE + 8 * 1, adc_val_right, 1);
 8040b14:	01800044 	movi	r6,1
 8040b18:	e17c9617 	ldw	r5,-3496(fp)
 8040b1c:	01020234 	movhi	r4,2056
 8040b20:	210c0204 	addi	r4,r4,12296
 8040b24:	8051d880 	call	8051d88 <alt_adc_word_read>
			*adc_volt_left = (float)*adc_val_left * 5.0 / 4096.0;
 8040b28:	e0bc9517 	ldw	r2,-3500(fp)
 8040b2c:	10800017 	ldw	r2,0(r2)
 8040b30:	1009883a 	mov	r4,r2
 8040b34:	80433b40 	call	80433b4 <__floatunsisf>
 8040b38:	1007883a 	mov	r3,r2
 8040b3c:	1809883a 	mov	r4,r3
 8040b40:	804522c0 	call	804522c <__extendsfdf2>
 8040b44:	1011883a 	mov	r8,r2
 8040b48:	1813883a 	mov	r9,r3
 8040b4c:	000d883a 	mov	r6,zero
 8040b50:	01d00534 	movhi	r7,16404
 8040b54:	4009883a 	mov	r4,r8
 8040b58:	480b883a 	mov	r5,r9
 8040b5c:	80440440 	call	8044044 <__muldf3>
 8040b60:	1009883a 	mov	r4,r2
 8040b64:	180b883a 	mov	r5,r3
 8040b68:	2005883a 	mov	r2,r4
 8040b6c:	2807883a 	mov	r3,r5
 8040b70:	000d883a 	mov	r6,zero
 8040b74:	01d02c34 	movhi	r7,16560
 8040b78:	1009883a 	mov	r4,r2
 8040b7c:	180b883a 	mov	r5,r3
 8040b80:	80434a40 	call	80434a4 <__divdf3>
 8040b84:	1009883a 	mov	r4,r2
 8040b88:	180b883a 	mov	r5,r3
 8040b8c:	2005883a 	mov	r2,r4
 8040b90:	2807883a 	mov	r3,r5
 8040b94:	1009883a 	mov	r4,r2
 8040b98:	180b883a 	mov	r5,r3
 8040b9c:	804533c0 	call	804533c <__truncdfsf2>
 8040ba0:	1007883a 	mov	r3,r2
 8040ba4:	e0bc9717 	ldw	r2,-3492(fp)
 8040ba8:	10c00015 	stw	r3,0(r2)
			*adc_val_right = (float)*adc_val_right * 5.0 / 4096.0;
 8040bac:	e0bc9617 	ldw	r2,-3496(fp)
 8040bb0:	10800017 	ldw	r2,0(r2)
 8040bb4:	1009883a 	mov	r4,r2
 8040bb8:	80433b40 	call	80433b4 <__floatunsisf>
 8040bbc:	1007883a 	mov	r3,r2
 8040bc0:	1809883a 	mov	r4,r3
 8040bc4:	804522c0 	call	804522c <__extendsfdf2>
 8040bc8:	1011883a 	mov	r8,r2
 8040bcc:	1813883a 	mov	r9,r3
 8040bd0:	000d883a 	mov	r6,zero
 8040bd4:	01d00534 	movhi	r7,16404
 8040bd8:	4009883a 	mov	r4,r8
 8040bdc:	480b883a 	mov	r5,r9
 8040be0:	80440440 	call	8044044 <__muldf3>
 8040be4:	1009883a 	mov	r4,r2
 8040be8:	180b883a 	mov	r5,r3
 8040bec:	2005883a 	mov	r2,r4
 8040bf0:	2807883a 	mov	r3,r5
 8040bf4:	000d883a 	mov	r6,zero
 8040bf8:	01d02c34 	movhi	r7,16560
 8040bfc:	1009883a 	mov	r4,r2
 8040c00:	180b883a 	mov	r5,r3
 8040c04:	80434a40 	call	80434a4 <__divdf3>
 8040c08:	1009883a 	mov	r4,r2
 8040c0c:	180b883a 	mov	r5,r3
 8040c10:	2005883a 	mov	r2,r4
 8040c14:	2807883a 	mov	r3,r5
 8040c18:	1009883a 	mov	r4,r2
 8040c1c:	180b883a 	mov	r5,r3
 8040c20:	8042b840 	call	8042b84 <__fixunsdfsi>
 8040c24:	1007883a 	mov	r3,r2
 8040c28:	e0bc9617 	ldw	r2,-3496(fp)
 8040c2c:	10c00015 	stw	r3,0(r2)
			// ADC - end
			run_game_tick(pixel_buf_dma_dev, char_buf_dev, 0, &pong_game);
 8040c30:	e0bc9b04 	addi	r2,fp,-3476
 8040c34:	e0fc9b04 	addi	r3,fp,-3476
 8040c38:	1819883a 	mov	r12,r3
 8040c3c:	100f883a 	mov	r7,r2
 8040c40:	000d883a 	mov	r6,zero
 8040c44:	e17c8f17 	ldw	r5,-3524(fp)
 8040c48:	e13c8e17 	ldw	r4,-3528(fp)
 8040c4c:	8041e100 	call	8041e10 <run_game_tick.3591>
			sprintf(score_str, "%u - %u", pong_game.scores[0], pong_game.scores[1]);
 8040c50:	e0fc9d17 	ldw	r3,-3468(fp)
 8040c54:	e13c9e17 	ldw	r4,-3464(fp)
 8040c58:	e0bfc884 	addi	r2,fp,-222
 8040c5c:	200f883a 	mov	r7,r4
 8040c60:	180d883a 	mov	r6,r3
 8040c64:	01420174 	movhi	r5,2053
 8040c68:	2950eb04 	addi	r5,r5,17324
 8040c6c:	1009883a 	mov	r4,r2
 8040c70:	80459600 	call	8045960 <sprintf>
			alt_up_char_buffer_string(char_buf_dev, score_str, 37, 2);
 8040c74:	e0bfc884 	addi	r2,fp,-222
 8040c78:	01c00084 	movi	r7,2
 8040c7c:	01800944 	movi	r6,37
 8040c80:	100b883a 	mov	r5,r2
 8040c84:	e13c8f17 	ldw	r4,-3524(fp)
 8040c88:	80523d40 	call	80523d4 <alt_up_char_buffer_string>
			alt_up_char_buffer_string(char_buf_dev, time_str, 65, 2);
 8040c8c:	e0bc9b04 	addi	r2,fp,-3476
 8040c90:	10802804 	addi	r2,r2,160
 8040c94:	01c00084 	movi	r7,2
 8040c98:	01801044 	movi	r6,65
 8040c9c:	100b883a 	mov	r5,r2
 8040ca0:	e13c8f17 	ldw	r4,-3524(fp)
 8040ca4:	80523d40 	call	80523d4 <alt_up_char_buffer_string>
 8040ca8:	00002806 	br	8040d4c <main+0x9d4>

		}
		else if(game_flag==SNAKE_FLAG) {
 8040cac:	d0a00117 	ldw	r2,-32764(gp)
 8040cb0:	10800058 	cmpnei	r2,r2,1
 8040cb4:	1000251e 	bne	r2,zero,8040d4c <main+0x9d4>
			clear_pause_menu(char_buf_dev);
 8040cb8:	e0bc9b04 	addi	r2,fp,-3476
 8040cbc:	1019883a 	mov	r12,r2
 8040cc0:	e13c8f17 	ldw	r4,-3524(fp)
 8040cc4:	80420200 	call	8042020 <clear_pause_menu.3606>
			// ADC
			adc_start(MODULAR_ADC_0_SEQUENCER_CSR_BASE);
 8040cc8:	01020234 	movhi	r4,2056
 8040ccc:	210ca804 	addi	r4,r4,12960
 8040cd0:	8051fd00 	call	8051fd0 <adc_start>
			alt_u32* adc_val_horz = &(snake_game.adc_val_horz);
 8040cd4:	e0bcf304 	addi	r2,fp,-3124
 8040cd8:	1082c504 	addi	r2,r2,2836
 8040cdc:	e0bc9915 	stw	r2,-3484(fp)
			alt_u32* adc_val_vert = &(snake_game.adc_val_vert);
 8040ce0:	e0bcf304 	addi	r2,fp,-3124
 8040ce4:	1082c604 	addi	r2,r2,2840
 8040ce8:	e0bc9a15 	stw	r2,-3480(fp)
			// Read joystick values
			alt_adc_word_read(MODULAR_ADC_0_SAMPLE_STORE_CSR_BASE, adc_val_horz, 1);
 8040cec:	01800044 	movi	r6,1
 8040cf0:	e17c9917 	ldw	r5,-3484(fp)
 8040cf4:	01020234 	movhi	r4,2056
 8040cf8:	210c0004 	addi	r4,r4,12288
 8040cfc:	8051d880 	call	8051d88 <alt_adc_word_read>
			alt_adc_word_read(MODULAR_ADC_0_SAMPLE_STORE_CSR_BASE + 4 * 1, adc_val_vert, 1);
 8040d00:	01800044 	movi	r6,1
 8040d04:	e17c9a17 	ldw	r5,-3480(fp)
 8040d08:	01020234 	movhi	r4,2056
 8040d0c:	210c0104 	addi	r4,r4,12292
 8040d10:	8051d880 	call	8051d88 <alt_adc_word_read>
			if(count==MAX_COUNT) {
 8040d14:	e0fc8b17 	ldw	r3,-3540(fp)
 8040d18:	e0bc9017 	ldw	r2,-3520(fp)
 8040d1c:	1880081e 	bne	r3,r2,8040d40 <main+0x9c8>
				run_game_tick_snake(&snake_game,pixel_buf_dma_dev, char_buf_dev);
 8040d20:	e0bcf304 	addi	r2,fp,-3124
 8040d24:	e0fc9b04 	addi	r3,fp,-3476
 8040d28:	1819883a 	mov	r12,r3
 8040d2c:	e1bc8f17 	ldw	r6,-3524(fp)
 8040d30:	e17c8e17 	ldw	r5,-3528(fp)
 8040d34:	1009883a 	mov	r4,r2
 8040d38:	80428780 	call	8042878 <run_game_tick_snake.3665>
				count=0;
 8040d3c:	e03c8b15 	stw	zero,-3540(fp)
			}
			count++;
 8040d40:	e0bc8b17 	ldw	r2,-3540(fp)
 8040d44:	10800044 	addi	r2,r2,1
 8040d48:	e0bc8b15 	stw	r2,-3540(fp)
		}

		if(!main_menu_flag) {
 8040d4c:	d0a00017 	ldw	r2,-32768(gp)
 8040d50:	103e011e 	bne	r2,zero,8040558 <__alt_data_end+0xfffd84b8>
			game_clear_flag = 0;
 8040d54:	d0270815 	stw	zero,-25568(gp)
		}

	}
 8040d58:	003dff06 	br	8040558 <__alt_data_end+0xfffd84b8>

08040d5c <cheat_code.3520>:
	}


	// The makefile is not working as intended so the linker is unable to link the dependencies.
	// As a result, we have to manually include the functions here ********
	void cheat_code(Game* game) {
 8040d5c:	defffb04 	addi	sp,sp,-20
 8040d60:	df000415 	stw	fp,16(sp)
 8040d64:	df000404 	addi	fp,sp,16
 8040d68:	e13ffe15 	stw	r4,-8(fp)
 8040d6c:	e33fff15 	stw	r12,-4(fp)
		int* user_input = game->user_input;
 8040d70:	e0bffe17 	ldw	r2,-8(fp)
 8040d74:	10801f04 	addi	r2,r2,124
 8040d78:	e0bffc15 	stw	r2,-16(fp)
		Rectangle* paddles = game ->paddles;
 8040d7c:	e0bffe17 	ldw	r2,-8(fp)
 8040d80:	10800d04 	addi	r2,r2,52
 8040d84:	e0bffd15 	stw	r2,-12(fp)
		if(user_input[3]) {
 8040d88:	e0bffc17 	ldw	r2,-16(fp)
 8040d8c:	10800304 	addi	r2,r2,12
 8040d90:	10800017 	ldw	r2,0(r2)
 8040d94:	10000826 	beq	r2,zero,8040db8 <cheat_code.3520+0x5c>
			paddles[0].height=SCREEN_HEIGHT-1;
 8040d98:	e0bffd17 	ldw	r2,-12(fp)
 8040d9c:	00c03bc4 	movi	r3,239
 8040da0:	10c00515 	stw	r3,20(r2)
			paddles[0].y=0;
 8040da4:	e0bffd17 	ldw	r2,-12(fp)
 8040da8:	10000115 	stw	zero,4(r2)
			paddles[0].yspeed=0;
 8040dac:	e0bffd17 	ldw	r2,-12(fp)
 8040db0:	10000315 	stw	zero,12(r2)
 8040db4:	00000306 	br	8040dc4 <cheat_code.3520+0x68>
		} else { paddles[0].height=PADDLE_HEIGHT-1;}
 8040db8:	e0bffd17 	ldw	r2,-12(fp)
 8040dbc:	00c00c44 	movi	r3,49
 8040dc0:	10c00515 	stw	r3,20(r2)
		if(user_input[4]) {
 8040dc4:	e0bffc17 	ldw	r2,-16(fp)
 8040dc8:	10800404 	addi	r2,r2,16
 8040dcc:	10800017 	ldw	r2,0(r2)
 8040dd0:	10000b26 	beq	r2,zero,8040e00 <cheat_code.3520+0xa4>
			paddles[1].height=SCREEN_HEIGHT-1;
 8040dd4:	e0bffd17 	ldw	r2,-12(fp)
 8040dd8:	10800704 	addi	r2,r2,28
 8040ddc:	00c03bc4 	movi	r3,239
 8040de0:	10c00515 	stw	r3,20(r2)
			paddles[1].y=0;
 8040de4:	e0bffd17 	ldw	r2,-12(fp)
 8040de8:	10800704 	addi	r2,r2,28
 8040dec:	10000115 	stw	zero,4(r2)
			paddles[1].yspeed=0;
 8040df0:	e0bffd17 	ldw	r2,-12(fp)
 8040df4:	10800704 	addi	r2,r2,28
 8040df8:	10000315 	stw	zero,12(r2)
		} else {paddles[1].height=PADDLE_HEIGHT-1;}
	}
 8040dfc:	00000406 	br	8040e10 <cheat_code.3520+0xb4>
		} else { paddles[0].height=PADDLE_HEIGHT-1;}
		if(user_input[4]) {
			paddles[1].height=SCREEN_HEIGHT-1;
			paddles[1].y=0;
			paddles[1].yspeed=0;
		} else {paddles[1].height=PADDLE_HEIGHT-1;}
 8040e00:	e0bffd17 	ldw	r2,-12(fp)
 8040e04:	10800704 	addi	r2,r2,28
 8040e08:	00c00c44 	movi	r3,49
 8040e0c:	10c00515 	stw	r3,20(r2)
	}
 8040e10:	0001883a 	nop
 8040e14:	e037883a 	mov	sp,fp
 8040e18:	df000017 	ldw	fp,0(sp)
 8040e1c:	dec00104 	addi	sp,sp,4
 8040e20:	f800283a 	ret

08040e24 <update_paddle.3525>:
	// Updates paddle positions
	void update_paddle(Game* game) {
 8040e24:	defff204 	addi	sp,sp,-56
 8040e28:	dfc00d15 	stw	ra,52(sp)
 8040e2c:	df000c15 	stw	fp,48(sp)
 8040e30:	dc400b15 	stw	r17,44(sp)
 8040e34:	dc000a15 	stw	r16,40(sp)
 8040e38:	df000c04 	addi	fp,sp,48
 8040e3c:	e13ffc15 	stw	r4,-16(fp)
 8040e40:	e33ffd15 	stw	r12,-12(fp)
		int* user_input = (game -> user_input);
 8040e44:	e0bffc17 	ldw	r2,-16(fp)
 8040e48:	10801f04 	addi	r2,r2,124
 8040e4c:	e0bff515 	stw	r2,-44(fp)
		int len = (game->paddles_len);
 8040e50:	e0bffc17 	ldw	r2,-16(fp)
 8040e54:	10800517 	ldw	r2,20(r2)
 8040e58:	e0bff615 	stw	r2,-40(fp)
		Rectangle* paddle = (game -> paddles);
 8040e5c:	e0bffc17 	ldw	r2,-16(fp)
 8040e60:	10800d04 	addi	r2,r2,52
 8040e64:	e0bff715 	stw	r2,-36(fp)
		float adc_volt_left = game->adc_volt_left;
 8040e68:	e0bffc17 	ldw	r2,-16(fp)
 8040e6c:	10801d17 	ldw	r2,116(r2)
 8040e70:	e0bff815 	stw	r2,-32(fp)
		float adc_volt_right = game->adc_volt_right;
 8040e74:	e0bffc17 	ldw	r2,-16(fp)
 8040e78:	10801e17 	ldw	r2,120(r2)
 8040e7c:	e0bff915 	stw	r2,-28(fp)
		// Adjust speed according to user input
		int SW_0 = user_input[0];
 8040e80:	e0bff517 	ldw	r2,-44(fp)
 8040e84:	10800017 	ldw	r2,0(r2)
 8040e88:	e0bffa15 	stw	r2,-24(fp)
		int SW_1 = user_input[1];
 8040e8c:	e0bff517 	ldw	r2,-44(fp)
 8040e90:	10800117 	ldw	r2,4(r2)
 8040e94:	e0bffb15 	stw	r2,-20(fp)
		if(adc_volt_left >=2.6) {
 8040e98:	e13ff817 	ldw	r4,-32(fp)
 8040e9c:	804522c0 	call	804522c <__extendsfdf2>
 8040ea0:	1011883a 	mov	r8,r2
 8040ea4:	1813883a 	mov	r9,r3
 8040ea8:	01b33374 	movhi	r6,52429
 8040eac:	31b33344 	addi	r6,r6,-13107
 8040eb0:	01d00174 	movhi	r7,16389
 8040eb4:	39f33304 	addi	r7,r7,-13108
 8040eb8:	4009883a 	mov	r4,r8
 8040ebc:	480b883a 	mov	r5,r9
 8040ec0:	8043e740 	call	8043e74 <__gedf2>
 8040ec4:	10000616 	blt	r2,zero,8040ee0 <update_paddle.3525+0xbc>
			paddle[0].yspeed = adc_volt_left;
 8040ec8:	e13ff817 	ldw	r4,-32(fp)
 8040ecc:	80433440 	call	8043344 <__fixsfsi>
 8040ed0:	1007883a 	mov	r3,r2
 8040ed4:	e0bff717 	ldw	r2,-36(fp)
 8040ed8:	10c00315 	stw	r3,12(r2)
 8040edc:	00001a06 	br	8040f48 <update_paddle.3525+0x124>
		}
		else if(adc_volt_left <=2.4) {
 8040ee0:	e13ff817 	ldw	r4,-32(fp)
 8040ee4:	804522c0 	call	804522c <__extendsfdf2>
 8040ee8:	1011883a 	mov	r8,r2
 8040eec:	1813883a 	mov	r9,r3
 8040ef0:	018cccf4 	movhi	r6,13107
 8040ef4:	318cccc4 	addi	r6,r6,13107
 8040ef8:	01d000f4 	movhi	r7,16387
 8040efc:	39ccccc4 	addi	r7,r7,13107
 8040f00:	4009883a 	mov	r4,r8
 8040f04:	480b883a 	mov	r5,r9
 8040f08:	8043f500 	call	8043f50 <__ledf2>
 8040f0c:	00800c16 	blt	zero,r2,8040f40 <update_paddle.3525+0x11c>
			paddle[0].yspeed = -(5-adc_volt_left);
 8040f10:	e17ff817 	ldw	r5,-32(fp)
 8040f14:	01102834 	movhi	r4,16544
 8040f18:	8042e600 	call	8042e60 <__subsf3>
 8040f1c:	1007883a 	mov	r3,r2
 8040f20:	1805883a 	mov	r2,r3
 8040f24:	10a0003c 	xorhi	r2,r2,32768
 8040f28:	1009883a 	mov	r4,r2
 8040f2c:	80433440 	call	8043344 <__fixsfsi>
 8040f30:	1007883a 	mov	r3,r2
 8040f34:	e0bff717 	ldw	r2,-36(fp)
 8040f38:	10c00315 	stw	r3,12(r2)
 8040f3c:	00000206 	br	8040f48 <update_paddle.3525+0x124>
		}
		else {
			paddle[0].yspeed = 0;
 8040f40:	e0bff717 	ldw	r2,-36(fp)
 8040f44:	10000315 	stw	zero,12(r2)
		}
		if(adc_volt_right <=2.4) // Player 2 moving up
 8040f48:	e13ff917 	ldw	r4,-28(fp)
 8040f4c:	804522c0 	call	804522c <__extendsfdf2>
 8040f50:	1011883a 	mov	r8,r2
 8040f54:	1813883a 	mov	r9,r3
 8040f58:	018cccf4 	movhi	r6,13107
 8040f5c:	318cccc4 	addi	r6,r6,13107
 8040f60:	01d000f4 	movhi	r7,16387
 8040f64:	39ccccc4 	addi	r7,r7,13107
 8040f68:	4009883a 	mov	r4,r8
 8040f6c:	480b883a 	mov	r5,r9
 8040f70:	8043f500 	call	8043f50 <__ledf2>
 8040f74:	00800c16 	blt	zero,r2,8040fa8 <update_paddle.3525+0x184>
			paddle[1].yspeed = -(5-adc_volt_right);
 8040f78:	e0bff717 	ldw	r2,-36(fp)
 8040f7c:	14000704 	addi	r16,r2,28
 8040f80:	e17ff917 	ldw	r5,-28(fp)
 8040f84:	01102834 	movhi	r4,16544
 8040f88:	8042e600 	call	8042e60 <__subsf3>
 8040f8c:	1007883a 	mov	r3,r2
 8040f90:	1805883a 	mov	r2,r3
 8040f94:	10a0003c 	xorhi	r2,r2,32768
 8040f98:	1009883a 	mov	r4,r2
 8040f9c:	80433440 	call	8043344 <__fixsfsi>
 8040fa0:	80800315 	stw	r2,12(r16)
 8040fa4:	00001506 	br	8040ffc <update_paddle.3525+0x1d8>
		else if(adc_volt_right >=2.6) // Moving down
 8040fa8:	e13ff917 	ldw	r4,-28(fp)
 8040fac:	804522c0 	call	804522c <__extendsfdf2>
 8040fb0:	1011883a 	mov	r8,r2
 8040fb4:	1813883a 	mov	r9,r3
 8040fb8:	01b33374 	movhi	r6,52429
 8040fbc:	31b33344 	addi	r6,r6,-13107
 8040fc0:	01d00174 	movhi	r7,16389
 8040fc4:	39f33304 	addi	r7,r7,-13108
 8040fc8:	4009883a 	mov	r4,r8
 8040fcc:	480b883a 	mov	r5,r9
 8040fd0:	8043e740 	call	8043e74 <__gedf2>
 8040fd4:	10000616 	blt	r2,zero,8040ff0 <update_paddle.3525+0x1cc>
			paddle[1].yspeed = adc_volt_right;
 8040fd8:	e0bff717 	ldw	r2,-36(fp)
 8040fdc:	14000704 	addi	r16,r2,28
 8040fe0:	e13ff917 	ldw	r4,-28(fp)
 8040fe4:	80433440 	call	8043344 <__fixsfsi>
 8040fe8:	80800315 	stw	r2,12(r16)
 8040fec:	00000306 	br	8040ffc <update_paddle.3525+0x1d8>
		else {
			paddle[1].yspeed = 0;
 8040ff0:	e0bff717 	ldw	r2,-36(fp)
 8040ff4:	10800704 	addi	r2,r2,28
 8040ff8:	10000315 	stw	zero,12(r2)
		}
		// Adjust paddle positions
		for(int i = 0; i< len; i++) {
 8040ffc:	e03ff415 	stw	zero,-48(fp)
 8041000:	00006d06 	br	80411b8 <update_paddle.3525+0x394>
			// Update position
			paddle[i].y += paddle[i].yspeed;
 8041004:	e0bff417 	ldw	r2,-48(fp)
 8041008:	01400704 	movi	r5,28
 804100c:	1009883a 	mov	r4,r2
 8041010:	8042dac0 	call	8042dac <__mulsi3>
 8041014:	1007883a 	mov	r3,r2
 8041018:	e0bff717 	ldw	r2,-36(fp)
 804101c:	10e1883a 	add	r16,r2,r3
 8041020:	e0bff417 	ldw	r2,-48(fp)
 8041024:	01400704 	movi	r5,28
 8041028:	1009883a 	mov	r4,r2
 804102c:	8042dac0 	call	8042dac <__mulsi3>
 8041030:	1007883a 	mov	r3,r2
 8041034:	e0bff717 	ldw	r2,-36(fp)
 8041038:	10c5883a 	add	r2,r2,r3
 804103c:	14400117 	ldw	r17,4(r2)
 8041040:	e0bff417 	ldw	r2,-48(fp)
 8041044:	01400704 	movi	r5,28
 8041048:	1009883a 	mov	r4,r2
 804104c:	8042dac0 	call	8042dac <__mulsi3>
 8041050:	1007883a 	mov	r3,r2
 8041054:	e0bff717 	ldw	r2,-36(fp)
 8041058:	10c5883a 	add	r2,r2,r3
 804105c:	10800317 	ldw	r2,12(r2)
 8041060:	8885883a 	add	r2,r17,r2
 8041064:	80800115 	stw	r2,4(r16)
			paddle[0].x = 0;
 8041068:	e0bff717 	ldw	r2,-36(fp)
 804106c:	10000015 	stw	zero,0(r2)
			paddle[1].x = SCREEN_WIDTH - paddle[1].width;
 8041070:	e0bff717 	ldw	r2,-36(fp)
 8041074:	10800704 	addi	r2,r2,28
 8041078:	e0fff717 	ldw	r3,-36(fp)
 804107c:	18c00704 	addi	r3,r3,28
 8041080:	18c00417 	ldw	r3,16(r3)
 8041084:	01005004 	movi	r4,320
 8041088:	20c7c83a 	sub	r3,r4,r3
 804108c:	10c00015 	stw	r3,0(r2)
			// Check for collisions
			if (paddle[i].y + paddle[i].height >= SCREEN_HEIGHT) {
 8041090:	e0bff417 	ldw	r2,-48(fp)
 8041094:	01400704 	movi	r5,28
 8041098:	1009883a 	mov	r4,r2
 804109c:	8042dac0 	call	8042dac <__mulsi3>
 80410a0:	1007883a 	mov	r3,r2
 80410a4:	e0bff717 	ldw	r2,-36(fp)
 80410a8:	10c5883a 	add	r2,r2,r3
 80410ac:	14000117 	ldw	r16,4(r2)
 80410b0:	e0bff417 	ldw	r2,-48(fp)
 80410b4:	01400704 	movi	r5,28
 80410b8:	1009883a 	mov	r4,r2
 80410bc:	8042dac0 	call	8042dac <__mulsi3>
 80410c0:	1007883a 	mov	r3,r2
 80410c4:	e0bff717 	ldw	r2,-36(fp)
 80410c8:	10c5883a 	add	r2,r2,r3
 80410cc:	10800517 	ldw	r2,20(r2)
 80410d0:	8085883a 	add	r2,r16,r2
 80410d4:	10803c10 	cmplti	r2,r2,240
 80410d8:	10001b1e 	bne	r2,zero,8041148 <update_paddle.3525+0x324>
				paddle[i].y = SCREEN_HEIGHT - paddle[i].height;
 80410dc:	e0bff417 	ldw	r2,-48(fp)
 80410e0:	01400704 	movi	r5,28
 80410e4:	1009883a 	mov	r4,r2
 80410e8:	8042dac0 	call	8042dac <__mulsi3>
 80410ec:	1007883a 	mov	r3,r2
 80410f0:	e0bff717 	ldw	r2,-36(fp)
 80410f4:	10e1883a 	add	r16,r2,r3
 80410f8:	e0bff417 	ldw	r2,-48(fp)
 80410fc:	01400704 	movi	r5,28
 8041100:	1009883a 	mov	r4,r2
 8041104:	8042dac0 	call	8042dac <__mulsi3>
 8041108:	1007883a 	mov	r3,r2
 804110c:	e0bff717 	ldw	r2,-36(fp)
 8041110:	10c5883a 	add	r2,r2,r3
 8041114:	10800517 	ldw	r2,20(r2)
 8041118:	00c03c04 	movi	r3,240
 804111c:	1885c83a 	sub	r2,r3,r2
 8041120:	80800115 	stw	r2,4(r16)
				paddle[i].yspeed = 0;
 8041124:	e0bff417 	ldw	r2,-48(fp)
 8041128:	01400704 	movi	r5,28
 804112c:	1009883a 	mov	r4,r2
 8041130:	8042dac0 	call	8042dac <__mulsi3>
 8041134:	1007883a 	mov	r3,r2
 8041138:	e0bff717 	ldw	r2,-36(fp)
 804113c:	10c5883a 	add	r2,r2,r3
 8041140:	10000315 	stw	zero,12(r2)
 8041144:	00001906 	br	80411ac <update_paddle.3525+0x388>
			}
			else if (paddle[i].y <= 0) {
 8041148:	e0bff417 	ldw	r2,-48(fp)
 804114c:	01400704 	movi	r5,28
 8041150:	1009883a 	mov	r4,r2
 8041154:	8042dac0 	call	8042dac <__mulsi3>
 8041158:	1007883a 	mov	r3,r2
 804115c:	e0bff717 	ldw	r2,-36(fp)
 8041160:	10c5883a 	add	r2,r2,r3
 8041164:	10800117 	ldw	r2,4(r2)
 8041168:	00801016 	blt	zero,r2,80411ac <update_paddle.3525+0x388>
				paddle[i].y = 0;
 804116c:	e0bff417 	ldw	r2,-48(fp)
 8041170:	01400704 	movi	r5,28
 8041174:	1009883a 	mov	r4,r2
 8041178:	8042dac0 	call	8042dac <__mulsi3>
 804117c:	1007883a 	mov	r3,r2
 8041180:	e0bff717 	ldw	r2,-36(fp)
 8041184:	10c5883a 	add	r2,r2,r3
 8041188:	10000115 	stw	zero,4(r2)
				paddle[i].yspeed = 0;
 804118c:	e0bff417 	ldw	r2,-48(fp)
 8041190:	01400704 	movi	r5,28
 8041194:	1009883a 	mov	r4,r2
 8041198:	8042dac0 	call	8042dac <__mulsi3>
 804119c:	1007883a 	mov	r3,r2
 80411a0:	e0bff717 	ldw	r2,-36(fp)
 80411a4:	10c5883a 	add	r2,r2,r3
 80411a8:	10000315 	stw	zero,12(r2)
			paddle[1].yspeed = adc_volt_right;
		else {
			paddle[1].yspeed = 0;
		}
		// Adjust paddle positions
		for(int i = 0; i< len; i++) {
 80411ac:	e0bff417 	ldw	r2,-48(fp)
 80411b0:	10800044 	addi	r2,r2,1
 80411b4:	e0bff415 	stw	r2,-48(fp)
 80411b8:	e0fff417 	ldw	r3,-48(fp)
 80411bc:	e0bff617 	ldw	r2,-40(fp)
 80411c0:	18bf9016 	blt	r3,r2,8041004 <__alt_data_end+0xfffd8f64>
			else if (paddle[i].y <= 0) {
				paddle[i].y = 0;
				paddle[i].yspeed = 0;
			}
		}
	}
 80411c4:	0001883a 	nop
 80411c8:	e6fffe04 	addi	sp,fp,-8
 80411cc:	dfc00317 	ldw	ra,12(sp)
 80411d0:	df000217 	ldw	fp,8(sp)
 80411d4:	dc400117 	ldw	r17,4(sp)
 80411d8:	dc000017 	ldw	r16,0(sp)
 80411dc:	dec00404 	addi	sp,sp,16
 80411e0:	f800283a 	ret

080411e4 <sign.3539>:
	// Updates the position of each Rectangle object
	// "bounces" each object upon collision with screen top/bottom edges
	// or paddle objects
	int sign(int n) {
 80411e4:	defffd04 	addi	sp,sp,-12
 80411e8:	df000215 	stw	fp,8(sp)
 80411ec:	df000204 	addi	fp,sp,8
 80411f0:	e13ffe15 	stw	r4,-8(fp)
 80411f4:	e33fff15 	stw	r12,-4(fp)
		if(n<0)
 80411f8:	e0bffe17 	ldw	r2,-8(fp)
 80411fc:	1000020e 	bge	r2,zero,8041208 <sign.3539+0x24>
			return -1;
 8041200:	00bfffc4 	movi	r2,-1
 8041204:	00000106 	br	804120c <sign.3539+0x28>
		return 1;
 8041208:	00800044 	movi	r2,1
	}
 804120c:	e037883a 	mov	sp,fp
 8041210:	df000017 	ldw	fp,0(sp)
 8041214:	dec00104 	addi	sp,sp,4
 8041218:	f800283a 	ret

0804121c <collision_sound.3541>:

	void collision_sound(){
 804121c:	defffd04 	addi	sp,sp,-12
 8041220:	dfc00215 	stw	ra,8(sp)
 8041224:	df000115 	stw	fp,4(sp)
 8041228:	df000104 	addi	fp,sp,4
 804122c:	e33fff15 	stw	r12,-4(fp)
			//play the some audio for 100us then stop playing it to make a 'beep' sound
			IOWR(SINE_WAVE_AUDIO_MODULE_0_BASE, 0, 0x1);
 8041230:	00c00044 	movi	r3,1
 8041234:	00820234 	movhi	r2,2056
 8041238:	108cb004 	addi	r2,r2,12992
 804123c:	10c00035 	stwio	r3,0(r2)
			usleep(1000);
 8041240:	0100fa04 	movi	r4,1000
 8041244:	8050ca00 	call	8050ca0 <usleep>
			IOWR(SINE_WAVE_AUDIO_MODULE_0_BASE, 0, 0x0);
 8041248:	0007883a 	mov	r3,zero
 804124c:	00820234 	movhi	r2,2056
 8041250:	108cb004 	addi	r2,r2,12992
 8041254:	10c00035 	stwio	r3,0(r2)
		};
 8041258:	0001883a 	nop
 804125c:	e037883a 	mov	sp,fp
 8041260:	dfc00117 	ldw	ra,4(sp)
 8041264:	df000017 	ldw	fp,0(sp)
 8041268:	dec00204 	addi	sp,sp,8
 804126c:	f800283a 	ret

08041270 <update_ball.3544>:

	void update_ball(Game* game) {
 8041270:	defff404 	addi	sp,sp,-48
 8041274:	dfc00b15 	stw	ra,44(sp)
 8041278:	df000a15 	stw	fp,40(sp)
 804127c:	dc800915 	stw	r18,36(sp)
 8041280:	dc400815 	stw	r17,32(sp)
 8041284:	dc000715 	stw	r16,28(sp)
 8041288:	df000a04 	addi	fp,sp,40
 804128c:	e13ffb15 	stw	r4,-20(fp)
 8041290:	6021883a 	mov	r16,r12
 8041294:	e33ffc15 	stw	r12,-16(fp)
		int rect_len = (game -> balls_len);
 8041298:	e0bffb17 	ldw	r2,-20(fp)
 804129c:	10800417 	ldw	r2,16(r2)
 80412a0:	e0bff715 	stw	r2,-36(fp)
		Rectangle* rect = (game -> balls);
 80412a4:	e0bffb17 	ldw	r2,-20(fp)
 80412a8:	10800604 	addi	r2,r2,24
 80412ac:	e0bff815 	stw	r2,-32(fp)
		Rectangle* paddles = (game -> paddles);
 80412b0:	e0bffb17 	ldw	r2,-20(fp)
 80412b4:	10800d04 	addi	r2,r2,52
 80412b8:	e0bff915 	stw	r2,-28(fp)
		int* scores = (game -> scores);
 80412bc:	e0bffb17 	ldw	r2,-20(fp)
 80412c0:	10800204 	addi	r2,r2,8
 80412c4:	e0bffa15 	stw	r2,-24(fp)
		for(int i = 0; i< rect_len; i++) {
 80412c8:	e03ff615 	stw	zero,-40(fp)
 80412cc:	0001f206 	br	8041a98 <update_ball.3544+0x828>
			// Update position
			rect[i].x += rect[i].xspeed;
 80412d0:	e0bff617 	ldw	r2,-40(fp)
 80412d4:	01400704 	movi	r5,28
 80412d8:	1009883a 	mov	r4,r2
 80412dc:	8042dac0 	call	8042dac <__mulsi3>
 80412e0:	1007883a 	mov	r3,r2
 80412e4:	e0bff817 	ldw	r2,-32(fp)
 80412e8:	10e3883a 	add	r17,r2,r3
 80412ec:	e0bff617 	ldw	r2,-40(fp)
 80412f0:	01400704 	movi	r5,28
 80412f4:	1009883a 	mov	r4,r2
 80412f8:	8042dac0 	call	8042dac <__mulsi3>
 80412fc:	1007883a 	mov	r3,r2
 8041300:	e0bff817 	ldw	r2,-32(fp)
 8041304:	10c5883a 	add	r2,r2,r3
 8041308:	14800017 	ldw	r18,0(r2)
 804130c:	e0bff617 	ldw	r2,-40(fp)
 8041310:	01400704 	movi	r5,28
 8041314:	1009883a 	mov	r4,r2
 8041318:	8042dac0 	call	8042dac <__mulsi3>
 804131c:	1007883a 	mov	r3,r2
 8041320:	e0bff817 	ldw	r2,-32(fp)
 8041324:	10c5883a 	add	r2,r2,r3
 8041328:	10800217 	ldw	r2,8(r2)
 804132c:	9085883a 	add	r2,r18,r2
 8041330:	88800015 	stw	r2,0(r17)
			rect[i].y += rect[i].yspeed;
 8041334:	e0bff617 	ldw	r2,-40(fp)
 8041338:	01400704 	movi	r5,28
 804133c:	1009883a 	mov	r4,r2
 8041340:	8042dac0 	call	8042dac <__mulsi3>
 8041344:	1007883a 	mov	r3,r2
 8041348:	e0bff817 	ldw	r2,-32(fp)
 804134c:	10e3883a 	add	r17,r2,r3
 8041350:	e0bff617 	ldw	r2,-40(fp)
 8041354:	01400704 	movi	r5,28
 8041358:	1009883a 	mov	r4,r2
 804135c:	8042dac0 	call	8042dac <__mulsi3>
 8041360:	1007883a 	mov	r3,r2
 8041364:	e0bff817 	ldw	r2,-32(fp)
 8041368:	10c5883a 	add	r2,r2,r3
 804136c:	14800117 	ldw	r18,4(r2)
 8041370:	e0bff617 	ldw	r2,-40(fp)
 8041374:	01400704 	movi	r5,28
 8041378:	1009883a 	mov	r4,r2
 804137c:	8042dac0 	call	8042dac <__mulsi3>
 8041380:	1007883a 	mov	r3,r2
 8041384:	e0bff817 	ldw	r2,-32(fp)
 8041388:	10c5883a 	add	r2,r2,r3
 804138c:	10800317 	ldw	r2,12(r2)
 8041390:	9085883a 	add	r2,r18,r2
 8041394:	88800115 	stw	r2,4(r17)
			// Check for collisions
			if(rect[i].x + rect[i].width >= SCREEN_WIDTH || rect[i].x + rect[i].width >= paddles[1].x) {
 8041398:	e0bff617 	ldw	r2,-40(fp)
 804139c:	01400704 	movi	r5,28
 80413a0:	1009883a 	mov	r4,r2
 80413a4:	8042dac0 	call	8042dac <__mulsi3>
 80413a8:	1007883a 	mov	r3,r2
 80413ac:	e0bff817 	ldw	r2,-32(fp)
 80413b0:	10c5883a 	add	r2,r2,r3
 80413b4:	14400017 	ldw	r17,0(r2)
 80413b8:	e0bff617 	ldw	r2,-40(fp)
 80413bc:	01400704 	movi	r5,28
 80413c0:	1009883a 	mov	r4,r2
 80413c4:	8042dac0 	call	8042dac <__mulsi3>
 80413c8:	1007883a 	mov	r3,r2
 80413cc:	e0bff817 	ldw	r2,-32(fp)
 80413d0:	10c5883a 	add	r2,r2,r3
 80413d4:	10800417 	ldw	r2,16(r2)
 80413d8:	8885883a 	add	r2,r17,r2
 80413dc:	10805008 	cmpgei	r2,r2,320
 80413e0:	1000151e 	bne	r2,zero,8041438 <update_ball.3544+0x1c8>
 80413e4:	e0bff617 	ldw	r2,-40(fp)
 80413e8:	01400704 	movi	r5,28
 80413ec:	1009883a 	mov	r4,r2
 80413f0:	8042dac0 	call	8042dac <__mulsi3>
 80413f4:	1007883a 	mov	r3,r2
 80413f8:	e0bff817 	ldw	r2,-32(fp)
 80413fc:	10c5883a 	add	r2,r2,r3
 8041400:	14400017 	ldw	r17,0(r2)
 8041404:	e0bff617 	ldw	r2,-40(fp)
 8041408:	01400704 	movi	r5,28
 804140c:	1009883a 	mov	r4,r2
 8041410:	8042dac0 	call	8042dac <__mulsi3>
 8041414:	1007883a 	mov	r3,r2
 8041418:	e0bff817 	ldw	r2,-32(fp)
 804141c:	10c5883a 	add	r2,r2,r3
 8041420:	10800417 	ldw	r2,16(r2)
 8041424:	8887883a 	add	r3,r17,r2
 8041428:	e0bff917 	ldw	r2,-28(fp)
 804142c:	10800704 	addi	r2,r2,28
 8041430:	10800017 	ldw	r2,0(r2)
 8041434:	18809716 	blt	r3,r2,8041694 <update_ball.3544+0x424>
				// Collision with right paddle
				if(rect[i].y + rect[i].height >= paddles[1].y && rect[i].y <= paddles[1].y + paddles[1].height) {
 8041438:	e0bff617 	ldw	r2,-40(fp)
 804143c:	01400704 	movi	r5,28
 8041440:	1009883a 	mov	r4,r2
 8041444:	8042dac0 	call	8042dac <__mulsi3>
 8041448:	1007883a 	mov	r3,r2
 804144c:	e0bff817 	ldw	r2,-32(fp)
 8041450:	10c5883a 	add	r2,r2,r3
 8041454:	14400117 	ldw	r17,4(r2)
 8041458:	e0bff617 	ldw	r2,-40(fp)
 804145c:	01400704 	movi	r5,28
 8041460:	1009883a 	mov	r4,r2
 8041464:	8042dac0 	call	8042dac <__mulsi3>
 8041468:	1007883a 	mov	r3,r2
 804146c:	e0bff817 	ldw	r2,-32(fp)
 8041470:	10c5883a 	add	r2,r2,r3
 8041474:	10800517 	ldw	r2,20(r2)
 8041478:	8887883a 	add	r3,r17,r2
 804147c:	e0bff917 	ldw	r2,-28(fp)
 8041480:	10800704 	addi	r2,r2,28
 8041484:	10800117 	ldw	r2,4(r2)
 8041488:	18806016 	blt	r3,r2,804160c <update_ball.3544+0x39c>
 804148c:	e0bff617 	ldw	r2,-40(fp)
 8041490:	01400704 	movi	r5,28
 8041494:	1009883a 	mov	r4,r2
 8041498:	8042dac0 	call	8042dac <__mulsi3>
 804149c:	1007883a 	mov	r3,r2
 80414a0:	e0bff817 	ldw	r2,-32(fp)
 80414a4:	10c5883a 	add	r2,r2,r3
 80414a8:	10800117 	ldw	r2,4(r2)
 80414ac:	e0fff917 	ldw	r3,-28(fp)
 80414b0:	18c00704 	addi	r3,r3,28
 80414b4:	19000117 	ldw	r4,4(r3)
 80414b8:	e0fff917 	ldw	r3,-28(fp)
 80414bc:	18c00704 	addi	r3,r3,28
 80414c0:	18c00517 	ldw	r3,20(r3)
 80414c4:	20c7883a 	add	r3,r4,r3
 80414c8:	18805016 	blt	r3,r2,804160c <update_ball.3544+0x39c>
					collision_sound(); //play the collision sound
 80414cc:	8019883a 	mov	r12,r16
 80414d0:	804121c0 	call	804121c <collision_sound.3541>
					rect[i].x = paddles[1].x - rect[i].width;
 80414d4:	e0bff617 	ldw	r2,-40(fp)
 80414d8:	01400704 	movi	r5,28
 80414dc:	1009883a 	mov	r4,r2
 80414e0:	8042dac0 	call	8042dac <__mulsi3>
 80414e4:	1007883a 	mov	r3,r2
 80414e8:	e0bff817 	ldw	r2,-32(fp)
 80414ec:	10e3883a 	add	r17,r2,r3
 80414f0:	e0bff917 	ldw	r2,-28(fp)
 80414f4:	10800704 	addi	r2,r2,28
 80414f8:	14800017 	ldw	r18,0(r2)
 80414fc:	e0bff617 	ldw	r2,-40(fp)
 8041500:	01400704 	movi	r5,28
 8041504:	1009883a 	mov	r4,r2
 8041508:	8042dac0 	call	8042dac <__mulsi3>
 804150c:	1007883a 	mov	r3,r2
 8041510:	e0bff817 	ldw	r2,-32(fp)
 8041514:	10c5883a 	add	r2,r2,r3
 8041518:	10800417 	ldw	r2,16(r2)
 804151c:	9085c83a 	sub	r2,r18,r2
 8041520:	88800015 	stw	r2,0(r17)
					rect[i].xspeed*=-1; // Bounce
 8041524:	e0bff617 	ldw	r2,-40(fp)
 8041528:	01400704 	movi	r5,28
 804152c:	1009883a 	mov	r4,r2
 8041530:	8042dac0 	call	8042dac <__mulsi3>
 8041534:	1007883a 	mov	r3,r2
 8041538:	e0bff817 	ldw	r2,-32(fp)
 804153c:	10e3883a 	add	r17,r2,r3
 8041540:	e0bff617 	ldw	r2,-40(fp)
 8041544:	01400704 	movi	r5,28
 8041548:	1009883a 	mov	r4,r2
 804154c:	8042dac0 	call	8042dac <__mulsi3>
 8041550:	1007883a 	mov	r3,r2
 8041554:	e0bff817 	ldw	r2,-32(fp)
 8041558:	10c5883a 	add	r2,r2,r3
 804155c:	10800217 	ldw	r2,8(r2)
 8041560:	0085c83a 	sub	r2,zero,r2
 8041564:	88800215 	stw	r2,8(r17)
					if(sign(rect[i].yspeed)!=sign(paddles[1].yspeed)&& paddles[1].yspeed!=0) // Ball bounces in direction of paddle movement
 8041568:	e0bff617 	ldw	r2,-40(fp)
 804156c:	01400704 	movi	r5,28
 8041570:	1009883a 	mov	r4,r2
 8041574:	8042dac0 	call	8042dac <__mulsi3>
 8041578:	1007883a 	mov	r3,r2
 804157c:	e0bff817 	ldw	r2,-32(fp)
 8041580:	10c5883a 	add	r2,r2,r3
 8041584:	10800317 	ldw	r2,12(r2)
 8041588:	8019883a 	mov	r12,r16
 804158c:	1009883a 	mov	r4,r2
 8041590:	80411e40 	call	80411e4 <sign.3539>
 8041594:	1023883a 	mov	r17,r2
 8041598:	e0bff917 	ldw	r2,-28(fp)
 804159c:	10800704 	addi	r2,r2,28
 80415a0:	10800317 	ldw	r2,12(r2)
 80415a4:	8019883a 	mov	r12,r16
 80415a8:	1009883a 	mov	r4,r2
 80415ac:	80411e40 	call	80411e4 <sign.3539>
 80415b0:	88803626 	beq	r17,r2,804168c <update_ball.3544+0x41c>
 80415b4:	e0bff917 	ldw	r2,-28(fp)
 80415b8:	10800704 	addi	r2,r2,28
 80415bc:	10800317 	ldw	r2,12(r2)
 80415c0:	10003226 	beq	r2,zero,804168c <update_ball.3544+0x41c>
						rect[i].yspeed*=-1;
 80415c4:	e0bff617 	ldw	r2,-40(fp)
 80415c8:	01400704 	movi	r5,28
 80415cc:	1009883a 	mov	r4,r2
 80415d0:	8042dac0 	call	8042dac <__mulsi3>
 80415d4:	1007883a 	mov	r3,r2
 80415d8:	e0bff817 	ldw	r2,-32(fp)
 80415dc:	10e3883a 	add	r17,r2,r3
 80415e0:	e0bff617 	ldw	r2,-40(fp)
 80415e4:	01400704 	movi	r5,28
 80415e8:	1009883a 	mov	r4,r2
 80415ec:	8042dac0 	call	8042dac <__mulsi3>
 80415f0:	1007883a 	mov	r3,r2
 80415f4:	e0bff817 	ldw	r2,-32(fp)
 80415f8:	10c5883a 	add	r2,r2,r3
 80415fc:	10800317 	ldw	r2,12(r2)
 8041600:	0085c83a 	sub	r2,zero,r2
 8041604:	88800315 	stw	r2,12(r17)
				// Collision with right paddle
				if(rect[i].y + rect[i].height >= paddles[1].y && rect[i].y <= paddles[1].y + paddles[1].height) {
					collision_sound(); //play the collision sound
					rect[i].x = paddles[1].x - rect[i].width;
					rect[i].xspeed*=-1; // Bounce
					if(sign(rect[i].yspeed)!=sign(paddles[1].yspeed)&& paddles[1].yspeed!=0) // Ball bounces in direction of paddle movement
 8041608:	00002006 	br	804168c <update_ball.3544+0x41c>
						rect[i].yspeed*=-1;
				}
				else { // Goal - player 1 scored
					// Reset ball position
					rect[i].x = BALL_XDEFAULT;
 804160c:	e0bff617 	ldw	r2,-40(fp)
 8041610:	01400704 	movi	r5,28
 8041614:	1009883a 	mov	r4,r2
 8041618:	8042dac0 	call	8042dac <__mulsi3>
 804161c:	1007883a 	mov	r3,r2
 8041620:	e0bff817 	ldw	r2,-32(fp)
 8041624:	10c5883a 	add	r2,r2,r3
 8041628:	00c02804 	movi	r3,160
 804162c:	10c00015 	stw	r3,0(r2)
					rect[i].xspeed*=-1;
 8041630:	e0bff617 	ldw	r2,-40(fp)
 8041634:	01400704 	movi	r5,28
 8041638:	1009883a 	mov	r4,r2
 804163c:	8042dac0 	call	8042dac <__mulsi3>
 8041640:	1007883a 	mov	r3,r2
 8041644:	e0bff817 	ldw	r2,-32(fp)
 8041648:	10e3883a 	add	r17,r2,r3
 804164c:	e0bff617 	ldw	r2,-40(fp)
 8041650:	01400704 	movi	r5,28
 8041654:	1009883a 	mov	r4,r2
 8041658:	8042dac0 	call	8042dac <__mulsi3>
 804165c:	1007883a 	mov	r3,r2
 8041660:	e0bff817 	ldw	r2,-32(fp)
 8041664:	10c5883a 	add	r2,r2,r3
 8041668:	10800217 	ldw	r2,8(r2)
 804166c:	0085c83a 	sub	r2,zero,r2
 8041670:	88800215 	stw	r2,8(r17)
					// Add 1 to left player's score
					scores[0] += 1;
 8041674:	e0bffa17 	ldw	r2,-24(fp)
 8041678:	10800017 	ldw	r2,0(r2)
 804167c:	10c00044 	addi	r3,r2,1
 8041680:	e0bffa17 	ldw	r2,-24(fp)
 8041684:	10c00015 	stw	r3,0(r2)
			rect[i].x += rect[i].xspeed;
			rect[i].y += rect[i].yspeed;
			// Check for collisions
			if(rect[i].x + rect[i].width >= SCREEN_WIDTH || rect[i].x + rect[i].width >= paddles[1].x) {
				// Collision with right paddle
				if(rect[i].y + rect[i].height >= paddles[1].y && rect[i].y <= paddles[1].y + paddles[1].height) {
 8041688:	00010006 	br	8041a8c <update_ball.3544+0x81c>
					collision_sound(); //play the collision sound
					rect[i].x = paddles[1].x - rect[i].width;
					rect[i].xspeed*=-1; // Bounce
					if(sign(rect[i].yspeed)!=sign(paddles[1].yspeed)&& paddles[1].yspeed!=0) // Ball bounces in direction of paddle movement
 804168c:	0001883a 	nop
			rect[i].x += rect[i].xspeed;
			rect[i].y += rect[i].yspeed;
			// Check for collisions
			if(rect[i].x + rect[i].width >= SCREEN_WIDTH || rect[i].x + rect[i].width >= paddles[1].x) {
				// Collision with right paddle
				if(rect[i].y + rect[i].height >= paddles[1].y && rect[i].y <= paddles[1].y + paddles[1].height) {
 8041690:	0000fe06 	br	8041a8c <update_ball.3544+0x81c>
					rect[i].xspeed*=-1;
					// Add 1 to left player's score
					scores[0] += 1;
				}
			}
			else if (rect[i].x <= 0 || rect[i].x <= paddles[0].width) {
 8041694:	e0bff617 	ldw	r2,-40(fp)
 8041698:	01400704 	movi	r5,28
 804169c:	1009883a 	mov	r4,r2
 80416a0:	8042dac0 	call	8042dac <__mulsi3>
 80416a4:	1007883a 	mov	r3,r2
 80416a8:	e0bff817 	ldw	r2,-32(fp)
 80416ac:	10c5883a 	add	r2,r2,r3
 80416b0:	10800017 	ldw	r2,0(r2)
 80416b4:	00800b0e 	bge	zero,r2,80416e4 <update_ball.3544+0x474>
 80416b8:	e0bff617 	ldw	r2,-40(fp)
 80416bc:	01400704 	movi	r5,28
 80416c0:	1009883a 	mov	r4,r2
 80416c4:	8042dac0 	call	8042dac <__mulsi3>
 80416c8:	1007883a 	mov	r3,r2
 80416cc:	e0bff817 	ldw	r2,-32(fp)
 80416d0:	10c5883a 	add	r2,r2,r3
 80416d4:	10800017 	ldw	r2,0(r2)
 80416d8:	e0fff917 	ldw	r3,-28(fp)
 80416dc:	18c00417 	ldw	r3,16(r3)
 80416e0:	18808d16 	blt	r3,r2,8041918 <update_ball.3544+0x6a8>
				// Collision with left paddle
				if(rect[i].y + rect[i].height >= paddles[0].y && rect[i].y <= paddles[0].y + paddles[0].height) {
 80416e4:	e0bff617 	ldw	r2,-40(fp)
 80416e8:	01400704 	movi	r5,28
 80416ec:	1009883a 	mov	r4,r2
 80416f0:	8042dac0 	call	8042dac <__mulsi3>
 80416f4:	1007883a 	mov	r3,r2
 80416f8:	e0bff817 	ldw	r2,-32(fp)
 80416fc:	10c5883a 	add	r2,r2,r3
 8041700:	14400117 	ldw	r17,4(r2)
 8041704:	e0bff617 	ldw	r2,-40(fp)
 8041708:	01400704 	movi	r5,28
 804170c:	1009883a 	mov	r4,r2
 8041710:	8042dac0 	call	8042dac <__mulsi3>
 8041714:	1007883a 	mov	r3,r2
 8041718:	e0bff817 	ldw	r2,-32(fp)
 804171c:	10c5883a 	add	r2,r2,r3
 8041720:	10800517 	ldw	r2,20(r2)
 8041724:	8887883a 	add	r3,r17,r2
 8041728:	e0bff917 	ldw	r2,-28(fp)
 804172c:	10800117 	ldw	r2,4(r2)
 8041730:	18805516 	blt	r3,r2,8041888 <update_ball.3544+0x618>
 8041734:	e0bff617 	ldw	r2,-40(fp)
 8041738:	01400704 	movi	r5,28
 804173c:	1009883a 	mov	r4,r2
 8041740:	8042dac0 	call	8042dac <__mulsi3>
 8041744:	1007883a 	mov	r3,r2
 8041748:	e0bff817 	ldw	r2,-32(fp)
 804174c:	10c5883a 	add	r2,r2,r3
 8041750:	10800117 	ldw	r2,4(r2)
 8041754:	e0fff917 	ldw	r3,-28(fp)
 8041758:	19000117 	ldw	r4,4(r3)
 804175c:	e0fff917 	ldw	r3,-28(fp)
 8041760:	18c00517 	ldw	r3,20(r3)
 8041764:	20c7883a 	add	r3,r4,r3
 8041768:	18804716 	blt	r3,r2,8041888 <update_ball.3544+0x618>
					collision_sound(); //play the collision sound
 804176c:	8019883a 	mov	r12,r16
 8041770:	804121c0 	call	804121c <collision_sound.3541>
					rect[i].x = paddles[0].x + paddles[0].width;
 8041774:	e0bff617 	ldw	r2,-40(fp)
 8041778:	01400704 	movi	r5,28
 804177c:	1009883a 	mov	r4,r2
 8041780:	8042dac0 	call	8042dac <__mulsi3>
 8041784:	1007883a 	mov	r3,r2
 8041788:	e0bff817 	ldw	r2,-32(fp)
 804178c:	10c5883a 	add	r2,r2,r3
 8041790:	e0fff917 	ldw	r3,-28(fp)
 8041794:	19000017 	ldw	r4,0(r3)
 8041798:	e0fff917 	ldw	r3,-28(fp)
 804179c:	18c00417 	ldw	r3,16(r3)
 80417a0:	20c7883a 	add	r3,r4,r3
 80417a4:	10c00015 	stw	r3,0(r2)
					rect[i].xspeed*=-1; //Bounce
 80417a8:	e0bff617 	ldw	r2,-40(fp)
 80417ac:	01400704 	movi	r5,28
 80417b0:	1009883a 	mov	r4,r2
 80417b4:	8042dac0 	call	8042dac <__mulsi3>
 80417b8:	1007883a 	mov	r3,r2
 80417bc:	e0bff817 	ldw	r2,-32(fp)
 80417c0:	10e3883a 	add	r17,r2,r3
 80417c4:	e0bff617 	ldw	r2,-40(fp)
 80417c8:	01400704 	movi	r5,28
 80417cc:	1009883a 	mov	r4,r2
 80417d0:	8042dac0 	call	8042dac <__mulsi3>
 80417d4:	1007883a 	mov	r3,r2
 80417d8:	e0bff817 	ldw	r2,-32(fp)
 80417dc:	10c5883a 	add	r2,r2,r3
 80417e0:	10800217 	ldw	r2,8(r2)
 80417e4:	0085c83a 	sub	r2,zero,r2
 80417e8:	88800215 	stw	r2,8(r17)
					if(sign(rect[i].yspeed)!=sign(paddles[0].yspeed) && paddles[0].yspeed!=0) // Ball bounces in direction of paddle movement
 80417ec:	e0bff617 	ldw	r2,-40(fp)
 80417f0:	01400704 	movi	r5,28
 80417f4:	1009883a 	mov	r4,r2
 80417f8:	8042dac0 	call	8042dac <__mulsi3>
 80417fc:	1007883a 	mov	r3,r2
 8041800:	e0bff817 	ldw	r2,-32(fp)
 8041804:	10c5883a 	add	r2,r2,r3
 8041808:	10800317 	ldw	r2,12(r2)
 804180c:	8019883a 	mov	r12,r16
 8041810:	1009883a 	mov	r4,r2
 8041814:	80411e40 	call	80411e4 <sign.3539>
 8041818:	1023883a 	mov	r17,r2
 804181c:	e0bff917 	ldw	r2,-28(fp)
 8041820:	10800317 	ldw	r2,12(r2)
 8041824:	8019883a 	mov	r12,r16
 8041828:	1009883a 	mov	r4,r2
 804182c:	80411e40 	call	80411e4 <sign.3539>
 8041830:	88803726 	beq	r17,r2,8041910 <update_ball.3544+0x6a0>
 8041834:	e0bff917 	ldw	r2,-28(fp)
 8041838:	10800317 	ldw	r2,12(r2)
 804183c:	10003426 	beq	r2,zero,8041910 <update_ball.3544+0x6a0>
						rect[i].yspeed*=-1;
 8041840:	e0bff617 	ldw	r2,-40(fp)
 8041844:	01400704 	movi	r5,28
 8041848:	1009883a 	mov	r4,r2
 804184c:	8042dac0 	call	8042dac <__mulsi3>
 8041850:	1007883a 	mov	r3,r2
 8041854:	e0bff817 	ldw	r2,-32(fp)
 8041858:	10e3883a 	add	r17,r2,r3
 804185c:	e0bff617 	ldw	r2,-40(fp)
 8041860:	01400704 	movi	r5,28
 8041864:	1009883a 	mov	r4,r2
 8041868:	8042dac0 	call	8042dac <__mulsi3>
 804186c:	1007883a 	mov	r3,r2
 8041870:	e0bff817 	ldw	r2,-32(fp)
 8041874:	10c5883a 	add	r2,r2,r3
 8041878:	10800317 	ldw	r2,12(r2)
 804187c:	0085c83a 	sub	r2,zero,r2
 8041880:	88800315 	stw	r2,12(r17)
				// Collision with left paddle
				if(rect[i].y + rect[i].height >= paddles[0].y && rect[i].y <= paddles[0].y + paddles[0].height) {
					collision_sound(); //play the collision sound
					rect[i].x = paddles[0].x + paddles[0].width;
					rect[i].xspeed*=-1; //Bounce
					if(sign(rect[i].yspeed)!=sign(paddles[0].yspeed) && paddles[0].yspeed!=0) // Ball bounces in direction of paddle movement
 8041884:	00002206 	br	8041910 <update_ball.3544+0x6a0>
						rect[i].yspeed*=-1;
				}
				else { // Goal - player 2 scored
					// Reset ball position
					rect[i].x = BALL_XDEFAULT;
 8041888:	e0bff617 	ldw	r2,-40(fp)
 804188c:	01400704 	movi	r5,28
 8041890:	1009883a 	mov	r4,r2
 8041894:	8042dac0 	call	8042dac <__mulsi3>
 8041898:	1007883a 	mov	r3,r2
 804189c:	e0bff817 	ldw	r2,-32(fp)
 80418a0:	10c5883a 	add	r2,r2,r3
 80418a4:	00c02804 	movi	r3,160
 80418a8:	10c00015 	stw	r3,0(r2)
					rect[i].xspeed*=-1;
 80418ac:	e0bff617 	ldw	r2,-40(fp)
 80418b0:	01400704 	movi	r5,28
 80418b4:	1009883a 	mov	r4,r2
 80418b8:	8042dac0 	call	8042dac <__mulsi3>
 80418bc:	1007883a 	mov	r3,r2
 80418c0:	e0bff817 	ldw	r2,-32(fp)
 80418c4:	10e3883a 	add	r17,r2,r3
 80418c8:	e0bff617 	ldw	r2,-40(fp)
 80418cc:	01400704 	movi	r5,28
 80418d0:	1009883a 	mov	r4,r2
 80418d4:	8042dac0 	call	8042dac <__mulsi3>
 80418d8:	1007883a 	mov	r3,r2
 80418dc:	e0bff817 	ldw	r2,-32(fp)
 80418e0:	10c5883a 	add	r2,r2,r3
 80418e4:	10800217 	ldw	r2,8(r2)
 80418e8:	0085c83a 	sub	r2,zero,r2
 80418ec:	88800215 	stw	r2,8(r17)
					// Add 1 to right player's score
					scores[1] += 1;
 80418f0:	e0bffa17 	ldw	r2,-24(fp)
 80418f4:	10800104 	addi	r2,r2,4
 80418f8:	e0fffa17 	ldw	r3,-24(fp)
 80418fc:	18c00104 	addi	r3,r3,4
 8041900:	18c00017 	ldw	r3,0(r3)
 8041904:	18c00044 	addi	r3,r3,1
 8041908:	10c00015 	stw	r3,0(r2)
					scores[0] += 1;
				}
			}
			else if (rect[i].x <= 0 || rect[i].x <= paddles[0].width) {
				// Collision with left paddle
				if(rect[i].y + rect[i].height >= paddles[0].y && rect[i].y <= paddles[0].y + paddles[0].height) {
 804190c:	00005f06 	br	8041a8c <update_ball.3544+0x81c>
					collision_sound(); //play the collision sound
					rect[i].x = paddles[0].x + paddles[0].width;
					rect[i].xspeed*=-1; //Bounce
					if(sign(rect[i].yspeed)!=sign(paddles[0].yspeed) && paddles[0].yspeed!=0) // Ball bounces in direction of paddle movement
 8041910:	0001883a 	nop
					scores[0] += 1;
				}
			}
			else if (rect[i].x <= 0 || rect[i].x <= paddles[0].width) {
				// Collision with left paddle
				if(rect[i].y + rect[i].height >= paddles[0].y && rect[i].y <= paddles[0].y + paddles[0].height) {
 8041914:	00005d06 	br	8041a8c <update_ball.3544+0x81c>
					rect[i].xspeed*=-1;
					// Add 1 to right player's score
					scores[1] += 1;
				}
			}
			else if (rect[i].y + rect[i].height >= SCREEN_HEIGHT) { // Collisions with top/bottom screen
 8041918:	e0bff617 	ldw	r2,-40(fp)
 804191c:	01400704 	movi	r5,28
 8041920:	1009883a 	mov	r4,r2
 8041924:	8042dac0 	call	8042dac <__mulsi3>
 8041928:	1007883a 	mov	r3,r2
 804192c:	e0bff817 	ldw	r2,-32(fp)
 8041930:	10c5883a 	add	r2,r2,r3
 8041934:	14400117 	ldw	r17,4(r2)
 8041938:	e0bff617 	ldw	r2,-40(fp)
 804193c:	01400704 	movi	r5,28
 8041940:	1009883a 	mov	r4,r2
 8041944:	8042dac0 	call	8042dac <__mulsi3>
 8041948:	1007883a 	mov	r3,r2
 804194c:	e0bff817 	ldw	r2,-32(fp)
 8041950:	10c5883a 	add	r2,r2,r3
 8041954:	10800517 	ldw	r2,20(r2)
 8041958:	8885883a 	add	r2,r17,r2
 804195c:	10803c10 	cmplti	r2,r2,240
 8041960:	1000261e 	bne	r2,zero,80419fc <update_ball.3544+0x78c>
				rect[i].y = SCREEN_HEIGHT - rect[i].height;
 8041964:	e0bff617 	ldw	r2,-40(fp)
 8041968:	01400704 	movi	r5,28
 804196c:	1009883a 	mov	r4,r2
 8041970:	8042dac0 	call	8042dac <__mulsi3>
 8041974:	1007883a 	mov	r3,r2
 8041978:	e0bff817 	ldw	r2,-32(fp)
 804197c:	10e3883a 	add	r17,r2,r3
 8041980:	e0bff617 	ldw	r2,-40(fp)
 8041984:	01400704 	movi	r5,28
 8041988:	1009883a 	mov	r4,r2
 804198c:	8042dac0 	call	8042dac <__mulsi3>
 8041990:	1007883a 	mov	r3,r2
 8041994:	e0bff817 	ldw	r2,-32(fp)
 8041998:	10c5883a 	add	r2,r2,r3
 804199c:	10800517 	ldw	r2,20(r2)
 80419a0:	00c03c04 	movi	r3,240
 80419a4:	1885c83a 	sub	r2,r3,r2
 80419a8:	88800115 	stw	r2,4(r17)
				rect[i].yspeed *= -1;
 80419ac:	e0bff617 	ldw	r2,-40(fp)
 80419b0:	01400704 	movi	r5,28
 80419b4:	1009883a 	mov	r4,r2
 80419b8:	8042dac0 	call	8042dac <__mulsi3>
 80419bc:	1007883a 	mov	r3,r2
 80419c0:	e0bff817 	ldw	r2,-32(fp)
 80419c4:	10e3883a 	add	r17,r2,r3
 80419c8:	e0bff617 	ldw	r2,-40(fp)
 80419cc:	01400704 	movi	r5,28
 80419d0:	1009883a 	mov	r4,r2
 80419d4:	8042dac0 	call	8042dac <__mulsi3>
 80419d8:	1007883a 	mov	r3,r2
 80419dc:	e0bff817 	ldw	r2,-32(fp)
 80419e0:	10c5883a 	add	r2,r2,r3
 80419e4:	10800317 	ldw	r2,12(r2)
 80419e8:	0085c83a 	sub	r2,zero,r2
 80419ec:	88800315 	stw	r2,12(r17)
				collision_sound();
 80419f0:	8019883a 	mov	r12,r16
 80419f4:	804121c0 	call	804121c <collision_sound.3541>
 80419f8:	00002406 	br	8041a8c <update_ball.3544+0x81c>
			}
			else if (rect[i].y <= 0) {
 80419fc:	e0bff617 	ldw	r2,-40(fp)
 8041a00:	01400704 	movi	r5,28
 8041a04:	1009883a 	mov	r4,r2
 8041a08:	8042dac0 	call	8042dac <__mulsi3>
 8041a0c:	1007883a 	mov	r3,r2
 8041a10:	e0bff817 	ldw	r2,-32(fp)
 8041a14:	10c5883a 	add	r2,r2,r3
 8041a18:	10800117 	ldw	r2,4(r2)
 8041a1c:	00801b16 	blt	zero,r2,8041a8c <update_ball.3544+0x81c>
				rect[i].y = 0;
 8041a20:	e0bff617 	ldw	r2,-40(fp)
 8041a24:	01400704 	movi	r5,28
 8041a28:	1009883a 	mov	r4,r2
 8041a2c:	8042dac0 	call	8042dac <__mulsi3>
 8041a30:	1007883a 	mov	r3,r2
 8041a34:	e0bff817 	ldw	r2,-32(fp)
 8041a38:	10c5883a 	add	r2,r2,r3
 8041a3c:	10000115 	stw	zero,4(r2)
				rect[i].yspeed *= -1;
 8041a40:	e0bff617 	ldw	r2,-40(fp)
 8041a44:	01400704 	movi	r5,28
 8041a48:	1009883a 	mov	r4,r2
 8041a4c:	8042dac0 	call	8042dac <__mulsi3>
 8041a50:	1007883a 	mov	r3,r2
 8041a54:	e0bff817 	ldw	r2,-32(fp)
 8041a58:	10e3883a 	add	r17,r2,r3
 8041a5c:	e0bff617 	ldw	r2,-40(fp)
 8041a60:	01400704 	movi	r5,28
 8041a64:	1009883a 	mov	r4,r2
 8041a68:	8042dac0 	call	8042dac <__mulsi3>
 8041a6c:	1007883a 	mov	r3,r2
 8041a70:	e0bff817 	ldw	r2,-32(fp)
 8041a74:	10c5883a 	add	r2,r2,r3
 8041a78:	10800317 	ldw	r2,12(r2)
 8041a7c:	0085c83a 	sub	r2,zero,r2
 8041a80:	88800315 	stw	r2,12(r17)
				collision_sound();
 8041a84:	8019883a 	mov	r12,r16
 8041a88:	804121c0 	call	804121c <collision_sound.3541>
	void update_ball(Game* game) {
		int rect_len = (game -> balls_len);
		Rectangle* rect = (game -> balls);
		Rectangle* paddles = (game -> paddles);
		int* scores = (game -> scores);
		for(int i = 0; i< rect_len; i++) {
 8041a8c:	e0bff617 	ldw	r2,-40(fp)
 8041a90:	10800044 	addi	r2,r2,1
 8041a94:	e0bff615 	stw	r2,-40(fp)
 8041a98:	e0fff617 	ldw	r3,-40(fp)
 8041a9c:	e0bff717 	ldw	r2,-36(fp)
 8041aa0:	18be0b16 	blt	r3,r2,80412d0 <__alt_data_end+0xfffd9230>
				rect[i].y = 0;
				rect[i].yspeed *= -1;
				collision_sound();
			}
		}
	}
 8041aa4:	0001883a 	nop
 8041aa8:	e6fffd04 	addi	sp,fp,-12
 8041aac:	dfc00417 	ldw	ra,16(sp)
 8041ab0:	df000317 	ldw	fp,12(sp)
 8041ab4:	dc800217 	ldw	r18,8(sp)
 8041ab8:	dc400117 	ldw	r17,4(sp)
 8041abc:	dc000017 	ldw	r16,0(sp)
 8041ac0:	dec00504 	addi	sp,sp,20
 8041ac4:	f800283a 	ret

08041ac8 <clear.3557>:
	void clear(alt_up_pixel_buffer_dma_dev * pixel_buf_dma_dev, alt_up_char_buffer_dev * char_buf_dev,int buffer) {
 8041ac8:	defffa04 	addi	sp,sp,-24
 8041acc:	dfc00515 	stw	ra,20(sp)
 8041ad0:	df000415 	stw	fp,16(sp)
 8041ad4:	df000404 	addi	fp,sp,16
 8041ad8:	e13ffc15 	stw	r4,-16(fp)
 8041adc:	e17ffd15 	stw	r5,-12(fp)
 8041ae0:	e1bffe15 	stw	r6,-8(fp)
 8041ae4:	e33fff15 	stw	r12,-4(fp)
		// Clear the screen
		alt_up_pixel_buffer_dma_clear_screen(pixel_buf_dma_dev, buffer);
 8041ae8:	e17ffe17 	ldw	r5,-8(fp)
 8041aec:	e13ffc17 	ldw	r4,-16(fp)
 8041af0:	80528000 	call	8052800 <alt_up_pixel_buffer_dma_clear_screen>
		alt_up_char_buffer_clear(char_buf_dev);
 8041af4:	e13ffd17 	ldw	r4,-12(fp)
 8041af8:	80524d00 	call	80524d0 <alt_up_char_buffer_clear>
	}
 8041afc:	0001883a 	nop
 8041b00:	e037883a 	mov	sp,fp
 8041b04:	dfc00117 	ldw	ra,4(sp)
 8041b08:	df000017 	ldw	fp,0(sp)
 8041b0c:	dec00204 	addi	sp,sp,8
 8041b10:	f800283a 	ret

08041b14 <draw.3564>:
	// Renders game components on the screen
	void draw(alt_up_pixel_buffer_dma_dev * pixel_buf_dma_dev,int colour, int buffer, Rectangle rect[], int len) {
 8041b14:	defff104 	addi	sp,sp,-60
 8041b18:	dfc00e15 	stw	ra,56(sp)
 8041b1c:	df000d15 	stw	fp,52(sp)
 8041b20:	dcc00c15 	stw	r19,48(sp)
 8041b24:	dc800b15 	stw	r18,44(sp)
 8041b28:	dc400a15 	stw	r17,40(sp)
 8041b2c:	dc000915 	stw	r16,36(sp)
 8041b30:	df000d04 	addi	fp,sp,52
 8041b34:	e13ff715 	stw	r4,-36(fp)
 8041b38:	e17ff815 	stw	r5,-32(fp)
 8041b3c:	e1bff915 	stw	r6,-28(fp)
 8041b40:	e1fffa15 	stw	r7,-24(fp)
 8041b44:	e33ffb15 	stw	r12,-20(fp)
		// Draw each rectangle
		for(int i = 0; i<len; i++) {
 8041b48:	e03ff615 	stw	zero,-40(fp)
 8041b4c:	00004106 	br	8041c54 <draw.3564+0x140>
	//				alt_up_pixel_buffer_dma_draw(pixel_buf_dma_dev, colour, x, y);
	//			}
	//		}

			alt_up_pixel_buffer_dma_draw_box (pixel_buf_dma_dev,
					rect[i].x, rect[i].y, rect[i].x + rect[i].width - 1,
 8041b50:	e0bff617 	ldw	r2,-40(fp)
 8041b54:	01400704 	movi	r5,28
 8041b58:	1009883a 	mov	r4,r2
 8041b5c:	8042dac0 	call	8042dac <__mulsi3>
 8041b60:	1007883a 	mov	r3,r2
 8041b64:	e0bffa17 	ldw	r2,-24(fp)
 8041b68:	10c5883a 	add	r2,r2,r3
	//			for(int y = rect[i].y; y<rect[i].y + rect[i].height; y++) {
	//				alt_up_pixel_buffer_dma_draw(pixel_buf_dma_dev, colour, x, y);
	//			}
	//		}

			alt_up_pixel_buffer_dma_draw_box (pixel_buf_dma_dev,
 8041b6c:	14400017 	ldw	r17,0(r2)
					rect[i].x, rect[i].y, rect[i].x + rect[i].width - 1,
 8041b70:	e0bff617 	ldw	r2,-40(fp)
 8041b74:	01400704 	movi	r5,28
 8041b78:	1009883a 	mov	r4,r2
 8041b7c:	8042dac0 	call	8042dac <__mulsi3>
 8041b80:	1007883a 	mov	r3,r2
 8041b84:	e0bffa17 	ldw	r2,-24(fp)
 8041b88:	10c5883a 	add	r2,r2,r3
	//			for(int y = rect[i].y; y<rect[i].y + rect[i].height; y++) {
	//				alt_up_pixel_buffer_dma_draw(pixel_buf_dma_dev, colour, x, y);
	//			}
	//		}

			alt_up_pixel_buffer_dma_draw_box (pixel_buf_dma_dev,
 8041b8c:	14800117 	ldw	r18,4(r2)
					rect[i].x, rect[i].y, rect[i].x + rect[i].width - 1,
 8041b90:	e0bff617 	ldw	r2,-40(fp)
 8041b94:	01400704 	movi	r5,28
 8041b98:	1009883a 	mov	r4,r2
 8041b9c:	8042dac0 	call	8042dac <__mulsi3>
 8041ba0:	1007883a 	mov	r3,r2
 8041ba4:	e0bffa17 	ldw	r2,-24(fp)
 8041ba8:	10c5883a 	add	r2,r2,r3
 8041bac:	14000017 	ldw	r16,0(r2)
 8041bb0:	e0bff617 	ldw	r2,-40(fp)
 8041bb4:	01400704 	movi	r5,28
 8041bb8:	1009883a 	mov	r4,r2
 8041bbc:	8042dac0 	call	8042dac <__mulsi3>
 8041bc0:	1007883a 	mov	r3,r2
 8041bc4:	e0bffa17 	ldw	r2,-24(fp)
 8041bc8:	10c5883a 	add	r2,r2,r3
 8041bcc:	10800417 	ldw	r2,16(r2)
 8041bd0:	8085883a 	add	r2,r16,r2
	//			for(int y = rect[i].y; y<rect[i].y + rect[i].height; y++) {
	//				alt_up_pixel_buffer_dma_draw(pixel_buf_dma_dev, colour, x, y);
	//			}
	//		}

			alt_up_pixel_buffer_dma_draw_box (pixel_buf_dma_dev,
 8041bd4:	14ffffc4 	addi	r19,r2,-1
					rect[i].x, rect[i].y, rect[i].x + rect[i].width - 1,
					rect[i].y + rect[i].height - 1,
 8041bd8:	e0bff617 	ldw	r2,-40(fp)
 8041bdc:	01400704 	movi	r5,28
 8041be0:	1009883a 	mov	r4,r2
 8041be4:	8042dac0 	call	8042dac <__mulsi3>
 8041be8:	1007883a 	mov	r3,r2
 8041bec:	e0bffa17 	ldw	r2,-24(fp)
 8041bf0:	10c5883a 	add	r2,r2,r3
 8041bf4:	14000117 	ldw	r16,4(r2)
 8041bf8:	e0bff617 	ldw	r2,-40(fp)
 8041bfc:	01400704 	movi	r5,28
 8041c00:	1009883a 	mov	r4,r2
 8041c04:	8042dac0 	call	8042dac <__mulsi3>
 8041c08:	1007883a 	mov	r3,r2
 8041c0c:	e0bffa17 	ldw	r2,-24(fp)
 8041c10:	10c5883a 	add	r2,r2,r3
 8041c14:	10800517 	ldw	r2,20(r2)
 8041c18:	8085883a 	add	r2,r16,r2
	//			for(int y = rect[i].y; y<rect[i].y + rect[i].height; y++) {
	//				alt_up_pixel_buffer_dma_draw(pixel_buf_dma_dev, colour, x, y);
	//			}
	//		}

			alt_up_pixel_buffer_dma_draw_box (pixel_buf_dma_dev,
 8041c1c:	10bfffc4 	addi	r2,r2,-1
 8041c20:	e0fff917 	ldw	r3,-28(fp)
 8041c24:	d8c00215 	stw	r3,8(sp)
 8041c28:	e0fff817 	ldw	r3,-32(fp)
 8041c2c:	d8c00115 	stw	r3,4(sp)
 8041c30:	d8800015 	stw	r2,0(sp)
 8041c34:	980f883a 	mov	r7,r19
 8041c38:	900d883a 	mov	r6,r18
 8041c3c:	880b883a 	mov	r5,r17
 8041c40:	e13ff717 	ldw	r4,-36(fp)
 8041c44:	805293c0 	call	805293c <alt_up_pixel_buffer_dma_draw_box>
		alt_up_char_buffer_clear(char_buf_dev);
	}
	// Renders game components on the screen
	void draw(alt_up_pixel_buffer_dma_dev * pixel_buf_dma_dev,int colour, int buffer, Rectangle rect[], int len) {
		// Draw each rectangle
		for(int i = 0; i<len; i++) {
 8041c48:	e0bff617 	ldw	r2,-40(fp)
 8041c4c:	10800044 	addi	r2,r2,1
 8041c50:	e0bff615 	stw	r2,-40(fp)
 8041c54:	e0fff617 	ldw	r3,-40(fp)
 8041c58:	e0800217 	ldw	r2,8(fp)
 8041c5c:	18bfbc16 	blt	r3,r2,8041b50 <__alt_data_end+0xfffd9ab0>
			alt_up_pixel_buffer_dma_draw_box (pixel_buf_dma_dev,
					rect[i].x, rect[i].y, rect[i].x + rect[i].width - 1,
					rect[i].y + rect[i].height - 1,
					colour, buffer);
		}
	}
 8041c60:	0001883a 	nop
 8041c64:	e6fffc04 	addi	sp,fp,-16
 8041c68:	dfc00517 	ldw	ra,20(sp)
 8041c6c:	df000417 	ldw	fp,16(sp)
 8041c70:	dcc00317 	ldw	r19,12(sp)
 8041c74:	dc800217 	ldw	r18,8(sp)
 8041c78:	dc400117 	ldw	r17,4(sp)
 8041c7c:	dc000017 	ldw	r16,0(sp)
 8041c80:	dec00604 	addi	sp,sp,24
 8041c84:	f800283a 	ret

08041c88 <get_user_input.3571>:
	void get_user_input(Game* game) {
 8041c88:	defffa04 	addi	sp,sp,-24
 8041c8c:	df000515 	stw	fp,20(sp)
 8041c90:	df000504 	addi	fp,sp,20
 8041c94:	e13ffe15 	stw	r4,-8(fp)
 8041c98:	e33fff15 	stw	r12,-4(fp)
		int SW = IORD(SW_BASE, 0);
 8041c9c:	00820234 	movhi	r2,2056
 8041ca0:	108c9c04 	addi	r2,r2,12912
 8041ca4:	10800037 	ldwio	r2,0(r2)
 8041ca8:	e0bffc15 	stw	r2,-16(fp)
		int* user_input = game->user_input;
 8041cac:	e0bffe17 	ldw	r2,-8(fp)
 8041cb0:	10801f04 	addi	r2,r2,124
 8041cb4:	e0bffd15 	stw	r2,-12(fp)
		for(int i = 0; i<8; i++) {
 8041cb8:	e03ffb15 	stw	zero,-20(fp)
 8041cbc:	00000f06 	br	8041cfc <get_user_input.3571+0x74>
			user_input[i] = (0b1 << i) & SW;
 8041cc0:	e0bffb17 	ldw	r2,-20(fp)
 8041cc4:	1085883a 	add	r2,r2,r2
 8041cc8:	1085883a 	add	r2,r2,r2
 8041ccc:	1007883a 	mov	r3,r2
 8041cd0:	e0bffd17 	ldw	r2,-12(fp)
 8041cd4:	10c5883a 	add	r2,r2,r3
 8041cd8:	01000044 	movi	r4,1
 8041cdc:	e0fffb17 	ldw	r3,-20(fp)
 8041ce0:	20c8983a 	sll	r4,r4,r3
 8041ce4:	e0fffc17 	ldw	r3,-16(fp)
 8041ce8:	20c6703a 	and	r3,r4,r3
 8041cec:	10c00015 	stw	r3,0(r2)
		}
	}
	void get_user_input(Game* game) {
		int SW = IORD(SW_BASE, 0);
		int* user_input = game->user_input;
		for(int i = 0; i<8; i++) {
 8041cf0:	e0bffb17 	ldw	r2,-20(fp)
 8041cf4:	10800044 	addi	r2,r2,1
 8041cf8:	e0bffb15 	stw	r2,-20(fp)
 8041cfc:	e0bffb17 	ldw	r2,-20(fp)
 8041d00:	10800210 	cmplti	r2,r2,8
 8041d04:	103fee1e 	bne	r2,zero,8041cc0 <__alt_data_end+0xfffd9c20>
			user_input[i] = (0b1 << i) & SW;
		}
	}
 8041d08:	0001883a 	nop
 8041d0c:	e037883a 	mov	sp,fp
 8041d10:	df000017 	ldw	fp,0(sp)
 8041d14:	dec00104 	addi	sp,sp,4
 8041d18:	f800283a 	ret

08041d1c <reset_game.3580>:
	void reset_game(Game* game) {
 8041d1c:	defffb04 	addi	sp,sp,-20
 8041d20:	dfc00415 	stw	ra,16(sp)
 8041d24:	df000315 	stw	fp,12(sp)
 8041d28:	df000304 	addi	fp,sp,12
 8041d2c:	e13ffe15 	stw	r4,-8(fp)
 8041d30:	6007883a 	mov	r3,r12
 8041d34:	e33fff15 	stw	r12,-4(fp)
		// Reset score
		int* scores = game -> scores;
 8041d38:	e0bffe17 	ldw	r2,-8(fp)
 8041d3c:	10800204 	addi	r2,r2,8
 8041d40:	e0bffd15 	stw	r2,-12(fp)
		scores[0] = 0;
 8041d44:	e0bffd17 	ldw	r2,-12(fp)
 8041d48:	10000015 	stw	zero,0(r2)
		scores[1] = 0;
 8041d4c:	e0bffd17 	ldw	r2,-12(fp)
 8041d50:	10800104 	addi	r2,r2,4
 8041d54:	10000015 	stw	zero,0(r2)
		// Reset game time
		game -> time = 0;
 8041d58:	e0bffe17 	ldw	r2,-8(fp)
 8041d5c:	10002715 	stw	zero,156(r2)
		sprintf(time_str, "Time: %u", game->time);
 8041d60:	18c02804 	addi	r3,r3,160
 8041d64:	e0bffe17 	ldw	r2,-8(fp)
 8041d68:	10802717 	ldw	r2,156(r2)
 8041d6c:	100d883a 	mov	r6,r2
 8041d70:	01420174 	movhi	r5,2053
 8041d74:	29509c04 	addi	r5,r5,17008
 8041d78:	1809883a 	mov	r4,r3
 8041d7c:	80459600 	call	8045960 <sprintf>
	}
 8041d80:	0001883a 	nop
 8041d84:	e037883a 	mov	sp,fp
 8041d88:	dfc00117 	ldw	ra,4(sp)
 8041d8c:	df000017 	ldw	fp,0(sp)
 8041d90:	dec00204 	addi	sp,sp,8
 8041d94:	f800283a 	ret

08041d98 <check_win.3584>:
	int check_win(Game* game) {
 8041d98:	defffb04 	addi	sp,sp,-20
 8041d9c:	dfc00415 	stw	ra,16(sp)
 8041da0:	df000315 	stw	fp,12(sp)
 8041da4:	df000304 	addi	fp,sp,12
 8041da8:	e13ffe15 	stw	r4,-8(fp)
 8041dac:	6007883a 	mov	r3,r12
 8041db0:	e33fff15 	stw	r12,-4(fp)
		int* scores = game->scores;
 8041db4:	e0bffe17 	ldw	r2,-8(fp)
 8041db8:	10800204 	addi	r2,r2,8
 8041dbc:	e0bffd15 	stw	r2,-12(fp)
		if(scores[0]>=MAX_SCORE || scores[1]>=MAX_SCORE){
 8041dc0:	e0bffd17 	ldw	r2,-12(fp)
 8041dc4:	10800017 	ldw	r2,0(r2)
 8041dc8:	10801148 	cmpgei	r2,r2,69
 8041dcc:	1000051e 	bne	r2,zero,8041de4 <check_win.3584+0x4c>
 8041dd0:	e0bffd17 	ldw	r2,-12(fp)
 8041dd4:	10800104 	addi	r2,r2,4
 8041dd8:	10800017 	ldw	r2,0(r2)
 8041ddc:	10801150 	cmplti	r2,r2,69
 8041de0:	1000051e 	bne	r2,zero,8041df8 <check_win.3584+0x60>
			reset_game(game);
 8041de4:	1819883a 	mov	r12,r3
 8041de8:	e13ffe17 	ldw	r4,-8(fp)
 8041dec:	8041d1c0 	call	8041d1c <reset_game.3580>
			return 1;
 8041df0:	00800044 	movi	r2,1
 8041df4:	00000106 	br	8041dfc <check_win.3584+0x64>
		}
		return 0;
 8041df8:	0005883a 	mov	r2,zero

	}
 8041dfc:	e037883a 	mov	sp,fp
 8041e00:	dfc00117 	ldw	ra,4(sp)
 8041e04:	df000017 	ldw	fp,0(sp)
 8041e08:	dec00204 	addi	sp,sp,8
 8041e0c:	f800283a 	ret

08041e10 <run_game_tick.3591>:
	void run_game_tick(alt_up_pixel_buffer_dma_dev * pixel_buf_dma_dev, alt_up_char_buffer_dev * char_buf_dev, int buffer, Game* game) {
 8041e10:	defff504 	addi	sp,sp,-44
 8041e14:	dfc00a15 	stw	ra,40(sp)
 8041e18:	df000915 	stw	fp,36(sp)
 8041e1c:	dc000815 	stw	r16,32(sp)
 8041e20:	df000904 	addi	fp,sp,36
 8041e24:	e13ffa15 	stw	r4,-24(fp)
 8041e28:	e17ffb15 	stw	r5,-20(fp)
 8041e2c:	e1bffc15 	stw	r6,-16(fp)
 8041e30:	e1fffd15 	stw	r7,-12(fp)
 8041e34:	6021883a 	mov	r16,r12
 8041e38:	e33ffe15 	stw	r12,-8(fp)
		// Check for winner
		if(check_win(game)) {
 8041e3c:	8019883a 	mov	r12,r16
 8041e40:	e13ffd17 	ldw	r4,-12(fp)
 8041e44:	8041d980 	call	8041d98 <check_win.3584>
 8041e48:	10000526 	beq	r2,zero,8041e60 <run_game_tick.3591+0x50>
			clear(pixel_buf_dma_dev, char_buf_dev,0);
 8041e4c:	8019883a 	mov	r12,r16
 8041e50:	000d883a 	mov	r6,zero
 8041e54:	e17ffb17 	ldw	r5,-20(fp)
 8041e58:	e13ffa17 	ldw	r4,-24(fp)
 8041e5c:	8041ac80 	call	8041ac8 <clear.3557>
		}
		Rectangle* balls = (game -> balls);
 8041e60:	e0bffd17 	ldw	r2,-12(fp)
 8041e64:	10800604 	addi	r2,r2,24
 8041e68:	e0bff815 	stw	r2,-32(fp)
		Rectangle* paddles = (game -> paddles);
 8041e6c:	e0bffd17 	ldw	r2,-12(fp)
 8041e70:	10800d04 	addi	r2,r2,52
 8041e74:	e0bff915 	stw	r2,-28(fp)
		// Wait for screen refresh
		alt_up_pixel_buffer_dma_swap_buffers(pixel_buf_dma_dev);
 8041e78:	e13ffa17 	ldw	r4,-24(fp)
 8041e7c:	805276c0 	call	805276c <alt_up_pixel_buffer_dma_swap_buffers>
		while(alt_up_pixel_buffer_dma_check_swap_buffers_status(pixel_buf_dma_dev));
 8041e80:	0001883a 	nop
 8041e84:	e13ffa17 	ldw	r4,-24(fp)
 8041e88:	80527cc0 	call	80527cc <alt_up_pixel_buffer_dma_check_swap_buffers_status>
 8041e8c:	103ffd1e 	bne	r2,zero,8041e84 <__alt_data_end+0xfffd9de4>

		// User input
		get_user_input(game);
 8041e90:	8019883a 	mov	r12,r16
 8041e94:	e13ffd17 	ldw	r4,-12(fp)
 8041e98:	8041c880 	call	8041c88 <get_user_input.3571>
		// Cleanup - erase old objects
		draw(pixel_buf_dma_dev, BACKGROUND_COLOUR,buffer, balls, NUM_BALLS);
 8041e9c:	00800044 	movi	r2,1
 8041ea0:	d8800015 	stw	r2,0(sp)
 8041ea4:	8019883a 	mov	r12,r16
 8041ea8:	e1fff817 	ldw	r7,-32(fp)
 8041eac:	e1bffc17 	ldw	r6,-16(fp)
 8041eb0:	000b883a 	mov	r5,zero
 8041eb4:	e13ffa17 	ldw	r4,-24(fp)
 8041eb8:	8041b140 	call	8041b14 <draw.3564>
		draw(pixel_buf_dma_dev, BACKGROUND_COLOUR, buffer, paddles, NUM_PADDLES);
 8041ebc:	00800084 	movi	r2,2
 8041ec0:	d8800015 	stw	r2,0(sp)
 8041ec4:	8019883a 	mov	r12,r16
 8041ec8:	e1fff917 	ldw	r7,-28(fp)
 8041ecc:	e1bffc17 	ldw	r6,-16(fp)
 8041ed0:	000b883a 	mov	r5,zero
 8041ed4:	e13ffa17 	ldw	r4,-24(fp)
 8041ed8:	8041b140 	call	8041b14 <draw.3564>
		// Game logic
		cheat_code(game); // Checks for cheat code input
 8041edc:	8019883a 	mov	r12,r16
 8041ee0:	e13ffd17 	ldw	r4,-12(fp)
 8041ee4:	8040d5c0 	call	8040d5c <cheat_code.3520>
		update_ball(game);
 8041ee8:	8019883a 	mov	r12,r16
 8041eec:	e13ffd17 	ldw	r4,-12(fp)
 8041ef0:	80412700 	call	8041270 <update_ball.3544>
		update_paddle(game);
 8041ef4:	8019883a 	mov	r12,r16
 8041ef8:	e13ffd17 	ldw	r4,-12(fp)
 8041efc:	8040e240 	call	8040e24 <update_paddle.3525>
		// Render the screen
		draw(pixel_buf_dma_dev, BALL_COLOUR, buffer, balls, NUM_BALLS);
 8041f00:	00800044 	movi	r2,1
 8041f04:	d8800015 	stw	r2,0(sp)
 8041f08:	8019883a 	mov	r12,r16
 8041f0c:	e1fff817 	ldw	r7,-32(fp)
 8041f10:	e1bffc17 	ldw	r6,-16(fp)
 8041f14:	017fffd4 	movui	r5,65535
 8041f18:	e13ffa17 	ldw	r4,-24(fp)
 8041f1c:	8041b140 	call	8041b14 <draw.3564>
		draw(pixel_buf_dma_dev, PADDLE_COLOUR, buffer, paddles, NUM_PADDLES);
 8041f20:	00800084 	movi	r2,2
 8041f24:	d8800015 	stw	r2,0(sp)
 8041f28:	8019883a 	mov	r12,r16
 8041f2c:	e1fff917 	ldw	r7,-28(fp)
 8041f30:	e1bffc17 	ldw	r6,-16(fp)
 8041f34:	017fffd4 	movui	r5,65535
 8041f38:	e13ffa17 	ldw	r4,-24(fp)
 8041f3c:	8041b140 	call	8041b14 <draw.3564>
	}
 8041f40:	0001883a 	nop
 8041f44:	e6ffff04 	addi	sp,fp,-4
 8041f48:	dfc00217 	ldw	ra,8(sp)
 8041f4c:	df000117 	ldw	fp,4(sp)
 8041f50:	dc000017 	ldw	r16,0(sp)
 8041f54:	dec00304 	addi	sp,sp,12
 8041f58:	f800283a 	ret

08041f5c <music_on.3598>:
	void music_on(){
 8041f5c:	defffe04 	addi	sp,sp,-8
 8041f60:	df000115 	stw	fp,4(sp)
 8041f64:	df000104 	addi	fp,sp,4
 8041f68:	e33fff15 	stw	r12,-4(fp)
			IOWR(SINE_WAVE_AUDIO_MODULE_0_BASE, 0, 0x1);
 8041f6c:	00c00044 	movi	r3,1
 8041f70:	00820234 	movhi	r2,2056
 8041f74:	108cb004 	addi	r2,r2,12992
 8041f78:	10c00035 	stwio	r3,0(r2)
		}
 8041f7c:	0001883a 	nop
 8041f80:	e037883a 	mov	sp,fp
 8041f84:	df000017 	ldw	fp,0(sp)
 8041f88:	dec00104 	addi	sp,sp,4
 8041f8c:	f800283a 	ret

08041f90 <music_off.3600>:
	void music_off(){
 8041f90:	defffe04 	addi	sp,sp,-8
 8041f94:	df000115 	stw	fp,4(sp)
 8041f98:	df000104 	addi	fp,sp,4
 8041f9c:	e33fff15 	stw	r12,-4(fp)
			IOWR(SINE_WAVE_AUDIO_MODULE_0_BASE, 0, 0x0);
 8041fa0:	0007883a 	mov	r3,zero
 8041fa4:	00820234 	movhi	r2,2056
 8041fa8:	108cb004 	addi	r2,r2,12992
 8041fac:	10c00035 	stwio	r3,0(r2)
		}
 8041fb0:	0001883a 	nop
 8041fb4:	e037883a 	mov	sp,fp
 8041fb8:	df000017 	ldw	fp,0(sp)
 8041fbc:	dec00104 	addi	sp,sp,4
 8041fc0:	f800283a 	ret

08041fc4 <pause_menu.3603>:

	void pause_menu(alt_up_char_buffer_dev * char_buf_dev) {
 8041fc4:	defffb04 	addi	sp,sp,-20
 8041fc8:	dfc00415 	stw	ra,16(sp)
 8041fcc:	df000315 	stw	fp,12(sp)
 8041fd0:	dc000215 	stw	r16,8(sp)
 8041fd4:	df000304 	addi	fp,sp,12
 8041fd8:	e13ffd15 	stw	r4,-12(fp)
 8041fdc:	6021883a 	mov	r16,r12
 8041fe0:	e33ffe15 	stw	r12,-8(fp)
		alt_up_char_buffer_string(char_buf_dev, "Pain Pong", 37, 8);
 8041fe4:	01c00204 	movi	r7,8
 8041fe8:	01800944 	movi	r6,37
 8041fec:	01420174 	movhi	r5,2053
 8041ff0:	29511504 	addi	r5,r5,17492
 8041ff4:	e13ffd17 	ldw	r4,-12(fp)
 8041ff8:	80523d40 	call	80523d4 <alt_up_char_buffer_string>
		//Play music
		music_on();
 8041ffc:	8019883a 	mov	r12,r16
 8042000:	8041f5c0 	call	8041f5c <music_on.3598>

	}
 8042004:	0001883a 	nop
 8042008:	e6ffff04 	addi	sp,fp,-4
 804200c:	dfc00217 	ldw	ra,8(sp)
 8042010:	df000117 	ldw	fp,4(sp)
 8042014:	dc000017 	ldw	r16,0(sp)
 8042018:	dec00304 	addi	sp,sp,12
 804201c:	f800283a 	ret

08042020 <clear_pause_menu.3606>:
	void clear_pause_menu(alt_up_char_buffer_dev * char_buf_dev) {
 8042020:	defffb04 	addi	sp,sp,-20
 8042024:	dfc00415 	stw	ra,16(sp)
 8042028:	df000315 	stw	fp,12(sp)
 804202c:	dc000215 	stw	r16,8(sp)
 8042030:	df000304 	addi	fp,sp,12
 8042034:	e13ffd15 	stw	r4,-12(fp)
 8042038:	6021883a 	mov	r16,r12
 804203c:	e33ffe15 	stw	r12,-8(fp)
		alt_up_char_buffer_string(char_buf_dev, "         ", 37, 8);
 8042040:	01c00204 	movi	r7,8
 8042044:	01800944 	movi	r6,37
 8042048:	01420174 	movhi	r5,2053
 804204c:	29511804 	addi	r5,r5,17504
 8042050:	e13ffd17 	ldw	r4,-12(fp)
 8042054:	80523d40 	call	80523d4 <alt_up_char_buffer_string>
		//Stop Music
		music_off();
 8042058:	8019883a 	mov	r12,r16
 804205c:	8041f900 	call	8041f90 <music_off.3600>

	}
 8042060:	0001883a 	nop
 8042064:	e6ffff04 	addi	sp,fp,-4
 8042068:	dfc00217 	ldw	ra,8(sp)
 804206c:	df000117 	ldw	fp,4(sp)
 8042070:	dc000017 	ldw	r16,0(sp)
 8042074:	dec00304 	addi	sp,sp,12
 8042078:	f800283a 	ret

0804207c <generate_fruit.3609>:

	// Snake game functions ---
	void generate_fruit(SnakeGame* game) {
 804207c:	defffc04 	addi	sp,sp,-16
 8042080:	dfc00315 	stw	ra,12(sp)
 8042084:	df000215 	stw	fp,8(sp)
 8042088:	df000204 	addi	fp,sp,8
 804208c:	e13ffe15 	stw	r4,-8(fp)
 8042090:	e33fff15 	stw	r12,-4(fp)
		// Generate random coordinates for the fruit
		game->fruit.x = ( rand() % (SCREEN_WIDTH / SNAKE_PIXEL_SIZE) ) * SNAKE_PIXEL_SIZE;
 8042094:	80458a40 	call	80458a4 <rand>
 8042098:	1007883a 	mov	r3,r2
 804209c:	00a00034 	movhi	r2,32768
 80420a0:	10800fc4 	addi	r2,r2,63
 80420a4:	1884703a 	and	r2,r3,r2
 80420a8:	1000040e 	bge	r2,zero,80420bc <generate_fruit.3609+0x40>
 80420ac:	10bfffc4 	addi	r2,r2,-1
 80420b0:	00fff004 	movi	r3,-64
 80420b4:	10c4b03a 	or	r2,r2,r3
 80420b8:	10800044 	addi	r2,r2,1
 80420bc:	01400144 	movi	r5,5
 80420c0:	1009883a 	mov	r4,r2
 80420c4:	8042dac0 	call	8042dac <__mulsi3>
 80420c8:	1007883a 	mov	r3,r2
 80420cc:	e0bffe17 	ldw	r2,-8(fp)
 80420d0:	10c2bd15 	stw	r3,2804(r2)
		game->fruit.y = ( rand() % (SCREEN_HEIGHT / SNAKE_PIXEL_SIZE) ) * SNAKE_PIXEL_SIZE;
 80420d4:	80458a40 	call	80458a4 <rand>
 80420d8:	01400c04 	movi	r5,48
 80420dc:	1009883a 	mov	r4,r2
 80420e0:	8042c7c0 	call	8042c7c <__modsi3>
 80420e4:	01400144 	movi	r5,5
 80420e8:	1009883a 	mov	r4,r2
 80420ec:	8042dac0 	call	8042dac <__mulsi3>
 80420f0:	1007883a 	mov	r3,r2
 80420f4:	e0bffe17 	ldw	r2,-8(fp)
 80420f8:	10c2be15 	stw	r3,2808(r2)
		if(game->fruit.x==0) {
 80420fc:	e0bffe17 	ldw	r2,-8(fp)
 8042100:	1082bd17 	ldw	r2,2804(r2)
 8042104:	1000051e 	bne	r2,zero,804211c <generate_fruit.3609+0xa0>
			game->fruit.x += 1;
 8042108:	e0bffe17 	ldw	r2,-8(fp)
 804210c:	1082bd17 	ldw	r2,2804(r2)
 8042110:	10c00044 	addi	r3,r2,1
 8042114:	e0bffe17 	ldw	r2,-8(fp)
 8042118:	10c2bd15 	stw	r3,2804(r2)
		}
		if(game->fruit.y==0) {
 804211c:	e0bffe17 	ldw	r2,-8(fp)
 8042120:	1082be17 	ldw	r2,2808(r2)
 8042124:	1000051e 	bne	r2,zero,804213c <generate_fruit.3609+0xc0>
			game->fruit.y += 1;
 8042128:	e0bffe17 	ldw	r2,-8(fp)
 804212c:	1082be17 	ldw	r2,2808(r2)
 8042130:	10c00044 	addi	r3,r2,1
 8042134:	e0bffe17 	ldw	r2,-8(fp)
 8042138:	10c2be15 	stw	r3,2808(r2)
		}
	}
 804213c:	0001883a 	nop
 8042140:	e037883a 	mov	sp,fp
 8042144:	dfc00117 	ldw	ra,4(sp)
 8042148:	df000017 	ldw	fp,0(sp)
 804214c:	dec00204 	addi	sp,sp,8
 8042150:	f800283a 	ret

08042154 <check_opposite_direction.3613>:
	int check_opposite_direction(int previous_direction, int current_direction) {
 8042154:	defffc04 	addi	sp,sp,-16
 8042158:	df000315 	stw	fp,12(sp)
 804215c:	df000304 	addi	fp,sp,12
 8042160:	e13ffd15 	stw	r4,-12(fp)
 8042164:	e17ffe15 	stw	r5,-8(fp)
 8042168:	e33fff15 	stw	r12,-4(fp)
		// If previous direction is in the opposite direction (an illegal move)
		// of the current direction, return 1. Otherwise, return 0.
		if(
 804216c:	e0bffd17 	ldw	r2,-12(fp)
 8042170:	1000031e 	bne	r2,zero,8042180 <check_opposite_direction.3613+0x2c>
			(previous_direction==JOYSTICK_LEFT && current_direction == JOYSTICK_RIGHT)
 8042174:	e0bffe17 	ldw	r2,-8(fp)
 8042178:	10800060 	cmpeqi	r2,r2,1
 804217c:	1000111e 	bne	r2,zero,80421c4 <check_opposite_direction.3613+0x70>
			|| (previous_direction==JOYSTICK_RIGHT && current_direction == JOYSTICK_LEFT)
 8042180:	e0bffd17 	ldw	r2,-12(fp)
 8042184:	10800058 	cmpnei	r2,r2,1
 8042188:	1000021e 	bne	r2,zero,8042194 <check_opposite_direction.3613+0x40>
 804218c:	e0bffe17 	ldw	r2,-8(fp)
 8042190:	10000c26 	beq	r2,zero,80421c4 <check_opposite_direction.3613+0x70>
			|| (previous_direction==JOYSTICK_UP && current_direction == JOYSTICK_DOWN)
 8042194:	e0bffd17 	ldw	r2,-12(fp)
 8042198:	10800098 	cmpnei	r2,r2,2
 804219c:	1000031e 	bne	r2,zero,80421ac <check_opposite_direction.3613+0x58>
 80421a0:	e0bffe17 	ldw	r2,-8(fp)
 80421a4:	108000e0 	cmpeqi	r2,r2,3
 80421a8:	1000061e 	bne	r2,zero,80421c4 <check_opposite_direction.3613+0x70>
			|| (previous_direction==JOYSTICK_DOWN && current_direction == JOYSTICK_UP)
 80421ac:	e0bffd17 	ldw	r2,-12(fp)
 80421b0:	108000d8 	cmpnei	r2,r2,3
 80421b4:	1000051e 	bne	r2,zero,80421cc <check_opposite_direction.3613+0x78>
 80421b8:	e0bffe17 	ldw	r2,-8(fp)
 80421bc:	10800098 	cmpnei	r2,r2,2
 80421c0:	1000021e 	bne	r2,zero,80421cc <check_opposite_direction.3613+0x78>
		) {
			return 1;
 80421c4:	00800044 	movi	r2,1
 80421c8:	00000106 	br	80421d0 <check_opposite_direction.3613+0x7c>
		}
		return 0;
 80421cc:	0005883a 	mov	r2,zero
	}
 80421d0:	e037883a 	mov	sp,fp
 80421d4:	df000017 	ldw	fp,0(sp)
 80421d8:	dec00104 	addi	sp,sp,4
 80421dc:	f800283a 	ret

080421e0 <check_fruit_eaten.3616>:
	int check_fruit_eaten(SnakeGame* game) {
 80421e0:	defffc04 	addi	sp,sp,-16
 80421e4:	df000315 	stw	fp,12(sp)
 80421e8:	df000304 	addi	fp,sp,12
 80421ec:	e13ffe15 	stw	r4,-8(fp)
 80421f0:	e33fff15 	stw	r12,-4(fp)
		Rectangle* snake = game->snake;
 80421f4:	e0bffe17 	ldw	r2,-8(fp)
 80421f8:	e0bffd15 	stw	r2,-12(fp)
		if(snake[0].x==game->fruit.x && snake[0].y==game->fruit.y) {
 80421fc:	e0bffd17 	ldw	r2,-12(fp)
 8042200:	10c00017 	ldw	r3,0(r2)
 8042204:	e0bffe17 	ldw	r2,-8(fp)
 8042208:	1082bd17 	ldw	r2,2804(r2)
 804220c:	1880071e 	bne	r3,r2,804222c <check_fruit_eaten.3616+0x4c>
 8042210:	e0bffd17 	ldw	r2,-12(fp)
 8042214:	10c00117 	ldw	r3,4(r2)
 8042218:	e0bffe17 	ldw	r2,-8(fp)
 804221c:	1082be17 	ldw	r2,2808(r2)
 8042220:	1880021e 	bne	r3,r2,804222c <check_fruit_eaten.3616+0x4c>
			return 1;
 8042224:	00800044 	movi	r2,1
 8042228:	00000106 	br	8042230 <check_fruit_eaten.3616+0x50>
		}
		return 0;
 804222c:	0005883a 	mov	r2,zero
	}
 8042230:	e037883a 	mov	sp,fp
 8042234:	df000017 	ldw	fp,0(sp)
 8042238:	dec00104 	addi	sp,sp,4
 804223c:	f800283a 	ret

08042240 <update_snake.3620>:
	void update_snake(SnakeGame* game) {
 8042240:	deffeb04 	addi	sp,sp,-84
 8042244:	dfc01415 	stw	ra,80(sp)
 8042248:	df001315 	stw	fp,76(sp)
 804224c:	dc401215 	stw	r17,72(sp)
 8042250:	dc001115 	stw	r16,68(sp)
 8042254:	df001304 	addi	fp,sp,76
 8042258:	e13ffc15 	stw	r4,-16(fp)
 804225c:	6023883a 	mov	r17,r12
 8042260:	e33ffd15 	stw	r12,-12(fp)
		// Update joystick input values
		alt_u32 adc_val_horz = game->adc_val_horz;
 8042264:	e0bffc17 	ldw	r2,-16(fp)
 8042268:	1082c517 	ldw	r2,2836(r2)
 804226c:	e0bfee15 	stw	r2,-72(fp)
		alt_u32 adc_val_vert = game-> adc_val_vert;
 8042270:	e0bffc17 	ldw	r2,-16(fp)
 8042274:	1082c617 	ldw	r2,2840(r2)
 8042278:	e0bfef15 	stw	r2,-68(fp)

		game->previous_joystick_direction = game->current_joystick_direction;
 804227c:	e0bffc17 	ldw	r2,-16(fp)
 8042280:	10c2cf17 	ldw	r3,2876(r2)
 8042284:	e0bffc17 	ldw	r2,-16(fp)
 8042288:	10c2d015 	stw	r3,2880(r2)
		if(adc_val_horz < 1500) { // Left joystick input
 804228c:	e0bfee17 	ldw	r2,-72(fp)
 8042290:	10817728 	cmpgeui	r2,r2,1500
 8042294:	1000021e 	bne	r2,zero,80422a0 <update_snake.3620+0x60>
			game-> current_joystick_direction = JOYSTICK_LEFT;
 8042298:	e0bffc17 	ldw	r2,-16(fp)
 804229c:	1002cf15 	stw	zero,2876(r2)
		}
		if(adc_val_horz > 2500) { // Right
 80422a0:	e0bfee17 	ldw	r2,-72(fp)
 80422a4:	10827170 	cmpltui	r2,r2,2501
 80422a8:	1000031e 	bne	r2,zero,80422b8 <update_snake.3620+0x78>
			game-> current_joystick_direction = JOYSTICK_RIGHT;
 80422ac:	e0bffc17 	ldw	r2,-16(fp)
 80422b0:	00c00044 	movi	r3,1
 80422b4:	10c2cf15 	stw	r3,2876(r2)
		}
		if(adc_val_vert < 1500) { // Up
 80422b8:	e0bfef17 	ldw	r2,-68(fp)
 80422bc:	10817728 	cmpgeui	r2,r2,1500
 80422c0:	1000031e 	bne	r2,zero,80422d0 <update_snake.3620+0x90>
			game-> current_joystick_direction=JOYSTICK_UP;
 80422c4:	e0bffc17 	ldw	r2,-16(fp)
 80422c8:	00c00084 	movi	r3,2
 80422cc:	10c2cf15 	stw	r3,2876(r2)
		}
		if(adc_val_vert > 2500) { // Down
 80422d0:	e0bfef17 	ldw	r2,-68(fp)
 80422d4:	10827170 	cmpltui	r2,r2,2501
 80422d8:	1000031e 	bne	r2,zero,80422e8 <update_snake.3620+0xa8>
			game-> current_joystick_direction=JOYSTICK_DOWN;
 80422dc:	e0bffc17 	ldw	r2,-16(fp)
 80422e0:	00c000c4 	movi	r3,3
 80422e4:	10c2cf15 	stw	r3,2876(r2)
		}
		// If user tries to turn snake 180 degrees, override with the most recent direction input
		if(check_opposite_direction(game->previous_joystick_direction, game->current_joystick_direction)) {
 80422e8:	e0bffc17 	ldw	r2,-16(fp)
 80422ec:	10c2d017 	ldw	r3,2880(r2)
 80422f0:	e0bffc17 	ldw	r2,-16(fp)
 80422f4:	1082cf17 	ldw	r2,2876(r2)
 80422f8:	8819883a 	mov	r12,r17
 80422fc:	100b883a 	mov	r5,r2
 8042300:	1809883a 	mov	r4,r3
 8042304:	80421540 	call	8042154 <check_opposite_direction.3613>
 8042308:	10000426 	beq	r2,zero,804231c <update_snake.3620+0xdc>
			game-> current_joystick_direction=game->previous_joystick_direction;
 804230c:	e0bffc17 	ldw	r2,-16(fp)
 8042310:	10c2d017 	ldw	r3,2880(r2)
 8042314:	e0bffc17 	ldw	r2,-16(fp)
 8042318:	10c2cf15 	stw	r3,2876(r2)
		}
		// Update speed of head based off of user input
		Rectangle* snake = game->snake;
 804231c:	e0bffc17 	ldw	r2,-16(fp)
 8042320:	e0bff015 	stw	r2,-64(fp)
		switch(game->current_joystick_direction) {
 8042324:	e0bffc17 	ldw	r2,-16(fp)
 8042328:	1082cf17 	ldw	r2,2876(r2)
 804232c:	10c00060 	cmpeqi	r3,r2,1
 8042330:	18000f1e 	bne	r3,zero,8042370 <update_snake.3620+0x130>
 8042334:	10c00088 	cmpgei	r3,r2,2
 8042338:	1800021e 	bne	r3,zero,8042344 <update_snake.3620+0x104>
 804233c:	10000626 	beq	r2,zero,8042358 <update_snake.3620+0x118>
 8042340:	00001d06 	br	80423b8 <update_snake.3620+0x178>
 8042344:	10c000a0 	cmpeqi	r3,r2,2
 8042348:	18000f1e 	bne	r3,zero,8042388 <update_snake.3620+0x148>
 804234c:	108000e0 	cmpeqi	r2,r2,3
 8042350:	1000131e 	bne	r2,zero,80423a0 <update_snake.3620+0x160>
 8042354:	00001806 	br	80423b8 <update_snake.3620+0x178>
			case(JOYSTICK_LEFT): {
				snake[0].xspeed = -1 * SNAKE_PIXEL_SIZE;
 8042358:	e0bff017 	ldw	r2,-64(fp)
 804235c:	00fffec4 	movi	r3,-5
 8042360:	10c00215 	stw	r3,8(r2)
				snake[0].yspeed = 0;
 8042364:	e0bff017 	ldw	r2,-64(fp)
 8042368:	10000315 	stw	zero,12(r2)
				break;
 804236c:	00001806 	br	80423d0 <update_snake.3620+0x190>
			}
			case(JOYSTICK_RIGHT): {
				snake[0].xspeed = 1 * SNAKE_PIXEL_SIZE;
 8042370:	e0bff017 	ldw	r2,-64(fp)
 8042374:	00c00144 	movi	r3,5
 8042378:	10c00215 	stw	r3,8(r2)
				snake[0].yspeed = 0;
 804237c:	e0bff017 	ldw	r2,-64(fp)
 8042380:	10000315 	stw	zero,12(r2)
				break;
 8042384:	00001206 	br	80423d0 <update_snake.3620+0x190>
			}
			case(JOYSTICK_UP): {
				snake[0].xspeed = 0;
 8042388:	e0bff017 	ldw	r2,-64(fp)
 804238c:	10000215 	stw	zero,8(r2)
				snake[0].yspeed = -1 * SNAKE_PIXEL_SIZE;
 8042390:	e0bff017 	ldw	r2,-64(fp)
 8042394:	00fffec4 	movi	r3,-5
 8042398:	10c00315 	stw	r3,12(r2)
				break;
 804239c:	00000c06 	br	80423d0 <update_snake.3620+0x190>
			}
			case(JOYSTICK_DOWN): {
				snake[0].xspeed = 0;
 80423a0:	e0bff017 	ldw	r2,-64(fp)
 80423a4:	10000215 	stw	zero,8(r2)
				snake[0].yspeed = 1 * SNAKE_PIXEL_SIZE;
 80423a8:	e0bff017 	ldw	r2,-64(fp)
 80423ac:	00c00144 	movi	r3,5
 80423b0:	10c00315 	stw	r3,12(r2)
				break;
 80423b4:	00000606 	br	80423d0 <update_snake.3620+0x190>
			}
			default: { // Default to JOYSTICK_RIGHT
				snake[0].xspeed = 1 * SNAKE_PIXEL_SIZE;
 80423b8:	e0bff017 	ldw	r2,-64(fp)
 80423bc:	00c00144 	movi	r3,5
 80423c0:	10c00215 	stw	r3,8(r2)
				snake[0].yspeed = 0;
 80423c4:	e0bff017 	ldw	r2,-64(fp)
 80423c8:	10000315 	stw	zero,12(r2)
				break;
 80423cc:	0001883a 	nop
			}
		}
		// Update position of head and body segments
		int snake_size = game->snake_size;
 80423d0:	e0bffc17 	ldw	r2,-16(fp)
 80423d4:	1082bc17 	ldw	r2,2800(r2)
 80423d8:	e0bff115 	stw	r2,-60(fp)
		int old_tail_x = snake[snake_size-1].x;
 80423dc:	e0bff117 	ldw	r2,-60(fp)
 80423e0:	01400704 	movi	r5,28
 80423e4:	1009883a 	mov	r4,r2
 80423e8:	8042dac0 	call	8042dac <__mulsi3>
 80423ec:	10bff904 	addi	r2,r2,-28
 80423f0:	e0fff017 	ldw	r3,-64(fp)
 80423f4:	1885883a 	add	r2,r3,r2
 80423f8:	10800017 	ldw	r2,0(r2)
 80423fc:	e0bff215 	stw	r2,-56(fp)
		int old_tail_y = snake[snake_size-1].y;
 8042400:	e0bff117 	ldw	r2,-60(fp)
 8042404:	01400704 	movi	r5,28
 8042408:	1009883a 	mov	r4,r2
 804240c:	8042dac0 	call	8042dac <__mulsi3>
 8042410:	10bff904 	addi	r2,r2,-28
 8042414:	e0fff017 	ldw	r3,-64(fp)
 8042418:	1885883a 	add	r2,r3,r2
 804241c:	10800117 	ldw	r2,4(r2)
 8042420:	e0bff315 	stw	r2,-52(fp)
		int score = game-> score;
 8042424:	e0bffc17 	ldw	r2,-16(fp)
 8042428:	1082c417 	ldw	r2,2832(r2)
 804242c:	e0bff415 	stw	r2,-48(fp)
		// Shift the position of every body segment "up by one"
		for(int i = snake_size-1; i>0; i--) {
 8042430:	e0bff117 	ldw	r2,-60(fp)
 8042434:	10bfffc4 	addi	r2,r2,-1
 8042438:	e0bfed15 	stw	r2,-76(fp)
 804243c:	00002306 	br	80424cc <update_snake.3620+0x28c>
			snake[i].x = snake[i-1].x;
 8042440:	e0bfed17 	ldw	r2,-76(fp)
 8042444:	01400704 	movi	r5,28
 8042448:	1009883a 	mov	r4,r2
 804244c:	8042dac0 	call	8042dac <__mulsi3>
 8042450:	1007883a 	mov	r3,r2
 8042454:	e0bff017 	ldw	r2,-64(fp)
 8042458:	10e1883a 	add	r16,r2,r3
 804245c:	e0bfed17 	ldw	r2,-76(fp)
 8042460:	01400704 	movi	r5,28
 8042464:	1009883a 	mov	r4,r2
 8042468:	8042dac0 	call	8042dac <__mulsi3>
 804246c:	10bff904 	addi	r2,r2,-28
 8042470:	e0fff017 	ldw	r3,-64(fp)
 8042474:	1885883a 	add	r2,r3,r2
 8042478:	10800017 	ldw	r2,0(r2)
 804247c:	80800015 	stw	r2,0(r16)
			snake[i].y = snake[i-1].y;
 8042480:	e0bfed17 	ldw	r2,-76(fp)
 8042484:	01400704 	movi	r5,28
 8042488:	1009883a 	mov	r4,r2
 804248c:	8042dac0 	call	8042dac <__mulsi3>
 8042490:	1007883a 	mov	r3,r2
 8042494:	e0bff017 	ldw	r2,-64(fp)
 8042498:	10e1883a 	add	r16,r2,r3
 804249c:	e0bfed17 	ldw	r2,-76(fp)
 80424a0:	01400704 	movi	r5,28
 80424a4:	1009883a 	mov	r4,r2
 80424a8:	8042dac0 	call	8042dac <__mulsi3>
 80424ac:	10bff904 	addi	r2,r2,-28
 80424b0:	e0fff017 	ldw	r3,-64(fp)
 80424b4:	1885883a 	add	r2,r3,r2
 80424b8:	10800117 	ldw	r2,4(r2)
 80424bc:	80800115 	stw	r2,4(r16)
		int snake_size = game->snake_size;
		int old_tail_x = snake[snake_size-1].x;
		int old_tail_y = snake[snake_size-1].y;
		int score = game-> score;
		// Shift the position of every body segment "up by one"
		for(int i = snake_size-1; i>0; i--) {
 80424c0:	e0bfed17 	ldw	r2,-76(fp)
 80424c4:	10bfffc4 	addi	r2,r2,-1
 80424c8:	e0bfed15 	stw	r2,-76(fp)
 80424cc:	e0bfed17 	ldw	r2,-76(fp)
 80424d0:	00bfdb16 	blt	zero,r2,8042440 <__alt_data_end+0xfffda3a0>
			snake[i].x = snake[i-1].x;
			snake[i].y = snake[i-1].y;
		}
		snake[0].x += snake[0].xspeed;
 80424d4:	e0bff017 	ldw	r2,-64(fp)
 80424d8:	10c00017 	ldw	r3,0(r2)
 80424dc:	e0bff017 	ldw	r2,-64(fp)
 80424e0:	10800217 	ldw	r2,8(r2)
 80424e4:	1887883a 	add	r3,r3,r2
 80424e8:	e0bff017 	ldw	r2,-64(fp)
 80424ec:	10c00015 	stw	r3,0(r2)
		snake[0].y += snake[0].yspeed;
 80424f0:	e0bff017 	ldw	r2,-64(fp)
 80424f4:	10c00117 	ldw	r3,4(r2)
 80424f8:	e0bff017 	ldw	r2,-64(fp)
 80424fc:	10800317 	ldw	r2,12(r2)
 8042500:	1887883a 	add	r3,r3,r2
 8042504:	e0bff017 	ldw	r2,-64(fp)
 8042508:	10c00115 	stw	r3,4(r2)
		// If fruit eaten, add a body segment at the last segment's previous position
		if(check_fruit_eaten(game)) {
 804250c:	8819883a 	mov	r12,r17
 8042510:	e13ffc17 	ldw	r4,-16(fp)
 8042514:	80421e00 	call	80421e0 <check_fruit_eaten.3616>
 8042518:	10002e26 	beq	r2,zero,80425d4 <update_snake.3620+0x394>
			(game->snake_size)++;
 804251c:	e0bffc17 	ldw	r2,-16(fp)
 8042520:	1082bc17 	ldw	r2,2800(r2)
 8042524:	10c00044 	addi	r3,r2,1
 8042528:	e0bffc17 	ldw	r2,-16(fp)
 804252c:	10c2bc15 	stw	r3,2800(r2)
			(game->score)++;
 8042530:	e0bffc17 	ldw	r2,-16(fp)
 8042534:	1082c417 	ldw	r2,2832(r2)
 8042538:	10c00044 	addi	r3,r2,1
 804253c:	e0bffc17 	ldw	r2,-16(fp)
 8042540:	10c2c415 	stw	r3,2832(r2)
			Rectangle new_tail = {old_tail_x, old_tail_y, 0, 0, SNAKE_PIXEL_SIZE, SNAKE_PIXEL_SIZE, SNAKE_COLOUR};
 8042544:	e0bff217 	ldw	r2,-56(fp)
 8042548:	e0bff515 	stw	r2,-44(fp)
 804254c:	e0bff317 	ldw	r2,-52(fp)
 8042550:	e0bff615 	stw	r2,-40(fp)
 8042554:	e03ff715 	stw	zero,-36(fp)
 8042558:	e03ff815 	stw	zero,-32(fp)
 804255c:	00800144 	movi	r2,5
 8042560:	e0bff915 	stw	r2,-28(fp)
 8042564:	00800144 	movi	r2,5
 8042568:	e0bffa15 	stw	r2,-24(fp)
 804256c:	0083fc04 	movi	r2,4080
 8042570:	e0bffb15 	stw	r2,-20(fp)
			snake[snake_size-1] = new_tail;
 8042574:	e0bff117 	ldw	r2,-60(fp)
 8042578:	01400704 	movi	r5,28
 804257c:	1009883a 	mov	r4,r2
 8042580:	8042dac0 	call	8042dac <__mulsi3>
 8042584:	10bff904 	addi	r2,r2,-28
 8042588:	e0fff017 	ldw	r3,-64(fp)
 804258c:	1885883a 	add	r2,r3,r2
 8042590:	e0fff517 	ldw	r3,-44(fp)
 8042594:	10c00015 	stw	r3,0(r2)
 8042598:	e0fff617 	ldw	r3,-40(fp)
 804259c:	10c00115 	stw	r3,4(r2)
 80425a0:	e0fff717 	ldw	r3,-36(fp)
 80425a4:	10c00215 	stw	r3,8(r2)
 80425a8:	e0fff817 	ldw	r3,-32(fp)
 80425ac:	10c00315 	stw	r3,12(r2)
 80425b0:	e0fff917 	ldw	r3,-28(fp)
 80425b4:	10c00415 	stw	r3,16(r2)
 80425b8:	e0fffa17 	ldw	r3,-24(fp)
 80425bc:	10c00515 	stw	r3,20(r2)
 80425c0:	e0fffb17 	ldw	r3,-20(fp)
 80425c4:	10c00615 	stw	r3,24(r2)
			// Move fruit to new location
			generate_fruit(game);
 80425c8:	8819883a 	mov	r12,r17
 80425cc:	e13ffc17 	ldw	r4,-16(fp)
 80425d0:	804207c0 	call	804207c <generate_fruit.3609>
		}
	}
 80425d4:	0001883a 	nop
 80425d8:	e6fffe04 	addi	sp,fp,-8
 80425dc:	dfc00317 	ldw	ra,12(sp)
 80425e0:	df000217 	ldw	fp,8(sp)
 80425e4:	dc400117 	ldw	r17,4(sp)
 80425e8:	dc000017 	ldw	r16,0(sp)
 80425ec:	dec00404 	addi	sp,sp,16
 80425f0:	f800283a 	ret

080425f4 <check_snake_collision.3641>:
	int check_snake_collision(SnakeGame* game) {
 80425f4:	defff804 	addi	sp,sp,-32
 80425f8:	dfc00715 	stw	ra,28(sp)
 80425fc:	df000615 	stw	fp,24(sp)
 8042600:	dc000515 	stw	r16,20(sp)
 8042604:	df000604 	addi	fp,sp,24
 8042608:	e13ffd15 	stw	r4,-12(fp)
 804260c:	e33ffe15 	stw	r12,-8(fp)
		Rectangle* snake = game->snake;
 8042610:	e0bffd17 	ldw	r2,-12(fp)
 8042614:	e0bffb15 	stw	r2,-20(fp)
		int snake_size = game->snake_size;
 8042618:	e0bffd17 	ldw	r2,-12(fp)
 804261c:	1082bc17 	ldw	r2,2800(r2)
 8042620:	e0bffc15 	stw	r2,-16(fp)
		for(int i = 1; i<snake_size; i++) {
 8042624:	00800044 	movi	r2,1
 8042628:	e0bffa15 	stw	r2,-24(fp)
 804262c:	00001b06 	br	804269c <check_snake_collision.3641+0xa8>
			// Snake head collides with one of its body segments
			if(snake[0].x==snake[i].x && snake[0].y==snake[i].y) {
 8042630:	e0bffb17 	ldw	r2,-20(fp)
 8042634:	14000017 	ldw	r16,0(r2)
 8042638:	e0bffa17 	ldw	r2,-24(fp)
 804263c:	01400704 	movi	r5,28
 8042640:	1009883a 	mov	r4,r2
 8042644:	8042dac0 	call	8042dac <__mulsi3>
 8042648:	1007883a 	mov	r3,r2
 804264c:	e0bffb17 	ldw	r2,-20(fp)
 8042650:	10c5883a 	add	r2,r2,r3
 8042654:	10800017 	ldw	r2,0(r2)
 8042658:	80800d1e 	bne	r16,r2,8042690 <check_snake_collision.3641+0x9c>
 804265c:	e0bffb17 	ldw	r2,-20(fp)
 8042660:	14000117 	ldw	r16,4(r2)
 8042664:	e0bffa17 	ldw	r2,-24(fp)
 8042668:	01400704 	movi	r5,28
 804266c:	1009883a 	mov	r4,r2
 8042670:	8042dac0 	call	8042dac <__mulsi3>
 8042674:	1007883a 	mov	r3,r2
 8042678:	e0bffb17 	ldw	r2,-20(fp)
 804267c:	10c5883a 	add	r2,r2,r3
 8042680:	10800117 	ldw	r2,4(r2)
 8042684:	8080021e 	bne	r16,r2,8042690 <check_snake_collision.3641+0x9c>
				return 1;
 8042688:	00800044 	movi	r2,1
 804268c:	00001706 	br	80426ec <check_snake_collision.3641+0xf8>
		}
	}
	int check_snake_collision(SnakeGame* game) {
		Rectangle* snake = game->snake;
		int snake_size = game->snake_size;
		for(int i = 1; i<snake_size; i++) {
 8042690:	e0bffa17 	ldw	r2,-24(fp)
 8042694:	10800044 	addi	r2,r2,1
 8042698:	e0bffa15 	stw	r2,-24(fp)
 804269c:	e0fffa17 	ldw	r3,-24(fp)
 80426a0:	e0bffc17 	ldw	r2,-16(fp)
 80426a4:	18bfe216 	blt	r3,r2,8042630 <__alt_data_end+0xfffda590>
				return 1;
				game->game_over_flag = 1;
			}
		}
		// Snake head collides with edge of screen
		if(snake[0].x<=0 || snake[0].x>=SCREEN_WIDTH || snake[0].y<=0 || snake[0].y>=SCREEN_HEIGHT) {
 80426a8:	e0bffb17 	ldw	r2,-20(fp)
 80426ac:	10800017 	ldw	r2,0(r2)
 80426b0:	00800b0e 	bge	zero,r2,80426e0 <check_snake_collision.3641+0xec>
 80426b4:	e0bffb17 	ldw	r2,-20(fp)
 80426b8:	10800017 	ldw	r2,0(r2)
 80426bc:	10805008 	cmpgei	r2,r2,320
 80426c0:	1000071e 	bne	r2,zero,80426e0 <check_snake_collision.3641+0xec>
 80426c4:	e0bffb17 	ldw	r2,-20(fp)
 80426c8:	10800117 	ldw	r2,4(r2)
 80426cc:	0080040e 	bge	zero,r2,80426e0 <check_snake_collision.3641+0xec>
 80426d0:	e0bffb17 	ldw	r2,-20(fp)
 80426d4:	10800117 	ldw	r2,4(r2)
 80426d8:	10803c10 	cmplti	r2,r2,240
 80426dc:	1000021e 	bne	r2,zero,80426e8 <check_snake_collision.3641+0xf4>
			return 1;
 80426e0:	00800044 	movi	r2,1
 80426e4:	00000106 	br	80426ec <check_snake_collision.3641+0xf8>
			game->game_over_flag = 1;
		}
		return 0;
 80426e8:	0005883a 	mov	r2,zero
	}
 80426ec:	e6ffff04 	addi	sp,fp,-4
 80426f0:	dfc00217 	ldw	ra,8(sp)
 80426f4:	df000117 	ldw	fp,4(sp)
 80426f8:	dc000017 	ldw	r16,0(sp)
 80426fc:	dec00304 	addi	sp,sp,12
 8042700:	f800283a 	ret

08042704 <reset_game_snake.3652>:
	void reset_game_snake(SnakeGame* game, alt_up_pixel_buffer_dma_dev * pixel_buf_dma_dev, alt_up_char_buffer_dev * char_buf_dev) {
 8042704:	defff804 	addi	sp,sp,-32
 8042708:	dfc00715 	stw	ra,28(sp)
 804270c:	df000615 	stw	fp,24(sp)
 8042710:	dc000515 	stw	r16,20(sp)
 8042714:	df000604 	addi	fp,sp,24
 8042718:	e13ffb15 	stw	r4,-20(fp)
 804271c:	e17ffc15 	stw	r5,-16(fp)
 8042720:	e1bffd15 	stw	r6,-12(fp)
 8042724:	6021883a 	mov	r16,r12
 8042728:	e33ffe15 	stw	r12,-8(fp)
		clear(pixel_buf_dma_dev, char_buf_dev,0);
 804272c:	8019883a 	mov	r12,r16
 8042730:	000d883a 	mov	r6,zero
 8042734:	e17ffd17 	ldw	r5,-12(fp)
 8042738:	e13ffc17 	ldw	r4,-16(fp)
 804273c:	8041ac80 	call	8041ac8 <clear.3557>
		// Reset game parameters to default values
		game-> snake_size = 1;
 8042740:	e0bffb17 	ldw	r2,-20(fp)
 8042744:	00c00044 	movi	r3,1
 8042748:	10c2bc15 	stw	r3,2800(r2)
		Rectangle* snake = game-> snake;
 804274c:	e0bffb17 	ldw	r2,-20(fp)
 8042750:	e0bffa15 	stw	r2,-24(fp)
		game->snake[0].x = SNAKE_DEFAULT_X;
 8042754:	e0bffb17 	ldw	r2,-20(fp)
 8042758:	00c02804 	movi	r3,160
 804275c:	10c00015 	stw	r3,0(r2)
		game->snake[0].y = SNAKE_DEFAULT_Y;
 8042760:	e0bffb17 	ldw	r2,-20(fp)
 8042764:	00c01e04 	movi	r3,120
 8042768:	10c00115 	stw	r3,4(r2)
		game->snake[0].xspeed = 0;
 804276c:	e0bffb17 	ldw	r2,-20(fp)
 8042770:	10000215 	stw	zero,8(r2)
		game->snake[0].yspeed = 0;
 8042774:	e0bffb17 	ldw	r2,-20(fp)
 8042778:	10000315 	stw	zero,12(r2)
		game-> score = 0;
 804277c:	e0bffb17 	ldw	r2,-20(fp)
 8042780:	1002c415 	stw	zero,2832(r2)
		game-> current_joystick_direction = JOYSTICK_RIGHT;
 8042784:	e0bffb17 	ldw	r2,-20(fp)
 8042788:	00c00044 	movi	r3,1
 804278c:	10c2cf15 	stw	r3,2876(r2)
		game-> previous_joystick_direction= JOYSTICK_RIGHT;
 8042790:	e0bffb17 	ldw	r2,-20(fp)
 8042794:	00c00044 	movi	r3,1
 8042798:	10c2d015 	stw	r3,2880(r2)
		game-> time= 0;
 804279c:	e0bffb17 	ldw	r2,-20(fp)
 80427a0:	1002d115 	stw	zero,2884(r2)
		game-> game_over_flag = 0;
 80427a4:	e0bffb17 	ldw	r2,-20(fp)
 80427a8:	1002d215 	stw	zero,2888(r2)
		// Generate a random location for the fruit
		generate_fruit(game);
 80427ac:	8019883a 	mov	r12,r16
 80427b0:	e13ffb17 	ldw	r4,-20(fp)
 80427b4:	804207c0 	call	804207c <generate_fruit.3609>
	}
 80427b8:	0001883a 	nop
 80427bc:	e6ffff04 	addi	sp,fp,-4
 80427c0:	dfc00217 	ldw	ra,8(sp)
 80427c4:	df000117 	ldw	fp,4(sp)
 80427c8:	dc000017 	ldw	r16,0(sp)
 80427cc:	dec00304 	addi	sp,sp,12
 80427d0:	f800283a 	ret

080427d4 <snake_game_over.3658>:
	void snake_game_over(SnakeGame* game, alt_up_pixel_buffer_dma_dev * pixel_buf_dma_dev, alt_up_char_buffer_dev * char_buf_dev) {
 80427d4:	defff704 	addi	sp,sp,-36
 80427d8:	dfc00815 	stw	ra,32(sp)
 80427dc:	df000715 	stw	fp,28(sp)
 80427e0:	df000704 	addi	fp,sp,28
 80427e4:	e13ffc15 	stw	r4,-16(fp)
 80427e8:	e17ffd15 	stw	r5,-12(fp)
 80427ec:	e1bffe15 	stw	r6,-8(fp)
 80427f0:	6005883a 	mov	r2,r12
 80427f4:	e33fff15 	stw	r12,-4(fp)
		// Display game over screen
		clear(pixel_buf_dma_dev, char_buf_dev,0);
 80427f8:	1019883a 	mov	r12,r2
 80427fc:	000d883a 	mov	r6,zero
 8042800:	e17ffe17 	ldw	r5,-8(fp)
 8042804:	e13ffd17 	ldw	r4,-12(fp)
 8042808:	8041ac80 	call	8041ac8 <clear.3557>
		char score_str[5];
		int score = game-> score;
 804280c:	e0bffc17 	ldw	r2,-16(fp)
 8042810:	1082c417 	ldw	r2,2832(r2)
 8042814:	e0bff915 	stw	r2,-28(fp)
	    sprintf(score_str, "Score: %u", score);
 8042818:	e0bffa04 	addi	r2,fp,-24
 804281c:	e1bff917 	ldw	r6,-28(fp)
 8042820:	01420174 	movhi	r5,2053
 8042824:	29511b04 	addi	r5,r5,17516
 8042828:	1009883a 	mov	r4,r2
 804282c:	80459600 	call	8045960 <sprintf>
	    alt_up_char_buffer_string(char_buf_dev, "Game Over", 37, 8);
 8042830:	01c00204 	movi	r7,8
 8042834:	01800944 	movi	r6,37
 8042838:	01420174 	movhi	r5,2053
 804283c:	29511e04 	addi	r5,r5,17528
 8042840:	e13ffe17 	ldw	r4,-8(fp)
 8042844:	80523d40 	call	80523d4 <alt_up_char_buffer_string>
	    alt_up_char_buffer_string(char_buf_dev, score_str, 37, 20);
 8042848:	e0bffa04 	addi	r2,fp,-24
 804284c:	01c00504 	movi	r7,20
 8042850:	01800944 	movi	r6,37
 8042854:	100b883a 	mov	r5,r2
 8042858:	e13ffe17 	ldw	r4,-8(fp)
 804285c:	80523d40 	call	80523d4 <alt_up_char_buffer_string>
	}
 8042860:	0001883a 	nop
 8042864:	e037883a 	mov	sp,fp
 8042868:	dfc00117 	ldw	ra,4(sp)
 804286c:	df000017 	ldw	fp,0(sp)
 8042870:	dec00204 	addi	sp,sp,8
 8042874:	f800283a 	ret

08042878 <run_game_tick_snake.3665>:
	void run_game_tick_snake(SnakeGame* game, alt_up_pixel_buffer_dma_dev* pixel_buf_dma_dev, alt_up_char_buffer_dev* char_buf_dev) {
 8042878:	deffe804 	addi	sp,sp,-96
 804287c:	dfc01715 	stw	ra,92(sp)
 8042880:	df001615 	stw	fp,88(sp)
 8042884:	dcc01515 	stw	r19,84(sp)
 8042888:	dc801415 	stw	r18,80(sp)
 804288c:	dc401315 	stw	r17,76(sp)
 8042890:	dc001215 	stw	r16,72(sp)
 8042894:	df001604 	addi	fp,sp,88
 8042898:	e13ff815 	stw	r4,-32(fp)
 804289c:	e17ff915 	stw	r5,-28(fp)
 80428a0:	e1bffa15 	stw	r6,-24(fp)
 80428a4:	6021883a 	mov	r16,r12
 80428a8:	e33ffb15 	stw	r12,-20(fp)
		Rectangle* snake = game->snake;
 80428ac:	e0bff817 	ldw	r2,-32(fp)
 80428b0:	e0bfef15 	stw	r2,-68(fp)
		Rectangle fruit = game->fruit;
 80428b4:	e0bff817 	ldw	r2,-32(fp)
 80428b8:	10c2bd17 	ldw	r3,2804(r2)
 80428bc:	e0fff115 	stw	r3,-60(fp)
 80428c0:	10c2be17 	ldw	r3,2808(r2)
 80428c4:	e0fff215 	stw	r3,-56(fp)
 80428c8:	10c2bf17 	ldw	r3,2812(r2)
 80428cc:	e0fff315 	stw	r3,-52(fp)
 80428d0:	10c2c017 	ldw	r3,2816(r2)
 80428d4:	e0fff415 	stw	r3,-48(fp)
 80428d8:	10c2c117 	ldw	r3,2820(r2)
 80428dc:	e0fff515 	stw	r3,-44(fp)
 80428e0:	10c2c217 	ldw	r3,2824(r2)
 80428e4:	e0fff615 	stw	r3,-40(fp)
 80428e8:	1082c317 	ldw	r2,2828(r2)
 80428ec:	e0bff715 	stw	r2,-36(fp)
		int snake_size = game->snake_size;
 80428f0:	e0bff817 	ldw	r2,-32(fp)
 80428f4:	1082bc17 	ldw	r2,2800(r2)
 80428f8:	e0bff015 	stw	r2,-64(fp)
		// Check for game over
		if((game->game_over_flag) || check_snake_collision(game)) {
 80428fc:	e0bff817 	ldw	r2,-32(fp)
 8042900:	1082d217 	ldw	r2,2888(r2)
 8042904:	1000041e 	bne	r2,zero,8042918 <run_game_tick_snake.3665+0xa0>
 8042908:	8019883a 	mov	r12,r16
 804290c:	e13ff817 	ldw	r4,-32(fp)
 8042910:	80425f40 	call	80425f4 <check_snake_collision.3641>
 8042914:	10000626 	beq	r2,zero,8042930 <run_game_tick_snake.3665+0xb8>
			// Display game over screen
			snake_game_over(game, pixel_buf_dma_dev, char_buf_dev);
 8042918:	8019883a 	mov	r12,r16
 804291c:	e1bffa17 	ldw	r6,-24(fp)
 8042920:	e17ff917 	ldw	r5,-28(fp)
 8042924:	e13ff817 	ldw	r4,-32(fp)
 8042928:	80427d40 	call	80427d4 <snake_game_over.3658>
 804292c:	00008b06 	br	8042b5c <run_game_tick_snake.3665+0x2e4>
//			}

		}
		else {
			// Wait for screen refresh
			alt_up_pixel_buffer_dma_swap_buffers(pixel_buf_dma_dev);
 8042930:	e13ff917 	ldw	r4,-28(fp)
 8042934:	805276c0 	call	805276c <alt_up_pixel_buffer_dma_swap_buffers>
			while(alt_up_pixel_buffer_dma_check_swap_buffers_status(pixel_buf_dma_dev));
 8042938:	0001883a 	nop
 804293c:	e13ff917 	ldw	r4,-28(fp)
 8042940:	80527cc0 	call	80527cc <alt_up_pixel_buffer_dma_check_swap_buffers_status>
 8042944:	103ffd1e 	bne	r2,zero,804293c <__alt_data_end+0xfffda89c>
			// Cleanup old game objects
			alt_up_pixel_buffer_dma_draw_box (pixel_buf_dma_dev,
 8042948:	e0fff117 	ldw	r3,-60(fp)
 804294c:	e13ff217 	ldw	r4,-56(fp)
						fruit.x, fruit.y, fruit.x+SNAKE_PIXEL_SIZE, fruit.y+SNAKE_PIXEL_SIZE,
 8042950:	e0bff117 	ldw	r2,-60(fp)
		else {
			// Wait for screen refresh
			alt_up_pixel_buffer_dma_swap_buffers(pixel_buf_dma_dev);
			while(alt_up_pixel_buffer_dma_check_swap_buffers_status(pixel_buf_dma_dev));
			// Cleanup old game objects
			alt_up_pixel_buffer_dma_draw_box (pixel_buf_dma_dev,
 8042954:	11400144 	addi	r5,r2,5
						fruit.x, fruit.y, fruit.x+SNAKE_PIXEL_SIZE, fruit.y+SNAKE_PIXEL_SIZE,
 8042958:	e0bff217 	ldw	r2,-56(fp)
		else {
			// Wait for screen refresh
			alt_up_pixel_buffer_dma_swap_buffers(pixel_buf_dma_dev);
			while(alt_up_pixel_buffer_dma_check_swap_buffers_status(pixel_buf_dma_dev));
			// Cleanup old game objects
			alt_up_pixel_buffer_dma_draw_box (pixel_buf_dma_dev,
 804295c:	10800144 	addi	r2,r2,5
 8042960:	d8000215 	stw	zero,8(sp)
 8042964:	d8000115 	stw	zero,4(sp)
 8042968:	d8800015 	stw	r2,0(sp)
 804296c:	280f883a 	mov	r7,r5
 8042970:	200d883a 	mov	r6,r4
 8042974:	180b883a 	mov	r5,r3
 8042978:	e13ff917 	ldw	r4,-28(fp)
 804297c:	805293c0 	call	805293c <alt_up_pixel_buffer_dma_draw_box>
						fruit.x, fruit.y, fruit.x+SNAKE_PIXEL_SIZE, fruit.y+SNAKE_PIXEL_SIZE,
						BACKGROUND_COLOUR, 0);
			for(int i = 0; i<snake_size; i++) {
 8042980:	e03fed15 	stw	zero,-76(fp)
 8042984:	00002d06 	br	8042a3c <run_game_tick_snake.3665+0x1c4>
				alt_up_pixel_buffer_dma_draw_box (pixel_buf_dma_dev,
						snake[i].x, snake[i].y, snake[i].x+SNAKE_PIXEL_SIZE, snake[i].y+SNAKE_PIXEL_SIZE,
 8042988:	e0bfed17 	ldw	r2,-76(fp)
 804298c:	01400704 	movi	r5,28
 8042990:	1009883a 	mov	r4,r2
 8042994:	8042dac0 	call	8042dac <__mulsi3>
 8042998:	1007883a 	mov	r3,r2
 804299c:	e0bfef17 	ldw	r2,-68(fp)
 80429a0:	10c5883a 	add	r2,r2,r3
			// Cleanup old game objects
			alt_up_pixel_buffer_dma_draw_box (pixel_buf_dma_dev,
						fruit.x, fruit.y, fruit.x+SNAKE_PIXEL_SIZE, fruit.y+SNAKE_PIXEL_SIZE,
						BACKGROUND_COLOUR, 0);
			for(int i = 0; i<snake_size; i++) {
				alt_up_pixel_buffer_dma_draw_box (pixel_buf_dma_dev,
 80429a4:	14400017 	ldw	r17,0(r2)
						snake[i].x, snake[i].y, snake[i].x+SNAKE_PIXEL_SIZE, snake[i].y+SNAKE_PIXEL_SIZE,
 80429a8:	e0bfed17 	ldw	r2,-76(fp)
 80429ac:	01400704 	movi	r5,28
 80429b0:	1009883a 	mov	r4,r2
 80429b4:	8042dac0 	call	8042dac <__mulsi3>
 80429b8:	1007883a 	mov	r3,r2
 80429bc:	e0bfef17 	ldw	r2,-68(fp)
 80429c0:	10c5883a 	add	r2,r2,r3
			// Cleanup old game objects
			alt_up_pixel_buffer_dma_draw_box (pixel_buf_dma_dev,
						fruit.x, fruit.y, fruit.x+SNAKE_PIXEL_SIZE, fruit.y+SNAKE_PIXEL_SIZE,
						BACKGROUND_COLOUR, 0);
			for(int i = 0; i<snake_size; i++) {
				alt_up_pixel_buffer_dma_draw_box (pixel_buf_dma_dev,
 80429c4:	14800117 	ldw	r18,4(r2)
						snake[i].x, snake[i].y, snake[i].x+SNAKE_PIXEL_SIZE, snake[i].y+SNAKE_PIXEL_SIZE,
 80429c8:	e0bfed17 	ldw	r2,-76(fp)
 80429cc:	01400704 	movi	r5,28
 80429d0:	1009883a 	mov	r4,r2
 80429d4:	8042dac0 	call	8042dac <__mulsi3>
 80429d8:	1007883a 	mov	r3,r2
 80429dc:	e0bfef17 	ldw	r2,-68(fp)
 80429e0:	10c5883a 	add	r2,r2,r3
 80429e4:	10800017 	ldw	r2,0(r2)
			// Cleanup old game objects
			alt_up_pixel_buffer_dma_draw_box (pixel_buf_dma_dev,
						fruit.x, fruit.y, fruit.x+SNAKE_PIXEL_SIZE, fruit.y+SNAKE_PIXEL_SIZE,
						BACKGROUND_COLOUR, 0);
			for(int i = 0; i<snake_size; i++) {
				alt_up_pixel_buffer_dma_draw_box (pixel_buf_dma_dev,
 80429e8:	14c00144 	addi	r19,r2,5
						snake[i].x, snake[i].y, snake[i].x+SNAKE_PIXEL_SIZE, snake[i].y+SNAKE_PIXEL_SIZE,
 80429ec:	e0bfed17 	ldw	r2,-76(fp)
 80429f0:	01400704 	movi	r5,28
 80429f4:	1009883a 	mov	r4,r2
 80429f8:	8042dac0 	call	8042dac <__mulsi3>
 80429fc:	1007883a 	mov	r3,r2
 8042a00:	e0bfef17 	ldw	r2,-68(fp)
 8042a04:	10c5883a 	add	r2,r2,r3
 8042a08:	10800117 	ldw	r2,4(r2)
			// Cleanup old game objects
			alt_up_pixel_buffer_dma_draw_box (pixel_buf_dma_dev,
						fruit.x, fruit.y, fruit.x+SNAKE_PIXEL_SIZE, fruit.y+SNAKE_PIXEL_SIZE,
						BACKGROUND_COLOUR, 0);
			for(int i = 0; i<snake_size; i++) {
				alt_up_pixel_buffer_dma_draw_box (pixel_buf_dma_dev,
 8042a0c:	10800144 	addi	r2,r2,5
 8042a10:	d8000215 	stw	zero,8(sp)
 8042a14:	d8000115 	stw	zero,4(sp)
 8042a18:	d8800015 	stw	r2,0(sp)
 8042a1c:	980f883a 	mov	r7,r19
 8042a20:	900d883a 	mov	r6,r18
 8042a24:	880b883a 	mov	r5,r17
 8042a28:	e13ff917 	ldw	r4,-28(fp)
 8042a2c:	805293c0 	call	805293c <alt_up_pixel_buffer_dma_draw_box>
			while(alt_up_pixel_buffer_dma_check_swap_buffers_status(pixel_buf_dma_dev));
			// Cleanup old game objects
			alt_up_pixel_buffer_dma_draw_box (pixel_buf_dma_dev,
						fruit.x, fruit.y, fruit.x+SNAKE_PIXEL_SIZE, fruit.y+SNAKE_PIXEL_SIZE,
						BACKGROUND_COLOUR, 0);
			for(int i = 0; i<snake_size; i++) {
 8042a30:	e0bfed17 	ldw	r2,-76(fp)
 8042a34:	10800044 	addi	r2,r2,1
 8042a38:	e0bfed15 	stw	r2,-76(fp)
 8042a3c:	e0ffed17 	ldw	r3,-76(fp)
 8042a40:	e0bff017 	ldw	r2,-64(fp)
 8042a44:	18bfd016 	blt	r3,r2,8042988 <__alt_data_end+0xfffda8e8>
				alt_up_pixel_buffer_dma_draw_box (pixel_buf_dma_dev,
						snake[i].x, snake[i].y, snake[i].x+SNAKE_PIXEL_SIZE, snake[i].y+SNAKE_PIXEL_SIZE,
						BACKGROUND_COLOUR, 0);
			}
			// Game logic - update
			update_snake(game);
 8042a48:	8019883a 	mov	r12,r16
 8042a4c:	e13ff817 	ldw	r4,-32(fp)
 8042a50:	80422400 	call	8042240 <update_snake.3620>
			// Draw screen
			alt_up_pixel_buffer_dma_draw_box (pixel_buf_dma_dev,
 8042a54:	e13ff117 	ldw	r4,-60(fp)
 8042a58:	e17ff217 	ldw	r5,-56(fp)
						fruit.x, fruit.y, fruit.x+SNAKE_PIXEL_SIZE, fruit.y+SNAKE_PIXEL_SIZE,
 8042a5c:	e0bff117 	ldw	r2,-60(fp)
						BACKGROUND_COLOUR, 0);
			}
			// Game logic - update
			update_snake(game);
			// Draw screen
			alt_up_pixel_buffer_dma_draw_box (pixel_buf_dma_dev,
 8042a60:	11800144 	addi	r6,r2,5
						fruit.x, fruit.y, fruit.x+SNAKE_PIXEL_SIZE, fruit.y+SNAKE_PIXEL_SIZE,
 8042a64:	e0bff217 	ldw	r2,-56(fp)
						BACKGROUND_COLOUR, 0);
			}
			// Game logic - update
			update_snake(game);
			// Draw screen
			alt_up_pixel_buffer_dma_draw_box (pixel_buf_dma_dev,
 8042a68:	10800144 	addi	r2,r2,5
 8042a6c:	d8000215 	stw	zero,8(sp)
 8042a70:	00fc0014 	movui	r3,61440
 8042a74:	d8c00115 	stw	r3,4(sp)
 8042a78:	d8800015 	stw	r2,0(sp)
 8042a7c:	300f883a 	mov	r7,r6
 8042a80:	280d883a 	mov	r6,r5
 8042a84:	200b883a 	mov	r5,r4
 8042a88:	e13ff917 	ldw	r4,-28(fp)
 8042a8c:	805293c0 	call	805293c <alt_up_pixel_buffer_dma_draw_box>
						fruit.x, fruit.y, fruit.x+SNAKE_PIXEL_SIZE, fruit.y+SNAKE_PIXEL_SIZE,
						FRUIT_COLOUR, 0);
			for(int i = 0; i<snake_size; i++) {
 8042a90:	e03fee15 	stw	zero,-72(fp)
 8042a94:	00002e06 	br	8042b50 <run_game_tick_snake.3665+0x2d8>
				alt_up_pixel_buffer_dma_draw_box (pixel_buf_dma_dev,
						snake[i].x, snake[i].y, snake[i].x+SNAKE_PIXEL_SIZE, snake[i].y+SNAKE_PIXEL_SIZE,
 8042a98:	e0bfee17 	ldw	r2,-72(fp)
 8042a9c:	01400704 	movi	r5,28
 8042aa0:	1009883a 	mov	r4,r2
 8042aa4:	8042dac0 	call	8042dac <__mulsi3>
 8042aa8:	1007883a 	mov	r3,r2
 8042aac:	e0bfef17 	ldw	r2,-68(fp)
 8042ab0:	10c5883a 	add	r2,r2,r3
			// Draw screen
			alt_up_pixel_buffer_dma_draw_box (pixel_buf_dma_dev,
						fruit.x, fruit.y, fruit.x+SNAKE_PIXEL_SIZE, fruit.y+SNAKE_PIXEL_SIZE,
						FRUIT_COLOUR, 0);
			for(int i = 0; i<snake_size; i++) {
				alt_up_pixel_buffer_dma_draw_box (pixel_buf_dma_dev,
 8042ab4:	14000017 	ldw	r16,0(r2)
						snake[i].x, snake[i].y, snake[i].x+SNAKE_PIXEL_SIZE, snake[i].y+SNAKE_PIXEL_SIZE,
 8042ab8:	e0bfee17 	ldw	r2,-72(fp)
 8042abc:	01400704 	movi	r5,28
 8042ac0:	1009883a 	mov	r4,r2
 8042ac4:	8042dac0 	call	8042dac <__mulsi3>
 8042ac8:	1007883a 	mov	r3,r2
 8042acc:	e0bfef17 	ldw	r2,-68(fp)
 8042ad0:	10c5883a 	add	r2,r2,r3
			// Draw screen
			alt_up_pixel_buffer_dma_draw_box (pixel_buf_dma_dev,
						fruit.x, fruit.y, fruit.x+SNAKE_PIXEL_SIZE, fruit.y+SNAKE_PIXEL_SIZE,
						FRUIT_COLOUR, 0);
			for(int i = 0; i<snake_size; i++) {
				alt_up_pixel_buffer_dma_draw_box (pixel_buf_dma_dev,
 8042ad4:	14400117 	ldw	r17,4(r2)
						snake[i].x, snake[i].y, snake[i].x+SNAKE_PIXEL_SIZE, snake[i].y+SNAKE_PIXEL_SIZE,
 8042ad8:	e0bfee17 	ldw	r2,-72(fp)
 8042adc:	01400704 	movi	r5,28
 8042ae0:	1009883a 	mov	r4,r2
 8042ae4:	8042dac0 	call	8042dac <__mulsi3>
 8042ae8:	1007883a 	mov	r3,r2
 8042aec:	e0bfef17 	ldw	r2,-68(fp)
 8042af0:	10c5883a 	add	r2,r2,r3
 8042af4:	10800017 	ldw	r2,0(r2)
			// Draw screen
			alt_up_pixel_buffer_dma_draw_box (pixel_buf_dma_dev,
						fruit.x, fruit.y, fruit.x+SNAKE_PIXEL_SIZE, fruit.y+SNAKE_PIXEL_SIZE,
						FRUIT_COLOUR, 0);
			for(int i = 0; i<snake_size; i++) {
				alt_up_pixel_buffer_dma_draw_box (pixel_buf_dma_dev,
 8042af8:	14800144 	addi	r18,r2,5
						snake[i].x, snake[i].y, snake[i].x+SNAKE_PIXEL_SIZE, snake[i].y+SNAKE_PIXEL_SIZE,
 8042afc:	e0bfee17 	ldw	r2,-72(fp)
 8042b00:	01400704 	movi	r5,28
 8042b04:	1009883a 	mov	r4,r2
 8042b08:	8042dac0 	call	8042dac <__mulsi3>
 8042b0c:	1007883a 	mov	r3,r2
 8042b10:	e0bfef17 	ldw	r2,-68(fp)
 8042b14:	10c5883a 	add	r2,r2,r3
 8042b18:	10800117 	ldw	r2,4(r2)
			// Draw screen
			alt_up_pixel_buffer_dma_draw_box (pixel_buf_dma_dev,
						fruit.x, fruit.y, fruit.x+SNAKE_PIXEL_SIZE, fruit.y+SNAKE_PIXEL_SIZE,
						FRUIT_COLOUR, 0);
			for(int i = 0; i<snake_size; i++) {
				alt_up_pixel_buffer_dma_draw_box (pixel_buf_dma_dev,
 8042b1c:	10800144 	addi	r2,r2,5
 8042b20:	d8000215 	stw	zero,8(sp)
 8042b24:	00c3fc04 	movi	r3,4080
 8042b28:	d8c00115 	stw	r3,4(sp)
 8042b2c:	d8800015 	stw	r2,0(sp)
 8042b30:	900f883a 	mov	r7,r18
 8042b34:	880d883a 	mov	r6,r17
 8042b38:	800b883a 	mov	r5,r16
 8042b3c:	e13ff917 	ldw	r4,-28(fp)
 8042b40:	805293c0 	call	805293c <alt_up_pixel_buffer_dma_draw_box>
			update_snake(game);
			// Draw screen
			alt_up_pixel_buffer_dma_draw_box (pixel_buf_dma_dev,
						fruit.x, fruit.y, fruit.x+SNAKE_PIXEL_SIZE, fruit.y+SNAKE_PIXEL_SIZE,
						FRUIT_COLOUR, 0);
			for(int i = 0; i<snake_size; i++) {
 8042b44:	e0bfee17 	ldw	r2,-72(fp)
 8042b48:	10800044 	addi	r2,r2,1
 8042b4c:	e0bfee15 	stw	r2,-72(fp)
 8042b50:	e0ffee17 	ldw	r3,-72(fp)
 8042b54:	e0bff017 	ldw	r2,-64(fp)
 8042b58:	18bfcf16 	blt	r3,r2,8042a98 <__alt_data_end+0xfffda9f8>
						snake[i].x, snake[i].y, snake[i].x+SNAKE_PIXEL_SIZE, snake[i].y+SNAKE_PIXEL_SIZE,
						SNAKE_COLOUR, 0);
			}
		}

	}
 8042b5c:	0001883a 	nop
 8042b60:	e6fffc04 	addi	sp,fp,-16
 8042b64:	dfc00517 	ldw	ra,20(sp)
 8042b68:	df000417 	ldw	fp,16(sp)
 8042b6c:	dcc00317 	ldw	r19,12(sp)
 8042b70:	dc800217 	ldw	r18,8(sp)
 8042b74:	dc400117 	ldw	r17,4(sp)
 8042b78:	dc000017 	ldw	r16,0(sp)
 8042b7c:	dec00604 	addi	sp,sp,24
 8042b80:	f800283a 	ret

08042b84 <__fixunsdfsi>:
 8042b84:	defffd04 	addi	sp,sp,-12
 8042b88:	000d883a 	mov	r6,zero
 8042b8c:	01d07834 	movhi	r7,16864
 8042b90:	dc400115 	stw	r17,4(sp)
 8042b94:	dc000015 	stw	r16,0(sp)
 8042b98:	dfc00215 	stw	ra,8(sp)
 8042b9c:	2023883a 	mov	r17,r4
 8042ba0:	2821883a 	mov	r16,r5
 8042ba4:	8043e740 	call	8043e74 <__gedf2>
 8042ba8:	1000080e 	bge	r2,zero,8042bcc <__fixunsdfsi+0x48>
 8042bac:	8809883a 	mov	r4,r17
 8042bb0:	800b883a 	mov	r5,r16
 8042bb4:	80451ac0 	call	80451ac <__fixdfsi>
 8042bb8:	dfc00217 	ldw	ra,8(sp)
 8042bbc:	dc400117 	ldw	r17,4(sp)
 8042bc0:	dc000017 	ldw	r16,0(sp)
 8042bc4:	dec00304 	addi	sp,sp,12
 8042bc8:	f800283a 	ret
 8042bcc:	000d883a 	mov	r6,zero
 8042bd0:	01d07834 	movhi	r7,16864
 8042bd4:	8809883a 	mov	r4,r17
 8042bd8:	800b883a 	mov	r5,r16
 8042bdc:	80448b00 	call	80448b0 <__subdf3>
 8042be0:	180b883a 	mov	r5,r3
 8042be4:	1009883a 	mov	r4,r2
 8042be8:	80451ac0 	call	80451ac <__fixdfsi>
 8042bec:	00e00034 	movhi	r3,32768
 8042bf0:	10c5883a 	add	r2,r2,r3
 8042bf4:	003ff006 	br	8042bb8 <__alt_data_end+0xfffdab18>

08042bf8 <__divsi3>:
 8042bf8:	20001b16 	blt	r4,zero,8042c68 <__divsi3+0x70>
 8042bfc:	000f883a 	mov	r7,zero
 8042c00:	28001616 	blt	r5,zero,8042c5c <__divsi3+0x64>
 8042c04:	200d883a 	mov	r6,r4
 8042c08:	29001a2e 	bgeu	r5,r4,8042c74 <__divsi3+0x7c>
 8042c0c:	00800804 	movi	r2,32
 8042c10:	00c00044 	movi	r3,1
 8042c14:	00000106 	br	8042c1c <__divsi3+0x24>
 8042c18:	10000d26 	beq	r2,zero,8042c50 <__divsi3+0x58>
 8042c1c:	294b883a 	add	r5,r5,r5
 8042c20:	10bfffc4 	addi	r2,r2,-1
 8042c24:	18c7883a 	add	r3,r3,r3
 8042c28:	293ffb36 	bltu	r5,r4,8042c18 <__alt_data_end+0xfffdab78>
 8042c2c:	0005883a 	mov	r2,zero
 8042c30:	18000726 	beq	r3,zero,8042c50 <__divsi3+0x58>
 8042c34:	0005883a 	mov	r2,zero
 8042c38:	31400236 	bltu	r6,r5,8042c44 <__divsi3+0x4c>
 8042c3c:	314dc83a 	sub	r6,r6,r5
 8042c40:	10c4b03a 	or	r2,r2,r3
 8042c44:	1806d07a 	srli	r3,r3,1
 8042c48:	280ad07a 	srli	r5,r5,1
 8042c4c:	183ffa1e 	bne	r3,zero,8042c38 <__alt_data_end+0xfffdab98>
 8042c50:	38000126 	beq	r7,zero,8042c58 <__divsi3+0x60>
 8042c54:	0085c83a 	sub	r2,zero,r2
 8042c58:	f800283a 	ret
 8042c5c:	014bc83a 	sub	r5,zero,r5
 8042c60:	39c0005c 	xori	r7,r7,1
 8042c64:	003fe706 	br	8042c04 <__alt_data_end+0xfffdab64>
 8042c68:	0109c83a 	sub	r4,zero,r4
 8042c6c:	01c00044 	movi	r7,1
 8042c70:	003fe306 	br	8042c00 <__alt_data_end+0xfffdab60>
 8042c74:	00c00044 	movi	r3,1
 8042c78:	003fee06 	br	8042c34 <__alt_data_end+0xfffdab94>

08042c7c <__modsi3>:
 8042c7c:	20001716 	blt	r4,zero,8042cdc <__modsi3+0x60>
 8042c80:	000f883a 	mov	r7,zero
 8042c84:	2005883a 	mov	r2,r4
 8042c88:	28001216 	blt	r5,zero,8042cd4 <__modsi3+0x58>
 8042c8c:	2900162e 	bgeu	r5,r4,8042ce8 <__modsi3+0x6c>
 8042c90:	01800804 	movi	r6,32
 8042c94:	00c00044 	movi	r3,1
 8042c98:	00000106 	br	8042ca0 <__modsi3+0x24>
 8042c9c:	30000a26 	beq	r6,zero,8042cc8 <__modsi3+0x4c>
 8042ca0:	294b883a 	add	r5,r5,r5
 8042ca4:	31bfffc4 	addi	r6,r6,-1
 8042ca8:	18c7883a 	add	r3,r3,r3
 8042cac:	293ffb36 	bltu	r5,r4,8042c9c <__alt_data_end+0xfffdabfc>
 8042cb0:	18000526 	beq	r3,zero,8042cc8 <__modsi3+0x4c>
 8042cb4:	1806d07a 	srli	r3,r3,1
 8042cb8:	11400136 	bltu	r2,r5,8042cc0 <__modsi3+0x44>
 8042cbc:	1145c83a 	sub	r2,r2,r5
 8042cc0:	280ad07a 	srli	r5,r5,1
 8042cc4:	183ffb1e 	bne	r3,zero,8042cb4 <__alt_data_end+0xfffdac14>
 8042cc8:	38000126 	beq	r7,zero,8042cd0 <__modsi3+0x54>
 8042ccc:	0085c83a 	sub	r2,zero,r2
 8042cd0:	f800283a 	ret
 8042cd4:	014bc83a 	sub	r5,zero,r5
 8042cd8:	003fec06 	br	8042c8c <__alt_data_end+0xfffdabec>
 8042cdc:	0109c83a 	sub	r4,zero,r4
 8042ce0:	01c00044 	movi	r7,1
 8042ce4:	003fe706 	br	8042c84 <__alt_data_end+0xfffdabe4>
 8042ce8:	00c00044 	movi	r3,1
 8042cec:	003ff106 	br	8042cb4 <__alt_data_end+0xfffdac14>

08042cf0 <__udivsi3>:
 8042cf0:	200d883a 	mov	r6,r4
 8042cf4:	2900152e 	bgeu	r5,r4,8042d4c <__udivsi3+0x5c>
 8042cf8:	28001416 	blt	r5,zero,8042d4c <__udivsi3+0x5c>
 8042cfc:	00800804 	movi	r2,32
 8042d00:	00c00044 	movi	r3,1
 8042d04:	00000206 	br	8042d10 <__udivsi3+0x20>
 8042d08:	10000e26 	beq	r2,zero,8042d44 <__udivsi3+0x54>
 8042d0c:	28000516 	blt	r5,zero,8042d24 <__udivsi3+0x34>
 8042d10:	294b883a 	add	r5,r5,r5
 8042d14:	10bfffc4 	addi	r2,r2,-1
 8042d18:	18c7883a 	add	r3,r3,r3
 8042d1c:	293ffa36 	bltu	r5,r4,8042d08 <__alt_data_end+0xfffdac68>
 8042d20:	18000826 	beq	r3,zero,8042d44 <__udivsi3+0x54>
 8042d24:	0005883a 	mov	r2,zero
 8042d28:	31400236 	bltu	r6,r5,8042d34 <__udivsi3+0x44>
 8042d2c:	314dc83a 	sub	r6,r6,r5
 8042d30:	10c4b03a 	or	r2,r2,r3
 8042d34:	1806d07a 	srli	r3,r3,1
 8042d38:	280ad07a 	srli	r5,r5,1
 8042d3c:	183ffa1e 	bne	r3,zero,8042d28 <__alt_data_end+0xfffdac88>
 8042d40:	f800283a 	ret
 8042d44:	0005883a 	mov	r2,zero
 8042d48:	f800283a 	ret
 8042d4c:	00c00044 	movi	r3,1
 8042d50:	003ff406 	br	8042d24 <__alt_data_end+0xfffdac84>

08042d54 <__umodsi3>:
 8042d54:	2005883a 	mov	r2,r4
 8042d58:	2900122e 	bgeu	r5,r4,8042da4 <__umodsi3+0x50>
 8042d5c:	28001116 	blt	r5,zero,8042da4 <__umodsi3+0x50>
 8042d60:	01800804 	movi	r6,32
 8042d64:	00c00044 	movi	r3,1
 8042d68:	00000206 	br	8042d74 <__umodsi3+0x20>
 8042d6c:	30000c26 	beq	r6,zero,8042da0 <__umodsi3+0x4c>
 8042d70:	28000516 	blt	r5,zero,8042d88 <__umodsi3+0x34>
 8042d74:	294b883a 	add	r5,r5,r5
 8042d78:	31bfffc4 	addi	r6,r6,-1
 8042d7c:	18c7883a 	add	r3,r3,r3
 8042d80:	293ffa36 	bltu	r5,r4,8042d6c <__alt_data_end+0xfffdaccc>
 8042d84:	18000626 	beq	r3,zero,8042da0 <__umodsi3+0x4c>
 8042d88:	1806d07a 	srli	r3,r3,1
 8042d8c:	11400136 	bltu	r2,r5,8042d94 <__umodsi3+0x40>
 8042d90:	1145c83a 	sub	r2,r2,r5
 8042d94:	280ad07a 	srli	r5,r5,1
 8042d98:	183ffb1e 	bne	r3,zero,8042d88 <__alt_data_end+0xfffdace8>
 8042d9c:	f800283a 	ret
 8042da0:	f800283a 	ret
 8042da4:	00c00044 	movi	r3,1
 8042da8:	003ff706 	br	8042d88 <__alt_data_end+0xfffdace8>

08042dac <__mulsi3>:
 8042dac:	0005883a 	mov	r2,zero
 8042db0:	20000726 	beq	r4,zero,8042dd0 <__mulsi3+0x24>
 8042db4:	20c0004c 	andi	r3,r4,1
 8042db8:	2008d07a 	srli	r4,r4,1
 8042dbc:	18000126 	beq	r3,zero,8042dc4 <__mulsi3+0x18>
 8042dc0:	1145883a 	add	r2,r2,r5
 8042dc4:	294b883a 	add	r5,r5,r5
 8042dc8:	203ffa1e 	bne	r4,zero,8042db4 <__alt_data_end+0xfffdad14>
 8042dcc:	f800283a 	ret
 8042dd0:	f800283a 	ret

08042dd4 <__trampoline_setup>:
 8042dd4:	300ed43a 	srli	r7,r6,16
 8042dd8:	2806d43a 	srli	r3,r5,16
 8042ddc:	31bfffcc 	andi	r6,r6,65535
 8042de0:	380e91ba 	slli	r7,r7,6
 8042de4:	0080c034 	movhi	r2,768
 8042de8:	10800d04 	addi	r2,r2,52
 8042dec:	300c91ba 	slli	r6,r6,6
 8042df0:	388eb03a 	or	r7,r7,r2
 8042df4:	0098c034 	movhi	r2,25344
 8042df8:	10800504 	addi	r2,r2,20
 8042dfc:	180691ba 	slli	r3,r3,6
 8042e00:	308cb03a 	or	r6,r6,r2
 8042e04:	297fffcc 	andi	r5,r5,65535
 8042e08:	00802034 	movhi	r2,128
 8042e0c:	10800d04 	addi	r2,r2,52
 8042e10:	280a91ba 	slli	r5,r5,6
 8042e14:	1886b03a 	or	r3,r3,r2
 8042e18:	00842034 	movhi	r2,4224
 8042e1c:	10800504 	addi	r2,r2,20
 8042e20:	20c00215 	stw	r3,8(r4)
 8042e24:	00c40034 	movhi	r3,4096
 8042e28:	288ab03a 	or	r5,r5,r2
 8042e2c:	18da0e84 	addi	r3,r3,26682
 8042e30:	20c00415 	stw	r3,16(r4)
 8042e34:	2005883a 	mov	r2,r4
 8042e38:	21c00015 	stw	r7,0(r4)
 8042e3c:	21800115 	stw	r6,4(r4)
 8042e40:	21400315 	stw	r5,12(r4)
 8042e44:	20c00504 	addi	r3,r4,20
 8042e48:	1000003b 	flushd	0(r2)
 8042e4c:	1000603a 	flushi	r2
 8042e50:	10800104 	addi	r2,r2,4
 8042e54:	10fffc1e 	bne	r2,r3,8042e48 <__alt_data_end+0xfffdada8>
 8042e58:	0000203a 	flushp
 8042e5c:	f800283a 	ret

08042e60 <__subsf3>:
 8042e60:	defffc04 	addi	sp,sp,-16
 8042e64:	280cd5fa 	srli	r6,r5,23
 8042e68:	dc000015 	stw	r16,0(sp)
 8042e6c:	01c02034 	movhi	r7,128
 8042e70:	2020d5fa 	srli	r16,r4,23
 8042e74:	39ffffc4 	addi	r7,r7,-1
 8042e78:	3906703a 	and	r3,r7,r4
 8042e7c:	dc400115 	stw	r17,4(sp)
 8042e80:	394e703a 	and	r7,r7,r5
 8042e84:	2022d7fa 	srli	r17,r4,31
 8042e88:	dfc00315 	stw	ra,12(sp)
 8042e8c:	dc800215 	stw	r18,8(sp)
 8042e90:	31803fcc 	andi	r6,r6,255
 8042e94:	01003fc4 	movi	r4,255
 8042e98:	84003fcc 	andi	r16,r16,255
 8042e9c:	180690fa 	slli	r3,r3,3
 8042ea0:	2804d7fa 	srli	r2,r5,31
 8042ea4:	380e90fa 	slli	r7,r7,3
 8042ea8:	31006d26 	beq	r6,r4,8043060 <__subsf3+0x200>
 8042eac:	1080005c 	xori	r2,r2,1
 8042eb0:	8189c83a 	sub	r4,r16,r6
 8042eb4:	14404f26 	beq	r2,r17,8042ff4 <__subsf3+0x194>
 8042eb8:	0100770e 	bge	zero,r4,8043098 <__subsf3+0x238>
 8042ebc:	30001e1e 	bne	r6,zero,8042f38 <__subsf3+0xd8>
 8042ec0:	38006a1e 	bne	r7,zero,804306c <__subsf3+0x20c>
 8042ec4:	188001cc 	andi	r2,r3,7
 8042ec8:	10000426 	beq	r2,zero,8042edc <__subsf3+0x7c>
 8042ecc:	188003cc 	andi	r2,r3,15
 8042ed0:	01000104 	movi	r4,4
 8042ed4:	11000126 	beq	r2,r4,8042edc <__subsf3+0x7c>
 8042ed8:	1907883a 	add	r3,r3,r4
 8042edc:	1881002c 	andhi	r2,r3,1024
 8042ee0:	10003926 	beq	r2,zero,8042fc8 <__subsf3+0x168>
 8042ee4:	84000044 	addi	r16,r16,1
 8042ee8:	00803fc4 	movi	r2,255
 8042eec:	80807526 	beq	r16,r2,80430c4 <__subsf3+0x264>
 8042ef0:	180691ba 	slli	r3,r3,6
 8042ef4:	8880004c 	andi	r2,r17,1
 8042ef8:	180ad27a 	srli	r5,r3,9
 8042efc:	84003fcc 	andi	r16,r16,255
 8042f00:	800695fa 	slli	r3,r16,23
 8042f04:	10803fcc 	andi	r2,r2,255
 8042f08:	01002034 	movhi	r4,128
 8042f0c:	213fffc4 	addi	r4,r4,-1
 8042f10:	100497fa 	slli	r2,r2,31
 8042f14:	2920703a 	and	r16,r5,r4
 8042f18:	80e0b03a 	or	r16,r16,r3
 8042f1c:	8084b03a 	or	r2,r16,r2
 8042f20:	dfc00317 	ldw	ra,12(sp)
 8042f24:	dc800217 	ldw	r18,8(sp)
 8042f28:	dc400117 	ldw	r17,4(sp)
 8042f2c:	dc000017 	ldw	r16,0(sp)
 8042f30:	dec00404 	addi	sp,sp,16
 8042f34:	f800283a 	ret
 8042f38:	00803fc4 	movi	r2,255
 8042f3c:	80bfe126 	beq	r16,r2,8042ec4 <__alt_data_end+0xfffdae24>
 8042f40:	39c10034 	orhi	r7,r7,1024
 8042f44:	008006c4 	movi	r2,27
 8042f48:	11007416 	blt	r2,r4,804311c <__subsf3+0x2bc>
 8042f4c:	00800804 	movi	r2,32
 8042f50:	1105c83a 	sub	r2,r2,r4
 8042f54:	3884983a 	sll	r2,r7,r2
 8042f58:	390ed83a 	srl	r7,r7,r4
 8042f5c:	1008c03a 	cmpne	r4,r2,zero
 8042f60:	390eb03a 	or	r7,r7,r4
 8042f64:	19c7c83a 	sub	r3,r3,r7
 8042f68:	1881002c 	andhi	r2,r3,1024
 8042f6c:	10001426 	beq	r2,zero,8042fc0 <__subsf3+0x160>
 8042f70:	04810034 	movhi	r18,1024
 8042f74:	94bfffc4 	addi	r18,r18,-1
 8042f78:	1ca4703a 	and	r18,r3,r18
 8042f7c:	9009883a 	mov	r4,r18
 8042f80:	80454e40 	call	80454e4 <__clzsi2>
 8042f84:	10bffec4 	addi	r2,r2,-5
 8042f88:	90a4983a 	sll	r18,r18,r2
 8042f8c:	14005116 	blt	r2,r16,80430d4 <__subsf3+0x274>
 8042f90:	1405c83a 	sub	r2,r2,r16
 8042f94:	10c00044 	addi	r3,r2,1
 8042f98:	00800804 	movi	r2,32
 8042f9c:	10c5c83a 	sub	r2,r2,r3
 8042fa0:	9084983a 	sll	r2,r18,r2
 8042fa4:	90e4d83a 	srl	r18,r18,r3
 8042fa8:	0021883a 	mov	r16,zero
 8042fac:	1006c03a 	cmpne	r3,r2,zero
 8042fb0:	90c6b03a 	or	r3,r18,r3
 8042fb4:	003fc306 	br	8042ec4 <__alt_data_end+0xfffdae24>
 8042fb8:	2000e026 	beq	r4,zero,804333c <__subsf3+0x4dc>
 8042fbc:	2007883a 	mov	r3,r4
 8042fc0:	188001cc 	andi	r2,r3,7
 8042fc4:	103fc11e 	bne	r2,zero,8042ecc <__alt_data_end+0xfffdae2c>
 8042fc8:	180ad0fa 	srli	r5,r3,3
 8042fcc:	00c03fc4 	movi	r3,255
 8042fd0:	8880004c 	andi	r2,r17,1
 8042fd4:	80c0031e 	bne	r16,r3,8042fe4 <__subsf3+0x184>
 8042fd8:	28006d26 	beq	r5,zero,8043190 <__subsf3+0x330>
 8042fdc:	29401034 	orhi	r5,r5,64
 8042fe0:	043fffc4 	movi	r16,-1
 8042fe4:	00c02034 	movhi	r3,128
 8042fe8:	18ffffc4 	addi	r3,r3,-1
 8042fec:	28ca703a 	and	r5,r5,r3
 8042ff0:	003fc206 	br	8042efc <__alt_data_end+0xfffdae5c>
 8042ff4:	01003c0e 	bge	zero,r4,80430e8 <__subsf3+0x288>
 8042ff8:	30002126 	beq	r6,zero,8043080 <__subsf3+0x220>
 8042ffc:	01403fc4 	movi	r5,255
 8043000:	817fb026 	beq	r16,r5,8042ec4 <__alt_data_end+0xfffdae24>
 8043004:	39c10034 	orhi	r7,r7,1024
 8043008:	014006c4 	movi	r5,27
 804300c:	29007416 	blt	r5,r4,80431e0 <__subsf3+0x380>
 8043010:	01400804 	movi	r5,32
 8043014:	290bc83a 	sub	r5,r5,r4
 8043018:	394a983a 	sll	r5,r7,r5
 804301c:	390ed83a 	srl	r7,r7,r4
 8043020:	2808c03a 	cmpne	r4,r5,zero
 8043024:	390eb03a 	or	r7,r7,r4
 8043028:	19c7883a 	add	r3,r3,r7
 804302c:	1901002c 	andhi	r4,r3,1024
 8043030:	20003826 	beq	r4,zero,8043114 <__subsf3+0x2b4>
 8043034:	84000044 	addi	r16,r16,1
 8043038:	01003fc4 	movi	r4,255
 804303c:	81005426 	beq	r16,r4,8043190 <__subsf3+0x330>
 8043040:	1023883a 	mov	r17,r2
 8043044:	00bf0034 	movhi	r2,64512
 8043048:	10bfffc4 	addi	r2,r2,-1
 804304c:	1900004c 	andi	r4,r3,1
 8043050:	1886703a 	and	r3,r3,r2
 8043054:	1806d07a 	srli	r3,r3,1
 8043058:	1906b03a 	or	r3,r3,r4
 804305c:	003f9906 	br	8042ec4 <__alt_data_end+0xfffdae24>
 8043060:	383f9226 	beq	r7,zero,8042eac <__alt_data_end+0xfffdae0c>
 8043064:	10803fcc 	andi	r2,r2,255
 8043068:	003f9106 	br	8042eb0 <__alt_data_end+0xfffdae10>
 804306c:	213fffc4 	addi	r4,r4,-1
 8043070:	203fbc26 	beq	r4,zero,8042f64 <__alt_data_end+0xfffdaec4>
 8043074:	00803fc4 	movi	r2,255
 8043078:	80bfb21e 	bne	r16,r2,8042f44 <__alt_data_end+0xfffdaea4>
 804307c:	003f9106 	br	8042ec4 <__alt_data_end+0xfffdae24>
 8043080:	383f9026 	beq	r7,zero,8042ec4 <__alt_data_end+0xfffdae24>
 8043084:	213fffc4 	addi	r4,r4,-1
 8043088:	203fe726 	beq	r4,zero,8043028 <__alt_data_end+0xfffdaf88>
 804308c:	01403fc4 	movi	r5,255
 8043090:	817fdd1e 	bne	r16,r5,8043008 <__alt_data_end+0xfffdaf68>
 8043094:	003f8b06 	br	8042ec4 <__alt_data_end+0xfffdae24>
 8043098:	2000221e 	bne	r4,zero,8043124 <__subsf3+0x2c4>
 804309c:	81000044 	addi	r4,r16,1
 80430a0:	21003fcc 	andi	r4,r4,255
 80430a4:	01400044 	movi	r5,1
 80430a8:	2900470e 	bge	r5,r4,80431c8 <__subsf3+0x368>
 80430ac:	19e5c83a 	sub	r18,r3,r7
 80430b0:	9141002c 	andhi	r5,r18,1024
 80430b4:	28002d26 	beq	r5,zero,804316c <__subsf3+0x30c>
 80430b8:	38e5c83a 	sub	r18,r7,r3
 80430bc:	1023883a 	mov	r17,r2
 80430c0:	003fae06 	br	8042f7c <__alt_data_end+0xfffdaedc>
 80430c4:	8880004c 	andi	r2,r17,1
 80430c8:	043fffc4 	movi	r16,-1
 80430cc:	000b883a 	mov	r5,zero
 80430d0:	003f8a06 	br	8042efc <__alt_data_end+0xfffdae5c>
 80430d4:	00ff0034 	movhi	r3,64512
 80430d8:	18ffffc4 	addi	r3,r3,-1
 80430dc:	80a1c83a 	sub	r16,r16,r2
 80430e0:	90c6703a 	and	r3,r18,r3
 80430e4:	003f7706 	br	8042ec4 <__alt_data_end+0xfffdae24>
 80430e8:	2000431e 	bne	r4,zero,80431f8 <__subsf3+0x398>
 80430ec:	81000044 	addi	r4,r16,1
 80430f0:	21803fcc 	andi	r6,r4,255
 80430f4:	01400044 	movi	r5,1
 80430f8:	2980280e 	bge	r5,r6,804319c <__subsf3+0x33c>
 80430fc:	01403fc4 	movi	r5,255
 8043100:	21402326 	beq	r4,r5,8043190 <__subsf3+0x330>
 8043104:	19c7883a 	add	r3,r3,r7
 8043108:	1806d07a 	srli	r3,r3,1
 804310c:	2021883a 	mov	r16,r4
 8043110:	003f6c06 	br	8042ec4 <__alt_data_end+0xfffdae24>
 8043114:	1023883a 	mov	r17,r2
 8043118:	003fa906 	br	8042fc0 <__alt_data_end+0xfffdaf20>
 804311c:	01c00044 	movi	r7,1
 8043120:	003f9006 	br	8042f64 <__alt_data_end+0xfffdaec4>
 8043124:	8000151e 	bne	r16,zero,804317c <__subsf3+0x31c>
 8043128:	18002f26 	beq	r3,zero,80431e8 <__subsf3+0x388>
 804312c:	0108303a 	nor	r4,zero,r4
 8043130:	20000a26 	beq	r4,zero,804315c <__subsf3+0x2fc>
 8043134:	01403fc4 	movi	r5,255
 8043138:	31402b26 	beq	r6,r5,80431e8 <__subsf3+0x388>
 804313c:	014006c4 	movi	r5,27
 8043140:	29006e16 	blt	r5,r4,80432fc <__subsf3+0x49c>
 8043144:	01400804 	movi	r5,32
 8043148:	290bc83a 	sub	r5,r5,r4
 804314c:	194a983a 	sll	r5,r3,r5
 8043150:	1908d83a 	srl	r4,r3,r4
 8043154:	2806c03a 	cmpne	r3,r5,zero
 8043158:	20c6b03a 	or	r3,r4,r3
 804315c:	38c7c83a 	sub	r3,r7,r3
 8043160:	3021883a 	mov	r16,r6
 8043164:	1023883a 	mov	r17,r2
 8043168:	003f7f06 	br	8042f68 <__alt_data_end+0xfffdaec8>
 804316c:	903f831e 	bne	r18,zero,8042f7c <__alt_data_end+0xfffdaedc>
 8043170:	0005883a 	mov	r2,zero
 8043174:	0021883a 	mov	r16,zero
 8043178:	003f9a06 	br	8042fe4 <__alt_data_end+0xfffdaf44>
 804317c:	01403fc4 	movi	r5,255
 8043180:	31401926 	beq	r6,r5,80431e8 <__subsf3+0x388>
 8043184:	0109c83a 	sub	r4,zero,r4
 8043188:	18c10034 	orhi	r3,r3,1024
 804318c:	003feb06 	br	804313c <__alt_data_end+0xfffdb09c>
 8043190:	043fffc4 	movi	r16,-1
 8043194:	000b883a 	mov	r5,zero
 8043198:	003f5806 	br	8042efc <__alt_data_end+0xfffdae5c>
 804319c:	8000481e 	bne	r16,zero,80432c0 <__subsf3+0x460>
 80431a0:	18006226 	beq	r3,zero,804332c <__subsf3+0x4cc>
 80431a4:	383f4726 	beq	r7,zero,8042ec4 <__alt_data_end+0xfffdae24>
 80431a8:	19c7883a 	add	r3,r3,r7
 80431ac:	1881002c 	andhi	r2,r3,1024
 80431b0:	103f8326 	beq	r2,zero,8042fc0 <__alt_data_end+0xfffdaf20>
 80431b4:	00bf0034 	movhi	r2,64512
 80431b8:	10bfffc4 	addi	r2,r2,-1
 80431bc:	2821883a 	mov	r16,r5
 80431c0:	1886703a 	and	r3,r3,r2
 80431c4:	003f3f06 	br	8042ec4 <__alt_data_end+0xfffdae24>
 80431c8:	80001c1e 	bne	r16,zero,804323c <__subsf3+0x3dc>
 80431cc:	1800261e 	bne	r3,zero,8043268 <__subsf3+0x408>
 80431d0:	38004c26 	beq	r7,zero,8043304 <__subsf3+0x4a4>
 80431d4:	3807883a 	mov	r3,r7
 80431d8:	1023883a 	mov	r17,r2
 80431dc:	003f3906 	br	8042ec4 <__alt_data_end+0xfffdae24>
 80431e0:	01c00044 	movi	r7,1
 80431e4:	003f9006 	br	8043028 <__alt_data_end+0xfffdaf88>
 80431e8:	3807883a 	mov	r3,r7
 80431ec:	3021883a 	mov	r16,r6
 80431f0:	1023883a 	mov	r17,r2
 80431f4:	003f3306 	br	8042ec4 <__alt_data_end+0xfffdae24>
 80431f8:	8000161e 	bne	r16,zero,8043254 <__subsf3+0x3f4>
 80431fc:	18002d26 	beq	r3,zero,80432b4 <__subsf3+0x454>
 8043200:	0108303a 	nor	r4,zero,r4
 8043204:	20000a26 	beq	r4,zero,8043230 <__subsf3+0x3d0>
 8043208:	01403fc4 	movi	r5,255
 804320c:	31402926 	beq	r6,r5,80432b4 <__subsf3+0x454>
 8043210:	014006c4 	movi	r5,27
 8043214:	29004716 	blt	r5,r4,8043334 <__subsf3+0x4d4>
 8043218:	01400804 	movi	r5,32
 804321c:	290bc83a 	sub	r5,r5,r4
 8043220:	194a983a 	sll	r5,r3,r5
 8043224:	1908d83a 	srl	r4,r3,r4
 8043228:	2806c03a 	cmpne	r3,r5,zero
 804322c:	20c6b03a 	or	r3,r4,r3
 8043230:	19c7883a 	add	r3,r3,r7
 8043234:	3021883a 	mov	r16,r6
 8043238:	003f7c06 	br	804302c <__alt_data_end+0xfffdaf8c>
 804323c:	1800111e 	bne	r3,zero,8043284 <__subsf3+0x424>
 8043240:	38003326 	beq	r7,zero,8043310 <__subsf3+0x4b0>
 8043244:	3807883a 	mov	r3,r7
 8043248:	1023883a 	mov	r17,r2
 804324c:	04003fc4 	movi	r16,255
 8043250:	003f1c06 	br	8042ec4 <__alt_data_end+0xfffdae24>
 8043254:	01403fc4 	movi	r5,255
 8043258:	31401626 	beq	r6,r5,80432b4 <__subsf3+0x454>
 804325c:	0109c83a 	sub	r4,zero,r4
 8043260:	18c10034 	orhi	r3,r3,1024
 8043264:	003fea06 	br	8043210 <__alt_data_end+0xfffdb170>
 8043268:	383f1626 	beq	r7,zero,8042ec4 <__alt_data_end+0xfffdae24>
 804326c:	19c9c83a 	sub	r4,r3,r7
 8043270:	2141002c 	andhi	r5,r4,1024
 8043274:	283f5026 	beq	r5,zero,8042fb8 <__alt_data_end+0xfffdaf18>
 8043278:	38c7c83a 	sub	r3,r7,r3
 804327c:	1023883a 	mov	r17,r2
 8043280:	003f1006 	br	8042ec4 <__alt_data_end+0xfffdae24>
 8043284:	38001b26 	beq	r7,zero,80432f4 <__subsf3+0x494>
 8043288:	1806d0fa 	srli	r3,r3,3
 804328c:	1900102c 	andhi	r4,r3,64
 8043290:	20000526 	beq	r4,zero,80432a8 <__subsf3+0x448>
 8043294:	380ed0fa 	srli	r7,r7,3
 8043298:	3900102c 	andhi	r4,r7,64
 804329c:	2000021e 	bne	r4,zero,80432a8 <__subsf3+0x448>
 80432a0:	3807883a 	mov	r3,r7
 80432a4:	1023883a 	mov	r17,r2
 80432a8:	180690fa 	slli	r3,r3,3
 80432ac:	04003fc4 	movi	r16,255
 80432b0:	003f0406 	br	8042ec4 <__alt_data_end+0xfffdae24>
 80432b4:	3807883a 	mov	r3,r7
 80432b8:	3021883a 	mov	r16,r6
 80432bc:	003f0106 	br	8042ec4 <__alt_data_end+0xfffdae24>
 80432c0:	18001726 	beq	r3,zero,8043320 <__subsf3+0x4c0>
 80432c4:	38000b26 	beq	r7,zero,80432f4 <__subsf3+0x494>
 80432c8:	1806d0fa 	srli	r3,r3,3
 80432cc:	1900102c 	andhi	r4,r3,64
 80432d0:	20000426 	beq	r4,zero,80432e4 <__subsf3+0x484>
 80432d4:	380ed0fa 	srli	r7,r7,3
 80432d8:	3900102c 	andhi	r4,r7,64
 80432dc:	2000011e 	bne	r4,zero,80432e4 <__subsf3+0x484>
 80432e0:	3807883a 	mov	r3,r7
 80432e4:	180690fa 	slli	r3,r3,3
 80432e8:	1023883a 	mov	r17,r2
 80432ec:	04003fc4 	movi	r16,255
 80432f0:	003ef406 	br	8042ec4 <__alt_data_end+0xfffdae24>
 80432f4:	04003fc4 	movi	r16,255
 80432f8:	003ef206 	br	8042ec4 <__alt_data_end+0xfffdae24>
 80432fc:	00c00044 	movi	r3,1
 8043300:	003f9606 	br	804315c <__alt_data_end+0xfffdb0bc>
 8043304:	000b883a 	mov	r5,zero
 8043308:	0005883a 	mov	r2,zero
 804330c:	003f3506 	br	8042fe4 <__alt_data_end+0xfffdaf44>
 8043310:	01402034 	movhi	r5,128
 8043314:	297fffc4 	addi	r5,r5,-1
 8043318:	0005883a 	mov	r2,zero
 804331c:	003f2f06 	br	8042fdc <__alt_data_end+0xfffdaf3c>
 8043320:	3807883a 	mov	r3,r7
 8043324:	04003fc4 	movi	r16,255
 8043328:	003ee606 	br	8042ec4 <__alt_data_end+0xfffdae24>
 804332c:	3807883a 	mov	r3,r7
 8043330:	003ee406 	br	8042ec4 <__alt_data_end+0xfffdae24>
 8043334:	00c00044 	movi	r3,1
 8043338:	003fbd06 	br	8043230 <__alt_data_end+0xfffdb190>
 804333c:	0005883a 	mov	r2,zero
 8043340:	003f2806 	br	8042fe4 <__alt_data_end+0xfffdaf44>

08043344 <__fixsfsi>:
 8043344:	200ad5fa 	srli	r5,r4,23
 8043348:	00c02034 	movhi	r3,128
 804334c:	18ffffc4 	addi	r3,r3,-1
 8043350:	29403fcc 	andi	r5,r5,255
 8043354:	00801f84 	movi	r2,126
 8043358:	1906703a 	and	r3,r3,r4
 804335c:	2008d7fa 	srli	r4,r4,31
 8043360:	11400e0e 	bge	r2,r5,804339c <__fixsfsi+0x58>
 8043364:	00802744 	movi	r2,157
 8043368:	11400816 	blt	r2,r5,804338c <__fixsfsi+0x48>
 804336c:	00802544 	movi	r2,149
 8043370:	18c02034 	orhi	r3,r3,128
 8043374:	11400b0e 	bge	r2,r5,80433a4 <__fixsfsi+0x60>
 8043378:	28bfda84 	addi	r2,r5,-150
 804337c:	1884983a 	sll	r2,r3,r2
 8043380:	20000726 	beq	r4,zero,80433a0 <__fixsfsi+0x5c>
 8043384:	0085c83a 	sub	r2,zero,r2
 8043388:	f800283a 	ret
 804338c:	00a00034 	movhi	r2,32768
 8043390:	10bfffc4 	addi	r2,r2,-1
 8043394:	2085883a 	add	r2,r4,r2
 8043398:	f800283a 	ret
 804339c:	0005883a 	mov	r2,zero
 80433a0:	f800283a 	ret
 80433a4:	00802584 	movi	r2,150
 80433a8:	1145c83a 	sub	r2,r2,r5
 80433ac:	1884d83a 	srl	r2,r3,r2
 80433b0:	003ff306 	br	8043380 <__alt_data_end+0xfffdb2e0>

080433b4 <__floatunsisf>:
 80433b4:	defffe04 	addi	sp,sp,-8
 80433b8:	dfc00115 	stw	ra,4(sp)
 80433bc:	dc000015 	stw	r16,0(sp)
 80433c0:	20002c26 	beq	r4,zero,8043474 <__floatunsisf+0xc0>
 80433c4:	2021883a 	mov	r16,r4
 80433c8:	80454e40 	call	80454e4 <__clzsi2>
 80433cc:	00c02784 	movi	r3,158
 80433d0:	1887c83a 	sub	r3,r3,r2
 80433d4:	01002584 	movi	r4,150
 80433d8:	20c00f16 	blt	r4,r3,8043418 <__floatunsisf+0x64>
 80433dc:	20c9c83a 	sub	r4,r4,r3
 80433e0:	8108983a 	sll	r4,r16,r4
 80433e4:	00802034 	movhi	r2,128
 80433e8:	10bfffc4 	addi	r2,r2,-1
 80433ec:	2088703a 	and	r4,r4,r2
 80433f0:	18803fcc 	andi	r2,r3,255
 80433f4:	100695fa 	slli	r3,r2,23
 80433f8:	00802034 	movhi	r2,128
 80433fc:	10bfffc4 	addi	r2,r2,-1
 8043400:	2084703a 	and	r2,r4,r2
 8043404:	10c4b03a 	or	r2,r2,r3
 8043408:	dfc00117 	ldw	ra,4(sp)
 804340c:	dc000017 	ldw	r16,0(sp)
 8043410:	dec00204 	addi	sp,sp,8
 8043414:	f800283a 	ret
 8043418:	01002644 	movi	r4,153
 804341c:	20c01816 	blt	r4,r3,8043480 <__floatunsisf+0xcc>
 8043420:	20c9c83a 	sub	r4,r4,r3
 8043424:	8108983a 	sll	r4,r16,r4
 8043428:	017f0034 	movhi	r5,64512
 804342c:	297fffc4 	addi	r5,r5,-1
 8043430:	218001cc 	andi	r6,r4,7
 8043434:	214a703a 	and	r5,r4,r5
 8043438:	30000426 	beq	r6,zero,804344c <__floatunsisf+0x98>
 804343c:	210003cc 	andi	r4,r4,15
 8043440:	01800104 	movi	r6,4
 8043444:	21800126 	beq	r4,r6,804344c <__floatunsisf+0x98>
 8043448:	298b883a 	add	r5,r5,r6
 804344c:	2901002c 	andhi	r4,r5,1024
 8043450:	20000526 	beq	r4,zero,8043468 <__floatunsisf+0xb4>
 8043454:	00c027c4 	movi	r3,159
 8043458:	1887c83a 	sub	r3,r3,r2
 804345c:	00bf0034 	movhi	r2,64512
 8043460:	10bfffc4 	addi	r2,r2,-1
 8043464:	288a703a 	and	r5,r5,r2
 8043468:	280891ba 	slli	r4,r5,6
 804346c:	2008d27a 	srli	r4,r4,9
 8043470:	003fdf06 	br	80433f0 <__alt_data_end+0xfffdb350>
 8043474:	0007883a 	mov	r3,zero
 8043478:	0009883a 	mov	r4,zero
 804347c:	003fdc06 	br	80433f0 <__alt_data_end+0xfffdb350>
 8043480:	01402e44 	movi	r5,185
 8043484:	28cbc83a 	sub	r5,r5,r3
 8043488:	01000144 	movi	r4,5
 804348c:	2089c83a 	sub	r4,r4,r2
 8043490:	814a983a 	sll	r5,r16,r5
 8043494:	8108d83a 	srl	r4,r16,r4
 8043498:	2820c03a 	cmpne	r16,r5,zero
 804349c:	2408b03a 	or	r4,r4,r16
 80434a0:	003fe106 	br	8043428 <__alt_data_end+0xfffdb388>

080434a4 <__divdf3>:
 80434a4:	defff004 	addi	sp,sp,-64
 80434a8:	dc800815 	stw	r18,32(sp)
 80434ac:	2824d53a 	srli	r18,r5,20
 80434b0:	dd800c15 	stw	r22,48(sp)
 80434b4:	282cd7fa 	srli	r22,r5,31
 80434b8:	dc000615 	stw	r16,24(sp)
 80434bc:	04000434 	movhi	r16,16
 80434c0:	843fffc4 	addi	r16,r16,-1
 80434c4:	dfc00f15 	stw	ra,60(sp)
 80434c8:	df000e15 	stw	fp,56(sp)
 80434cc:	ddc00d15 	stw	r23,52(sp)
 80434d0:	dd400b15 	stw	r21,44(sp)
 80434d4:	dd000a15 	stw	r20,40(sp)
 80434d8:	dcc00915 	stw	r19,36(sp)
 80434dc:	dc400715 	stw	r17,28(sp)
 80434e0:	9481ffcc 	andi	r18,r18,2047
 80434e4:	2c20703a 	and	r16,r5,r16
 80434e8:	b2003fcc 	andi	r8,r22,255
 80434ec:	90006126 	beq	r18,zero,8043674 <__divdf3+0x1d0>
 80434f0:	0081ffc4 	movi	r2,2047
 80434f4:	202b883a 	mov	r21,r4
 80434f8:	90803726 	beq	r18,r2,80435d8 <__divdf3+0x134>
 80434fc:	80800434 	orhi	r2,r16,16
 8043500:	100490fa 	slli	r2,r2,3
 8043504:	2020d77a 	srli	r16,r4,29
 8043508:	202a90fa 	slli	r21,r4,3
 804350c:	94bf0044 	addi	r18,r18,-1023
 8043510:	80a0b03a 	or	r16,r16,r2
 8043514:	0013883a 	mov	r9,zero
 8043518:	000b883a 	mov	r5,zero
 804351c:	3806d53a 	srli	r3,r7,20
 8043520:	382ed7fa 	srli	r23,r7,31
 8043524:	04400434 	movhi	r17,16
 8043528:	8c7fffc4 	addi	r17,r17,-1
 804352c:	18c1ffcc 	andi	r3,r3,2047
 8043530:	3029883a 	mov	r20,r6
 8043534:	3c62703a 	and	r17,r7,r17
 8043538:	bf003fcc 	andi	fp,r23,255
 804353c:	18006e26 	beq	r3,zero,80436f8 <__divdf3+0x254>
 8043540:	0081ffc4 	movi	r2,2047
 8043544:	18806626 	beq	r3,r2,80436e0 <__divdf3+0x23c>
 8043548:	88800434 	orhi	r2,r17,16
 804354c:	100490fa 	slli	r2,r2,3
 8043550:	3022d77a 	srli	r17,r6,29
 8043554:	302890fa 	slli	r20,r6,3
 8043558:	18ff0044 	addi	r3,r3,-1023
 804355c:	88a2b03a 	or	r17,r17,r2
 8043560:	000f883a 	mov	r7,zero
 8043564:	b5e6f03a 	xor	r19,r22,r23
 8043568:	3a4cb03a 	or	r6,r7,r9
 804356c:	008003c4 	movi	r2,15
 8043570:	9809883a 	mov	r4,r19
 8043574:	90c7c83a 	sub	r3,r18,r3
 8043578:	9cc03fcc 	andi	r19,r19,255
 804357c:	11809636 	bltu	r2,r6,80437d8 <__divdf3+0x334>
 8043580:	300c90ba 	slli	r6,r6,2
 8043584:	00820134 	movhi	r2,2052
 8043588:	108d6604 	addi	r2,r2,13720
 804358c:	308d883a 	add	r6,r6,r2
 8043590:	30800017 	ldw	r2,0(r6)
 8043594:	1000683a 	jmp	r2
 8043598:	080437d8 	cmpnei	zero,at,4319
 804359c:	08043610 	cmplti	zero,at,4312
 80435a0:	080437c8 	cmpgei	zero,at,4319
 80435a4:	08043604 	addi	zero,at,4312
 80435a8:	080437c8 	cmpgei	zero,at,4319
 80435ac:	0804379c 	xori	zero,at,4318
 80435b0:	080437c8 	cmpgei	zero,at,4319
 80435b4:	08043604 	addi	zero,at,4312
 80435b8:	08043610 	cmplti	zero,at,4312
 80435bc:	08043610 	cmplti	zero,at,4312
 80435c0:	0804379c 	xori	zero,at,4318
 80435c4:	08043604 	addi	zero,at,4312
 80435c8:	080435f4 	orhi	zero,at,4311
 80435cc:	080435f4 	orhi	zero,at,4311
 80435d0:	080435f4 	orhi	zero,at,4311
 80435d4:	08043b60 	cmpeqi	zero,at,4333
 80435d8:	2404b03a 	or	r2,r4,r16
 80435dc:	10006c1e 	bne	r2,zero,8043790 <__divdf3+0x2ec>
 80435e0:	02400204 	movi	r9,8
 80435e4:	0021883a 	mov	r16,zero
 80435e8:	002b883a 	mov	r21,zero
 80435ec:	01400084 	movi	r5,2
 80435f0:	003fca06 	br	804351c <__alt_data_end+0xfffdb47c>
 80435f4:	8023883a 	mov	r17,r16
 80435f8:	a829883a 	mov	r20,r21
 80435fc:	4039883a 	mov	fp,r8
 8043600:	280f883a 	mov	r7,r5
 8043604:	00800084 	movi	r2,2
 8043608:	3881601e 	bne	r7,r2,8043b8c <__divdf3+0x6e8>
 804360c:	e027883a 	mov	r19,fp
 8043610:	9900004c 	andi	r4,r19,1
 8043614:	0081ffc4 	movi	r2,2047
 8043618:	0021883a 	mov	r16,zero
 804361c:	002b883a 	mov	r21,zero
 8043620:	1004953a 	slli	r2,r2,20
 8043624:	20c03fcc 	andi	r3,r4,255
 8043628:	01400434 	movhi	r5,16
 804362c:	297fffc4 	addi	r5,r5,-1
 8043630:	180697fa 	slli	r3,r3,31
 8043634:	8160703a 	and	r16,r16,r5
 8043638:	80a0b03a 	or	r16,r16,r2
 804363c:	80c6b03a 	or	r3,r16,r3
 8043640:	a805883a 	mov	r2,r21
 8043644:	dfc00f17 	ldw	ra,60(sp)
 8043648:	df000e17 	ldw	fp,56(sp)
 804364c:	ddc00d17 	ldw	r23,52(sp)
 8043650:	dd800c17 	ldw	r22,48(sp)
 8043654:	dd400b17 	ldw	r21,44(sp)
 8043658:	dd000a17 	ldw	r20,40(sp)
 804365c:	dcc00917 	ldw	r19,36(sp)
 8043660:	dc800817 	ldw	r18,32(sp)
 8043664:	dc400717 	ldw	r17,28(sp)
 8043668:	dc000617 	ldw	r16,24(sp)
 804366c:	dec01004 	addi	sp,sp,64
 8043670:	f800283a 	ret
 8043674:	2404b03a 	or	r2,r4,r16
 8043678:	2023883a 	mov	r17,r4
 804367c:	10003f26 	beq	r2,zero,804377c <__divdf3+0x2d8>
 8043680:	80015e26 	beq	r16,zero,8043bfc <__divdf3+0x758>
 8043684:	8009883a 	mov	r4,r16
 8043688:	d9800215 	stw	r6,8(sp)
 804368c:	d9c00515 	stw	r7,20(sp)
 8043690:	da000415 	stw	r8,16(sp)
 8043694:	80454e40 	call	80454e4 <__clzsi2>
 8043698:	d9800217 	ldw	r6,8(sp)
 804369c:	d9c00517 	ldw	r7,20(sp)
 80436a0:	da000417 	ldw	r8,16(sp)
 80436a4:	113ffd44 	addi	r4,r2,-11
 80436a8:	00c00704 	movi	r3,28
 80436ac:	19014f16 	blt	r3,r4,8043bec <__divdf3+0x748>
 80436b0:	00c00744 	movi	r3,29
 80436b4:	157ffe04 	addi	r21,r2,-8
 80436b8:	1907c83a 	sub	r3,r3,r4
 80436bc:	8560983a 	sll	r16,r16,r21
 80436c0:	88c6d83a 	srl	r3,r17,r3
 80436c4:	8d6a983a 	sll	r21,r17,r21
 80436c8:	1c20b03a 	or	r16,r3,r16
 80436cc:	1080fcc4 	addi	r2,r2,1011
 80436d0:	00a5c83a 	sub	r18,zero,r2
 80436d4:	0013883a 	mov	r9,zero
 80436d8:	000b883a 	mov	r5,zero
 80436dc:	003f8f06 	br	804351c <__alt_data_end+0xfffdb47c>
 80436e0:	3444b03a 	or	r2,r6,r17
 80436e4:	1000231e 	bne	r2,zero,8043774 <__divdf3+0x2d0>
 80436e8:	0023883a 	mov	r17,zero
 80436ec:	0029883a 	mov	r20,zero
 80436f0:	01c00084 	movi	r7,2
 80436f4:	003f9b06 	br	8043564 <__alt_data_end+0xfffdb4c4>
 80436f8:	3444b03a 	or	r2,r6,r17
 80436fc:	10001926 	beq	r2,zero,8043764 <__divdf3+0x2c0>
 8043700:	88014b26 	beq	r17,zero,8043c30 <__divdf3+0x78c>
 8043704:	8809883a 	mov	r4,r17
 8043708:	d9400115 	stw	r5,4(sp)
 804370c:	d9800215 	stw	r6,8(sp)
 8043710:	da000415 	stw	r8,16(sp)
 8043714:	da400315 	stw	r9,12(sp)
 8043718:	80454e40 	call	80454e4 <__clzsi2>
 804371c:	d9400117 	ldw	r5,4(sp)
 8043720:	d9800217 	ldw	r6,8(sp)
 8043724:	da000417 	ldw	r8,16(sp)
 8043728:	da400317 	ldw	r9,12(sp)
 804372c:	113ffd44 	addi	r4,r2,-11
 8043730:	00c00704 	movi	r3,28
 8043734:	19013a16 	blt	r3,r4,8043c20 <__divdf3+0x77c>
 8043738:	00c00744 	movi	r3,29
 804373c:	153ffe04 	addi	r20,r2,-8
 8043740:	1907c83a 	sub	r3,r3,r4
 8043744:	8d22983a 	sll	r17,r17,r20
 8043748:	30c6d83a 	srl	r3,r6,r3
 804374c:	3528983a 	sll	r20,r6,r20
 8043750:	1c62b03a 	or	r17,r3,r17
 8043754:	1080fcc4 	addi	r2,r2,1011
 8043758:	0087c83a 	sub	r3,zero,r2
 804375c:	000f883a 	mov	r7,zero
 8043760:	003f8006 	br	8043564 <__alt_data_end+0xfffdb4c4>
 8043764:	0023883a 	mov	r17,zero
 8043768:	0029883a 	mov	r20,zero
 804376c:	01c00044 	movi	r7,1
 8043770:	003f7c06 	br	8043564 <__alt_data_end+0xfffdb4c4>
 8043774:	01c000c4 	movi	r7,3
 8043778:	003f7a06 	br	8043564 <__alt_data_end+0xfffdb4c4>
 804377c:	02400104 	movi	r9,4
 8043780:	0021883a 	mov	r16,zero
 8043784:	002b883a 	mov	r21,zero
 8043788:	01400044 	movi	r5,1
 804378c:	003f6306 	br	804351c <__alt_data_end+0xfffdb47c>
 8043790:	02400304 	movi	r9,12
 8043794:	014000c4 	movi	r5,3
 8043798:	003f6006 	br	804351c <__alt_data_end+0xfffdb47c>
 804379c:	04000434 	movhi	r16,16
 80437a0:	0009883a 	mov	r4,zero
 80437a4:	843fffc4 	addi	r16,r16,-1
 80437a8:	057fffc4 	movi	r21,-1
 80437ac:	0081ffc4 	movi	r2,2047
 80437b0:	003f9b06 	br	8043620 <__alt_data_end+0xfffdb580>
 80437b4:	00c00044 	movi	r3,1
 80437b8:	1887c83a 	sub	r3,r3,r2
 80437bc:	01000e04 	movi	r4,56
 80437c0:	20c1530e 	bge	r4,r3,8043d10 <__divdf3+0x86c>
 80437c4:	9900004c 	andi	r4,r19,1
 80437c8:	0005883a 	mov	r2,zero
 80437cc:	0021883a 	mov	r16,zero
 80437d0:	002b883a 	mov	r21,zero
 80437d4:	003f9206 	br	8043620 <__alt_data_end+0xfffdb580>
 80437d8:	8c012e36 	bltu	r17,r16,8043c94 <__divdf3+0x7f0>
 80437dc:	84412c26 	beq	r16,r17,8043c90 <__divdf3+0x7ec>
 80437e0:	a82f883a 	mov	r23,r21
 80437e4:	18ffffc4 	addi	r3,r3,-1
 80437e8:	002b883a 	mov	r21,zero
 80437ec:	a004d63a 	srli	r2,r20,24
 80437f0:	8822923a 	slli	r17,r17,8
 80437f4:	a028923a 	slli	r20,r20,8
 80437f8:	8009883a 	mov	r4,r16
 80437fc:	88acb03a 	or	r22,r17,r2
 8043800:	dd000015 	stw	r20,0(sp)
 8043804:	b028d43a 	srli	r20,r22,16
 8043808:	d8c00215 	stw	r3,8(sp)
 804380c:	b4bfffcc 	andi	r18,r22,65535
 8043810:	a00b883a 	mov	r5,r20
 8043814:	8042cf00 	call	8042cf0 <__udivsi3>
 8043818:	100b883a 	mov	r5,r2
 804381c:	9009883a 	mov	r4,r18
 8043820:	1023883a 	mov	r17,r2
 8043824:	8042dac0 	call	8042dac <__mulsi3>
 8043828:	8009883a 	mov	r4,r16
 804382c:	a00b883a 	mov	r5,r20
 8043830:	1039883a 	mov	fp,r2
 8043834:	8042d540 	call	8042d54 <__umodsi3>
 8043838:	1004943a 	slli	r2,r2,16
 804383c:	b808d43a 	srli	r4,r23,16
 8043840:	d8c00217 	ldw	r3,8(sp)
 8043844:	2084b03a 	or	r2,r4,r2
 8043848:	1700062e 	bgeu	r2,fp,8043864 <__divdf3+0x3c0>
 804384c:	1585883a 	add	r2,r2,r22
 8043850:	893fffc4 	addi	r4,r17,-1
 8043854:	15811d36 	bltu	r2,r22,8043ccc <__divdf3+0x828>
 8043858:	17011c2e 	bgeu	r2,fp,8043ccc <__divdf3+0x828>
 804385c:	8c7fff84 	addi	r17,r17,-2
 8043860:	1585883a 	add	r2,r2,r22
 8043864:	1739c83a 	sub	fp,r2,fp
 8043868:	a00b883a 	mov	r5,r20
 804386c:	e009883a 	mov	r4,fp
 8043870:	d8c00215 	stw	r3,8(sp)
 8043874:	8042cf00 	call	8042cf0 <__udivsi3>
 8043878:	100b883a 	mov	r5,r2
 804387c:	9009883a 	mov	r4,r18
 8043880:	1021883a 	mov	r16,r2
 8043884:	8042dac0 	call	8042dac <__mulsi3>
 8043888:	a00b883a 	mov	r5,r20
 804388c:	e009883a 	mov	r4,fp
 8043890:	d8800415 	stw	r2,16(sp)
 8043894:	8042d540 	call	8042d54 <__umodsi3>
 8043898:	1004943a 	slli	r2,r2,16
 804389c:	da000417 	ldw	r8,16(sp)
 80438a0:	bdffffcc 	andi	r23,r23,65535
 80438a4:	b884b03a 	or	r2,r23,r2
 80438a8:	d8c00217 	ldw	r3,8(sp)
 80438ac:	1200062e 	bgeu	r2,r8,80438c8 <__divdf3+0x424>
 80438b0:	1585883a 	add	r2,r2,r22
 80438b4:	813fffc4 	addi	r4,r16,-1
 80438b8:	15810236 	bltu	r2,r22,8043cc4 <__divdf3+0x820>
 80438bc:	1201012e 	bgeu	r2,r8,8043cc4 <__divdf3+0x820>
 80438c0:	843fff84 	addi	r16,r16,-2
 80438c4:	1585883a 	add	r2,r2,r22
 80438c8:	8822943a 	slli	r17,r17,16
 80438cc:	d9800017 	ldw	r6,0(sp)
 80438d0:	1211c83a 	sub	r8,r2,r8
 80438d4:	8c22b03a 	or	r17,r17,r16
 80438d8:	373fffcc 	andi	fp,r6,65535
 80438dc:	8abfffcc 	andi	r10,r17,65535
 80438e0:	8820d43a 	srli	r16,r17,16
 80438e4:	5009883a 	mov	r4,r10
 80438e8:	e00b883a 	mov	r5,fp
 80438ec:	302ed43a 	srli	r23,r6,16
 80438f0:	d8c00215 	stw	r3,8(sp)
 80438f4:	da000415 	stw	r8,16(sp)
 80438f8:	da800115 	stw	r10,4(sp)
 80438fc:	8042dac0 	call	8042dac <__mulsi3>
 8043900:	800b883a 	mov	r5,r16
 8043904:	e009883a 	mov	r4,fp
 8043908:	d8800515 	stw	r2,20(sp)
 804390c:	8042dac0 	call	8042dac <__mulsi3>
 8043910:	8009883a 	mov	r4,r16
 8043914:	b80b883a 	mov	r5,r23
 8043918:	d8800315 	stw	r2,12(sp)
 804391c:	8042dac0 	call	8042dac <__mulsi3>
 8043920:	da800117 	ldw	r10,4(sp)
 8043924:	b80b883a 	mov	r5,r23
 8043928:	1021883a 	mov	r16,r2
 804392c:	5009883a 	mov	r4,r10
 8043930:	8042dac0 	call	8042dac <__mulsi3>
 8043934:	d9c00517 	ldw	r7,20(sp)
 8043938:	da400317 	ldw	r9,12(sp)
 804393c:	d8c00217 	ldw	r3,8(sp)
 8043940:	3808d43a 	srli	r4,r7,16
 8043944:	1245883a 	add	r2,r2,r9
 8043948:	da000417 	ldw	r8,16(sp)
 804394c:	2085883a 	add	r2,r4,r2
 8043950:	1240022e 	bgeu	r2,r9,804395c <__divdf3+0x4b8>
 8043954:	01000074 	movhi	r4,1
 8043958:	8121883a 	add	r16,r16,r4
 804395c:	1008d43a 	srli	r4,r2,16
 8043960:	1004943a 	slli	r2,r2,16
 8043964:	39ffffcc 	andi	r7,r7,65535
 8043968:	2409883a 	add	r4,r4,r16
 804396c:	11c5883a 	add	r2,r2,r7
 8043970:	4100bb36 	bltu	r8,r4,8043c60 <__divdf3+0x7bc>
 8043974:	4100d726 	beq	r8,r4,8043cd4 <__divdf3+0x830>
 8043978:	4109c83a 	sub	r4,r8,r4
 804397c:	a8a1c83a 	sub	r16,r21,r2
 8043980:	ac2b803a 	cmpltu	r21,r21,r16
 8043984:	256bc83a 	sub	r21,r4,r21
 8043988:	b540d926 	beq	r22,r21,8043cf0 <__divdf3+0x84c>
 804398c:	a00b883a 	mov	r5,r20
 8043990:	a809883a 	mov	r4,r21
 8043994:	d8c00215 	stw	r3,8(sp)
 8043998:	8042cf00 	call	8042cf0 <__udivsi3>
 804399c:	100b883a 	mov	r5,r2
 80439a0:	9009883a 	mov	r4,r18
 80439a4:	d8800515 	stw	r2,20(sp)
 80439a8:	8042dac0 	call	8042dac <__mulsi3>
 80439ac:	a809883a 	mov	r4,r21
 80439b0:	a00b883a 	mov	r5,r20
 80439b4:	d8800415 	stw	r2,16(sp)
 80439b8:	8042d540 	call	8042d54 <__umodsi3>
 80439bc:	1004943a 	slli	r2,r2,16
 80439c0:	8008d43a 	srli	r4,r16,16
 80439c4:	da000417 	ldw	r8,16(sp)
 80439c8:	d8c00217 	ldw	r3,8(sp)
 80439cc:	2084b03a 	or	r2,r4,r2
 80439d0:	d9c00517 	ldw	r7,20(sp)
 80439d4:	1200062e 	bgeu	r2,r8,80439f0 <__divdf3+0x54c>
 80439d8:	1585883a 	add	r2,r2,r22
 80439dc:	393fffc4 	addi	r4,r7,-1
 80439e0:	1580c536 	bltu	r2,r22,8043cf8 <__divdf3+0x854>
 80439e4:	1200c42e 	bgeu	r2,r8,8043cf8 <__divdf3+0x854>
 80439e8:	39ffff84 	addi	r7,r7,-2
 80439ec:	1585883a 	add	r2,r2,r22
 80439f0:	122bc83a 	sub	r21,r2,r8
 80439f4:	a00b883a 	mov	r5,r20
 80439f8:	a809883a 	mov	r4,r21
 80439fc:	d8c00215 	stw	r3,8(sp)
 8043a00:	d9c00515 	stw	r7,20(sp)
 8043a04:	8042cf00 	call	8042cf0 <__udivsi3>
 8043a08:	9009883a 	mov	r4,r18
 8043a0c:	100b883a 	mov	r5,r2
 8043a10:	d8800415 	stw	r2,16(sp)
 8043a14:	8042dac0 	call	8042dac <__mulsi3>
 8043a18:	a809883a 	mov	r4,r21
 8043a1c:	a00b883a 	mov	r5,r20
 8043a20:	1025883a 	mov	r18,r2
 8043a24:	8042d540 	call	8042d54 <__umodsi3>
 8043a28:	1004943a 	slli	r2,r2,16
 8043a2c:	813fffcc 	andi	r4,r16,65535
 8043a30:	d8c00217 	ldw	r3,8(sp)
 8043a34:	20a0b03a 	or	r16,r4,r2
 8043a38:	d9c00517 	ldw	r7,20(sp)
 8043a3c:	da000417 	ldw	r8,16(sp)
 8043a40:	8480062e 	bgeu	r16,r18,8043a5c <__divdf3+0x5b8>
 8043a44:	85a1883a 	add	r16,r16,r22
 8043a48:	40bfffc4 	addi	r2,r8,-1
 8043a4c:	8580ac36 	bltu	r16,r22,8043d00 <__divdf3+0x85c>
 8043a50:	8480ab2e 	bgeu	r16,r18,8043d00 <__divdf3+0x85c>
 8043a54:	423fff84 	addi	r8,r8,-2
 8043a58:	85a1883a 	add	r16,r16,r22
 8043a5c:	3804943a 	slli	r2,r7,16
 8043a60:	84a1c83a 	sub	r16,r16,r18
 8043a64:	e009883a 	mov	r4,fp
 8043a68:	1228b03a 	or	r20,r2,r8
 8043a6c:	a1ffffcc 	andi	r7,r20,65535
 8043a70:	a024d43a 	srli	r18,r20,16
 8043a74:	380b883a 	mov	r5,r7
 8043a78:	d8c00215 	stw	r3,8(sp)
 8043a7c:	d9c00515 	stw	r7,20(sp)
 8043a80:	8042dac0 	call	8042dac <__mulsi3>
 8043a84:	900b883a 	mov	r5,r18
 8043a88:	e009883a 	mov	r4,fp
 8043a8c:	102b883a 	mov	r21,r2
 8043a90:	8042dac0 	call	8042dac <__mulsi3>
 8043a94:	900b883a 	mov	r5,r18
 8043a98:	b809883a 	mov	r4,r23
 8043a9c:	1039883a 	mov	fp,r2
 8043aa0:	8042dac0 	call	8042dac <__mulsi3>
 8043aa4:	d9c00517 	ldw	r7,20(sp)
 8043aa8:	b80b883a 	mov	r5,r23
 8043aac:	1025883a 	mov	r18,r2
 8043ab0:	3809883a 	mov	r4,r7
 8043ab4:	8042dac0 	call	8042dac <__mulsi3>
 8043ab8:	a808d43a 	srli	r4,r21,16
 8043abc:	1705883a 	add	r2,r2,fp
 8043ac0:	d8c00217 	ldw	r3,8(sp)
 8043ac4:	2085883a 	add	r2,r4,r2
 8043ac8:	1700022e 	bgeu	r2,fp,8043ad4 <__divdf3+0x630>
 8043acc:	01000074 	movhi	r4,1
 8043ad0:	9125883a 	add	r18,r18,r4
 8043ad4:	1008d43a 	srli	r4,r2,16
 8043ad8:	1004943a 	slli	r2,r2,16
 8043adc:	ad7fffcc 	andi	r21,r21,65535
 8043ae0:	2489883a 	add	r4,r4,r18
 8043ae4:	1545883a 	add	r2,r2,r21
 8043ae8:	81003836 	bltu	r16,r4,8043bcc <__divdf3+0x728>
 8043aec:	81003626 	beq	r16,r4,8043bc8 <__divdf3+0x724>
 8043af0:	a5000054 	ori	r20,r20,1
 8043af4:	1880ffc4 	addi	r2,r3,1023
 8043af8:	00bf2e0e 	bge	zero,r2,80437b4 <__alt_data_end+0xfffdb714>
 8043afc:	a10001cc 	andi	r4,r20,7
 8043b00:	20000726 	beq	r4,zero,8043b20 <__divdf3+0x67c>
 8043b04:	a10003cc 	andi	r4,r20,15
 8043b08:	01400104 	movi	r5,4
 8043b0c:	21400426 	beq	r4,r5,8043b20 <__divdf3+0x67c>
 8043b10:	a149883a 	add	r4,r20,r5
 8043b14:	2529803a 	cmpltu	r20,r4,r20
 8043b18:	8d23883a 	add	r17,r17,r20
 8043b1c:	2029883a 	mov	r20,r4
 8043b20:	8900402c 	andhi	r4,r17,256
 8043b24:	20000426 	beq	r4,zero,8043b38 <__divdf3+0x694>
 8043b28:	18810004 	addi	r2,r3,1024
 8043b2c:	00ffc034 	movhi	r3,65280
 8043b30:	18ffffc4 	addi	r3,r3,-1
 8043b34:	88e2703a 	and	r17,r17,r3
 8043b38:	00c1ff84 	movi	r3,2046
 8043b3c:	18beb416 	blt	r3,r2,8043610 <__alt_data_end+0xfffdb570>
 8043b40:	a028d0fa 	srli	r20,r20,3
 8043b44:	882a977a 	slli	r21,r17,29
 8043b48:	8820927a 	slli	r16,r17,9
 8043b4c:	1081ffcc 	andi	r2,r2,2047
 8043b50:	ad2ab03a 	or	r21,r21,r20
 8043b54:	8020d33a 	srli	r16,r16,12
 8043b58:	9900004c 	andi	r4,r19,1
 8043b5c:	003eb006 	br	8043620 <__alt_data_end+0xfffdb580>
 8043b60:	8080022c 	andhi	r2,r16,8
 8043b64:	10001226 	beq	r2,zero,8043bb0 <__divdf3+0x70c>
 8043b68:	8880022c 	andhi	r2,r17,8
 8043b6c:	1000101e 	bne	r2,zero,8043bb0 <__divdf3+0x70c>
 8043b70:	00800434 	movhi	r2,16
 8043b74:	8c000234 	orhi	r16,r17,8
 8043b78:	10bfffc4 	addi	r2,r2,-1
 8043b7c:	b809883a 	mov	r4,r23
 8043b80:	80a0703a 	and	r16,r16,r2
 8043b84:	a02b883a 	mov	r21,r20
 8043b88:	003f0806 	br	80437ac <__alt_data_end+0xfffdb70c>
 8043b8c:	008000c4 	movi	r2,3
 8043b90:	3880b126 	beq	r7,r2,8043e58 <__divdf3+0x9b4>
 8043b94:	00800044 	movi	r2,1
 8043b98:	38805b1e 	bne	r7,r2,8043d08 <__divdf3+0x864>
 8043b9c:	e009883a 	mov	r4,fp
 8043ba0:	0005883a 	mov	r2,zero
 8043ba4:	0021883a 	mov	r16,zero
 8043ba8:	002b883a 	mov	r21,zero
 8043bac:	003e9c06 	br	8043620 <__alt_data_end+0xfffdb580>
 8043bb0:	00800434 	movhi	r2,16
 8043bb4:	84000234 	orhi	r16,r16,8
 8043bb8:	10bfffc4 	addi	r2,r2,-1
 8043bbc:	b009883a 	mov	r4,r22
 8043bc0:	80a0703a 	and	r16,r16,r2
 8043bc4:	003ef906 	br	80437ac <__alt_data_end+0xfffdb70c>
 8043bc8:	103fca26 	beq	r2,zero,8043af4 <__alt_data_end+0xfffdba54>
 8043bcc:	b421883a 	add	r16,r22,r16
 8043bd0:	a17fffc4 	addi	r5,r20,-1
 8043bd4:	8580422e 	bgeu	r16,r22,8043ce0 <__divdf3+0x83c>
 8043bd8:	2829883a 	mov	r20,r5
 8043bdc:	813fc41e 	bne	r16,r4,8043af0 <__alt_data_end+0xfffdba50>
 8043be0:	d9800017 	ldw	r6,0(sp)
 8043be4:	30bfc21e 	bne	r6,r2,8043af0 <__alt_data_end+0xfffdba50>
 8043be8:	003fc206 	br	8043af4 <__alt_data_end+0xfffdba54>
 8043bec:	143ff604 	addi	r16,r2,-40
 8043bf0:	8c20983a 	sll	r16,r17,r16
 8043bf4:	002b883a 	mov	r21,zero
 8043bf8:	003eb406 	br	80436cc <__alt_data_end+0xfffdb62c>
 8043bfc:	d9800215 	stw	r6,8(sp)
 8043c00:	d9c00515 	stw	r7,20(sp)
 8043c04:	da000415 	stw	r8,16(sp)
 8043c08:	80454e40 	call	80454e4 <__clzsi2>
 8043c0c:	10800804 	addi	r2,r2,32
 8043c10:	da000417 	ldw	r8,16(sp)
 8043c14:	d9c00517 	ldw	r7,20(sp)
 8043c18:	d9800217 	ldw	r6,8(sp)
 8043c1c:	003ea106 	br	80436a4 <__alt_data_end+0xfffdb604>
 8043c20:	147ff604 	addi	r17,r2,-40
 8043c24:	3462983a 	sll	r17,r6,r17
 8043c28:	0029883a 	mov	r20,zero
 8043c2c:	003ec906 	br	8043754 <__alt_data_end+0xfffdb6b4>
 8043c30:	3009883a 	mov	r4,r6
 8043c34:	d9400115 	stw	r5,4(sp)
 8043c38:	d9800215 	stw	r6,8(sp)
 8043c3c:	da000415 	stw	r8,16(sp)
 8043c40:	da400315 	stw	r9,12(sp)
 8043c44:	80454e40 	call	80454e4 <__clzsi2>
 8043c48:	10800804 	addi	r2,r2,32
 8043c4c:	da400317 	ldw	r9,12(sp)
 8043c50:	da000417 	ldw	r8,16(sp)
 8043c54:	d9800217 	ldw	r6,8(sp)
 8043c58:	d9400117 	ldw	r5,4(sp)
 8043c5c:	003eb306 	br	804372c <__alt_data_end+0xfffdb68c>
 8043c60:	d9800017 	ldw	r6,0(sp)
 8043c64:	a9ab883a 	add	r21,r21,r6
 8043c68:	a98b803a 	cmpltu	r5,r21,r6
 8043c6c:	2d8b883a 	add	r5,r5,r22
 8043c70:	2a11883a 	add	r8,r5,r8
 8043c74:	897fffc4 	addi	r5,r17,-1
 8043c78:	b2000c2e 	bgeu	r22,r8,8043cac <__divdf3+0x808>
 8043c7c:	41003f36 	bltu	r8,r4,8043d7c <__divdf3+0x8d8>
 8043c80:	22006c26 	beq	r4,r8,8043e34 <__divdf3+0x990>
 8043c84:	4109c83a 	sub	r4,r8,r4
 8043c88:	2823883a 	mov	r17,r5
 8043c8c:	003f3b06 	br	804397c <__alt_data_end+0xfffdb8dc>
 8043c90:	ad3ed336 	bltu	r21,r20,80437e0 <__alt_data_end+0xfffdb740>
 8043c94:	a804d07a 	srli	r2,r21,1
 8043c98:	802e97fa 	slli	r23,r16,31
 8043c9c:	a82a97fa 	slli	r21,r21,31
 8043ca0:	8020d07a 	srli	r16,r16,1
 8043ca4:	b8aeb03a 	or	r23,r23,r2
 8043ca8:	003ed006 	br	80437ec <__alt_data_end+0xfffdb74c>
 8043cac:	b23ff51e 	bne	r22,r8,8043c84 <__alt_data_end+0xfffdbbe4>
 8043cb0:	d9800017 	ldw	r6,0(sp)
 8043cb4:	a9bff12e 	bgeu	r21,r6,8043c7c <__alt_data_end+0xfffdbbdc>
 8043cb8:	b109c83a 	sub	r4,r22,r4
 8043cbc:	2823883a 	mov	r17,r5
 8043cc0:	003f2e06 	br	804397c <__alt_data_end+0xfffdb8dc>
 8043cc4:	2021883a 	mov	r16,r4
 8043cc8:	003eff06 	br	80438c8 <__alt_data_end+0xfffdb828>
 8043ccc:	2023883a 	mov	r17,r4
 8043cd0:	003ee406 	br	8043864 <__alt_data_end+0xfffdb7c4>
 8043cd4:	a8bfe236 	bltu	r21,r2,8043c60 <__alt_data_end+0xfffdbbc0>
 8043cd8:	0009883a 	mov	r4,zero
 8043cdc:	003f2706 	br	804397c <__alt_data_end+0xfffdb8dc>
 8043ce0:	81002d36 	bltu	r16,r4,8043d98 <__divdf3+0x8f4>
 8043ce4:	24005626 	beq	r4,r16,8043e40 <__divdf3+0x99c>
 8043ce8:	2829883a 	mov	r20,r5
 8043cec:	003f8006 	br	8043af0 <__alt_data_end+0xfffdba50>
 8043cf0:	053fffc4 	movi	r20,-1
 8043cf4:	003f7f06 	br	8043af4 <__alt_data_end+0xfffdba54>
 8043cf8:	200f883a 	mov	r7,r4
 8043cfc:	003f3c06 	br	80439f0 <__alt_data_end+0xfffdb950>
 8043d00:	1011883a 	mov	r8,r2
 8043d04:	003f5506 	br	8043a5c <__alt_data_end+0xfffdb9bc>
 8043d08:	e027883a 	mov	r19,fp
 8043d0c:	003f7906 	br	8043af4 <__alt_data_end+0xfffdba54>
 8043d10:	010007c4 	movi	r4,31
 8043d14:	20c02816 	blt	r4,r3,8043db8 <__divdf3+0x914>
 8043d18:	00800804 	movi	r2,32
 8043d1c:	10c5c83a 	sub	r2,r2,r3
 8043d20:	888a983a 	sll	r5,r17,r2
 8043d24:	a0c8d83a 	srl	r4,r20,r3
 8043d28:	a084983a 	sll	r2,r20,r2
 8043d2c:	88e2d83a 	srl	r17,r17,r3
 8043d30:	2906b03a 	or	r3,r5,r4
 8043d34:	1004c03a 	cmpne	r2,r2,zero
 8043d38:	1886b03a 	or	r3,r3,r2
 8043d3c:	188001cc 	andi	r2,r3,7
 8043d40:	10000726 	beq	r2,zero,8043d60 <__divdf3+0x8bc>
 8043d44:	188003cc 	andi	r2,r3,15
 8043d48:	01000104 	movi	r4,4
 8043d4c:	11000426 	beq	r2,r4,8043d60 <__divdf3+0x8bc>
 8043d50:	1805883a 	mov	r2,r3
 8043d54:	10c00104 	addi	r3,r2,4
 8043d58:	1885803a 	cmpltu	r2,r3,r2
 8043d5c:	88a3883a 	add	r17,r17,r2
 8043d60:	8880202c 	andhi	r2,r17,128
 8043d64:	10002926 	beq	r2,zero,8043e0c <__divdf3+0x968>
 8043d68:	9900004c 	andi	r4,r19,1
 8043d6c:	00800044 	movi	r2,1
 8043d70:	0021883a 	mov	r16,zero
 8043d74:	002b883a 	mov	r21,zero
 8043d78:	003e2906 	br	8043620 <__alt_data_end+0xfffdb580>
 8043d7c:	d9800017 	ldw	r6,0(sp)
 8043d80:	8c7fff84 	addi	r17,r17,-2
 8043d84:	a9ab883a 	add	r21,r21,r6
 8043d88:	a98b803a 	cmpltu	r5,r21,r6
 8043d8c:	2d8b883a 	add	r5,r5,r22
 8043d90:	2a11883a 	add	r8,r5,r8
 8043d94:	003ef806 	br	8043978 <__alt_data_end+0xfffdb8d8>
 8043d98:	d9800017 	ldw	r6,0(sp)
 8043d9c:	318f883a 	add	r7,r6,r6
 8043da0:	398b803a 	cmpltu	r5,r7,r6
 8043da4:	2d8d883a 	add	r6,r5,r22
 8043da8:	81a1883a 	add	r16,r16,r6
 8043dac:	a17fff84 	addi	r5,r20,-2
 8043db0:	d9c00015 	stw	r7,0(sp)
 8043db4:	003f8806 	br	8043bd8 <__alt_data_end+0xfffdbb38>
 8043db8:	013ff844 	movi	r4,-31
 8043dbc:	2085c83a 	sub	r2,r4,r2
 8043dc0:	8888d83a 	srl	r4,r17,r2
 8043dc4:	00800804 	movi	r2,32
 8043dc8:	18802126 	beq	r3,r2,8043e50 <__divdf3+0x9ac>
 8043dcc:	04001004 	movi	r16,64
 8043dd0:	80c7c83a 	sub	r3,r16,r3
 8043dd4:	88e0983a 	sll	r16,r17,r3
 8043dd8:	8504b03a 	or	r2,r16,r20
 8043ddc:	1004c03a 	cmpne	r2,r2,zero
 8043de0:	2084b03a 	or	r2,r4,r2
 8043de4:	144001cc 	andi	r17,r2,7
 8043de8:	88000d1e 	bne	r17,zero,8043e20 <__divdf3+0x97c>
 8043dec:	0021883a 	mov	r16,zero
 8043df0:	102ad0fa 	srli	r21,r2,3
 8043df4:	9900004c 	andi	r4,r19,1
 8043df8:	0005883a 	mov	r2,zero
 8043dfc:	ac6ab03a 	or	r21,r21,r17
 8043e00:	003e0706 	br	8043620 <__alt_data_end+0xfffdb580>
 8043e04:	1007883a 	mov	r3,r2
 8043e08:	0023883a 	mov	r17,zero
 8043e0c:	8820927a 	slli	r16,r17,9
 8043e10:	1805883a 	mov	r2,r3
 8043e14:	8822977a 	slli	r17,r17,29
 8043e18:	8020d33a 	srli	r16,r16,12
 8043e1c:	003ff406 	br	8043df0 <__alt_data_end+0xfffdbd50>
 8043e20:	10c003cc 	andi	r3,r2,15
 8043e24:	01000104 	movi	r4,4
 8043e28:	193ff626 	beq	r3,r4,8043e04 <__alt_data_end+0xfffdbd64>
 8043e2c:	0023883a 	mov	r17,zero
 8043e30:	003fc806 	br	8043d54 <__alt_data_end+0xfffdbcb4>
 8043e34:	a8bfd136 	bltu	r21,r2,8043d7c <__alt_data_end+0xfffdbcdc>
 8043e38:	2823883a 	mov	r17,r5
 8043e3c:	003fa606 	br	8043cd8 <__alt_data_end+0xfffdbc38>
 8043e40:	d9800017 	ldw	r6,0(sp)
 8043e44:	30bfd436 	bltu	r6,r2,8043d98 <__alt_data_end+0xfffdbcf8>
 8043e48:	2829883a 	mov	r20,r5
 8043e4c:	003f6406 	br	8043be0 <__alt_data_end+0xfffdbb40>
 8043e50:	0021883a 	mov	r16,zero
 8043e54:	003fe006 	br	8043dd8 <__alt_data_end+0xfffdbd38>
 8043e58:	00800434 	movhi	r2,16
 8043e5c:	8c000234 	orhi	r16,r17,8
 8043e60:	10bfffc4 	addi	r2,r2,-1
 8043e64:	e009883a 	mov	r4,fp
 8043e68:	80a0703a 	and	r16,r16,r2
 8043e6c:	a02b883a 	mov	r21,r20
 8043e70:	003e4e06 	br	80437ac <__alt_data_end+0xfffdb70c>

08043e74 <__gedf2>:
 8043e74:	2804d53a 	srli	r2,r5,20
 8043e78:	3806d53a 	srli	r3,r7,20
 8043e7c:	02000434 	movhi	r8,16
 8043e80:	423fffc4 	addi	r8,r8,-1
 8043e84:	1081ffcc 	andi	r2,r2,2047
 8043e88:	0241ffc4 	movi	r9,2047
 8043e8c:	2a14703a 	and	r10,r5,r8
 8043e90:	18c1ffcc 	andi	r3,r3,2047
 8043e94:	3a10703a 	and	r8,r7,r8
 8043e98:	280ad7fa 	srli	r5,r5,31
 8043e9c:	380ed7fa 	srli	r7,r7,31
 8043ea0:	12401d26 	beq	r2,r9,8043f18 <__gedf2+0xa4>
 8043ea4:	0241ffc4 	movi	r9,2047
 8043ea8:	1a401226 	beq	r3,r9,8043ef4 <__gedf2+0x80>
 8043eac:	1000081e 	bne	r2,zero,8043ed0 <__gedf2+0x5c>
 8043eb0:	2296b03a 	or	r11,r4,r10
 8043eb4:	5813003a 	cmpeq	r9,r11,zero
 8043eb8:	1800091e 	bne	r3,zero,8043ee0 <__gedf2+0x6c>
 8043ebc:	3218b03a 	or	r12,r6,r8
 8043ec0:	6000071e 	bne	r12,zero,8043ee0 <__gedf2+0x6c>
 8043ec4:	0005883a 	mov	r2,zero
 8043ec8:	5800101e 	bne	r11,zero,8043f0c <__gedf2+0x98>
 8043ecc:	f800283a 	ret
 8043ed0:	18000c1e 	bne	r3,zero,8043f04 <__gedf2+0x90>
 8043ed4:	3212b03a 	or	r9,r6,r8
 8043ed8:	48000c26 	beq	r9,zero,8043f0c <__gedf2+0x98>
 8043edc:	0013883a 	mov	r9,zero
 8043ee0:	39c03fcc 	andi	r7,r7,255
 8043ee4:	48000826 	beq	r9,zero,8043f08 <__gedf2+0x94>
 8043ee8:	38000926 	beq	r7,zero,8043f10 <__gedf2+0x9c>
 8043eec:	00800044 	movi	r2,1
 8043ef0:	f800283a 	ret
 8043ef4:	3212b03a 	or	r9,r6,r8
 8043ef8:	483fec26 	beq	r9,zero,8043eac <__alt_data_end+0xfffdbe0c>
 8043efc:	00bfff84 	movi	r2,-2
 8043f00:	f800283a 	ret
 8043f04:	39c03fcc 	andi	r7,r7,255
 8043f08:	29c00626 	beq	r5,r7,8043f24 <__gedf2+0xb0>
 8043f0c:	283ff726 	beq	r5,zero,8043eec <__alt_data_end+0xfffdbe4c>
 8043f10:	00bfffc4 	movi	r2,-1
 8043f14:	f800283a 	ret
 8043f18:	2292b03a 	or	r9,r4,r10
 8043f1c:	483fe126 	beq	r9,zero,8043ea4 <__alt_data_end+0xfffdbe04>
 8043f20:	003ff606 	br	8043efc <__alt_data_end+0xfffdbe5c>
 8043f24:	18bff916 	blt	r3,r2,8043f0c <__alt_data_end+0xfffdbe6c>
 8043f28:	10c00316 	blt	r2,r3,8043f38 <__gedf2+0xc4>
 8043f2c:	42bff736 	bltu	r8,r10,8043f0c <__alt_data_end+0xfffdbe6c>
 8043f30:	52000326 	beq	r10,r8,8043f40 <__gedf2+0xcc>
 8043f34:	5200042e 	bgeu	r10,r8,8043f48 <__gedf2+0xd4>
 8043f38:	283fec1e 	bne	r5,zero,8043eec <__alt_data_end+0xfffdbe4c>
 8043f3c:	003ff406 	br	8043f10 <__alt_data_end+0xfffdbe70>
 8043f40:	313ff236 	bltu	r6,r4,8043f0c <__alt_data_end+0xfffdbe6c>
 8043f44:	21bffc36 	bltu	r4,r6,8043f38 <__alt_data_end+0xfffdbe98>
 8043f48:	0005883a 	mov	r2,zero
 8043f4c:	f800283a 	ret

08043f50 <__ledf2>:
 8043f50:	2804d53a 	srli	r2,r5,20
 8043f54:	3810d53a 	srli	r8,r7,20
 8043f58:	00c00434 	movhi	r3,16
 8043f5c:	18ffffc4 	addi	r3,r3,-1
 8043f60:	1081ffcc 	andi	r2,r2,2047
 8043f64:	0241ffc4 	movi	r9,2047
 8043f68:	28d4703a 	and	r10,r5,r3
 8043f6c:	4201ffcc 	andi	r8,r8,2047
 8043f70:	38c6703a 	and	r3,r7,r3
 8043f74:	280ad7fa 	srli	r5,r5,31
 8043f78:	380ed7fa 	srli	r7,r7,31
 8043f7c:	12401f26 	beq	r2,r9,8043ffc <__ledf2+0xac>
 8043f80:	0241ffc4 	movi	r9,2047
 8043f84:	42401426 	beq	r8,r9,8043fd8 <__ledf2+0x88>
 8043f88:	1000091e 	bne	r2,zero,8043fb0 <__ledf2+0x60>
 8043f8c:	2296b03a 	or	r11,r4,r10
 8043f90:	5813003a 	cmpeq	r9,r11,zero
 8043f94:	29403fcc 	andi	r5,r5,255
 8043f98:	40000a1e 	bne	r8,zero,8043fc4 <__ledf2+0x74>
 8043f9c:	30d8b03a 	or	r12,r6,r3
 8043fa0:	6000081e 	bne	r12,zero,8043fc4 <__ledf2+0x74>
 8043fa4:	0005883a 	mov	r2,zero
 8043fa8:	5800111e 	bne	r11,zero,8043ff0 <__ledf2+0xa0>
 8043fac:	f800283a 	ret
 8043fb0:	29403fcc 	andi	r5,r5,255
 8043fb4:	40000c1e 	bne	r8,zero,8043fe8 <__ledf2+0x98>
 8043fb8:	30d2b03a 	or	r9,r6,r3
 8043fbc:	48000c26 	beq	r9,zero,8043ff0 <__ledf2+0xa0>
 8043fc0:	0013883a 	mov	r9,zero
 8043fc4:	39c03fcc 	andi	r7,r7,255
 8043fc8:	48000826 	beq	r9,zero,8043fec <__ledf2+0x9c>
 8043fcc:	38001126 	beq	r7,zero,8044014 <__ledf2+0xc4>
 8043fd0:	00800044 	movi	r2,1
 8043fd4:	f800283a 	ret
 8043fd8:	30d2b03a 	or	r9,r6,r3
 8043fdc:	483fea26 	beq	r9,zero,8043f88 <__alt_data_end+0xfffdbee8>
 8043fe0:	00800084 	movi	r2,2
 8043fe4:	f800283a 	ret
 8043fe8:	39c03fcc 	andi	r7,r7,255
 8043fec:	39400726 	beq	r7,r5,804400c <__ledf2+0xbc>
 8043ff0:	2800081e 	bne	r5,zero,8044014 <__ledf2+0xc4>
 8043ff4:	00800044 	movi	r2,1
 8043ff8:	f800283a 	ret
 8043ffc:	2292b03a 	or	r9,r4,r10
 8044000:	483fdf26 	beq	r9,zero,8043f80 <__alt_data_end+0xfffdbee0>
 8044004:	00800084 	movi	r2,2
 8044008:	f800283a 	ret
 804400c:	4080030e 	bge	r8,r2,804401c <__ledf2+0xcc>
 8044010:	383fef26 	beq	r7,zero,8043fd0 <__alt_data_end+0xfffdbf30>
 8044014:	00bfffc4 	movi	r2,-1
 8044018:	f800283a 	ret
 804401c:	123feb16 	blt	r2,r8,8043fcc <__alt_data_end+0xfffdbf2c>
 8044020:	1abff336 	bltu	r3,r10,8043ff0 <__alt_data_end+0xfffdbf50>
 8044024:	50c00326 	beq	r10,r3,8044034 <__ledf2+0xe4>
 8044028:	50c0042e 	bgeu	r10,r3,804403c <__ledf2+0xec>
 804402c:	283fe81e 	bne	r5,zero,8043fd0 <__alt_data_end+0xfffdbf30>
 8044030:	003ff806 	br	8044014 <__alt_data_end+0xfffdbf74>
 8044034:	313fee36 	bltu	r6,r4,8043ff0 <__alt_data_end+0xfffdbf50>
 8044038:	21bffc36 	bltu	r4,r6,804402c <__alt_data_end+0xfffdbf8c>
 804403c:	0005883a 	mov	r2,zero
 8044040:	f800283a 	ret

08044044 <__muldf3>:
 8044044:	deffee04 	addi	sp,sp,-72
 8044048:	dd000c15 	stw	r20,48(sp)
 804404c:	2828d53a 	srli	r20,r5,20
 8044050:	ddc00f15 	stw	r23,60(sp)
 8044054:	282ed7fa 	srli	r23,r5,31
 8044058:	dc000815 	stw	r16,32(sp)
 804405c:	04000434 	movhi	r16,16
 8044060:	dcc00b15 	stw	r19,44(sp)
 8044064:	843fffc4 	addi	r16,r16,-1
 8044068:	dfc01115 	stw	ra,68(sp)
 804406c:	df001015 	stw	fp,64(sp)
 8044070:	dd800e15 	stw	r22,56(sp)
 8044074:	dd400d15 	stw	r21,52(sp)
 8044078:	dc800a15 	stw	r18,40(sp)
 804407c:	dc400915 	stw	r17,36(sp)
 8044080:	a501ffcc 	andi	r20,r20,2047
 8044084:	2c20703a 	and	r16,r5,r16
 8044088:	b827883a 	mov	r19,r23
 804408c:	ba403fcc 	andi	r9,r23,255
 8044090:	a0006026 	beq	r20,zero,8044214 <__muldf3+0x1d0>
 8044094:	0081ffc4 	movi	r2,2047
 8044098:	202d883a 	mov	r22,r4
 804409c:	a0803626 	beq	r20,r2,8044178 <__muldf3+0x134>
 80440a0:	84000434 	orhi	r16,r16,16
 80440a4:	200ad77a 	srli	r5,r4,29
 80440a8:	800490fa 	slli	r2,r16,3
 80440ac:	202c90fa 	slli	r22,r4,3
 80440b0:	a53f0044 	addi	r20,r20,-1023
 80440b4:	28a0b03a 	or	r16,r5,r2
 80440b8:	002b883a 	mov	r21,zero
 80440bc:	000b883a 	mov	r5,zero
 80440c0:	3804d53a 	srli	r2,r7,20
 80440c4:	3838d7fa 	srli	fp,r7,31
 80440c8:	04400434 	movhi	r17,16
 80440cc:	8c7fffc4 	addi	r17,r17,-1
 80440d0:	1081ffcc 	andi	r2,r2,2047
 80440d4:	3025883a 	mov	r18,r6
 80440d8:	3c62703a 	and	r17,r7,r17
 80440dc:	e2803fcc 	andi	r10,fp,255
 80440e0:	10006d26 	beq	r2,zero,8044298 <__muldf3+0x254>
 80440e4:	00c1ffc4 	movi	r3,2047
 80440e8:	10c06526 	beq	r2,r3,8044280 <__muldf3+0x23c>
 80440ec:	8c400434 	orhi	r17,r17,16
 80440f0:	300ed77a 	srli	r7,r6,29
 80440f4:	880690fa 	slli	r3,r17,3
 80440f8:	302490fa 	slli	r18,r6,3
 80440fc:	10bf0044 	addi	r2,r2,-1023
 8044100:	38e2b03a 	or	r17,r7,r3
 8044104:	000f883a 	mov	r7,zero
 8044108:	a087883a 	add	r3,r20,r2
 804410c:	010003c4 	movi	r4,15
 8044110:	3d44b03a 	or	r2,r7,r21
 8044114:	e5ccf03a 	xor	r6,fp,r23
 8044118:	1a000044 	addi	r8,r3,1
 804411c:	20809b36 	bltu	r4,r2,804438c <__muldf3+0x348>
 8044120:	100490ba 	slli	r2,r2,2
 8044124:	01020134 	movhi	r4,2052
 8044128:	21104e04 	addi	r4,r4,16696
 804412c:	1105883a 	add	r2,r2,r4
 8044130:	10800017 	ldw	r2,0(r2)
 8044134:	1000683a 	jmp	r2
 8044138:	0804438c 	andi	zero,at,4366
 804413c:	08044198 	cmpnei	zero,at,4358
 8044140:	08044198 	cmpnei	zero,at,4358
 8044144:	08044194 	ori	zero,at,4358
 8044148:	08044368 	cmpgeui	zero,at,4365
 804414c:	08044368 	cmpgeui	zero,at,4365
 8044150:	08044350 	cmplti	zero,at,4365
 8044154:	08044194 	ori	zero,at,4358
 8044158:	08044368 	cmpgeui	zero,at,4365
 804415c:	08044350 	cmplti	zero,at,4365
 8044160:	08044368 	cmpgeui	zero,at,4365
 8044164:	08044194 	ori	zero,at,4358
 8044168:	08044378 	rdprs	zero,at,4365
 804416c:	08044378 	rdprs	zero,at,4365
 8044170:	08044378 	rdprs	zero,at,4365
 8044174:	080446d8 	cmpnei	zero,at,4379
 8044178:	2404b03a 	or	r2,r4,r16
 804417c:	1000711e 	bne	r2,zero,8044344 <__muldf3+0x300>
 8044180:	05400204 	movi	r21,8
 8044184:	0021883a 	mov	r16,zero
 8044188:	002d883a 	mov	r22,zero
 804418c:	01400084 	movi	r5,2
 8044190:	003fcb06 	br	80440c0 <__alt_data_end+0xfffdc020>
 8044194:	500d883a 	mov	r6,r10
 8044198:	00800084 	movi	r2,2
 804419c:	38805926 	beq	r7,r2,8044304 <__muldf3+0x2c0>
 80441a0:	008000c4 	movi	r2,3
 80441a4:	3881bb26 	beq	r7,r2,8044894 <__muldf3+0x850>
 80441a8:	00800044 	movi	r2,1
 80441ac:	3881961e 	bne	r7,r2,8044808 <__muldf3+0x7c4>
 80441b0:	3027883a 	mov	r19,r6
 80441b4:	0005883a 	mov	r2,zero
 80441b8:	0021883a 	mov	r16,zero
 80441bc:	002d883a 	mov	r22,zero
 80441c0:	1004953a 	slli	r2,r2,20
 80441c4:	98c03fcc 	andi	r3,r19,255
 80441c8:	04400434 	movhi	r17,16
 80441cc:	8c7fffc4 	addi	r17,r17,-1
 80441d0:	180697fa 	slli	r3,r3,31
 80441d4:	8460703a 	and	r16,r16,r17
 80441d8:	80a0b03a 	or	r16,r16,r2
 80441dc:	80c6b03a 	or	r3,r16,r3
 80441e0:	b005883a 	mov	r2,r22
 80441e4:	dfc01117 	ldw	ra,68(sp)
 80441e8:	df001017 	ldw	fp,64(sp)
 80441ec:	ddc00f17 	ldw	r23,60(sp)
 80441f0:	dd800e17 	ldw	r22,56(sp)
 80441f4:	dd400d17 	ldw	r21,52(sp)
 80441f8:	dd000c17 	ldw	r20,48(sp)
 80441fc:	dcc00b17 	ldw	r19,44(sp)
 8044200:	dc800a17 	ldw	r18,40(sp)
 8044204:	dc400917 	ldw	r17,36(sp)
 8044208:	dc000817 	ldw	r16,32(sp)
 804420c:	dec01204 	addi	sp,sp,72
 8044210:	f800283a 	ret
 8044214:	2404b03a 	or	r2,r4,r16
 8044218:	202b883a 	mov	r21,r4
 804421c:	10004426 	beq	r2,zero,8044330 <__muldf3+0x2ec>
 8044220:	80015126 	beq	r16,zero,8044768 <__muldf3+0x724>
 8044224:	8009883a 	mov	r4,r16
 8044228:	d9800715 	stw	r6,28(sp)
 804422c:	d9c00215 	stw	r7,8(sp)
 8044230:	da400415 	stw	r9,16(sp)
 8044234:	80454e40 	call	80454e4 <__clzsi2>
 8044238:	d9800717 	ldw	r6,28(sp)
 804423c:	d9c00217 	ldw	r7,8(sp)
 8044240:	da400417 	ldw	r9,16(sp)
 8044244:	113ffd44 	addi	r4,r2,-11
 8044248:	00c00704 	movi	r3,28
 804424c:	19014216 	blt	r3,r4,8044758 <__muldf3+0x714>
 8044250:	00c00744 	movi	r3,29
 8044254:	15bffe04 	addi	r22,r2,-8
 8044258:	1907c83a 	sub	r3,r3,r4
 804425c:	85a0983a 	sll	r16,r16,r22
 8044260:	a8c6d83a 	srl	r3,r21,r3
 8044264:	adac983a 	sll	r22,r21,r22
 8044268:	1c20b03a 	or	r16,r3,r16
 804426c:	1080fcc4 	addi	r2,r2,1011
 8044270:	00a9c83a 	sub	r20,zero,r2
 8044274:	002b883a 	mov	r21,zero
 8044278:	000b883a 	mov	r5,zero
 804427c:	003f9006 	br	80440c0 <__alt_data_end+0xfffdc020>
 8044280:	3446b03a 	or	r3,r6,r17
 8044284:	1800281e 	bne	r3,zero,8044328 <__muldf3+0x2e4>
 8044288:	0023883a 	mov	r17,zero
 804428c:	0025883a 	mov	r18,zero
 8044290:	01c00084 	movi	r7,2
 8044294:	003f9c06 	br	8044108 <__alt_data_end+0xfffdc068>
 8044298:	3446b03a 	or	r3,r6,r17
 804429c:	18001e26 	beq	r3,zero,8044318 <__muldf3+0x2d4>
 80442a0:	88012126 	beq	r17,zero,8044728 <__muldf3+0x6e4>
 80442a4:	8809883a 	mov	r4,r17
 80442a8:	d9400215 	stw	r5,8(sp)
 80442ac:	d9800715 	stw	r6,28(sp)
 80442b0:	da400415 	stw	r9,16(sp)
 80442b4:	da800315 	stw	r10,12(sp)
 80442b8:	80454e40 	call	80454e4 <__clzsi2>
 80442bc:	d9400217 	ldw	r5,8(sp)
 80442c0:	d9800717 	ldw	r6,28(sp)
 80442c4:	da400417 	ldw	r9,16(sp)
 80442c8:	da800317 	ldw	r10,12(sp)
 80442cc:	113ffd44 	addi	r4,r2,-11
 80442d0:	00c00704 	movi	r3,28
 80442d4:	19011016 	blt	r3,r4,8044718 <__muldf3+0x6d4>
 80442d8:	00c00744 	movi	r3,29
 80442dc:	14bffe04 	addi	r18,r2,-8
 80442e0:	1907c83a 	sub	r3,r3,r4
 80442e4:	8ca2983a 	sll	r17,r17,r18
 80442e8:	30c6d83a 	srl	r3,r6,r3
 80442ec:	34a4983a 	sll	r18,r6,r18
 80442f0:	1c62b03a 	or	r17,r3,r17
 80442f4:	1080fcc4 	addi	r2,r2,1011
 80442f8:	0085c83a 	sub	r2,zero,r2
 80442fc:	000f883a 	mov	r7,zero
 8044300:	003f8106 	br	8044108 <__alt_data_end+0xfffdc068>
 8044304:	3027883a 	mov	r19,r6
 8044308:	0081ffc4 	movi	r2,2047
 804430c:	0021883a 	mov	r16,zero
 8044310:	002d883a 	mov	r22,zero
 8044314:	003faa06 	br	80441c0 <__alt_data_end+0xfffdc120>
 8044318:	0023883a 	mov	r17,zero
 804431c:	0025883a 	mov	r18,zero
 8044320:	01c00044 	movi	r7,1
 8044324:	003f7806 	br	8044108 <__alt_data_end+0xfffdc068>
 8044328:	01c000c4 	movi	r7,3
 804432c:	003f7606 	br	8044108 <__alt_data_end+0xfffdc068>
 8044330:	05400104 	movi	r21,4
 8044334:	0021883a 	mov	r16,zero
 8044338:	002d883a 	mov	r22,zero
 804433c:	01400044 	movi	r5,1
 8044340:	003f5f06 	br	80440c0 <__alt_data_end+0xfffdc020>
 8044344:	05400304 	movi	r21,12
 8044348:	014000c4 	movi	r5,3
 804434c:	003f5c06 	br	80440c0 <__alt_data_end+0xfffdc020>
 8044350:	04000434 	movhi	r16,16
 8044354:	0027883a 	mov	r19,zero
 8044358:	843fffc4 	addi	r16,r16,-1
 804435c:	05bfffc4 	movi	r22,-1
 8044360:	0081ffc4 	movi	r2,2047
 8044364:	003f9606 	br	80441c0 <__alt_data_end+0xfffdc120>
 8044368:	8023883a 	mov	r17,r16
 804436c:	b025883a 	mov	r18,r22
 8044370:	280f883a 	mov	r7,r5
 8044374:	003f8806 	br	8044198 <__alt_data_end+0xfffdc0f8>
 8044378:	8023883a 	mov	r17,r16
 804437c:	b025883a 	mov	r18,r22
 8044380:	480d883a 	mov	r6,r9
 8044384:	280f883a 	mov	r7,r5
 8044388:	003f8306 	br	8044198 <__alt_data_end+0xfffdc0f8>
 804438c:	b026d43a 	srli	r19,r22,16
 8044390:	902ed43a 	srli	r23,r18,16
 8044394:	b5bfffcc 	andi	r22,r22,65535
 8044398:	94bfffcc 	andi	r18,r18,65535
 804439c:	b00b883a 	mov	r5,r22
 80443a0:	9009883a 	mov	r4,r18
 80443a4:	d8c00515 	stw	r3,20(sp)
 80443a8:	d9800715 	stw	r6,28(sp)
 80443ac:	da000615 	stw	r8,24(sp)
 80443b0:	8042dac0 	call	8042dac <__mulsi3>
 80443b4:	980b883a 	mov	r5,r19
 80443b8:	9009883a 	mov	r4,r18
 80443bc:	1029883a 	mov	r20,r2
 80443c0:	8042dac0 	call	8042dac <__mulsi3>
 80443c4:	b80b883a 	mov	r5,r23
 80443c8:	9809883a 	mov	r4,r19
 80443cc:	102b883a 	mov	r21,r2
 80443d0:	8042dac0 	call	8042dac <__mulsi3>
 80443d4:	b809883a 	mov	r4,r23
 80443d8:	b00b883a 	mov	r5,r22
 80443dc:	1039883a 	mov	fp,r2
 80443e0:	8042dac0 	call	8042dac <__mulsi3>
 80443e4:	a008d43a 	srli	r4,r20,16
 80443e8:	1545883a 	add	r2,r2,r21
 80443ec:	d8c00517 	ldw	r3,20(sp)
 80443f0:	2085883a 	add	r2,r4,r2
 80443f4:	d9800717 	ldw	r6,28(sp)
 80443f8:	da000617 	ldw	r8,24(sp)
 80443fc:	1540022e 	bgeu	r2,r21,8044408 <__muldf3+0x3c4>
 8044400:	01000074 	movhi	r4,1
 8044404:	e139883a 	add	fp,fp,r4
 8044408:	100e943a 	slli	r7,r2,16
 804440c:	1004d43a 	srli	r2,r2,16
 8044410:	882ad43a 	srli	r21,r17,16
 8044414:	a53fffcc 	andi	r20,r20,65535
 8044418:	8c7fffcc 	andi	r17,r17,65535
 804441c:	3d29883a 	add	r20,r7,r20
 8044420:	b00b883a 	mov	r5,r22
 8044424:	8809883a 	mov	r4,r17
 8044428:	d8c00515 	stw	r3,20(sp)
 804442c:	d9800715 	stw	r6,28(sp)
 8044430:	da000615 	stw	r8,24(sp)
 8044434:	dd000115 	stw	r20,4(sp)
 8044438:	d8800015 	stw	r2,0(sp)
 804443c:	8042dac0 	call	8042dac <__mulsi3>
 8044440:	980b883a 	mov	r5,r19
 8044444:	8809883a 	mov	r4,r17
 8044448:	d8800215 	stw	r2,8(sp)
 804444c:	8042dac0 	call	8042dac <__mulsi3>
 8044450:	9809883a 	mov	r4,r19
 8044454:	a80b883a 	mov	r5,r21
 8044458:	1029883a 	mov	r20,r2
 804445c:	8042dac0 	call	8042dac <__mulsi3>
 8044460:	b00b883a 	mov	r5,r22
 8044464:	a809883a 	mov	r4,r21
 8044468:	d8800415 	stw	r2,16(sp)
 804446c:	8042dac0 	call	8042dac <__mulsi3>
 8044470:	d9c00217 	ldw	r7,8(sp)
 8044474:	1505883a 	add	r2,r2,r20
 8044478:	d8c00517 	ldw	r3,20(sp)
 804447c:	3826d43a 	srli	r19,r7,16
 8044480:	d9800717 	ldw	r6,28(sp)
 8044484:	da000617 	ldw	r8,24(sp)
 8044488:	9885883a 	add	r2,r19,r2
 804448c:	da400417 	ldw	r9,16(sp)
 8044490:	1500022e 	bgeu	r2,r20,804449c <__muldf3+0x458>
 8044494:	01000074 	movhi	r4,1
 8044498:	4913883a 	add	r9,r9,r4
 804449c:	1028d43a 	srli	r20,r2,16
 80444a0:	1004943a 	slli	r2,r2,16
 80444a4:	802cd43a 	srli	r22,r16,16
 80444a8:	843fffcc 	andi	r16,r16,65535
 80444ac:	3cffffcc 	andi	r19,r7,65535
 80444b0:	9009883a 	mov	r4,r18
 80444b4:	800b883a 	mov	r5,r16
 80444b8:	a269883a 	add	r20,r20,r9
 80444bc:	d8c00515 	stw	r3,20(sp)
 80444c0:	d9800715 	stw	r6,28(sp)
 80444c4:	da000615 	stw	r8,24(sp)
 80444c8:	14e7883a 	add	r19,r2,r19
 80444cc:	8042dac0 	call	8042dac <__mulsi3>
 80444d0:	9009883a 	mov	r4,r18
 80444d4:	b00b883a 	mov	r5,r22
 80444d8:	d8800315 	stw	r2,12(sp)
 80444dc:	8042dac0 	call	8042dac <__mulsi3>
 80444e0:	b809883a 	mov	r4,r23
 80444e4:	b00b883a 	mov	r5,r22
 80444e8:	d8800215 	stw	r2,8(sp)
 80444ec:	8042dac0 	call	8042dac <__mulsi3>
 80444f0:	b80b883a 	mov	r5,r23
 80444f4:	8009883a 	mov	r4,r16
 80444f8:	d8800415 	stw	r2,16(sp)
 80444fc:	8042dac0 	call	8042dac <__mulsi3>
 8044500:	da800317 	ldw	r10,12(sp)
 8044504:	d9c00217 	ldw	r7,8(sp)
 8044508:	d9000017 	ldw	r4,0(sp)
 804450c:	502ed43a 	srli	r23,r10,16
 8044510:	11c5883a 	add	r2,r2,r7
 8044514:	24e5883a 	add	r18,r4,r19
 8044518:	b885883a 	add	r2,r23,r2
 804451c:	d8c00517 	ldw	r3,20(sp)
 8044520:	d9800717 	ldw	r6,28(sp)
 8044524:	da000617 	ldw	r8,24(sp)
 8044528:	da400417 	ldw	r9,16(sp)
 804452c:	11c0022e 	bgeu	r2,r7,8044538 <__muldf3+0x4f4>
 8044530:	01000074 	movhi	r4,1
 8044534:	4913883a 	add	r9,r9,r4
 8044538:	100ed43a 	srli	r7,r2,16
 804453c:	1004943a 	slli	r2,r2,16
 8044540:	55ffffcc 	andi	r23,r10,65535
 8044544:	3a53883a 	add	r9,r7,r9
 8044548:	8809883a 	mov	r4,r17
 804454c:	800b883a 	mov	r5,r16
 8044550:	d8c00515 	stw	r3,20(sp)
 8044554:	d9800715 	stw	r6,28(sp)
 8044558:	da000615 	stw	r8,24(sp)
 804455c:	da400415 	stw	r9,16(sp)
 8044560:	15ef883a 	add	r23,r2,r23
 8044564:	8042dac0 	call	8042dac <__mulsi3>
 8044568:	8809883a 	mov	r4,r17
 804456c:	b00b883a 	mov	r5,r22
 8044570:	d8800215 	stw	r2,8(sp)
 8044574:	8042dac0 	call	8042dac <__mulsi3>
 8044578:	b00b883a 	mov	r5,r22
 804457c:	a809883a 	mov	r4,r21
 8044580:	d8800315 	stw	r2,12(sp)
 8044584:	8042dac0 	call	8042dac <__mulsi3>
 8044588:	8009883a 	mov	r4,r16
 804458c:	a80b883a 	mov	r5,r21
 8044590:	1023883a 	mov	r17,r2
 8044594:	8042dac0 	call	8042dac <__mulsi3>
 8044598:	d9c00217 	ldw	r7,8(sp)
 804459c:	da800317 	ldw	r10,12(sp)
 80445a0:	d8c00517 	ldw	r3,20(sp)
 80445a4:	3808d43a 	srli	r4,r7,16
 80445a8:	1285883a 	add	r2,r2,r10
 80445ac:	d9800717 	ldw	r6,28(sp)
 80445b0:	2085883a 	add	r2,r4,r2
 80445b4:	da000617 	ldw	r8,24(sp)
 80445b8:	da400417 	ldw	r9,16(sp)
 80445bc:	1280022e 	bgeu	r2,r10,80445c8 <__muldf3+0x584>
 80445c0:	01000074 	movhi	r4,1
 80445c4:	8923883a 	add	r17,r17,r4
 80445c8:	1008943a 	slli	r4,r2,16
 80445cc:	39ffffcc 	andi	r7,r7,65535
 80445d0:	e4b9883a 	add	fp,fp,r18
 80445d4:	21cf883a 	add	r7,r4,r7
 80445d8:	e4e7803a 	cmpltu	r19,fp,r19
 80445dc:	3d0f883a 	add	r7,r7,r20
 80445e0:	bf39883a 	add	fp,r23,fp
 80445e4:	99c9883a 	add	r4,r19,r7
 80445e8:	e5ef803a 	cmpltu	r23,fp,r23
 80445ec:	490b883a 	add	r5,r9,r4
 80445f0:	1004d43a 	srli	r2,r2,16
 80445f4:	b965883a 	add	r18,r23,r5
 80445f8:	24c9803a 	cmpltu	r4,r4,r19
 80445fc:	3d29803a 	cmpltu	r20,r7,r20
 8044600:	a128b03a 	or	r20,r20,r4
 8044604:	95ef803a 	cmpltu	r23,r18,r23
 8044608:	2a53803a 	cmpltu	r9,r5,r9
 804460c:	a0a9883a 	add	r20,r20,r2
 8044610:	4deeb03a 	or	r23,r9,r23
 8044614:	a5ef883a 	add	r23,r20,r23
 8044618:	bc63883a 	add	r17,r23,r17
 804461c:	e004927a 	slli	r2,fp,9
 8044620:	d9000117 	ldw	r4,4(sp)
 8044624:	882e927a 	slli	r23,r17,9
 8044628:	9022d5fa 	srli	r17,r18,23
 804462c:	e038d5fa 	srli	fp,fp,23
 8044630:	1104b03a 	or	r2,r2,r4
 8044634:	9024927a 	slli	r18,r18,9
 8044638:	1004c03a 	cmpne	r2,r2,zero
 804463c:	bc62b03a 	or	r17,r23,r17
 8044640:	1738b03a 	or	fp,r2,fp
 8044644:	8880402c 	andhi	r2,r17,256
 8044648:	e4a4b03a 	or	r18,fp,r18
 804464c:	10000726 	beq	r2,zero,804466c <__muldf3+0x628>
 8044650:	9006d07a 	srli	r3,r18,1
 8044654:	880497fa 	slli	r2,r17,31
 8044658:	9480004c 	andi	r18,r18,1
 804465c:	8822d07a 	srli	r17,r17,1
 8044660:	1ca4b03a 	or	r18,r3,r18
 8044664:	14a4b03a 	or	r18,r2,r18
 8044668:	4007883a 	mov	r3,r8
 804466c:	1880ffc4 	addi	r2,r3,1023
 8044670:	0080460e 	bge	zero,r2,804478c <__muldf3+0x748>
 8044674:	910001cc 	andi	r4,r18,7
 8044678:	20000726 	beq	r4,zero,8044698 <__muldf3+0x654>
 804467c:	910003cc 	andi	r4,r18,15
 8044680:	01400104 	movi	r5,4
 8044684:	21400426 	beq	r4,r5,8044698 <__muldf3+0x654>
 8044688:	9149883a 	add	r4,r18,r5
 804468c:	24a5803a 	cmpltu	r18,r4,r18
 8044690:	8ca3883a 	add	r17,r17,r18
 8044694:	2025883a 	mov	r18,r4
 8044698:	8900402c 	andhi	r4,r17,256
 804469c:	20000426 	beq	r4,zero,80446b0 <__muldf3+0x66c>
 80446a0:	18810004 	addi	r2,r3,1024
 80446a4:	00ffc034 	movhi	r3,65280
 80446a8:	18ffffc4 	addi	r3,r3,-1
 80446ac:	88e2703a 	and	r17,r17,r3
 80446b0:	00c1ff84 	movi	r3,2046
 80446b4:	18bf1316 	blt	r3,r2,8044304 <__alt_data_end+0xfffdc264>
 80446b8:	882c977a 	slli	r22,r17,29
 80446bc:	9024d0fa 	srli	r18,r18,3
 80446c0:	8822927a 	slli	r17,r17,9
 80446c4:	1081ffcc 	andi	r2,r2,2047
 80446c8:	b4acb03a 	or	r22,r22,r18
 80446cc:	8820d33a 	srli	r16,r17,12
 80446d0:	3027883a 	mov	r19,r6
 80446d4:	003eba06 	br	80441c0 <__alt_data_end+0xfffdc120>
 80446d8:	8080022c 	andhi	r2,r16,8
 80446dc:	10000926 	beq	r2,zero,8044704 <__muldf3+0x6c0>
 80446e0:	8880022c 	andhi	r2,r17,8
 80446e4:	1000071e 	bne	r2,zero,8044704 <__muldf3+0x6c0>
 80446e8:	00800434 	movhi	r2,16
 80446ec:	8c000234 	orhi	r16,r17,8
 80446f0:	10bfffc4 	addi	r2,r2,-1
 80446f4:	e027883a 	mov	r19,fp
 80446f8:	80a0703a 	and	r16,r16,r2
 80446fc:	902d883a 	mov	r22,r18
 8044700:	003f1706 	br	8044360 <__alt_data_end+0xfffdc2c0>
 8044704:	00800434 	movhi	r2,16
 8044708:	84000234 	orhi	r16,r16,8
 804470c:	10bfffc4 	addi	r2,r2,-1
 8044710:	80a0703a 	and	r16,r16,r2
 8044714:	003f1206 	br	8044360 <__alt_data_end+0xfffdc2c0>
 8044718:	147ff604 	addi	r17,r2,-40
 804471c:	3462983a 	sll	r17,r6,r17
 8044720:	0025883a 	mov	r18,zero
 8044724:	003ef306 	br	80442f4 <__alt_data_end+0xfffdc254>
 8044728:	3009883a 	mov	r4,r6
 804472c:	d9400215 	stw	r5,8(sp)
 8044730:	d9800715 	stw	r6,28(sp)
 8044734:	da400415 	stw	r9,16(sp)
 8044738:	da800315 	stw	r10,12(sp)
 804473c:	80454e40 	call	80454e4 <__clzsi2>
 8044740:	10800804 	addi	r2,r2,32
 8044744:	da800317 	ldw	r10,12(sp)
 8044748:	da400417 	ldw	r9,16(sp)
 804474c:	d9800717 	ldw	r6,28(sp)
 8044750:	d9400217 	ldw	r5,8(sp)
 8044754:	003edd06 	br	80442cc <__alt_data_end+0xfffdc22c>
 8044758:	143ff604 	addi	r16,r2,-40
 804475c:	ac20983a 	sll	r16,r21,r16
 8044760:	002d883a 	mov	r22,zero
 8044764:	003ec106 	br	804426c <__alt_data_end+0xfffdc1cc>
 8044768:	d9800715 	stw	r6,28(sp)
 804476c:	d9c00215 	stw	r7,8(sp)
 8044770:	da400415 	stw	r9,16(sp)
 8044774:	80454e40 	call	80454e4 <__clzsi2>
 8044778:	10800804 	addi	r2,r2,32
 804477c:	da400417 	ldw	r9,16(sp)
 8044780:	d9c00217 	ldw	r7,8(sp)
 8044784:	d9800717 	ldw	r6,28(sp)
 8044788:	003eae06 	br	8044244 <__alt_data_end+0xfffdc1a4>
 804478c:	00c00044 	movi	r3,1
 8044790:	1887c83a 	sub	r3,r3,r2
 8044794:	01000e04 	movi	r4,56
 8044798:	20fe8516 	blt	r4,r3,80441b0 <__alt_data_end+0xfffdc110>
 804479c:	010007c4 	movi	r4,31
 80447a0:	20c01b16 	blt	r4,r3,8044810 <__muldf3+0x7cc>
 80447a4:	00800804 	movi	r2,32
 80447a8:	10c5c83a 	sub	r2,r2,r3
 80447ac:	888a983a 	sll	r5,r17,r2
 80447b0:	90c8d83a 	srl	r4,r18,r3
 80447b4:	9084983a 	sll	r2,r18,r2
 80447b8:	88e2d83a 	srl	r17,r17,r3
 80447bc:	2906b03a 	or	r3,r5,r4
 80447c0:	1004c03a 	cmpne	r2,r2,zero
 80447c4:	1886b03a 	or	r3,r3,r2
 80447c8:	188001cc 	andi	r2,r3,7
 80447cc:	10000726 	beq	r2,zero,80447ec <__muldf3+0x7a8>
 80447d0:	188003cc 	andi	r2,r3,15
 80447d4:	01000104 	movi	r4,4
 80447d8:	11000426 	beq	r2,r4,80447ec <__muldf3+0x7a8>
 80447dc:	1805883a 	mov	r2,r3
 80447e0:	10c00104 	addi	r3,r2,4
 80447e4:	1885803a 	cmpltu	r2,r3,r2
 80447e8:	88a3883a 	add	r17,r17,r2
 80447ec:	8880202c 	andhi	r2,r17,128
 80447f0:	10001c26 	beq	r2,zero,8044864 <__muldf3+0x820>
 80447f4:	3027883a 	mov	r19,r6
 80447f8:	00800044 	movi	r2,1
 80447fc:	0021883a 	mov	r16,zero
 8044800:	002d883a 	mov	r22,zero
 8044804:	003e6e06 	br	80441c0 <__alt_data_end+0xfffdc120>
 8044808:	4007883a 	mov	r3,r8
 804480c:	003f9706 	br	804466c <__alt_data_end+0xfffdc5cc>
 8044810:	017ff844 	movi	r5,-31
 8044814:	2885c83a 	sub	r2,r5,r2
 8044818:	888ad83a 	srl	r5,r17,r2
 804481c:	00800804 	movi	r2,32
 8044820:	18801a26 	beq	r3,r2,804488c <__muldf3+0x848>
 8044824:	01001004 	movi	r4,64
 8044828:	20c7c83a 	sub	r3,r4,r3
 804482c:	88e2983a 	sll	r17,r17,r3
 8044830:	8ca4b03a 	or	r18,r17,r18
 8044834:	9004c03a 	cmpne	r2,r18,zero
 8044838:	2884b03a 	or	r2,r5,r2
 804483c:	144001cc 	andi	r17,r2,7
 8044840:	88000d1e 	bne	r17,zero,8044878 <__muldf3+0x834>
 8044844:	0021883a 	mov	r16,zero
 8044848:	102cd0fa 	srli	r22,r2,3
 804484c:	3027883a 	mov	r19,r6
 8044850:	0005883a 	mov	r2,zero
 8044854:	b46cb03a 	or	r22,r22,r17
 8044858:	003e5906 	br	80441c0 <__alt_data_end+0xfffdc120>
 804485c:	1007883a 	mov	r3,r2
 8044860:	0023883a 	mov	r17,zero
 8044864:	8820927a 	slli	r16,r17,9
 8044868:	1805883a 	mov	r2,r3
 804486c:	8822977a 	slli	r17,r17,29
 8044870:	8020d33a 	srli	r16,r16,12
 8044874:	003ff406 	br	8044848 <__alt_data_end+0xfffdc7a8>
 8044878:	10c003cc 	andi	r3,r2,15
 804487c:	01000104 	movi	r4,4
 8044880:	193ff626 	beq	r3,r4,804485c <__alt_data_end+0xfffdc7bc>
 8044884:	0023883a 	mov	r17,zero
 8044888:	003fd506 	br	80447e0 <__alt_data_end+0xfffdc740>
 804488c:	0023883a 	mov	r17,zero
 8044890:	003fe706 	br	8044830 <__alt_data_end+0xfffdc790>
 8044894:	00800434 	movhi	r2,16
 8044898:	8c000234 	orhi	r16,r17,8
 804489c:	10bfffc4 	addi	r2,r2,-1
 80448a0:	3027883a 	mov	r19,r6
 80448a4:	80a0703a 	and	r16,r16,r2
 80448a8:	902d883a 	mov	r22,r18
 80448ac:	003eac06 	br	8044360 <__alt_data_end+0xfffdc2c0>

080448b0 <__subdf3>:
 80448b0:	02000434 	movhi	r8,16
 80448b4:	423fffc4 	addi	r8,r8,-1
 80448b8:	defffb04 	addi	sp,sp,-20
 80448bc:	2a14703a 	and	r10,r5,r8
 80448c0:	3812d53a 	srli	r9,r7,20
 80448c4:	3a10703a 	and	r8,r7,r8
 80448c8:	2006d77a 	srli	r3,r4,29
 80448cc:	3004d77a 	srli	r2,r6,29
 80448d0:	dc000015 	stw	r16,0(sp)
 80448d4:	501490fa 	slli	r10,r10,3
 80448d8:	2820d53a 	srli	r16,r5,20
 80448dc:	401090fa 	slli	r8,r8,3
 80448e0:	dc800215 	stw	r18,8(sp)
 80448e4:	dc400115 	stw	r17,4(sp)
 80448e8:	dfc00415 	stw	ra,16(sp)
 80448ec:	202290fa 	slli	r17,r4,3
 80448f0:	dcc00315 	stw	r19,12(sp)
 80448f4:	4a41ffcc 	andi	r9,r9,2047
 80448f8:	0101ffc4 	movi	r4,2047
 80448fc:	2824d7fa 	srli	r18,r5,31
 8044900:	8401ffcc 	andi	r16,r16,2047
 8044904:	50c6b03a 	or	r3,r10,r3
 8044908:	380ed7fa 	srli	r7,r7,31
 804490c:	408ab03a 	or	r5,r8,r2
 8044910:	300c90fa 	slli	r6,r6,3
 8044914:	49009626 	beq	r9,r4,8044b70 <__subdf3+0x2c0>
 8044918:	39c0005c 	xori	r7,r7,1
 804491c:	8245c83a 	sub	r2,r16,r9
 8044920:	3c807426 	beq	r7,r18,8044af4 <__subdf3+0x244>
 8044924:	0080af0e 	bge	zero,r2,8044be4 <__subdf3+0x334>
 8044928:	48002a1e 	bne	r9,zero,80449d4 <__subdf3+0x124>
 804492c:	2988b03a 	or	r4,r5,r6
 8044930:	20009a1e 	bne	r4,zero,8044b9c <__subdf3+0x2ec>
 8044934:	888001cc 	andi	r2,r17,7
 8044938:	10000726 	beq	r2,zero,8044958 <__subdf3+0xa8>
 804493c:	888003cc 	andi	r2,r17,15
 8044940:	01000104 	movi	r4,4
 8044944:	11000426 	beq	r2,r4,8044958 <__subdf3+0xa8>
 8044948:	890b883a 	add	r5,r17,r4
 804494c:	2c63803a 	cmpltu	r17,r5,r17
 8044950:	1c47883a 	add	r3,r3,r17
 8044954:	2823883a 	mov	r17,r5
 8044958:	1880202c 	andhi	r2,r3,128
 804495c:	10005926 	beq	r2,zero,8044ac4 <__subdf3+0x214>
 8044960:	84000044 	addi	r16,r16,1
 8044964:	0081ffc4 	movi	r2,2047
 8044968:	8080be26 	beq	r16,r2,8044c64 <__subdf3+0x3b4>
 804496c:	017fe034 	movhi	r5,65408
 8044970:	297fffc4 	addi	r5,r5,-1
 8044974:	1946703a 	and	r3,r3,r5
 8044978:	1804977a 	slli	r2,r3,29
 804497c:	1806927a 	slli	r3,r3,9
 8044980:	8822d0fa 	srli	r17,r17,3
 8044984:	8401ffcc 	andi	r16,r16,2047
 8044988:	180ad33a 	srli	r5,r3,12
 804498c:	9100004c 	andi	r4,r18,1
 8044990:	1444b03a 	or	r2,r2,r17
 8044994:	80c1ffcc 	andi	r3,r16,2047
 8044998:	1820953a 	slli	r16,r3,20
 804499c:	20c03fcc 	andi	r3,r4,255
 80449a0:	180897fa 	slli	r4,r3,31
 80449a4:	00c00434 	movhi	r3,16
 80449a8:	18ffffc4 	addi	r3,r3,-1
 80449ac:	28c6703a 	and	r3,r5,r3
 80449b0:	1c06b03a 	or	r3,r3,r16
 80449b4:	1906b03a 	or	r3,r3,r4
 80449b8:	dfc00417 	ldw	ra,16(sp)
 80449bc:	dcc00317 	ldw	r19,12(sp)
 80449c0:	dc800217 	ldw	r18,8(sp)
 80449c4:	dc400117 	ldw	r17,4(sp)
 80449c8:	dc000017 	ldw	r16,0(sp)
 80449cc:	dec00504 	addi	sp,sp,20
 80449d0:	f800283a 	ret
 80449d4:	0101ffc4 	movi	r4,2047
 80449d8:	813fd626 	beq	r16,r4,8044934 <__alt_data_end+0xfffdc894>
 80449dc:	29402034 	orhi	r5,r5,128
 80449e0:	01000e04 	movi	r4,56
 80449e4:	2080a316 	blt	r4,r2,8044c74 <__subdf3+0x3c4>
 80449e8:	010007c4 	movi	r4,31
 80449ec:	2080c616 	blt	r4,r2,8044d08 <__subdf3+0x458>
 80449f0:	01000804 	movi	r4,32
 80449f4:	2089c83a 	sub	r4,r4,r2
 80449f8:	2910983a 	sll	r8,r5,r4
 80449fc:	308ed83a 	srl	r7,r6,r2
 8044a00:	3108983a 	sll	r4,r6,r4
 8044a04:	2884d83a 	srl	r2,r5,r2
 8044a08:	41ccb03a 	or	r6,r8,r7
 8044a0c:	2008c03a 	cmpne	r4,r4,zero
 8044a10:	310cb03a 	or	r6,r6,r4
 8044a14:	898dc83a 	sub	r6,r17,r6
 8044a18:	89a3803a 	cmpltu	r17,r17,r6
 8044a1c:	1887c83a 	sub	r3,r3,r2
 8044a20:	1c47c83a 	sub	r3,r3,r17
 8044a24:	3023883a 	mov	r17,r6
 8044a28:	1880202c 	andhi	r2,r3,128
 8044a2c:	10002326 	beq	r2,zero,8044abc <__subdf3+0x20c>
 8044a30:	04c02034 	movhi	r19,128
 8044a34:	9cffffc4 	addi	r19,r19,-1
 8044a38:	1ce6703a 	and	r19,r3,r19
 8044a3c:	98007a26 	beq	r19,zero,8044c28 <__subdf3+0x378>
 8044a40:	9809883a 	mov	r4,r19
 8044a44:	80454e40 	call	80454e4 <__clzsi2>
 8044a48:	113ffe04 	addi	r4,r2,-8
 8044a4c:	00c007c4 	movi	r3,31
 8044a50:	19007b16 	blt	r3,r4,8044c40 <__subdf3+0x390>
 8044a54:	00800804 	movi	r2,32
 8044a58:	1105c83a 	sub	r2,r2,r4
 8044a5c:	8884d83a 	srl	r2,r17,r2
 8044a60:	9906983a 	sll	r3,r19,r4
 8044a64:	8922983a 	sll	r17,r17,r4
 8044a68:	10c4b03a 	or	r2,r2,r3
 8044a6c:	24007816 	blt	r4,r16,8044c50 <__subdf3+0x3a0>
 8044a70:	2421c83a 	sub	r16,r4,r16
 8044a74:	80c00044 	addi	r3,r16,1
 8044a78:	010007c4 	movi	r4,31
 8044a7c:	20c09516 	blt	r4,r3,8044cd4 <__subdf3+0x424>
 8044a80:	01400804 	movi	r5,32
 8044a84:	28cbc83a 	sub	r5,r5,r3
 8044a88:	88c8d83a 	srl	r4,r17,r3
 8044a8c:	8962983a 	sll	r17,r17,r5
 8044a90:	114a983a 	sll	r5,r2,r5
 8044a94:	10c6d83a 	srl	r3,r2,r3
 8044a98:	8804c03a 	cmpne	r2,r17,zero
 8044a9c:	290ab03a 	or	r5,r5,r4
 8044aa0:	28a2b03a 	or	r17,r5,r2
 8044aa4:	0021883a 	mov	r16,zero
 8044aa8:	003fa206 	br	8044934 <__alt_data_end+0xfffdc894>
 8044aac:	2090b03a 	or	r8,r4,r2
 8044ab0:	40018e26 	beq	r8,zero,80450ec <__subdf3+0x83c>
 8044ab4:	1007883a 	mov	r3,r2
 8044ab8:	2023883a 	mov	r17,r4
 8044abc:	888001cc 	andi	r2,r17,7
 8044ac0:	103f9e1e 	bne	r2,zero,804493c <__alt_data_end+0xfffdc89c>
 8044ac4:	1804977a 	slli	r2,r3,29
 8044ac8:	8822d0fa 	srli	r17,r17,3
 8044acc:	1810d0fa 	srli	r8,r3,3
 8044ad0:	9100004c 	andi	r4,r18,1
 8044ad4:	1444b03a 	or	r2,r2,r17
 8044ad8:	00c1ffc4 	movi	r3,2047
 8044adc:	80c02826 	beq	r16,r3,8044b80 <__subdf3+0x2d0>
 8044ae0:	01400434 	movhi	r5,16
 8044ae4:	297fffc4 	addi	r5,r5,-1
 8044ae8:	80e0703a 	and	r16,r16,r3
 8044aec:	414a703a 	and	r5,r8,r5
 8044af0:	003fa806 	br	8044994 <__alt_data_end+0xfffdc8f4>
 8044af4:	0080630e 	bge	zero,r2,8044c84 <__subdf3+0x3d4>
 8044af8:	48003026 	beq	r9,zero,8044bbc <__subdf3+0x30c>
 8044afc:	0101ffc4 	movi	r4,2047
 8044b00:	813f8c26 	beq	r16,r4,8044934 <__alt_data_end+0xfffdc894>
 8044b04:	29402034 	orhi	r5,r5,128
 8044b08:	01000e04 	movi	r4,56
 8044b0c:	2080a90e 	bge	r4,r2,8044db4 <__subdf3+0x504>
 8044b10:	298cb03a 	or	r6,r5,r6
 8044b14:	3012c03a 	cmpne	r9,r6,zero
 8044b18:	0005883a 	mov	r2,zero
 8044b1c:	4c53883a 	add	r9,r9,r17
 8044b20:	4c63803a 	cmpltu	r17,r9,r17
 8044b24:	10c7883a 	add	r3,r2,r3
 8044b28:	88c7883a 	add	r3,r17,r3
 8044b2c:	4823883a 	mov	r17,r9
 8044b30:	1880202c 	andhi	r2,r3,128
 8044b34:	1000d026 	beq	r2,zero,8044e78 <__subdf3+0x5c8>
 8044b38:	84000044 	addi	r16,r16,1
 8044b3c:	0081ffc4 	movi	r2,2047
 8044b40:	8080fe26 	beq	r16,r2,8044f3c <__subdf3+0x68c>
 8044b44:	00bfe034 	movhi	r2,65408
 8044b48:	10bfffc4 	addi	r2,r2,-1
 8044b4c:	1886703a 	and	r3,r3,r2
 8044b50:	880ad07a 	srli	r5,r17,1
 8044b54:	180497fa 	slli	r2,r3,31
 8044b58:	8900004c 	andi	r4,r17,1
 8044b5c:	2922b03a 	or	r17,r5,r4
 8044b60:	1806d07a 	srli	r3,r3,1
 8044b64:	1462b03a 	or	r17,r2,r17
 8044b68:	3825883a 	mov	r18,r7
 8044b6c:	003f7106 	br	8044934 <__alt_data_end+0xfffdc894>
 8044b70:	2984b03a 	or	r2,r5,r6
 8044b74:	103f6826 	beq	r2,zero,8044918 <__alt_data_end+0xfffdc878>
 8044b78:	39c03fcc 	andi	r7,r7,255
 8044b7c:	003f6706 	br	804491c <__alt_data_end+0xfffdc87c>
 8044b80:	4086b03a 	or	r3,r8,r2
 8044b84:	18015226 	beq	r3,zero,80450d0 <__subdf3+0x820>
 8044b88:	00c00434 	movhi	r3,16
 8044b8c:	41400234 	orhi	r5,r8,8
 8044b90:	18ffffc4 	addi	r3,r3,-1
 8044b94:	28ca703a 	and	r5,r5,r3
 8044b98:	003f7e06 	br	8044994 <__alt_data_end+0xfffdc8f4>
 8044b9c:	10bfffc4 	addi	r2,r2,-1
 8044ba0:	1000491e 	bne	r2,zero,8044cc8 <__subdf3+0x418>
 8044ba4:	898fc83a 	sub	r7,r17,r6
 8044ba8:	89e3803a 	cmpltu	r17,r17,r7
 8044bac:	1947c83a 	sub	r3,r3,r5
 8044bb0:	1c47c83a 	sub	r3,r3,r17
 8044bb4:	3823883a 	mov	r17,r7
 8044bb8:	003f9b06 	br	8044a28 <__alt_data_end+0xfffdc988>
 8044bbc:	2988b03a 	or	r4,r5,r6
 8044bc0:	203f5c26 	beq	r4,zero,8044934 <__alt_data_end+0xfffdc894>
 8044bc4:	10bfffc4 	addi	r2,r2,-1
 8044bc8:	1000931e 	bne	r2,zero,8044e18 <__subdf3+0x568>
 8044bcc:	898d883a 	add	r6,r17,r6
 8044bd0:	3463803a 	cmpltu	r17,r6,r17
 8044bd4:	1947883a 	add	r3,r3,r5
 8044bd8:	88c7883a 	add	r3,r17,r3
 8044bdc:	3023883a 	mov	r17,r6
 8044be0:	003fd306 	br	8044b30 <__alt_data_end+0xfffdca90>
 8044be4:	1000541e 	bne	r2,zero,8044d38 <__subdf3+0x488>
 8044be8:	80800044 	addi	r2,r16,1
 8044bec:	1081ffcc 	andi	r2,r2,2047
 8044bf0:	01000044 	movi	r4,1
 8044bf4:	2080a20e 	bge	r4,r2,8044e80 <__subdf3+0x5d0>
 8044bf8:	8989c83a 	sub	r4,r17,r6
 8044bfc:	8905803a 	cmpltu	r2,r17,r4
 8044c00:	1967c83a 	sub	r19,r3,r5
 8044c04:	98a7c83a 	sub	r19,r19,r2
 8044c08:	9880202c 	andhi	r2,r19,128
 8044c0c:	10006326 	beq	r2,zero,8044d9c <__subdf3+0x4ec>
 8044c10:	3463c83a 	sub	r17,r6,r17
 8044c14:	28c7c83a 	sub	r3,r5,r3
 8044c18:	344d803a 	cmpltu	r6,r6,r17
 8044c1c:	19a7c83a 	sub	r19,r3,r6
 8044c20:	3825883a 	mov	r18,r7
 8044c24:	983f861e 	bne	r19,zero,8044a40 <__alt_data_end+0xfffdc9a0>
 8044c28:	8809883a 	mov	r4,r17
 8044c2c:	80454e40 	call	80454e4 <__clzsi2>
 8044c30:	10800804 	addi	r2,r2,32
 8044c34:	113ffe04 	addi	r4,r2,-8
 8044c38:	00c007c4 	movi	r3,31
 8044c3c:	193f850e 	bge	r3,r4,8044a54 <__alt_data_end+0xfffdc9b4>
 8044c40:	10bff604 	addi	r2,r2,-40
 8044c44:	8884983a 	sll	r2,r17,r2
 8044c48:	0023883a 	mov	r17,zero
 8044c4c:	243f880e 	bge	r4,r16,8044a70 <__alt_data_end+0xfffdc9d0>
 8044c50:	00ffe034 	movhi	r3,65408
 8044c54:	18ffffc4 	addi	r3,r3,-1
 8044c58:	8121c83a 	sub	r16,r16,r4
 8044c5c:	10c6703a 	and	r3,r2,r3
 8044c60:	003f3406 	br	8044934 <__alt_data_end+0xfffdc894>
 8044c64:	9100004c 	andi	r4,r18,1
 8044c68:	000b883a 	mov	r5,zero
 8044c6c:	0005883a 	mov	r2,zero
 8044c70:	003f4806 	br	8044994 <__alt_data_end+0xfffdc8f4>
 8044c74:	298cb03a 	or	r6,r5,r6
 8044c78:	300cc03a 	cmpne	r6,r6,zero
 8044c7c:	0005883a 	mov	r2,zero
 8044c80:	003f6406 	br	8044a14 <__alt_data_end+0xfffdc974>
 8044c84:	10009a1e 	bne	r2,zero,8044ef0 <__subdf3+0x640>
 8044c88:	82400044 	addi	r9,r16,1
 8044c8c:	4881ffcc 	andi	r2,r9,2047
 8044c90:	02800044 	movi	r10,1
 8044c94:	5080670e 	bge	r10,r2,8044e34 <__subdf3+0x584>
 8044c98:	0081ffc4 	movi	r2,2047
 8044c9c:	4880af26 	beq	r9,r2,8044f5c <__subdf3+0x6ac>
 8044ca0:	898d883a 	add	r6,r17,r6
 8044ca4:	1945883a 	add	r2,r3,r5
 8044ca8:	3447803a 	cmpltu	r3,r6,r17
 8044cac:	1887883a 	add	r3,r3,r2
 8044cb0:	182297fa 	slli	r17,r3,31
 8044cb4:	300cd07a 	srli	r6,r6,1
 8044cb8:	1806d07a 	srli	r3,r3,1
 8044cbc:	4821883a 	mov	r16,r9
 8044cc0:	89a2b03a 	or	r17,r17,r6
 8044cc4:	003f1b06 	br	8044934 <__alt_data_end+0xfffdc894>
 8044cc8:	0101ffc4 	movi	r4,2047
 8044ccc:	813f441e 	bne	r16,r4,80449e0 <__alt_data_end+0xfffdc940>
 8044cd0:	003f1806 	br	8044934 <__alt_data_end+0xfffdc894>
 8044cd4:	843ff844 	addi	r16,r16,-31
 8044cd8:	01400804 	movi	r5,32
 8044cdc:	1408d83a 	srl	r4,r2,r16
 8044ce0:	19405026 	beq	r3,r5,8044e24 <__subdf3+0x574>
 8044ce4:	01401004 	movi	r5,64
 8044ce8:	28c7c83a 	sub	r3,r5,r3
 8044cec:	10c4983a 	sll	r2,r2,r3
 8044cf0:	88a2b03a 	or	r17,r17,r2
 8044cf4:	8822c03a 	cmpne	r17,r17,zero
 8044cf8:	2462b03a 	or	r17,r4,r17
 8044cfc:	0007883a 	mov	r3,zero
 8044d00:	0021883a 	mov	r16,zero
 8044d04:	003f6d06 	br	8044abc <__alt_data_end+0xfffdca1c>
 8044d08:	11fff804 	addi	r7,r2,-32
 8044d0c:	01000804 	movi	r4,32
 8044d10:	29ced83a 	srl	r7,r5,r7
 8044d14:	11004526 	beq	r2,r4,8044e2c <__subdf3+0x57c>
 8044d18:	01001004 	movi	r4,64
 8044d1c:	2089c83a 	sub	r4,r4,r2
 8044d20:	2904983a 	sll	r2,r5,r4
 8044d24:	118cb03a 	or	r6,r2,r6
 8044d28:	300cc03a 	cmpne	r6,r6,zero
 8044d2c:	398cb03a 	or	r6,r7,r6
 8044d30:	0005883a 	mov	r2,zero
 8044d34:	003f3706 	br	8044a14 <__alt_data_end+0xfffdc974>
 8044d38:	80002a26 	beq	r16,zero,8044de4 <__subdf3+0x534>
 8044d3c:	0101ffc4 	movi	r4,2047
 8044d40:	49006626 	beq	r9,r4,8044edc <__subdf3+0x62c>
 8044d44:	0085c83a 	sub	r2,zero,r2
 8044d48:	18c02034 	orhi	r3,r3,128
 8044d4c:	01000e04 	movi	r4,56
 8044d50:	20807e16 	blt	r4,r2,8044f4c <__subdf3+0x69c>
 8044d54:	010007c4 	movi	r4,31
 8044d58:	2080e716 	blt	r4,r2,80450f8 <__subdf3+0x848>
 8044d5c:	01000804 	movi	r4,32
 8044d60:	2089c83a 	sub	r4,r4,r2
 8044d64:	1914983a 	sll	r10,r3,r4
 8044d68:	8890d83a 	srl	r8,r17,r2
 8044d6c:	8908983a 	sll	r4,r17,r4
 8044d70:	1884d83a 	srl	r2,r3,r2
 8044d74:	5222b03a 	or	r17,r10,r8
 8044d78:	2006c03a 	cmpne	r3,r4,zero
 8044d7c:	88e2b03a 	or	r17,r17,r3
 8044d80:	3463c83a 	sub	r17,r6,r17
 8044d84:	2885c83a 	sub	r2,r5,r2
 8044d88:	344d803a 	cmpltu	r6,r6,r17
 8044d8c:	1187c83a 	sub	r3,r2,r6
 8044d90:	4821883a 	mov	r16,r9
 8044d94:	3825883a 	mov	r18,r7
 8044d98:	003f2306 	br	8044a28 <__alt_data_end+0xfffdc988>
 8044d9c:	24d0b03a 	or	r8,r4,r19
 8044da0:	40001b1e 	bne	r8,zero,8044e10 <__subdf3+0x560>
 8044da4:	0005883a 	mov	r2,zero
 8044da8:	0009883a 	mov	r4,zero
 8044dac:	0021883a 	mov	r16,zero
 8044db0:	003f4906 	br	8044ad8 <__alt_data_end+0xfffdca38>
 8044db4:	010007c4 	movi	r4,31
 8044db8:	20803a16 	blt	r4,r2,8044ea4 <__subdf3+0x5f4>
 8044dbc:	01000804 	movi	r4,32
 8044dc0:	2089c83a 	sub	r4,r4,r2
 8044dc4:	2912983a 	sll	r9,r5,r4
 8044dc8:	3090d83a 	srl	r8,r6,r2
 8044dcc:	3108983a 	sll	r4,r6,r4
 8044dd0:	2884d83a 	srl	r2,r5,r2
 8044dd4:	4a12b03a 	or	r9,r9,r8
 8044dd8:	2008c03a 	cmpne	r4,r4,zero
 8044ddc:	4912b03a 	or	r9,r9,r4
 8044de0:	003f4e06 	br	8044b1c <__alt_data_end+0xfffdca7c>
 8044de4:	1c48b03a 	or	r4,r3,r17
 8044de8:	20003c26 	beq	r4,zero,8044edc <__subdf3+0x62c>
 8044dec:	0084303a 	nor	r2,zero,r2
 8044df0:	1000381e 	bne	r2,zero,8044ed4 <__subdf3+0x624>
 8044df4:	3463c83a 	sub	r17,r6,r17
 8044df8:	28c5c83a 	sub	r2,r5,r3
 8044dfc:	344d803a 	cmpltu	r6,r6,r17
 8044e00:	1187c83a 	sub	r3,r2,r6
 8044e04:	4821883a 	mov	r16,r9
 8044e08:	3825883a 	mov	r18,r7
 8044e0c:	003f0606 	br	8044a28 <__alt_data_end+0xfffdc988>
 8044e10:	2023883a 	mov	r17,r4
 8044e14:	003f0906 	br	8044a3c <__alt_data_end+0xfffdc99c>
 8044e18:	0101ffc4 	movi	r4,2047
 8044e1c:	813f3a1e 	bne	r16,r4,8044b08 <__alt_data_end+0xfffdca68>
 8044e20:	003ec406 	br	8044934 <__alt_data_end+0xfffdc894>
 8044e24:	0005883a 	mov	r2,zero
 8044e28:	003fb106 	br	8044cf0 <__alt_data_end+0xfffdcc50>
 8044e2c:	0005883a 	mov	r2,zero
 8044e30:	003fbc06 	br	8044d24 <__alt_data_end+0xfffdcc84>
 8044e34:	1c44b03a 	or	r2,r3,r17
 8044e38:	80008e1e 	bne	r16,zero,8045074 <__subdf3+0x7c4>
 8044e3c:	1000c826 	beq	r2,zero,8045160 <__subdf3+0x8b0>
 8044e40:	2984b03a 	or	r2,r5,r6
 8044e44:	103ebb26 	beq	r2,zero,8044934 <__alt_data_end+0xfffdc894>
 8044e48:	8989883a 	add	r4,r17,r6
 8044e4c:	1945883a 	add	r2,r3,r5
 8044e50:	2447803a 	cmpltu	r3,r4,r17
 8044e54:	1887883a 	add	r3,r3,r2
 8044e58:	1880202c 	andhi	r2,r3,128
 8044e5c:	2023883a 	mov	r17,r4
 8044e60:	103f1626 	beq	r2,zero,8044abc <__alt_data_end+0xfffdca1c>
 8044e64:	00bfe034 	movhi	r2,65408
 8044e68:	10bfffc4 	addi	r2,r2,-1
 8044e6c:	5021883a 	mov	r16,r10
 8044e70:	1886703a 	and	r3,r3,r2
 8044e74:	003eaf06 	br	8044934 <__alt_data_end+0xfffdc894>
 8044e78:	3825883a 	mov	r18,r7
 8044e7c:	003f0f06 	br	8044abc <__alt_data_end+0xfffdca1c>
 8044e80:	1c44b03a 	or	r2,r3,r17
 8044e84:	8000251e 	bne	r16,zero,8044f1c <__subdf3+0x66c>
 8044e88:	1000661e 	bne	r2,zero,8045024 <__subdf3+0x774>
 8044e8c:	2990b03a 	or	r8,r5,r6
 8044e90:	40009626 	beq	r8,zero,80450ec <__subdf3+0x83c>
 8044e94:	2807883a 	mov	r3,r5
 8044e98:	3023883a 	mov	r17,r6
 8044e9c:	3825883a 	mov	r18,r7
 8044ea0:	003ea406 	br	8044934 <__alt_data_end+0xfffdc894>
 8044ea4:	127ff804 	addi	r9,r2,-32
 8044ea8:	01000804 	movi	r4,32
 8044eac:	2a52d83a 	srl	r9,r5,r9
 8044eb0:	11008c26 	beq	r2,r4,80450e4 <__subdf3+0x834>
 8044eb4:	01001004 	movi	r4,64
 8044eb8:	2085c83a 	sub	r2,r4,r2
 8044ebc:	2884983a 	sll	r2,r5,r2
 8044ec0:	118cb03a 	or	r6,r2,r6
 8044ec4:	300cc03a 	cmpne	r6,r6,zero
 8044ec8:	4992b03a 	or	r9,r9,r6
 8044ecc:	0005883a 	mov	r2,zero
 8044ed0:	003f1206 	br	8044b1c <__alt_data_end+0xfffdca7c>
 8044ed4:	0101ffc4 	movi	r4,2047
 8044ed8:	493f9c1e 	bne	r9,r4,8044d4c <__alt_data_end+0xfffdccac>
 8044edc:	2807883a 	mov	r3,r5
 8044ee0:	3023883a 	mov	r17,r6
 8044ee4:	4821883a 	mov	r16,r9
 8044ee8:	3825883a 	mov	r18,r7
 8044eec:	003e9106 	br	8044934 <__alt_data_end+0xfffdc894>
 8044ef0:	80001f1e 	bne	r16,zero,8044f70 <__subdf3+0x6c0>
 8044ef4:	1c48b03a 	or	r4,r3,r17
 8044ef8:	20005a26 	beq	r4,zero,8045064 <__subdf3+0x7b4>
 8044efc:	0084303a 	nor	r2,zero,r2
 8044f00:	1000561e 	bne	r2,zero,804505c <__subdf3+0x7ac>
 8044f04:	89a3883a 	add	r17,r17,r6
 8044f08:	1945883a 	add	r2,r3,r5
 8044f0c:	898d803a 	cmpltu	r6,r17,r6
 8044f10:	3087883a 	add	r3,r6,r2
 8044f14:	4821883a 	mov	r16,r9
 8044f18:	003f0506 	br	8044b30 <__alt_data_end+0xfffdca90>
 8044f1c:	10002b1e 	bne	r2,zero,8044fcc <__subdf3+0x71c>
 8044f20:	2984b03a 	or	r2,r5,r6
 8044f24:	10008026 	beq	r2,zero,8045128 <__subdf3+0x878>
 8044f28:	2807883a 	mov	r3,r5
 8044f2c:	3023883a 	mov	r17,r6
 8044f30:	3825883a 	mov	r18,r7
 8044f34:	0401ffc4 	movi	r16,2047
 8044f38:	003e7e06 	br	8044934 <__alt_data_end+0xfffdc894>
 8044f3c:	3809883a 	mov	r4,r7
 8044f40:	0011883a 	mov	r8,zero
 8044f44:	0005883a 	mov	r2,zero
 8044f48:	003ee306 	br	8044ad8 <__alt_data_end+0xfffdca38>
 8044f4c:	1c62b03a 	or	r17,r3,r17
 8044f50:	8822c03a 	cmpne	r17,r17,zero
 8044f54:	0005883a 	mov	r2,zero
 8044f58:	003f8906 	br	8044d80 <__alt_data_end+0xfffdcce0>
 8044f5c:	3809883a 	mov	r4,r7
 8044f60:	4821883a 	mov	r16,r9
 8044f64:	0011883a 	mov	r8,zero
 8044f68:	0005883a 	mov	r2,zero
 8044f6c:	003eda06 	br	8044ad8 <__alt_data_end+0xfffdca38>
 8044f70:	0101ffc4 	movi	r4,2047
 8044f74:	49003b26 	beq	r9,r4,8045064 <__subdf3+0x7b4>
 8044f78:	0085c83a 	sub	r2,zero,r2
 8044f7c:	18c02034 	orhi	r3,r3,128
 8044f80:	01000e04 	movi	r4,56
 8044f84:	20806e16 	blt	r4,r2,8045140 <__subdf3+0x890>
 8044f88:	010007c4 	movi	r4,31
 8044f8c:	20807716 	blt	r4,r2,804516c <__subdf3+0x8bc>
 8044f90:	01000804 	movi	r4,32
 8044f94:	2089c83a 	sub	r4,r4,r2
 8044f98:	1914983a 	sll	r10,r3,r4
 8044f9c:	8890d83a 	srl	r8,r17,r2
 8044fa0:	8908983a 	sll	r4,r17,r4
 8044fa4:	1884d83a 	srl	r2,r3,r2
 8044fa8:	5222b03a 	or	r17,r10,r8
 8044fac:	2006c03a 	cmpne	r3,r4,zero
 8044fb0:	88e2b03a 	or	r17,r17,r3
 8044fb4:	89a3883a 	add	r17,r17,r6
 8044fb8:	1145883a 	add	r2,r2,r5
 8044fbc:	898d803a 	cmpltu	r6,r17,r6
 8044fc0:	3087883a 	add	r3,r6,r2
 8044fc4:	4821883a 	mov	r16,r9
 8044fc8:	003ed906 	br	8044b30 <__alt_data_end+0xfffdca90>
 8044fcc:	2984b03a 	or	r2,r5,r6
 8044fd0:	10004226 	beq	r2,zero,80450dc <__subdf3+0x82c>
 8044fd4:	1808d0fa 	srli	r4,r3,3
 8044fd8:	8822d0fa 	srli	r17,r17,3
 8044fdc:	1806977a 	slli	r3,r3,29
 8044fe0:	2080022c 	andhi	r2,r4,8
 8044fe4:	1c62b03a 	or	r17,r3,r17
 8044fe8:	10000826 	beq	r2,zero,804500c <__subdf3+0x75c>
 8044fec:	2812d0fa 	srli	r9,r5,3
 8044ff0:	4880022c 	andhi	r2,r9,8
 8044ff4:	1000051e 	bne	r2,zero,804500c <__subdf3+0x75c>
 8044ff8:	300cd0fa 	srli	r6,r6,3
 8044ffc:	2804977a 	slli	r2,r5,29
 8045000:	4809883a 	mov	r4,r9
 8045004:	3825883a 	mov	r18,r7
 8045008:	11a2b03a 	or	r17,r2,r6
 804500c:	8806d77a 	srli	r3,r17,29
 8045010:	200890fa 	slli	r4,r4,3
 8045014:	882290fa 	slli	r17,r17,3
 8045018:	0401ffc4 	movi	r16,2047
 804501c:	1906b03a 	or	r3,r3,r4
 8045020:	003e4406 	br	8044934 <__alt_data_end+0xfffdc894>
 8045024:	2984b03a 	or	r2,r5,r6
 8045028:	103e4226 	beq	r2,zero,8044934 <__alt_data_end+0xfffdc894>
 804502c:	8989c83a 	sub	r4,r17,r6
 8045030:	8911803a 	cmpltu	r8,r17,r4
 8045034:	1945c83a 	sub	r2,r3,r5
 8045038:	1205c83a 	sub	r2,r2,r8
 804503c:	1200202c 	andhi	r8,r2,128
 8045040:	403e9a26 	beq	r8,zero,8044aac <__alt_data_end+0xfffdca0c>
 8045044:	3463c83a 	sub	r17,r6,r17
 8045048:	28c5c83a 	sub	r2,r5,r3
 804504c:	344d803a 	cmpltu	r6,r6,r17
 8045050:	1187c83a 	sub	r3,r2,r6
 8045054:	3825883a 	mov	r18,r7
 8045058:	003e3606 	br	8044934 <__alt_data_end+0xfffdc894>
 804505c:	0101ffc4 	movi	r4,2047
 8045060:	493fc71e 	bne	r9,r4,8044f80 <__alt_data_end+0xfffdcee0>
 8045064:	2807883a 	mov	r3,r5
 8045068:	3023883a 	mov	r17,r6
 804506c:	4821883a 	mov	r16,r9
 8045070:	003e3006 	br	8044934 <__alt_data_end+0xfffdc894>
 8045074:	10003626 	beq	r2,zero,8045150 <__subdf3+0x8a0>
 8045078:	2984b03a 	or	r2,r5,r6
 804507c:	10001726 	beq	r2,zero,80450dc <__subdf3+0x82c>
 8045080:	1808d0fa 	srli	r4,r3,3
 8045084:	8822d0fa 	srli	r17,r17,3
 8045088:	1806977a 	slli	r3,r3,29
 804508c:	2080022c 	andhi	r2,r4,8
 8045090:	1c62b03a 	or	r17,r3,r17
 8045094:	10000726 	beq	r2,zero,80450b4 <__subdf3+0x804>
 8045098:	2812d0fa 	srli	r9,r5,3
 804509c:	4880022c 	andhi	r2,r9,8
 80450a0:	1000041e 	bne	r2,zero,80450b4 <__subdf3+0x804>
 80450a4:	300cd0fa 	srli	r6,r6,3
 80450a8:	2804977a 	slli	r2,r5,29
 80450ac:	4809883a 	mov	r4,r9
 80450b0:	11a2b03a 	or	r17,r2,r6
 80450b4:	8806d77a 	srli	r3,r17,29
 80450b8:	200890fa 	slli	r4,r4,3
 80450bc:	882290fa 	slli	r17,r17,3
 80450c0:	3825883a 	mov	r18,r7
 80450c4:	1906b03a 	or	r3,r3,r4
 80450c8:	0401ffc4 	movi	r16,2047
 80450cc:	003e1906 	br	8044934 <__alt_data_end+0xfffdc894>
 80450d0:	000b883a 	mov	r5,zero
 80450d4:	0005883a 	mov	r2,zero
 80450d8:	003e2e06 	br	8044994 <__alt_data_end+0xfffdc8f4>
 80450dc:	0401ffc4 	movi	r16,2047
 80450e0:	003e1406 	br	8044934 <__alt_data_end+0xfffdc894>
 80450e4:	0005883a 	mov	r2,zero
 80450e8:	003f7506 	br	8044ec0 <__alt_data_end+0xfffdce20>
 80450ec:	0005883a 	mov	r2,zero
 80450f0:	0009883a 	mov	r4,zero
 80450f4:	003e7806 	br	8044ad8 <__alt_data_end+0xfffdca38>
 80450f8:	123ff804 	addi	r8,r2,-32
 80450fc:	01000804 	movi	r4,32
 8045100:	1a10d83a 	srl	r8,r3,r8
 8045104:	11002526 	beq	r2,r4,804519c <__subdf3+0x8ec>
 8045108:	01001004 	movi	r4,64
 804510c:	2085c83a 	sub	r2,r4,r2
 8045110:	1884983a 	sll	r2,r3,r2
 8045114:	1444b03a 	or	r2,r2,r17
 8045118:	1004c03a 	cmpne	r2,r2,zero
 804511c:	40a2b03a 	or	r17,r8,r2
 8045120:	0005883a 	mov	r2,zero
 8045124:	003f1606 	br	8044d80 <__alt_data_end+0xfffdcce0>
 8045128:	02000434 	movhi	r8,16
 804512c:	0009883a 	mov	r4,zero
 8045130:	423fffc4 	addi	r8,r8,-1
 8045134:	00bfffc4 	movi	r2,-1
 8045138:	0401ffc4 	movi	r16,2047
 804513c:	003e6606 	br	8044ad8 <__alt_data_end+0xfffdca38>
 8045140:	1c62b03a 	or	r17,r3,r17
 8045144:	8822c03a 	cmpne	r17,r17,zero
 8045148:	0005883a 	mov	r2,zero
 804514c:	003f9906 	br	8044fb4 <__alt_data_end+0xfffdcf14>
 8045150:	2807883a 	mov	r3,r5
 8045154:	3023883a 	mov	r17,r6
 8045158:	0401ffc4 	movi	r16,2047
 804515c:	003df506 	br	8044934 <__alt_data_end+0xfffdc894>
 8045160:	2807883a 	mov	r3,r5
 8045164:	3023883a 	mov	r17,r6
 8045168:	003df206 	br	8044934 <__alt_data_end+0xfffdc894>
 804516c:	123ff804 	addi	r8,r2,-32
 8045170:	01000804 	movi	r4,32
 8045174:	1a10d83a 	srl	r8,r3,r8
 8045178:	11000a26 	beq	r2,r4,80451a4 <__subdf3+0x8f4>
 804517c:	01001004 	movi	r4,64
 8045180:	2085c83a 	sub	r2,r4,r2
 8045184:	1884983a 	sll	r2,r3,r2
 8045188:	1444b03a 	or	r2,r2,r17
 804518c:	1004c03a 	cmpne	r2,r2,zero
 8045190:	40a2b03a 	or	r17,r8,r2
 8045194:	0005883a 	mov	r2,zero
 8045198:	003f8606 	br	8044fb4 <__alt_data_end+0xfffdcf14>
 804519c:	0005883a 	mov	r2,zero
 80451a0:	003fdc06 	br	8045114 <__alt_data_end+0xfffdd074>
 80451a4:	0005883a 	mov	r2,zero
 80451a8:	003ff706 	br	8045188 <__alt_data_end+0xfffdd0e8>

080451ac <__fixdfsi>:
 80451ac:	280cd53a 	srli	r6,r5,20
 80451b0:	00c00434 	movhi	r3,16
 80451b4:	18ffffc4 	addi	r3,r3,-1
 80451b8:	3181ffcc 	andi	r6,r6,2047
 80451bc:	01c0ff84 	movi	r7,1022
 80451c0:	28c6703a 	and	r3,r5,r3
 80451c4:	280ad7fa 	srli	r5,r5,31
 80451c8:	3980120e 	bge	r7,r6,8045214 <__fixdfsi+0x68>
 80451cc:	00810744 	movi	r2,1053
 80451d0:	11800c16 	blt	r2,r6,8045204 <__fixdfsi+0x58>
 80451d4:	00810cc4 	movi	r2,1075
 80451d8:	1185c83a 	sub	r2,r2,r6
 80451dc:	01c007c4 	movi	r7,31
 80451e0:	18c00434 	orhi	r3,r3,16
 80451e4:	38800d16 	blt	r7,r2,804521c <__fixdfsi+0x70>
 80451e8:	31befb44 	addi	r6,r6,-1043
 80451ec:	2084d83a 	srl	r2,r4,r2
 80451f0:	1986983a 	sll	r3,r3,r6
 80451f4:	1884b03a 	or	r2,r3,r2
 80451f8:	28000726 	beq	r5,zero,8045218 <__fixdfsi+0x6c>
 80451fc:	0085c83a 	sub	r2,zero,r2
 8045200:	f800283a 	ret
 8045204:	00a00034 	movhi	r2,32768
 8045208:	10bfffc4 	addi	r2,r2,-1
 804520c:	2885883a 	add	r2,r5,r2
 8045210:	f800283a 	ret
 8045214:	0005883a 	mov	r2,zero
 8045218:	f800283a 	ret
 804521c:	008104c4 	movi	r2,1043
 8045220:	1185c83a 	sub	r2,r2,r6
 8045224:	1884d83a 	srl	r2,r3,r2
 8045228:	003ff306 	br	80451f8 <__alt_data_end+0xfffdd158>

0804522c <__extendsfdf2>:
 804522c:	200ad5fa 	srli	r5,r4,23
 8045230:	defffd04 	addi	sp,sp,-12
 8045234:	dc400115 	stw	r17,4(sp)
 8045238:	29403fcc 	andi	r5,r5,255
 804523c:	29800044 	addi	r6,r5,1
 8045240:	04402034 	movhi	r17,128
 8045244:	dc000015 	stw	r16,0(sp)
 8045248:	8c7fffc4 	addi	r17,r17,-1
 804524c:	dfc00215 	stw	ra,8(sp)
 8045250:	31803fcc 	andi	r6,r6,255
 8045254:	00800044 	movi	r2,1
 8045258:	8922703a 	and	r17,r17,r4
 804525c:	2020d7fa 	srli	r16,r4,31
 8045260:	1180110e 	bge	r2,r6,80452a8 <__extendsfdf2+0x7c>
 8045264:	880cd0fa 	srli	r6,r17,3
 8045268:	8822977a 	slli	r17,r17,29
 804526c:	2940e004 	addi	r5,r5,896
 8045270:	2941ffcc 	andi	r5,r5,2047
 8045274:	2804953a 	slli	r2,r5,20
 8045278:	01400434 	movhi	r5,16
 804527c:	800697fa 	slli	r3,r16,31
 8045280:	297fffc4 	addi	r5,r5,-1
 8045284:	314a703a 	and	r5,r6,r5
 8045288:	288ab03a 	or	r5,r5,r2
 804528c:	28c6b03a 	or	r3,r5,r3
 8045290:	8805883a 	mov	r2,r17
 8045294:	dfc00217 	ldw	ra,8(sp)
 8045298:	dc400117 	ldw	r17,4(sp)
 804529c:	dc000017 	ldw	r16,0(sp)
 80452a0:	dec00304 	addi	sp,sp,12
 80452a4:	f800283a 	ret
 80452a8:	2800111e 	bne	r5,zero,80452f0 <__extendsfdf2+0xc4>
 80452ac:	88001c26 	beq	r17,zero,8045320 <__extendsfdf2+0xf4>
 80452b0:	8809883a 	mov	r4,r17
 80452b4:	80454e40 	call	80454e4 <__clzsi2>
 80452b8:	00c00284 	movi	r3,10
 80452bc:	18801b16 	blt	r3,r2,804532c <__extendsfdf2+0x100>
 80452c0:	018002c4 	movi	r6,11
 80452c4:	308dc83a 	sub	r6,r6,r2
 80452c8:	11000544 	addi	r4,r2,21
 80452cc:	8986d83a 	srl	r3,r17,r6
 80452d0:	8922983a 	sll	r17,r17,r4
 80452d4:	0180e244 	movi	r6,905
 80452d8:	01400434 	movhi	r5,16
 80452dc:	3085c83a 	sub	r2,r6,r2
 80452e0:	297fffc4 	addi	r5,r5,-1
 80452e4:	194c703a 	and	r6,r3,r5
 80452e8:	1141ffcc 	andi	r5,r2,2047
 80452ec:	003fe006 	br	8045270 <__alt_data_end+0xfffdd1d0>
 80452f0:	88000826 	beq	r17,zero,8045314 <__extendsfdf2+0xe8>
 80452f4:	880cd0fa 	srli	r6,r17,3
 80452f8:	00800434 	movhi	r2,16
 80452fc:	10bfffc4 	addi	r2,r2,-1
 8045300:	31800234 	orhi	r6,r6,8
 8045304:	8822977a 	slli	r17,r17,29
 8045308:	308c703a 	and	r6,r6,r2
 804530c:	0141ffc4 	movi	r5,2047
 8045310:	003fd706 	br	8045270 <__alt_data_end+0xfffdd1d0>
 8045314:	0141ffc4 	movi	r5,2047
 8045318:	000d883a 	mov	r6,zero
 804531c:	003fd406 	br	8045270 <__alt_data_end+0xfffdd1d0>
 8045320:	000b883a 	mov	r5,zero
 8045324:	000d883a 	mov	r6,zero
 8045328:	003fd106 	br	8045270 <__alt_data_end+0xfffdd1d0>
 804532c:	11bffd44 	addi	r6,r2,-11
 8045330:	8986983a 	sll	r3,r17,r6
 8045334:	0023883a 	mov	r17,zero
 8045338:	003fe606 	br	80452d4 <__alt_data_end+0xfffdd234>

0804533c <__truncdfsf2>:
 804533c:	2810d53a 	srli	r8,r5,20
 8045340:	01c00434 	movhi	r7,16
 8045344:	39ffffc4 	addi	r7,r7,-1
 8045348:	29ce703a 	and	r7,r5,r7
 804534c:	4201ffcc 	andi	r8,r8,2047
 8045350:	380e90fa 	slli	r7,r7,3
 8045354:	200cd77a 	srli	r6,r4,29
 8045358:	42400044 	addi	r9,r8,1
 804535c:	4a41ffcc 	andi	r9,r9,2047
 8045360:	00c00044 	movi	r3,1
 8045364:	280ad7fa 	srli	r5,r5,31
 8045368:	31ceb03a 	or	r7,r6,r7
 804536c:	200490fa 	slli	r2,r4,3
 8045370:	1a40230e 	bge	r3,r9,8045400 <__truncdfsf2+0xc4>
 8045374:	40ff2004 	addi	r3,r8,-896
 8045378:	01803f84 	movi	r6,254
 804537c:	30c01516 	blt	r6,r3,80453d4 <__truncdfsf2+0x98>
 8045380:	00c0380e 	bge	zero,r3,8045464 <__truncdfsf2+0x128>
 8045384:	200c91ba 	slli	r6,r4,6
 8045388:	380e90fa 	slli	r7,r7,3
 804538c:	1004d77a 	srli	r2,r2,29
 8045390:	300cc03a 	cmpne	r6,r6,zero
 8045394:	31ccb03a 	or	r6,r6,r7
 8045398:	308cb03a 	or	r6,r6,r2
 804539c:	308001cc 	andi	r2,r6,7
 80453a0:	10000426 	beq	r2,zero,80453b4 <__truncdfsf2+0x78>
 80453a4:	308003cc 	andi	r2,r6,15
 80453a8:	01000104 	movi	r4,4
 80453ac:	11000126 	beq	r2,r4,80453b4 <__truncdfsf2+0x78>
 80453b0:	31800104 	addi	r6,r6,4
 80453b4:	3081002c 	andhi	r2,r6,1024
 80453b8:	10001626 	beq	r2,zero,8045414 <__truncdfsf2+0xd8>
 80453bc:	18c00044 	addi	r3,r3,1
 80453c0:	00803fc4 	movi	r2,255
 80453c4:	18800326 	beq	r3,r2,80453d4 <__truncdfsf2+0x98>
 80453c8:	300c91ba 	slli	r6,r6,6
 80453cc:	300cd27a 	srli	r6,r6,9
 80453d0:	00000206 	br	80453dc <__truncdfsf2+0xa0>
 80453d4:	00ffffc4 	movi	r3,-1
 80453d8:	000d883a 	mov	r6,zero
 80453dc:	18c03fcc 	andi	r3,r3,255
 80453e0:	180895fa 	slli	r4,r3,23
 80453e4:	00c02034 	movhi	r3,128
 80453e8:	280a97fa 	slli	r5,r5,31
 80453ec:	18ffffc4 	addi	r3,r3,-1
 80453f0:	30c6703a 	and	r3,r6,r3
 80453f4:	1906b03a 	or	r3,r3,r4
 80453f8:	1944b03a 	or	r2,r3,r5
 80453fc:	f800283a 	ret
 8045400:	40000b1e 	bne	r8,zero,8045430 <__truncdfsf2+0xf4>
 8045404:	388cb03a 	or	r6,r7,r2
 8045408:	0007883a 	mov	r3,zero
 804540c:	30000426 	beq	r6,zero,8045420 <__truncdfsf2+0xe4>
 8045410:	01800144 	movi	r6,5
 8045414:	00803fc4 	movi	r2,255
 8045418:	300cd0fa 	srli	r6,r6,3
 804541c:	18800a26 	beq	r3,r2,8045448 <__truncdfsf2+0x10c>
 8045420:	00802034 	movhi	r2,128
 8045424:	10bfffc4 	addi	r2,r2,-1
 8045428:	308c703a 	and	r6,r6,r2
 804542c:	003feb06 	br	80453dc <__alt_data_end+0xfffdd33c>
 8045430:	3888b03a 	or	r4,r7,r2
 8045434:	203fe726 	beq	r4,zero,80453d4 <__alt_data_end+0xfffdd334>
 8045438:	380c90fa 	slli	r6,r7,3
 804543c:	00c03fc4 	movi	r3,255
 8045440:	31808034 	orhi	r6,r6,512
 8045444:	003fd506 	br	804539c <__alt_data_end+0xfffdd2fc>
 8045448:	303fe226 	beq	r6,zero,80453d4 <__alt_data_end+0xfffdd334>
 804544c:	00802034 	movhi	r2,128
 8045450:	31801034 	orhi	r6,r6,64
 8045454:	10bfffc4 	addi	r2,r2,-1
 8045458:	00ffffc4 	movi	r3,-1
 804545c:	308c703a 	and	r6,r6,r2
 8045460:	003fde06 	br	80453dc <__alt_data_end+0xfffdd33c>
 8045464:	013ffa44 	movi	r4,-23
 8045468:	19000e16 	blt	r3,r4,80454a4 <__truncdfsf2+0x168>
 804546c:	01000784 	movi	r4,30
 8045470:	20c9c83a 	sub	r4,r4,r3
 8045474:	018007c4 	movi	r6,31
 8045478:	39c02034 	orhi	r7,r7,128
 804547c:	31000b16 	blt	r6,r4,80454ac <__truncdfsf2+0x170>
 8045480:	423f2084 	addi	r8,r8,-894
 8045484:	120c983a 	sll	r6,r2,r8
 8045488:	3a0e983a 	sll	r7,r7,r8
 804548c:	1104d83a 	srl	r2,r2,r4
 8045490:	300cc03a 	cmpne	r6,r6,zero
 8045494:	31ceb03a 	or	r7,r6,r7
 8045498:	388cb03a 	or	r6,r7,r2
 804549c:	0007883a 	mov	r3,zero
 80454a0:	003fbe06 	br	804539c <__alt_data_end+0xfffdd2fc>
 80454a4:	0007883a 	mov	r3,zero
 80454a8:	003fd906 	br	8045410 <__alt_data_end+0xfffdd370>
 80454ac:	01bfff84 	movi	r6,-2
 80454b0:	30cdc83a 	sub	r6,r6,r3
 80454b4:	00c00804 	movi	r3,32
 80454b8:	398cd83a 	srl	r6,r7,r6
 80454bc:	20c00726 	beq	r4,r3,80454dc <__truncdfsf2+0x1a0>
 80454c0:	423f2884 	addi	r8,r8,-862
 80454c4:	3a0e983a 	sll	r7,r7,r8
 80454c8:	3884b03a 	or	r2,r7,r2
 80454cc:	1004c03a 	cmpne	r2,r2,zero
 80454d0:	118cb03a 	or	r6,r2,r6
 80454d4:	0007883a 	mov	r3,zero
 80454d8:	003fb006 	br	804539c <__alt_data_end+0xfffdd2fc>
 80454dc:	000f883a 	mov	r7,zero
 80454e0:	003ff906 	br	80454c8 <__alt_data_end+0xfffdd428>

080454e4 <__clzsi2>:
 80454e4:	00bfffd4 	movui	r2,65535
 80454e8:	11000536 	bltu	r2,r4,8045500 <__clzsi2+0x1c>
 80454ec:	00803fc4 	movi	r2,255
 80454f0:	11000f36 	bltu	r2,r4,8045530 <__clzsi2+0x4c>
 80454f4:	00800804 	movi	r2,32
 80454f8:	0007883a 	mov	r3,zero
 80454fc:	00000506 	br	8045514 <__clzsi2+0x30>
 8045500:	00804034 	movhi	r2,256
 8045504:	10bfffc4 	addi	r2,r2,-1
 8045508:	11000c2e 	bgeu	r2,r4,804553c <__clzsi2+0x58>
 804550c:	00800204 	movi	r2,8
 8045510:	00c00604 	movi	r3,24
 8045514:	20c8d83a 	srl	r4,r4,r3
 8045518:	00c20174 	movhi	r3,2053
 804551c:	18d12084 	addi	r3,r3,17538
 8045520:	1909883a 	add	r4,r3,r4
 8045524:	20c00003 	ldbu	r3,0(r4)
 8045528:	10c5c83a 	sub	r2,r2,r3
 804552c:	f800283a 	ret
 8045530:	00800604 	movi	r2,24
 8045534:	00c00204 	movi	r3,8
 8045538:	003ff606 	br	8045514 <__alt_data_end+0xfffdd474>
 804553c:	00800404 	movi	r2,16
 8045540:	1007883a 	mov	r3,r2
 8045544:	003ff306 	br	8045514 <__alt_data_end+0xfffdd474>

08045548 <memcpy>:
 8045548:	defffd04 	addi	sp,sp,-12
 804554c:	dfc00215 	stw	ra,8(sp)
 8045550:	dc400115 	stw	r17,4(sp)
 8045554:	dc000015 	stw	r16,0(sp)
 8045558:	00c003c4 	movi	r3,15
 804555c:	2005883a 	mov	r2,r4
 8045560:	1980452e 	bgeu	r3,r6,8045678 <memcpy+0x130>
 8045564:	2906b03a 	or	r3,r5,r4
 8045568:	18c000cc 	andi	r3,r3,3
 804556c:	1800441e 	bne	r3,zero,8045680 <memcpy+0x138>
 8045570:	347ffc04 	addi	r17,r6,-16
 8045574:	8822d13a 	srli	r17,r17,4
 8045578:	28c00104 	addi	r3,r5,4
 804557c:	23400104 	addi	r13,r4,4
 8045580:	8820913a 	slli	r16,r17,4
 8045584:	2b000204 	addi	r12,r5,8
 8045588:	22c00204 	addi	r11,r4,8
 804558c:	84000504 	addi	r16,r16,20
 8045590:	2a800304 	addi	r10,r5,12
 8045594:	22400304 	addi	r9,r4,12
 8045598:	2c21883a 	add	r16,r5,r16
 804559c:	2811883a 	mov	r8,r5
 80455a0:	200f883a 	mov	r7,r4
 80455a4:	41000017 	ldw	r4,0(r8)
 80455a8:	1fc00017 	ldw	ra,0(r3)
 80455ac:	63c00017 	ldw	r15,0(r12)
 80455b0:	39000015 	stw	r4,0(r7)
 80455b4:	53800017 	ldw	r14,0(r10)
 80455b8:	6fc00015 	stw	ra,0(r13)
 80455bc:	5bc00015 	stw	r15,0(r11)
 80455c0:	4b800015 	stw	r14,0(r9)
 80455c4:	18c00404 	addi	r3,r3,16
 80455c8:	39c00404 	addi	r7,r7,16
 80455cc:	42000404 	addi	r8,r8,16
 80455d0:	6b400404 	addi	r13,r13,16
 80455d4:	63000404 	addi	r12,r12,16
 80455d8:	5ac00404 	addi	r11,r11,16
 80455dc:	52800404 	addi	r10,r10,16
 80455e0:	4a400404 	addi	r9,r9,16
 80455e4:	1c3fef1e 	bne	r3,r16,80455a4 <__alt_data_end+0xfffdd504>
 80455e8:	89c00044 	addi	r7,r17,1
 80455ec:	380e913a 	slli	r7,r7,4
 80455f0:	310003cc 	andi	r4,r6,15
 80455f4:	02c000c4 	movi	r11,3
 80455f8:	11c7883a 	add	r3,r2,r7
 80455fc:	29cb883a 	add	r5,r5,r7
 8045600:	5900212e 	bgeu	r11,r4,8045688 <memcpy+0x140>
 8045604:	1813883a 	mov	r9,r3
 8045608:	2811883a 	mov	r8,r5
 804560c:	200f883a 	mov	r7,r4
 8045610:	42800017 	ldw	r10,0(r8)
 8045614:	4a400104 	addi	r9,r9,4
 8045618:	39ffff04 	addi	r7,r7,-4
 804561c:	4abfff15 	stw	r10,-4(r9)
 8045620:	42000104 	addi	r8,r8,4
 8045624:	59fffa36 	bltu	r11,r7,8045610 <__alt_data_end+0xfffdd570>
 8045628:	213fff04 	addi	r4,r4,-4
 804562c:	2008d0ba 	srli	r4,r4,2
 8045630:	318000cc 	andi	r6,r6,3
 8045634:	21000044 	addi	r4,r4,1
 8045638:	2109883a 	add	r4,r4,r4
 804563c:	2109883a 	add	r4,r4,r4
 8045640:	1907883a 	add	r3,r3,r4
 8045644:	290b883a 	add	r5,r5,r4
 8045648:	30000626 	beq	r6,zero,8045664 <memcpy+0x11c>
 804564c:	198d883a 	add	r6,r3,r6
 8045650:	29c00003 	ldbu	r7,0(r5)
 8045654:	18c00044 	addi	r3,r3,1
 8045658:	29400044 	addi	r5,r5,1
 804565c:	19ffffc5 	stb	r7,-1(r3)
 8045660:	19bffb1e 	bne	r3,r6,8045650 <__alt_data_end+0xfffdd5b0>
 8045664:	dfc00217 	ldw	ra,8(sp)
 8045668:	dc400117 	ldw	r17,4(sp)
 804566c:	dc000017 	ldw	r16,0(sp)
 8045670:	dec00304 	addi	sp,sp,12
 8045674:	f800283a 	ret
 8045678:	2007883a 	mov	r3,r4
 804567c:	003ff206 	br	8045648 <__alt_data_end+0xfffdd5a8>
 8045680:	2007883a 	mov	r3,r4
 8045684:	003ff106 	br	804564c <__alt_data_end+0xfffdd5ac>
 8045688:	200d883a 	mov	r6,r4
 804568c:	003fee06 	br	8045648 <__alt_data_end+0xfffdd5a8>

08045690 <memset>:
 8045690:	20c000cc 	andi	r3,r4,3
 8045694:	2005883a 	mov	r2,r4
 8045698:	18004426 	beq	r3,zero,80457ac <memset+0x11c>
 804569c:	31ffffc4 	addi	r7,r6,-1
 80456a0:	30004026 	beq	r6,zero,80457a4 <memset+0x114>
 80456a4:	2813883a 	mov	r9,r5
 80456a8:	200d883a 	mov	r6,r4
 80456ac:	2007883a 	mov	r3,r4
 80456b0:	00000406 	br	80456c4 <memset+0x34>
 80456b4:	3a3fffc4 	addi	r8,r7,-1
 80456b8:	31800044 	addi	r6,r6,1
 80456bc:	38003926 	beq	r7,zero,80457a4 <memset+0x114>
 80456c0:	400f883a 	mov	r7,r8
 80456c4:	18c00044 	addi	r3,r3,1
 80456c8:	32400005 	stb	r9,0(r6)
 80456cc:	1a0000cc 	andi	r8,r3,3
 80456d0:	403ff81e 	bne	r8,zero,80456b4 <__alt_data_end+0xfffdd614>
 80456d4:	010000c4 	movi	r4,3
 80456d8:	21c02d2e 	bgeu	r4,r7,8045790 <memset+0x100>
 80456dc:	29003fcc 	andi	r4,r5,255
 80456e0:	200c923a 	slli	r6,r4,8
 80456e4:	3108b03a 	or	r4,r6,r4
 80456e8:	200c943a 	slli	r6,r4,16
 80456ec:	218cb03a 	or	r6,r4,r6
 80456f0:	010003c4 	movi	r4,15
 80456f4:	21c0182e 	bgeu	r4,r7,8045758 <memset+0xc8>
 80456f8:	3b3ffc04 	addi	r12,r7,-16
 80456fc:	6018d13a 	srli	r12,r12,4
 8045700:	1a000104 	addi	r8,r3,4
 8045704:	1ac00204 	addi	r11,r3,8
 8045708:	6008913a 	slli	r4,r12,4
 804570c:	1a800304 	addi	r10,r3,12
 8045710:	1813883a 	mov	r9,r3
 8045714:	21000504 	addi	r4,r4,20
 8045718:	1909883a 	add	r4,r3,r4
 804571c:	49800015 	stw	r6,0(r9)
 8045720:	41800015 	stw	r6,0(r8)
 8045724:	59800015 	stw	r6,0(r11)
 8045728:	51800015 	stw	r6,0(r10)
 804572c:	42000404 	addi	r8,r8,16
 8045730:	4a400404 	addi	r9,r9,16
 8045734:	5ac00404 	addi	r11,r11,16
 8045738:	52800404 	addi	r10,r10,16
 804573c:	413ff71e 	bne	r8,r4,804571c <__alt_data_end+0xfffdd67c>
 8045740:	63000044 	addi	r12,r12,1
 8045744:	6018913a 	slli	r12,r12,4
 8045748:	39c003cc 	andi	r7,r7,15
 804574c:	010000c4 	movi	r4,3
 8045750:	1b07883a 	add	r3,r3,r12
 8045754:	21c00e2e 	bgeu	r4,r7,8045790 <memset+0x100>
 8045758:	1813883a 	mov	r9,r3
 804575c:	3811883a 	mov	r8,r7
 8045760:	010000c4 	movi	r4,3
 8045764:	49800015 	stw	r6,0(r9)
 8045768:	423fff04 	addi	r8,r8,-4
 804576c:	4a400104 	addi	r9,r9,4
 8045770:	223ffc36 	bltu	r4,r8,8045764 <__alt_data_end+0xfffdd6c4>
 8045774:	393fff04 	addi	r4,r7,-4
 8045778:	2008d0ba 	srli	r4,r4,2
 804577c:	39c000cc 	andi	r7,r7,3
 8045780:	21000044 	addi	r4,r4,1
 8045784:	2109883a 	add	r4,r4,r4
 8045788:	2109883a 	add	r4,r4,r4
 804578c:	1907883a 	add	r3,r3,r4
 8045790:	38000526 	beq	r7,zero,80457a8 <memset+0x118>
 8045794:	19cf883a 	add	r7,r3,r7
 8045798:	19400005 	stb	r5,0(r3)
 804579c:	18c00044 	addi	r3,r3,1
 80457a0:	38fffd1e 	bne	r7,r3,8045798 <__alt_data_end+0xfffdd6f8>
 80457a4:	f800283a 	ret
 80457a8:	f800283a 	ret
 80457ac:	2007883a 	mov	r3,r4
 80457b0:	300f883a 	mov	r7,r6
 80457b4:	003fc706 	br	80456d4 <__alt_data_end+0xfffdd634>

080457b8 <_puts_r>:
 80457b8:	defff604 	addi	sp,sp,-40
 80457bc:	dc000715 	stw	r16,28(sp)
 80457c0:	2021883a 	mov	r16,r4
 80457c4:	2809883a 	mov	r4,r5
 80457c8:	dc400815 	stw	r17,32(sp)
 80457cc:	dfc00915 	stw	ra,36(sp)
 80457d0:	2823883a 	mov	r17,r5
 80457d4:	80459cc0 	call	80459cc <strlen>
 80457d8:	10c00044 	addi	r3,r2,1
 80457dc:	d8800115 	stw	r2,4(sp)
 80457e0:	00820174 	movhi	r2,2053
 80457e4:	10916104 	addi	r2,r2,17796
 80457e8:	d8800215 	stw	r2,8(sp)
 80457ec:	00800044 	movi	r2,1
 80457f0:	d8800315 	stw	r2,12(sp)
 80457f4:	00800084 	movi	r2,2
 80457f8:	dc400015 	stw	r17,0(sp)
 80457fc:	d8c00615 	stw	r3,24(sp)
 8045800:	dec00415 	stw	sp,16(sp)
 8045804:	d8800515 	stw	r2,20(sp)
 8045808:	80000226 	beq	r16,zero,8045814 <_puts_r+0x5c>
 804580c:	80800e17 	ldw	r2,56(r16)
 8045810:	10001426 	beq	r2,zero,8045864 <_puts_r+0xac>
 8045814:	81400217 	ldw	r5,8(r16)
 8045818:	2880030b 	ldhu	r2,12(r5)
 804581c:	10c8000c 	andi	r3,r2,8192
 8045820:	1800061e 	bne	r3,zero,804583c <_puts_r+0x84>
 8045824:	29001917 	ldw	r4,100(r5)
 8045828:	00f7ffc4 	movi	r3,-8193
 804582c:	10880014 	ori	r2,r2,8192
 8045830:	20c6703a 	and	r3,r4,r3
 8045834:	2880030d 	sth	r2,12(r5)
 8045838:	28c01915 	stw	r3,100(r5)
 804583c:	d9800404 	addi	r6,sp,16
 8045840:	8009883a 	mov	r4,r16
 8045844:	80499800 	call	8049980 <__sfvwrite_r>
 8045848:	1000091e 	bne	r2,zero,8045870 <_puts_r+0xb8>
 804584c:	00800284 	movi	r2,10
 8045850:	dfc00917 	ldw	ra,36(sp)
 8045854:	dc400817 	ldw	r17,32(sp)
 8045858:	dc000717 	ldw	r16,28(sp)
 804585c:	dec00a04 	addi	sp,sp,40
 8045860:	f800283a 	ret
 8045864:	8009883a 	mov	r4,r16
 8045868:	80499300 	call	8049930 <__sinit>
 804586c:	003fe906 	br	8045814 <__alt_data_end+0xfffdd774>
 8045870:	00bfffc4 	movi	r2,-1
 8045874:	003ff606 	br	8045850 <__alt_data_end+0xfffdd7b0>

08045878 <puts>:
 8045878:	00820174 	movhi	r2,2053
 804587c:	1098ed04 	addi	r2,r2,25524
 8045880:	200b883a 	mov	r5,r4
 8045884:	11000017 	ldw	r4,0(r2)
 8045888:	80457b81 	jmpi	80457b8 <_puts_r>

0804588c <srand>:
 804588c:	00820174 	movhi	r2,2053
 8045890:	1098ed04 	addi	r2,r2,25524
 8045894:	10800017 	ldw	r2,0(r2)
 8045898:	11002915 	stw	r4,164(r2)
 804589c:	10002a15 	stw	zero,168(r2)
 80458a0:	f800283a 	ret

080458a4 <rand>:
 80458a4:	00820174 	movhi	r2,2053
 80458a8:	defffe04 	addi	sp,sp,-8
 80458ac:	1098ed04 	addi	r2,r2,25524
 80458b0:	dc000015 	stw	r16,0(sp)
 80458b4:	14000017 	ldw	r16,0(r2)
 80458b8:	dfc00115 	stw	ra,4(sp)
 80458bc:	01932574 	movhi	r6,19605
 80458c0:	81002917 	ldw	r4,164(r16)
 80458c4:	81402a17 	ldw	r5,168(r16)
 80458c8:	01d614b4 	movhi	r7,22610
 80458cc:	319fcb44 	addi	r6,r6,32557
 80458d0:	39fd0b44 	addi	r7,r7,-3027
 80458d4:	804e7540 	call	804e754 <__muldi3>
 80458d8:	11000044 	addi	r4,r2,1
 80458dc:	2085803a 	cmpltu	r2,r4,r2
 80458e0:	10c7883a 	add	r3,r2,r3
 80458e4:	00a00034 	movhi	r2,32768
 80458e8:	10bfffc4 	addi	r2,r2,-1
 80458ec:	1884703a 	and	r2,r3,r2
 80458f0:	81002915 	stw	r4,164(r16)
 80458f4:	80c02a15 	stw	r3,168(r16)
 80458f8:	dfc00117 	ldw	ra,4(sp)
 80458fc:	dc000017 	ldw	r16,0(sp)
 8045900:	dec00204 	addi	sp,sp,8
 8045904:	f800283a 	ret

08045908 <_sprintf_r>:
 8045908:	deffe404 	addi	sp,sp,-112
 804590c:	2807883a 	mov	r3,r5
 8045910:	dfc01a15 	stw	ra,104(sp)
 8045914:	d9c01b15 	stw	r7,108(sp)
 8045918:	00a00034 	movhi	r2,32768
 804591c:	10bfffc4 	addi	r2,r2,-1
 8045920:	02008204 	movi	r8,520
 8045924:	d8800215 	stw	r2,8(sp)
 8045928:	d8800515 	stw	r2,20(sp)
 804592c:	d9c01b04 	addi	r7,sp,108
 8045930:	d80b883a 	mov	r5,sp
 8045934:	00bfffc4 	movi	r2,-1
 8045938:	d8c00015 	stw	r3,0(sp)
 804593c:	d8c00415 	stw	r3,16(sp)
 8045940:	da00030d 	sth	r8,12(sp)
 8045944:	d880038d 	sth	r2,14(sp)
 8045948:	8045a640 	call	8045a64 <___svfprintf_internal_r>
 804594c:	d8c00017 	ldw	r3,0(sp)
 8045950:	18000005 	stb	zero,0(r3)
 8045954:	dfc01a17 	ldw	ra,104(sp)
 8045958:	dec01c04 	addi	sp,sp,112
 804595c:	f800283a 	ret

08045960 <sprintf>:
 8045960:	deffe304 	addi	sp,sp,-116
 8045964:	2007883a 	mov	r3,r4
 8045968:	dfc01a15 	stw	ra,104(sp)
 804596c:	d9801b15 	stw	r6,108(sp)
 8045970:	d9c01c15 	stw	r7,112(sp)
 8045974:	01020174 	movhi	r4,2053
 8045978:	2118ed04 	addi	r4,r4,25524
 804597c:	21000017 	ldw	r4,0(r4)
 8045980:	00a00034 	movhi	r2,32768
 8045984:	10bfffc4 	addi	r2,r2,-1
 8045988:	280d883a 	mov	r6,r5
 804598c:	02008204 	movi	r8,520
 8045990:	d8800215 	stw	r2,8(sp)
 8045994:	d8800515 	stw	r2,20(sp)
 8045998:	d9c01b04 	addi	r7,sp,108
 804599c:	d80b883a 	mov	r5,sp
 80459a0:	00bfffc4 	movi	r2,-1
 80459a4:	d8c00015 	stw	r3,0(sp)
 80459a8:	d8c00415 	stw	r3,16(sp)
 80459ac:	da00030d 	sth	r8,12(sp)
 80459b0:	d880038d 	sth	r2,14(sp)
 80459b4:	8045a640 	call	8045a64 <___svfprintf_internal_r>
 80459b8:	d8c00017 	ldw	r3,0(sp)
 80459bc:	18000005 	stb	zero,0(r3)
 80459c0:	dfc01a17 	ldw	ra,104(sp)
 80459c4:	dec01d04 	addi	sp,sp,116
 80459c8:	f800283a 	ret

080459cc <strlen>:
 80459cc:	208000cc 	andi	r2,r4,3
 80459d0:	10002026 	beq	r2,zero,8045a54 <strlen+0x88>
 80459d4:	20800007 	ldb	r2,0(r4)
 80459d8:	10002026 	beq	r2,zero,8045a5c <strlen+0x90>
 80459dc:	2005883a 	mov	r2,r4
 80459e0:	00000206 	br	80459ec <strlen+0x20>
 80459e4:	10c00007 	ldb	r3,0(r2)
 80459e8:	18001826 	beq	r3,zero,8045a4c <strlen+0x80>
 80459ec:	10800044 	addi	r2,r2,1
 80459f0:	10c000cc 	andi	r3,r2,3
 80459f4:	183ffb1e 	bne	r3,zero,80459e4 <__alt_data_end+0xfffdd944>
 80459f8:	10c00017 	ldw	r3,0(r2)
 80459fc:	01ffbff4 	movhi	r7,65279
 8045a00:	39ffbfc4 	addi	r7,r7,-257
 8045a04:	00ca303a 	nor	r5,zero,r3
 8045a08:	01a02074 	movhi	r6,32897
 8045a0c:	19c7883a 	add	r3,r3,r7
 8045a10:	31a02004 	addi	r6,r6,-32640
 8045a14:	1946703a 	and	r3,r3,r5
 8045a18:	1986703a 	and	r3,r3,r6
 8045a1c:	1800091e 	bne	r3,zero,8045a44 <strlen+0x78>
 8045a20:	10800104 	addi	r2,r2,4
 8045a24:	10c00017 	ldw	r3,0(r2)
 8045a28:	19cb883a 	add	r5,r3,r7
 8045a2c:	00c6303a 	nor	r3,zero,r3
 8045a30:	28c6703a 	and	r3,r5,r3
 8045a34:	1986703a 	and	r3,r3,r6
 8045a38:	183ff926 	beq	r3,zero,8045a20 <__alt_data_end+0xfffdd980>
 8045a3c:	00000106 	br	8045a44 <strlen+0x78>
 8045a40:	10800044 	addi	r2,r2,1
 8045a44:	10c00007 	ldb	r3,0(r2)
 8045a48:	183ffd1e 	bne	r3,zero,8045a40 <__alt_data_end+0xfffdd9a0>
 8045a4c:	1105c83a 	sub	r2,r2,r4
 8045a50:	f800283a 	ret
 8045a54:	2005883a 	mov	r2,r4
 8045a58:	003fe706 	br	80459f8 <__alt_data_end+0xfffdd958>
 8045a5c:	0005883a 	mov	r2,zero
 8045a60:	f800283a 	ret

08045a64 <___svfprintf_internal_r>:
 8045a64:	deffb704 	addi	sp,sp,-292
 8045a68:	dfc04815 	stw	ra,288(sp)
 8045a6c:	ddc04615 	stw	r23,280(sp)
 8045a70:	d9402d15 	stw	r5,180(sp)
 8045a74:	d9003915 	stw	r4,228(sp)
 8045a78:	302f883a 	mov	r23,r6
 8045a7c:	d9c02e15 	stw	r7,184(sp)
 8045a80:	df004715 	stw	fp,284(sp)
 8045a84:	dd804515 	stw	r22,276(sp)
 8045a88:	dd404415 	stw	r21,272(sp)
 8045a8c:	dd004315 	stw	r20,268(sp)
 8045a90:	dcc04215 	stw	r19,264(sp)
 8045a94:	dc804115 	stw	r18,260(sp)
 8045a98:	dc404015 	stw	r17,256(sp)
 8045a9c:	dc003f15 	stw	r16,252(sp)
 8045aa0:	804a07c0 	call	804a07c <_localeconv_r>
 8045aa4:	10800017 	ldw	r2,0(r2)
 8045aa8:	1009883a 	mov	r4,r2
 8045aac:	d8803415 	stw	r2,208(sp)
 8045ab0:	80459cc0 	call	80459cc <strlen>
 8045ab4:	d8c02d17 	ldw	r3,180(sp)
 8045ab8:	d8803815 	stw	r2,224(sp)
 8045abc:	1880030b 	ldhu	r2,12(r3)
 8045ac0:	1080200c 	andi	r2,r2,128
 8045ac4:	10000226 	beq	r2,zero,8045ad0 <___svfprintf_internal_r+0x6c>
 8045ac8:	18800417 	ldw	r2,16(r3)
 8045acc:	1006b126 	beq	r2,zero,8047594 <___svfprintf_internal_r+0x1b30>
 8045ad0:	dcc03917 	ldw	r19,228(sp)
 8045ad4:	d8c00404 	addi	r3,sp,16
 8045ad8:	05420174 	movhi	r21,2053
 8045adc:	d9001e04 	addi	r4,sp,120
 8045ae0:	ad517284 	addi	r21,r21,17866
 8045ae4:	d8c01e15 	stw	r3,120(sp)
 8045ae8:	d8002015 	stw	zero,128(sp)
 8045aec:	d8001f15 	stw	zero,124(sp)
 8045af0:	d8003315 	stw	zero,204(sp)
 8045af4:	d8003615 	stw	zero,216(sp)
 8045af8:	d8003715 	stw	zero,220(sp)
 8045afc:	1811883a 	mov	r8,r3
 8045b00:	d8003a15 	stw	zero,232(sp)
 8045b04:	d8003b15 	stw	zero,236(sp)
 8045b08:	d8002f15 	stw	zero,188(sp)
 8045b0c:	d9002815 	stw	r4,160(sp)
 8045b10:	b8800007 	ldb	r2,0(r23)
 8045b14:	10027726 	beq	r2,zero,80464f4 <___svfprintf_internal_r+0xa90>
 8045b18:	00c00944 	movi	r3,37
 8045b1c:	b823883a 	mov	r17,r23
 8045b20:	10c0021e 	bne	r2,r3,8045b2c <___svfprintf_internal_r+0xc8>
 8045b24:	00001406 	br	8045b78 <___svfprintf_internal_r+0x114>
 8045b28:	10c00326 	beq	r2,r3,8045b38 <___svfprintf_internal_r+0xd4>
 8045b2c:	8c400044 	addi	r17,r17,1
 8045b30:	88800007 	ldb	r2,0(r17)
 8045b34:	103ffc1e 	bne	r2,zero,8045b28 <__alt_data_end+0xfffdda88>
 8045b38:	8de1c83a 	sub	r16,r17,r23
 8045b3c:	80000e26 	beq	r16,zero,8045b78 <___svfprintf_internal_r+0x114>
 8045b40:	d8c02017 	ldw	r3,128(sp)
 8045b44:	d8801f17 	ldw	r2,124(sp)
 8045b48:	45c00015 	stw	r23,0(r8)
 8045b4c:	1c07883a 	add	r3,r3,r16
 8045b50:	10800044 	addi	r2,r2,1
 8045b54:	d8c02015 	stw	r3,128(sp)
 8045b58:	44000115 	stw	r16,4(r8)
 8045b5c:	d8801f15 	stw	r2,124(sp)
 8045b60:	00c001c4 	movi	r3,7
 8045b64:	18809916 	blt	r3,r2,8045dcc <___svfprintf_internal_r+0x368>
 8045b68:	42000204 	addi	r8,r8,8
 8045b6c:	d9402f17 	ldw	r5,188(sp)
 8045b70:	2c0b883a 	add	r5,r5,r16
 8045b74:	d9402f15 	stw	r5,188(sp)
 8045b78:	88800007 	ldb	r2,0(r17)
 8045b7c:	10009a26 	beq	r2,zero,8045de8 <___svfprintf_internal_r+0x384>
 8045b80:	8dc00044 	addi	r23,r17,1
 8045b84:	8c400047 	ldb	r17,1(r17)
 8045b88:	0021883a 	mov	r16,zero
 8045b8c:	00bfffc4 	movi	r2,-1
 8045b90:	0025883a 	mov	r18,zero
 8045b94:	dc002905 	stb	r16,164(sp)
 8045b98:	d8002785 	stb	zero,158(sp)
 8045b9c:	d8002b05 	stb	zero,172(sp)
 8045ba0:	d8802a15 	stw	r2,168(sp)
 8045ba4:	d8003115 	stw	zero,196(sp)
 8045ba8:	05001604 	movi	r20,88
 8045bac:	05800244 	movi	r22,9
 8045bb0:	4039883a 	mov	fp,r8
 8045bb4:	9021883a 	mov	r16,r18
 8045bb8:	bdc00044 	addi	r23,r23,1
 8045bbc:	88bff804 	addi	r2,r17,-32
 8045bc0:	a0831e36 	bltu	r20,r2,804683c <___svfprintf_internal_r+0xdd8>
 8045bc4:	100490ba 	slli	r2,r2,2
 8045bc8:	00c20134 	movhi	r3,2052
 8045bcc:	18d6f704 	addi	r3,r3,23516
 8045bd0:	10c5883a 	add	r2,r2,r3
 8045bd4:	10800017 	ldw	r2,0(r2)
 8045bd8:	1000683a 	jmp	r2
 8045bdc:	08046784 	addi	zero,at,4510
 8045be0:	0804683c 	xorhi	zero,at,4512
 8045be4:	0804683c 	xorhi	zero,at,4512
 8045be8:	08046778 	rdprs	zero,at,4509
 8045bec:	0804683c 	xorhi	zero,at,4512
 8045bf0:	0804683c 	xorhi	zero,at,4512
 8045bf4:	0804683c 	xorhi	zero,at,4512
 8045bf8:	0804683c 	xorhi	zero,at,4512
 8045bfc:	0804683c 	xorhi	zero,at,4512
 8045c00:	0804683c 	xorhi	zero,at,4512
 8045c04:	08045e44 	addi	zero,at,4473
 8045c08:	08046688 	cmpgei	zero,at,4506
 8045c0c:	0804683c 	xorhi	zero,at,4512
 8045c10:	08045d50 	cmplti	zero,at,4469
 8045c14:	08045e68 	cmpgeui	zero,at,4473
 8045c18:	0804683c 	xorhi	zero,at,4512
 8045c1c:	08045ef4 	orhi	zero,at,4475
 8045c20:	08045eb8 	rdprs	zero,at,4474
 8045c24:	08045eb8 	rdprs	zero,at,4474
 8045c28:	08045eb8 	rdprs	zero,at,4474
 8045c2c:	08045eb8 	rdprs	zero,at,4474
 8045c30:	08045eb8 	rdprs	zero,at,4474
 8045c34:	08045eb8 	rdprs	zero,at,4474
 8045c38:	08045eb8 	rdprs	zero,at,4474
 8045c3c:	08045eb8 	rdprs	zero,at,4474
 8045c40:	08045eb8 	rdprs	zero,at,4474
 8045c44:	0804683c 	xorhi	zero,at,4512
 8045c48:	0804683c 	xorhi	zero,at,4512
 8045c4c:	0804683c 	xorhi	zero,at,4512
 8045c50:	0804683c 	xorhi	zero,at,4512
 8045c54:	0804683c 	xorhi	zero,at,4512
 8045c58:	0804683c 	xorhi	zero,at,4512
 8045c5c:	0804683c 	xorhi	zero,at,4512
 8045c60:	0804683c 	xorhi	zero,at,4512
 8045c64:	0804683c 	xorhi	zero,at,4512
 8045c68:	0804683c 	xorhi	zero,at,4512
 8045c6c:	08045fb8 	rdprs	zero,at,4478
 8045c70:	08045f00 	call	8045f0 <__alt_mem_new_sdram_controller_0-0x37fba10>
 8045c74:	0804683c 	xorhi	zero,at,4512
 8045c78:	08045f00 	call	8045f0 <__alt_mem_new_sdram_controller_0-0x37fba10>
 8045c7c:	0804683c 	xorhi	zero,at,4512
 8045c80:	0804683c 	xorhi	zero,at,4512
 8045c84:	0804683c 	xorhi	zero,at,4512
 8045c88:	0804683c 	xorhi	zero,at,4512
 8045c8c:	08045fac 	andhi	zero,at,4478
 8045c90:	0804683c 	xorhi	zero,at,4512
 8045c94:	0804683c 	xorhi	zero,at,4512
 8045c98:	08046080 	call	804608 <__alt_mem_new_sdram_controller_0-0x37fb9f8>
 8045c9c:	0804683c 	xorhi	zero,at,4512
 8045ca0:	0804683c 	xorhi	zero,at,4512
 8045ca4:	0804683c 	xorhi	zero,at,4512
 8045ca8:	0804683c 	xorhi	zero,at,4512
 8045cac:	0804683c 	xorhi	zero,at,4512
 8045cb0:	080464fc 	xorhi	zero,at,4499
 8045cb4:	0804683c 	xorhi	zero,at,4512
 8045cb8:	0804683c 	xorhi	zero,at,4512
 8045cbc:	08046568 	cmpgeui	zero,at,4501
 8045cc0:	0804683c 	xorhi	zero,at,4512
 8045cc4:	0804683c 	xorhi	zero,at,4512
 8045cc8:	0804683c 	xorhi	zero,at,4512
 8045ccc:	0804683c 	xorhi	zero,at,4512
 8045cd0:	0804683c 	xorhi	zero,at,4512
 8045cd4:	0804683c 	xorhi	zero,at,4512
 8045cd8:	0804683c 	xorhi	zero,at,4512
 8045cdc:	0804683c 	xorhi	zero,at,4512
 8045ce0:	0804683c 	xorhi	zero,at,4512
 8045ce4:	0804683c 	xorhi	zero,at,4512
 8045ce8:	08046624 	muli	zero,at,4504
 8045cec:	080467a4 	muli	zero,at,4510
 8045cf0:	08045f00 	call	8045f0 <__alt_mem_new_sdram_controller_0-0x37fba10>
 8045cf4:	08045f00 	call	8045f0 <__alt_mem_new_sdram_controller_0-0x37fba10>
 8045cf8:	08045f00 	call	8045f0 <__alt_mem_new_sdram_controller_0-0x37fba10>
 8045cfc:	08046818 	cmpnei	zero,at,4512
 8045d00:	080467a4 	muli	zero,at,4510
 8045d04:	0804683c 	xorhi	zero,at,4512
 8045d08:	0804683c 	xorhi	zero,at,4512
 8045d0c:	080467c4 	addi	zero,at,4511
 8045d10:	0804683c 	xorhi	zero,at,4512
 8045d14:	080467d8 	cmpnei	zero,at,4511
 8045d18:	08046668 	cmpgeui	zero,at,4505
 8045d1c:	08045d5c 	xori	zero,at,4469
 8045d20:	080466a0 	cmpeqi	zero,at,4506
 8045d24:	0804683c 	xorhi	zero,at,4512
 8045d28:	080466ac 	andhi	zero,at,4506
 8045d2c:	0804683c 	xorhi	zero,at,4512
 8045d30:	08046710 	cmplti	zero,at,4508
 8045d34:	0804683c 	xorhi	zero,at,4512
 8045d38:	0804683c 	xorhi	zero,at,4512
 8045d3c:	08046730 	cmpltui	zero,at,4508
 8045d40:	d8c03117 	ldw	r3,196(sp)
 8045d44:	d8802e15 	stw	r2,184(sp)
 8045d48:	00c7c83a 	sub	r3,zero,r3
 8045d4c:	d8c03115 	stw	r3,196(sp)
 8045d50:	84000114 	ori	r16,r16,4
 8045d54:	bc400007 	ldb	r17,0(r23)
 8045d58:	003f9706 	br	8045bb8 <__alt_data_end+0xfffddb18>
 8045d5c:	00800c04 	movi	r2,48
 8045d60:	d8802705 	stb	r2,156(sp)
 8045d64:	00801e04 	movi	r2,120
 8045d68:	d8802745 	stb	r2,157(sp)
 8045d6c:	d9002a17 	ldw	r4,168(sp)
 8045d70:	d8802e17 	ldw	r2,184(sp)
 8045d74:	d8002785 	stb	zero,158(sp)
 8045d78:	e011883a 	mov	r8,fp
 8045d7c:	10c00104 	addi	r3,r2,4
 8045d80:	15000017 	ldw	r20,0(r2)
 8045d84:	002d883a 	mov	r22,zero
 8045d88:	80800094 	ori	r2,r16,2
 8045d8c:	2002b616 	blt	r4,zero,8046868 <___svfprintf_internal_r+0xe04>
 8045d90:	00bfdfc4 	movi	r2,-129
 8045d94:	80a4703a 	and	r18,r16,r2
 8045d98:	d8c02e15 	stw	r3,184(sp)
 8045d9c:	94800094 	ori	r18,r18,2
 8045da0:	a002a01e 	bne	r20,zero,8046824 <___svfprintf_internal_r+0xdc0>
 8045da4:	01420174 	movhi	r5,2053
 8045da8:	29516b04 	addi	r5,r5,17836
 8045dac:	d9403a15 	stw	r5,232(sp)
 8045db0:	04401e04 	movi	r17,120
 8045db4:	d8c02a17 	ldw	r3,168(sp)
 8045db8:	0039883a 	mov	fp,zero
 8045dbc:	1801e626 	beq	r3,zero,8046558 <___svfprintf_internal_r+0xaf4>
 8045dc0:	0029883a 	mov	r20,zero
 8045dc4:	002d883a 	mov	r22,zero
 8045dc8:	00020506 	br	80465e0 <___svfprintf_internal_r+0xb7c>
 8045dcc:	d9402d17 	ldw	r5,180(sp)
 8045dd0:	d9801e04 	addi	r6,sp,120
 8045dd4:	9809883a 	mov	r4,r19
 8045dd8:	804c3f40 	call	804c3f4 <__ssprint_r>
 8045ddc:	1000081e 	bne	r2,zero,8045e00 <___svfprintf_internal_r+0x39c>
 8045de0:	da000404 	addi	r8,sp,16
 8045de4:	003f6106 	br	8045b6c <__alt_data_end+0xfffddacc>
 8045de8:	d8802017 	ldw	r2,128(sp)
 8045dec:	10000426 	beq	r2,zero,8045e00 <___svfprintf_internal_r+0x39c>
 8045df0:	d9402d17 	ldw	r5,180(sp)
 8045df4:	d9003917 	ldw	r4,228(sp)
 8045df8:	d9801e04 	addi	r6,sp,120
 8045dfc:	804c3f40 	call	804c3f4 <__ssprint_r>
 8045e00:	d8802d17 	ldw	r2,180(sp)
 8045e04:	10c0030b 	ldhu	r3,12(r2)
 8045e08:	d8802f17 	ldw	r2,188(sp)
 8045e0c:	18c0100c 	andi	r3,r3,64
 8045e10:	1806251e 	bne	r3,zero,80476a8 <___svfprintf_internal_r+0x1c44>
 8045e14:	dfc04817 	ldw	ra,288(sp)
 8045e18:	df004717 	ldw	fp,284(sp)
 8045e1c:	ddc04617 	ldw	r23,280(sp)
 8045e20:	dd804517 	ldw	r22,276(sp)
 8045e24:	dd404417 	ldw	r21,272(sp)
 8045e28:	dd004317 	ldw	r20,268(sp)
 8045e2c:	dcc04217 	ldw	r19,264(sp)
 8045e30:	dc804117 	ldw	r18,260(sp)
 8045e34:	dc404017 	ldw	r17,256(sp)
 8045e38:	dc003f17 	ldw	r16,252(sp)
 8045e3c:	dec04904 	addi	sp,sp,292
 8045e40:	f800283a 	ret
 8045e44:	d9002e17 	ldw	r4,184(sp)
 8045e48:	d9402e17 	ldw	r5,184(sp)
 8045e4c:	21000017 	ldw	r4,0(r4)
 8045e50:	28800104 	addi	r2,r5,4
 8045e54:	d9003115 	stw	r4,196(sp)
 8045e58:	203fb916 	blt	r4,zero,8045d40 <__alt_data_end+0xfffddca0>
 8045e5c:	d8802e15 	stw	r2,184(sp)
 8045e60:	bc400007 	ldb	r17,0(r23)
 8045e64:	003f5406 	br	8045bb8 <__alt_data_end+0xfffddb18>
 8045e68:	bc400007 	ldb	r17,0(r23)
 8045e6c:	01000a84 	movi	r4,42
 8045e70:	b8c00044 	addi	r3,r23,1
 8045e74:	89076926 	beq	r17,r4,8047c1c <___svfprintf_internal_r+0x21b8>
 8045e78:	8cbff404 	addi	r18,r17,-48
 8045e7c:	b486b936 	bltu	r22,r18,8047964 <___svfprintf_internal_r+0x1f00>
 8045e80:	0009883a 	mov	r4,zero
 8045e84:	1823883a 	mov	r17,r3
 8045e88:	01400284 	movi	r5,10
 8045e8c:	8042dac0 	call	8042dac <__mulsi3>
 8045e90:	88c00007 	ldb	r3,0(r17)
 8045e94:	1489883a 	add	r4,r2,r18
 8045e98:	8dc00044 	addi	r23,r17,1
 8045e9c:	1cbff404 	addi	r18,r3,-48
 8045ea0:	b823883a 	mov	r17,r23
 8045ea4:	b4bff82e 	bgeu	r22,r18,8045e88 <__alt_data_end+0xfffddde8>
 8045ea8:	1823883a 	mov	r17,r3
 8045eac:	20060416 	blt	r4,zero,80476c0 <___svfprintf_internal_r+0x1c5c>
 8045eb0:	d9002a15 	stw	r4,168(sp)
 8045eb4:	003f4106 	br	8045bbc <__alt_data_end+0xfffddb1c>
 8045eb8:	8cbff404 	addi	r18,r17,-48
 8045ebc:	d8003115 	stw	zero,196(sp)
 8045ec0:	0009883a 	mov	r4,zero
 8045ec4:	b823883a 	mov	r17,r23
 8045ec8:	01400284 	movi	r5,10
 8045ecc:	8042dac0 	call	8042dac <__mulsi3>
 8045ed0:	88c00007 	ldb	r3,0(r17)
 8045ed4:	9089883a 	add	r4,r18,r2
 8045ed8:	bdc00044 	addi	r23,r23,1
 8045edc:	1cbff404 	addi	r18,r3,-48
 8045ee0:	b823883a 	mov	r17,r23
 8045ee4:	b4bff82e 	bgeu	r22,r18,8045ec8 <__alt_data_end+0xfffdde28>
 8045ee8:	1823883a 	mov	r17,r3
 8045eec:	d9003115 	stw	r4,196(sp)
 8045ef0:	003f3206 	br	8045bbc <__alt_data_end+0xfffddb1c>
 8045ef4:	84002014 	ori	r16,r16,128
 8045ef8:	bc400007 	ldb	r17,0(r23)
 8045efc:	003f2e06 	br	8045bb8 <__alt_data_end+0xfffddb18>
 8045f00:	8025883a 	mov	r18,r16
 8045f04:	dc002903 	ldbu	r16,164(sp)
 8045f08:	e011883a 	mov	r8,fp
 8045f0c:	84003fcc 	andi	r16,r16,255
 8045f10:	8007721e 	bne	r16,zero,8047cdc <___svfprintf_internal_r+0x2278>
 8045f14:	9080020c 	andi	r2,r18,8
 8045f18:	1004a526 	beq	r2,zero,80471b0 <___svfprintf_internal_r+0x174c>
 8045f1c:	d9002e17 	ldw	r4,184(sp)
 8045f20:	d9402e17 	ldw	r5,184(sp)
 8045f24:	d8802e17 	ldw	r2,184(sp)
 8045f28:	21000017 	ldw	r4,0(r4)
 8045f2c:	29400117 	ldw	r5,4(r5)
 8045f30:	10800204 	addi	r2,r2,8
 8045f34:	d9003615 	stw	r4,216(sp)
 8045f38:	d9403715 	stw	r5,220(sp)
 8045f3c:	d8802e15 	stw	r2,184(sp)
 8045f40:	d9003617 	ldw	r4,216(sp)
 8045f44:	d9403717 	ldw	r5,220(sp)
 8045f48:	da003e15 	stw	r8,248(sp)
 8045f4c:	04000044 	movi	r16,1
 8045f50:	804c1140 	call	804c114 <__fpclassifyd>
 8045f54:	da003e17 	ldw	r8,248(sp)
 8045f58:	1404731e 	bne	r2,r16,8047128 <___svfprintf_internal_r+0x16c4>
 8045f5c:	d9003617 	ldw	r4,216(sp)
 8045f60:	d9403717 	ldw	r5,220(sp)
 8045f64:	000d883a 	mov	r6,zero
 8045f68:	000f883a 	mov	r7,zero
 8045f6c:	8043f500 	call	8043f50 <__ledf2>
 8045f70:	da003e17 	ldw	r8,248(sp)
 8045f74:	10061b16 	blt	r2,zero,80477e4 <___svfprintf_internal_r+0x1d80>
 8045f78:	df002783 	ldbu	fp,158(sp)
 8045f7c:	008011c4 	movi	r2,71
 8045f80:	1445810e 	bge	r2,r17,8047588 <___svfprintf_internal_r+0x1b24>
 8045f84:	04020174 	movhi	r16,2053
 8045f88:	84116304 	addi	r16,r16,17804
 8045f8c:	00c000c4 	movi	r3,3
 8045f90:	00bfdfc4 	movi	r2,-129
 8045f94:	d8c02915 	stw	r3,164(sp)
 8045f98:	90a4703a 	and	r18,r18,r2
 8045f9c:	d8c02b15 	stw	r3,172(sp)
 8045fa0:	d8002a15 	stw	zero,168(sp)
 8045fa4:	d8003215 	stw	zero,200(sp)
 8045fa8:	00006c06 	br	804615c <___svfprintf_internal_r+0x6f8>
 8045fac:	84000214 	ori	r16,r16,8
 8045fb0:	bc400007 	ldb	r17,0(r23)
 8045fb4:	003f0006 	br	8045bb8 <__alt_data_end+0xfffddb18>
 8045fb8:	8025883a 	mov	r18,r16
 8045fbc:	dc002903 	ldbu	r16,164(sp)
 8045fc0:	e011883a 	mov	r8,fp
 8045fc4:	84003fcc 	andi	r16,r16,255
 8045fc8:	80073f1e 	bne	r16,zero,8047cc8 <___svfprintf_internal_r+0x2264>
 8045fcc:	94800414 	ori	r18,r18,16
 8045fd0:	9080080c 	andi	r2,r18,32
 8045fd4:	1003bb26 	beq	r2,zero,8046ec4 <___svfprintf_internal_r+0x1460>
 8045fd8:	d9002e17 	ldw	r4,184(sp)
 8045fdc:	20800117 	ldw	r2,4(r4)
 8045fe0:	25000017 	ldw	r20,0(r4)
 8045fe4:	21000204 	addi	r4,r4,8
 8045fe8:	d9002e15 	stw	r4,184(sp)
 8045fec:	102d883a 	mov	r22,r2
 8045ff0:	1003bd16 	blt	r2,zero,8046ee8 <___svfprintf_internal_r+0x1484>
 8045ff4:	d9002a17 	ldw	r4,168(sp)
 8045ff8:	df002783 	ldbu	fp,158(sp)
 8045ffc:	2003d016 	blt	r4,zero,8046f40 <___svfprintf_internal_r+0x14dc>
 8046000:	00ffdfc4 	movi	r3,-129
 8046004:	a584b03a 	or	r2,r20,r22
 8046008:	90e4703a 	and	r18,r18,r3
 804600c:	10015026 	beq	r2,zero,8046550 <___svfprintf_internal_r+0xaec>
 8046010:	b0037026 	beq	r22,zero,8046dd4 <___svfprintf_internal_r+0x1370>
 8046014:	dc402915 	stw	r17,164(sp)
 8046018:	dc001e04 	addi	r16,sp,120
 804601c:	b023883a 	mov	r17,r22
 8046020:	402d883a 	mov	r22,r8
 8046024:	a009883a 	mov	r4,r20
 8046028:	880b883a 	mov	r5,r17
 804602c:	01800284 	movi	r6,10
 8046030:	000f883a 	mov	r7,zero
 8046034:	804ee5c0 	call	804ee5c <__umoddi3>
 8046038:	10800c04 	addi	r2,r2,48
 804603c:	843fffc4 	addi	r16,r16,-1
 8046040:	a009883a 	mov	r4,r20
 8046044:	880b883a 	mov	r5,r17
 8046048:	80800005 	stb	r2,0(r16)
 804604c:	01800284 	movi	r6,10
 8046050:	000f883a 	mov	r7,zero
 8046054:	804e8600 	call	804e860 <__udivdi3>
 8046058:	1029883a 	mov	r20,r2
 804605c:	10c4b03a 	or	r2,r2,r3
 8046060:	1823883a 	mov	r17,r3
 8046064:	103fef1e 	bne	r2,zero,8046024 <__alt_data_end+0xfffddf84>
 8046068:	d8c02817 	ldw	r3,160(sp)
 804606c:	dc402917 	ldw	r17,164(sp)
 8046070:	b011883a 	mov	r8,r22
 8046074:	1c07c83a 	sub	r3,r3,r16
 8046078:	d8c02b15 	stw	r3,172(sp)
 804607c:	00003106 	br	8046144 <___svfprintf_internal_r+0x6e0>
 8046080:	8025883a 	mov	r18,r16
 8046084:	dc002903 	ldbu	r16,164(sp)
 8046088:	e011883a 	mov	r8,fp
 804608c:	84003fcc 	andi	r16,r16,255
 8046090:	80070a1e 	bne	r16,zero,8047cbc <___svfprintf_internal_r+0x2258>
 8046094:	94800414 	ori	r18,r18,16
 8046098:	9080080c 	andi	r2,r18,32
 804609c:	1002f626 	beq	r2,zero,8046c78 <___svfprintf_internal_r+0x1214>
 80460a0:	d9002e17 	ldw	r4,184(sp)
 80460a4:	d9402a17 	ldw	r5,168(sp)
 80460a8:	d8002785 	stb	zero,158(sp)
 80460ac:	20800204 	addi	r2,r4,8
 80460b0:	25000017 	ldw	r20,0(r4)
 80460b4:	25800117 	ldw	r22,4(r4)
 80460b8:	28043716 	blt	r5,zero,8047198 <___svfprintf_internal_r+0x1734>
 80460bc:	013fdfc4 	movi	r4,-129
 80460c0:	a586b03a 	or	r3,r20,r22
 80460c4:	d8802e15 	stw	r2,184(sp)
 80460c8:	9124703a 	and	r18,r18,r4
 80460cc:	1802f71e 	bne	r3,zero,8046cac <___svfprintf_internal_r+0x1248>
 80460d0:	d9402a17 	ldw	r5,168(sp)
 80460d4:	0039883a 	mov	fp,zero
 80460d8:	2806df26 	beq	r5,zero,8047c58 <___svfprintf_internal_r+0x21f4>
 80460dc:	0029883a 	mov	r20,zero
 80460e0:	002d883a 	mov	r22,zero
 80460e4:	dc001e04 	addi	r16,sp,120
 80460e8:	a006d0fa 	srli	r3,r20,3
 80460ec:	b008977a 	slli	r4,r22,29
 80460f0:	b02cd0fa 	srli	r22,r22,3
 80460f4:	a50001cc 	andi	r20,r20,7
 80460f8:	a0800c04 	addi	r2,r20,48
 80460fc:	843fffc4 	addi	r16,r16,-1
 8046100:	20e8b03a 	or	r20,r4,r3
 8046104:	80800005 	stb	r2,0(r16)
 8046108:	a586b03a 	or	r3,r20,r22
 804610c:	183ff61e 	bne	r3,zero,80460e8 <__alt_data_end+0xfffde048>
 8046110:	90c0004c 	andi	r3,r18,1
 8046114:	18013f26 	beq	r3,zero,8046614 <___svfprintf_internal_r+0xbb0>
 8046118:	10803fcc 	andi	r2,r2,255
 804611c:	1080201c 	xori	r2,r2,128
 8046120:	10bfe004 	addi	r2,r2,-128
 8046124:	00c00c04 	movi	r3,48
 8046128:	10c13a26 	beq	r2,r3,8046614 <___svfprintf_internal_r+0xbb0>
 804612c:	80ffffc5 	stb	r3,-1(r16)
 8046130:	d8c02817 	ldw	r3,160(sp)
 8046134:	80bfffc4 	addi	r2,r16,-1
 8046138:	1021883a 	mov	r16,r2
 804613c:	1887c83a 	sub	r3,r3,r2
 8046140:	d8c02b15 	stw	r3,172(sp)
 8046144:	d8802b17 	ldw	r2,172(sp)
 8046148:	d9002a17 	ldw	r4,168(sp)
 804614c:	1100010e 	bge	r2,r4,8046154 <___svfprintf_internal_r+0x6f0>
 8046150:	2005883a 	mov	r2,r4
 8046154:	d8802915 	stw	r2,164(sp)
 8046158:	d8003215 	stw	zero,200(sp)
 804615c:	e7003fcc 	andi	fp,fp,255
 8046160:	e700201c 	xori	fp,fp,128
 8046164:	e73fe004 	addi	fp,fp,-128
 8046168:	e0000326 	beq	fp,zero,8046178 <___svfprintf_internal_r+0x714>
 804616c:	d8c02917 	ldw	r3,164(sp)
 8046170:	18c00044 	addi	r3,r3,1
 8046174:	d8c02915 	stw	r3,164(sp)
 8046178:	90c0008c 	andi	r3,r18,2
 804617c:	d8c02c15 	stw	r3,176(sp)
 8046180:	18000326 	beq	r3,zero,8046190 <___svfprintf_internal_r+0x72c>
 8046184:	d8c02917 	ldw	r3,164(sp)
 8046188:	18c00084 	addi	r3,r3,2
 804618c:	d8c02915 	stw	r3,164(sp)
 8046190:	90c0210c 	andi	r3,r18,132
 8046194:	d8c03015 	stw	r3,192(sp)
 8046198:	1801c31e 	bne	r3,zero,80468a8 <___svfprintf_internal_r+0xe44>
 804619c:	d9003117 	ldw	r4,196(sp)
 80461a0:	d8c02917 	ldw	r3,164(sp)
 80461a4:	20e9c83a 	sub	r20,r4,r3
 80461a8:	0501bf0e 	bge	zero,r20,80468a8 <___svfprintf_internal_r+0xe44>
 80461ac:	02400404 	movi	r9,16
 80461b0:	d8c02017 	ldw	r3,128(sp)
 80461b4:	d8801f17 	ldw	r2,124(sp)
 80461b8:	4d053d0e 	bge	r9,r20,80476b0 <___svfprintf_internal_r+0x1c4c>
 80461bc:	01420174 	movhi	r5,2053
 80461c0:	29517684 	addi	r5,r5,17882
 80461c4:	dc403c15 	stw	r17,240(sp)
 80461c8:	d9403515 	stw	r5,212(sp)
 80461cc:	a023883a 	mov	r17,r20
 80461d0:	482d883a 	mov	r22,r9
 80461d4:	9029883a 	mov	r20,r18
 80461d8:	070001c4 	movi	fp,7
 80461dc:	8025883a 	mov	r18,r16
 80461e0:	dc002d17 	ldw	r16,180(sp)
 80461e4:	00000306 	br	80461f4 <___svfprintf_internal_r+0x790>
 80461e8:	8c7ffc04 	addi	r17,r17,-16
 80461ec:	42000204 	addi	r8,r8,8
 80461f0:	b440130e 	bge	r22,r17,8046240 <___svfprintf_internal_r+0x7dc>
 80461f4:	01020174 	movhi	r4,2053
 80461f8:	18c00404 	addi	r3,r3,16
 80461fc:	10800044 	addi	r2,r2,1
 8046200:	21117684 	addi	r4,r4,17882
 8046204:	41000015 	stw	r4,0(r8)
 8046208:	45800115 	stw	r22,4(r8)
 804620c:	d8c02015 	stw	r3,128(sp)
 8046210:	d8801f15 	stw	r2,124(sp)
 8046214:	e0bff40e 	bge	fp,r2,80461e8 <__alt_data_end+0xfffde148>
 8046218:	d9801e04 	addi	r6,sp,120
 804621c:	800b883a 	mov	r5,r16
 8046220:	9809883a 	mov	r4,r19
 8046224:	804c3f40 	call	804c3f4 <__ssprint_r>
 8046228:	103ef51e 	bne	r2,zero,8045e00 <__alt_data_end+0xfffddd60>
 804622c:	8c7ffc04 	addi	r17,r17,-16
 8046230:	d8c02017 	ldw	r3,128(sp)
 8046234:	d8801f17 	ldw	r2,124(sp)
 8046238:	da000404 	addi	r8,sp,16
 804623c:	b47fed16 	blt	r22,r17,80461f4 <__alt_data_end+0xfffde154>
 8046240:	9021883a 	mov	r16,r18
 8046244:	a025883a 	mov	r18,r20
 8046248:	8829883a 	mov	r20,r17
 804624c:	dc403c17 	ldw	r17,240(sp)
 8046250:	d9403517 	ldw	r5,212(sp)
 8046254:	a0c7883a 	add	r3,r20,r3
 8046258:	10800044 	addi	r2,r2,1
 804625c:	41400015 	stw	r5,0(r8)
 8046260:	45000115 	stw	r20,4(r8)
 8046264:	d8c02015 	stw	r3,128(sp)
 8046268:	d8801f15 	stw	r2,124(sp)
 804626c:	010001c4 	movi	r4,7
 8046270:	2082c116 	blt	r4,r2,8046d78 <___svfprintf_internal_r+0x1314>
 8046274:	df002787 	ldb	fp,158(sp)
 8046278:	42000204 	addi	r8,r8,8
 804627c:	e0000c26 	beq	fp,zero,80462b0 <___svfprintf_internal_r+0x84c>
 8046280:	d8801f17 	ldw	r2,124(sp)
 8046284:	d9002784 	addi	r4,sp,158
 8046288:	18c00044 	addi	r3,r3,1
 804628c:	10800044 	addi	r2,r2,1
 8046290:	41000015 	stw	r4,0(r8)
 8046294:	01000044 	movi	r4,1
 8046298:	41000115 	stw	r4,4(r8)
 804629c:	d8c02015 	stw	r3,128(sp)
 80462a0:	d8801f15 	stw	r2,124(sp)
 80462a4:	010001c4 	movi	r4,7
 80462a8:	20825a16 	blt	r4,r2,8046c14 <___svfprintf_internal_r+0x11b0>
 80462ac:	42000204 	addi	r8,r8,8
 80462b0:	d8802c17 	ldw	r2,176(sp)
 80462b4:	10000c26 	beq	r2,zero,80462e8 <___svfprintf_internal_r+0x884>
 80462b8:	d8801f17 	ldw	r2,124(sp)
 80462bc:	d9002704 	addi	r4,sp,156
 80462c0:	18c00084 	addi	r3,r3,2
 80462c4:	10800044 	addi	r2,r2,1
 80462c8:	41000015 	stw	r4,0(r8)
 80462cc:	01000084 	movi	r4,2
 80462d0:	41000115 	stw	r4,4(r8)
 80462d4:	d8c02015 	stw	r3,128(sp)
 80462d8:	d8801f15 	stw	r2,124(sp)
 80462dc:	010001c4 	movi	r4,7
 80462e0:	20825416 	blt	r4,r2,8046c34 <___svfprintf_internal_r+0x11d0>
 80462e4:	42000204 	addi	r8,r8,8
 80462e8:	d9003017 	ldw	r4,192(sp)
 80462ec:	00802004 	movi	r2,128
 80462f0:	2081b926 	beq	r4,r2,80469d8 <___svfprintf_internal_r+0xf74>
 80462f4:	d9402a17 	ldw	r5,168(sp)
 80462f8:	d8802b17 	ldw	r2,172(sp)
 80462fc:	28adc83a 	sub	r22,r5,r2
 8046300:	05802f0e 	bge	zero,r22,80463c0 <___svfprintf_internal_r+0x95c>
 8046304:	07000404 	movi	fp,16
 8046308:	d8801f17 	ldw	r2,124(sp)
 804630c:	e583e20e 	bge	fp,r22,8047298 <___svfprintf_internal_r+0x1834>
 8046310:	01420174 	movhi	r5,2053
 8046314:	29517284 	addi	r5,r5,17866
 8046318:	dc402a15 	stw	r17,168(sp)
 804631c:	d9402c15 	stw	r5,176(sp)
 8046320:	b023883a 	mov	r17,r22
 8046324:	050001c4 	movi	r20,7
 8046328:	902d883a 	mov	r22,r18
 804632c:	8025883a 	mov	r18,r16
 8046330:	dc002d17 	ldw	r16,180(sp)
 8046334:	00000306 	br	8046344 <___svfprintf_internal_r+0x8e0>
 8046338:	8c7ffc04 	addi	r17,r17,-16
 804633c:	42000204 	addi	r8,r8,8
 8046340:	e440110e 	bge	fp,r17,8046388 <___svfprintf_internal_r+0x924>
 8046344:	18c00404 	addi	r3,r3,16
 8046348:	10800044 	addi	r2,r2,1
 804634c:	45400015 	stw	r21,0(r8)
 8046350:	47000115 	stw	fp,4(r8)
 8046354:	d8c02015 	stw	r3,128(sp)
 8046358:	d8801f15 	stw	r2,124(sp)
 804635c:	a0bff60e 	bge	r20,r2,8046338 <__alt_data_end+0xfffde298>
 8046360:	d9801e04 	addi	r6,sp,120
 8046364:	800b883a 	mov	r5,r16
 8046368:	9809883a 	mov	r4,r19
 804636c:	804c3f40 	call	804c3f4 <__ssprint_r>
 8046370:	103ea31e 	bne	r2,zero,8045e00 <__alt_data_end+0xfffddd60>
 8046374:	8c7ffc04 	addi	r17,r17,-16
 8046378:	d8c02017 	ldw	r3,128(sp)
 804637c:	d8801f17 	ldw	r2,124(sp)
 8046380:	da000404 	addi	r8,sp,16
 8046384:	e47fef16 	blt	fp,r17,8046344 <__alt_data_end+0xfffde2a4>
 8046388:	9021883a 	mov	r16,r18
 804638c:	b025883a 	mov	r18,r22
 8046390:	882d883a 	mov	r22,r17
 8046394:	dc402a17 	ldw	r17,168(sp)
 8046398:	d9002c17 	ldw	r4,176(sp)
 804639c:	1d87883a 	add	r3,r3,r22
 80463a0:	10800044 	addi	r2,r2,1
 80463a4:	41000015 	stw	r4,0(r8)
 80463a8:	45800115 	stw	r22,4(r8)
 80463ac:	d8c02015 	stw	r3,128(sp)
 80463b0:	d8801f15 	stw	r2,124(sp)
 80463b4:	010001c4 	movi	r4,7
 80463b8:	20820e16 	blt	r4,r2,8046bf4 <___svfprintf_internal_r+0x1190>
 80463bc:	42000204 	addi	r8,r8,8
 80463c0:	9080400c 	andi	r2,r18,256
 80463c4:	10013a1e 	bne	r2,zero,80468b0 <___svfprintf_internal_r+0xe4c>
 80463c8:	d9402b17 	ldw	r5,172(sp)
 80463cc:	d8801f17 	ldw	r2,124(sp)
 80463d0:	44000015 	stw	r16,0(r8)
 80463d4:	1947883a 	add	r3,r3,r5
 80463d8:	10800044 	addi	r2,r2,1
 80463dc:	41400115 	stw	r5,4(r8)
 80463e0:	d8c02015 	stw	r3,128(sp)
 80463e4:	d8801f15 	stw	r2,124(sp)
 80463e8:	010001c4 	movi	r4,7
 80463ec:	2081f316 	blt	r4,r2,8046bbc <___svfprintf_internal_r+0x1158>
 80463f0:	42000204 	addi	r8,r8,8
 80463f4:	9480010c 	andi	r18,r18,4
 80463f8:	90003226 	beq	r18,zero,80464c4 <___svfprintf_internal_r+0xa60>
 80463fc:	d9403117 	ldw	r5,196(sp)
 8046400:	d8802917 	ldw	r2,164(sp)
 8046404:	28a1c83a 	sub	r16,r5,r2
 8046408:	04002e0e 	bge	zero,r16,80464c4 <___svfprintf_internal_r+0xa60>
 804640c:	04400404 	movi	r17,16
 8046410:	d8801f17 	ldw	r2,124(sp)
 8046414:	8c04db0e 	bge	r17,r16,8047784 <___svfprintf_internal_r+0x1d20>
 8046418:	01420174 	movhi	r5,2053
 804641c:	29517684 	addi	r5,r5,17882
 8046420:	d9403515 	stw	r5,212(sp)
 8046424:	048001c4 	movi	r18,7
 8046428:	dd002d17 	ldw	r20,180(sp)
 804642c:	00000306 	br	804643c <___svfprintf_internal_r+0x9d8>
 8046430:	843ffc04 	addi	r16,r16,-16
 8046434:	42000204 	addi	r8,r8,8
 8046438:	8c00130e 	bge	r17,r16,8046488 <___svfprintf_internal_r+0xa24>
 804643c:	01020174 	movhi	r4,2053
 8046440:	18c00404 	addi	r3,r3,16
 8046444:	10800044 	addi	r2,r2,1
 8046448:	21117684 	addi	r4,r4,17882
 804644c:	41000015 	stw	r4,0(r8)
 8046450:	44400115 	stw	r17,4(r8)
 8046454:	d8c02015 	stw	r3,128(sp)
 8046458:	d8801f15 	stw	r2,124(sp)
 804645c:	90bff40e 	bge	r18,r2,8046430 <__alt_data_end+0xfffde390>
 8046460:	d9801e04 	addi	r6,sp,120
 8046464:	a00b883a 	mov	r5,r20
 8046468:	9809883a 	mov	r4,r19
 804646c:	804c3f40 	call	804c3f4 <__ssprint_r>
 8046470:	103e631e 	bne	r2,zero,8045e00 <__alt_data_end+0xfffddd60>
 8046474:	843ffc04 	addi	r16,r16,-16
 8046478:	d8c02017 	ldw	r3,128(sp)
 804647c:	d8801f17 	ldw	r2,124(sp)
 8046480:	da000404 	addi	r8,sp,16
 8046484:	8c3fed16 	blt	r17,r16,804643c <__alt_data_end+0xfffde39c>
 8046488:	d9403517 	ldw	r5,212(sp)
 804648c:	1c07883a 	add	r3,r3,r16
 8046490:	10800044 	addi	r2,r2,1
 8046494:	41400015 	stw	r5,0(r8)
 8046498:	44000115 	stw	r16,4(r8)
 804649c:	d8c02015 	stw	r3,128(sp)
 80464a0:	d8801f15 	stw	r2,124(sp)
 80464a4:	010001c4 	movi	r4,7
 80464a8:	2080060e 	bge	r4,r2,80464c4 <___svfprintf_internal_r+0xa60>
 80464ac:	d9402d17 	ldw	r5,180(sp)
 80464b0:	d9801e04 	addi	r6,sp,120
 80464b4:	9809883a 	mov	r4,r19
 80464b8:	804c3f40 	call	804c3f4 <__ssprint_r>
 80464bc:	103e501e 	bne	r2,zero,8045e00 <__alt_data_end+0xfffddd60>
 80464c0:	d8c02017 	ldw	r3,128(sp)
 80464c4:	d8803117 	ldw	r2,196(sp)
 80464c8:	d9002917 	ldw	r4,164(sp)
 80464cc:	1100010e 	bge	r2,r4,80464d4 <___svfprintf_internal_r+0xa70>
 80464d0:	2005883a 	mov	r2,r4
 80464d4:	d9402f17 	ldw	r5,188(sp)
 80464d8:	288b883a 	add	r5,r5,r2
 80464dc:	d9402f15 	stw	r5,188(sp)
 80464e0:	1801be1e 	bne	r3,zero,8046bdc <___svfprintf_internal_r+0x1178>
 80464e4:	b8800007 	ldb	r2,0(r23)
 80464e8:	d8001f15 	stw	zero,124(sp)
 80464ec:	da000404 	addi	r8,sp,16
 80464f0:	103d891e 	bne	r2,zero,8045b18 <__alt_data_end+0xfffdda78>
 80464f4:	b823883a 	mov	r17,r23
 80464f8:	003d9f06 	br	8045b78 <__alt_data_end+0xfffddad8>
 80464fc:	8025883a 	mov	r18,r16
 8046500:	dc002903 	ldbu	r16,164(sp)
 8046504:	e011883a 	mov	r8,fp
 8046508:	84003fcc 	andi	r16,r16,255
 804650c:	8005e61e 	bne	r16,zero,8047ca8 <___svfprintf_internal_r+0x2244>
 8046510:	94800414 	ori	r18,r18,16
 8046514:	9080080c 	andi	r2,r18,32
 8046518:	10022026 	beq	r2,zero,8046d9c <___svfprintf_internal_r+0x1338>
 804651c:	d9002e17 	ldw	r4,184(sp)
 8046520:	d9402a17 	ldw	r5,168(sp)
 8046524:	d8002785 	stb	zero,158(sp)
 8046528:	20c00204 	addi	r3,r4,8
 804652c:	25000017 	ldw	r20,0(r4)
 8046530:	25800117 	ldw	r22,4(r4)
 8046534:	2803ad16 	blt	r5,zero,80473ec <___svfprintf_internal_r+0x1988>
 8046538:	013fdfc4 	movi	r4,-129
 804653c:	a584b03a 	or	r2,r20,r22
 8046540:	d8c02e15 	stw	r3,184(sp)
 8046544:	9124703a 	and	r18,r18,r4
 8046548:	0039883a 	mov	fp,zero
 804654c:	103eb01e 	bne	r2,zero,8046010 <__alt_data_end+0xfffddf70>
 8046550:	d8802a17 	ldw	r2,168(sp)
 8046554:	1002e71e 	bne	r2,zero,80470f4 <___svfprintf_internal_r+0x1690>
 8046558:	d8002a15 	stw	zero,168(sp)
 804655c:	d8002b15 	stw	zero,172(sp)
 8046560:	dc001e04 	addi	r16,sp,120
 8046564:	003ef706 	br	8046144 <__alt_data_end+0xfffde0a4>
 8046568:	8025883a 	mov	r18,r16
 804656c:	dc002903 	ldbu	r16,164(sp)
 8046570:	e011883a 	mov	r8,fp
 8046574:	84003fcc 	andi	r16,r16,255
 8046578:	8005c81e 	bne	r16,zero,8047c9c <___svfprintf_internal_r+0x2238>
 804657c:	01020174 	movhi	r4,2053
 8046580:	21116604 	addi	r4,r4,17816
 8046584:	d9003a15 	stw	r4,232(sp)
 8046588:	9080080c 	andi	r2,r18,32
 804658c:	10007226 	beq	r2,zero,8046758 <___svfprintf_internal_r+0xcf4>
 8046590:	d9402e17 	ldw	r5,184(sp)
 8046594:	2d000017 	ldw	r20,0(r5)
 8046598:	2d800117 	ldw	r22,4(r5)
 804659c:	29400204 	addi	r5,r5,8
 80465a0:	d9402e15 	stw	r5,184(sp)
 80465a4:	9080004c 	andi	r2,r18,1
 80465a8:	1001aa26 	beq	r2,zero,8046c54 <___svfprintf_internal_r+0x11f0>
 80465ac:	a584b03a 	or	r2,r20,r22
 80465b0:	10032526 	beq	r2,zero,8047248 <___svfprintf_internal_r+0x17e4>
 80465b4:	d8c02a17 	ldw	r3,168(sp)
 80465b8:	00800c04 	movi	r2,48
 80465bc:	d8802705 	stb	r2,156(sp)
 80465c0:	dc402745 	stb	r17,157(sp)
 80465c4:	d8002785 	stb	zero,158(sp)
 80465c8:	90800094 	ori	r2,r18,2
 80465cc:	1804a316 	blt	r3,zero,804785c <___svfprintf_internal_r+0x1df8>
 80465d0:	00bfdfc4 	movi	r2,-129
 80465d4:	90a4703a 	and	r18,r18,r2
 80465d8:	94800094 	ori	r18,r18,2
 80465dc:	0039883a 	mov	fp,zero
 80465e0:	d9003a17 	ldw	r4,232(sp)
 80465e4:	dc001e04 	addi	r16,sp,120
 80465e8:	a08003cc 	andi	r2,r20,15
 80465ec:	b006973a 	slli	r3,r22,28
 80465f0:	2085883a 	add	r2,r4,r2
 80465f4:	a028d13a 	srli	r20,r20,4
 80465f8:	10800003 	ldbu	r2,0(r2)
 80465fc:	b02cd13a 	srli	r22,r22,4
 8046600:	843fffc4 	addi	r16,r16,-1
 8046604:	1d28b03a 	or	r20,r3,r20
 8046608:	80800005 	stb	r2,0(r16)
 804660c:	a584b03a 	or	r2,r20,r22
 8046610:	103ff51e 	bne	r2,zero,80465e8 <__alt_data_end+0xfffde548>
 8046614:	d8c02817 	ldw	r3,160(sp)
 8046618:	1c07c83a 	sub	r3,r3,r16
 804661c:	d8c02b15 	stw	r3,172(sp)
 8046620:	003ec806 	br	8046144 <__alt_data_end+0xfffde0a4>
 8046624:	d8c02e17 	ldw	r3,184(sp)
 8046628:	d9002e17 	ldw	r4,184(sp)
 804662c:	8025883a 	mov	r18,r16
 8046630:	18800017 	ldw	r2,0(r3)
 8046634:	21000104 	addi	r4,r4,4
 8046638:	00c00044 	movi	r3,1
 804663c:	e011883a 	mov	r8,fp
 8046640:	d8c02915 	stw	r3,164(sp)
 8046644:	d8002785 	stb	zero,158(sp)
 8046648:	d8801405 	stb	r2,80(sp)
 804664c:	d9002e15 	stw	r4,184(sp)
 8046650:	d8c02b15 	stw	r3,172(sp)
 8046654:	d8002a15 	stw	zero,168(sp)
 8046658:	d8003215 	stw	zero,200(sp)
 804665c:	dc001404 	addi	r16,sp,80
 8046660:	0039883a 	mov	fp,zero
 8046664:	003ec406 	br	8046178 <__alt_data_end+0xfffde0d8>
 8046668:	8025883a 	mov	r18,r16
 804666c:	dc002903 	ldbu	r16,164(sp)
 8046670:	e011883a 	mov	r8,fp
 8046674:	84003fcc 	andi	r16,r16,255
 8046678:	803e8726 	beq	r16,zero,8046098 <__alt_data_end+0xfffddff8>
 804667c:	d8c02b03 	ldbu	r3,172(sp)
 8046680:	d8c02785 	stb	r3,158(sp)
 8046684:	003e8406 	br	8046098 <__alt_data_end+0xfffddff8>
 8046688:	00c00044 	movi	r3,1
 804668c:	d8c02905 	stb	r3,164(sp)
 8046690:	00c00ac4 	movi	r3,43
 8046694:	d8c02b05 	stb	r3,172(sp)
 8046698:	bc400007 	ldb	r17,0(r23)
 804669c:	003d4606 	br	8045bb8 <__alt_data_end+0xfffddb18>
 80466a0:	84000814 	ori	r16,r16,32
 80466a4:	bc400007 	ldb	r17,0(r23)
 80466a8:	003d4306 	br	8045bb8 <__alt_data_end+0xfffddb18>
 80466ac:	d8802e17 	ldw	r2,184(sp)
 80466b0:	8025883a 	mov	r18,r16
 80466b4:	d8002785 	stb	zero,158(sp)
 80466b8:	14000017 	ldw	r16,0(r2)
 80466bc:	e011883a 	mov	r8,fp
 80466c0:	15000104 	addi	r20,r2,4
 80466c4:	80042126 	beq	r16,zero,804774c <___svfprintf_internal_r+0x1ce8>
 80466c8:	d8c02a17 	ldw	r3,168(sp)
 80466cc:	1803ee16 	blt	r3,zero,8047688 <___svfprintf_internal_r+0x1c24>
 80466d0:	180d883a 	mov	r6,r3
 80466d4:	000b883a 	mov	r5,zero
 80466d8:	8009883a 	mov	r4,r16
 80466dc:	df003e15 	stw	fp,248(sp)
 80466e0:	804a8b80 	call	804a8b8 <memchr>
 80466e4:	da003e17 	ldw	r8,248(sp)
 80466e8:	10046a26 	beq	r2,zero,8047894 <___svfprintf_internal_r+0x1e30>
 80466ec:	1405c83a 	sub	r2,r2,r16
 80466f0:	d8802b15 	stw	r2,172(sp)
 80466f4:	1003ea16 	blt	r2,zero,80476a0 <___svfprintf_internal_r+0x1c3c>
 80466f8:	df002783 	ldbu	fp,158(sp)
 80466fc:	d8802915 	stw	r2,164(sp)
 8046700:	dd002e15 	stw	r20,184(sp)
 8046704:	d8002a15 	stw	zero,168(sp)
 8046708:	d8003215 	stw	zero,200(sp)
 804670c:	003e9306 	br	804615c <__alt_data_end+0xfffde0bc>
 8046710:	8025883a 	mov	r18,r16
 8046714:	dc002903 	ldbu	r16,164(sp)
 8046718:	e011883a 	mov	r8,fp
 804671c:	84003fcc 	andi	r16,r16,255
 8046720:	803f7c26 	beq	r16,zero,8046514 <__alt_data_end+0xfffde474>
 8046724:	d8c02b03 	ldbu	r3,172(sp)
 8046728:	d8c02785 	stb	r3,158(sp)
 804672c:	003f7906 	br	8046514 <__alt_data_end+0xfffde474>
 8046730:	8025883a 	mov	r18,r16
 8046734:	dc002903 	ldbu	r16,164(sp)
 8046738:	e011883a 	mov	r8,fp
 804673c:	84003fcc 	andi	r16,r16,255
 8046740:	8005741e 	bne	r16,zero,8047d14 <___svfprintf_internal_r+0x22b0>
 8046744:	01020174 	movhi	r4,2053
 8046748:	21116b04 	addi	r4,r4,17836
 804674c:	d9003a15 	stw	r4,232(sp)
 8046750:	9080080c 	andi	r2,r18,32
 8046754:	103f8e1e 	bne	r2,zero,8046590 <__alt_data_end+0xfffde4f0>
 8046758:	9080040c 	andi	r2,r18,16
 804675c:	1002a726 	beq	r2,zero,80471fc <___svfprintf_internal_r+0x1798>
 8046760:	d8802e17 	ldw	r2,184(sp)
 8046764:	002d883a 	mov	r22,zero
 8046768:	15000017 	ldw	r20,0(r2)
 804676c:	10800104 	addi	r2,r2,4
 8046770:	d8802e15 	stw	r2,184(sp)
 8046774:	003f8b06 	br	80465a4 <__alt_data_end+0xfffde504>
 8046778:	84000054 	ori	r16,r16,1
 804677c:	bc400007 	ldb	r17,0(r23)
 8046780:	003d0d06 	br	8045bb8 <__alt_data_end+0xfffddb18>
 8046784:	d8802b07 	ldb	r2,172(sp)
 8046788:	1002a41e 	bne	r2,zero,804721c <___svfprintf_internal_r+0x17b8>
 804678c:	00c00044 	movi	r3,1
 8046790:	d8c02905 	stb	r3,164(sp)
 8046794:	00c00804 	movi	r3,32
 8046798:	d8c02b05 	stb	r3,172(sp)
 804679c:	bc400007 	ldb	r17,0(r23)
 80467a0:	003d0506 	br	8045bb8 <__alt_data_end+0xfffddb18>
 80467a4:	8025883a 	mov	r18,r16
 80467a8:	dc002903 	ldbu	r16,164(sp)
 80467ac:	e011883a 	mov	r8,fp
 80467b0:	84003fcc 	andi	r16,r16,255
 80467b4:	803e0626 	beq	r16,zero,8045fd0 <__alt_data_end+0xfffddf30>
 80467b8:	d8c02b03 	ldbu	r3,172(sp)
 80467bc:	d8c02785 	stb	r3,158(sp)
 80467c0:	003e0306 	br	8045fd0 <__alt_data_end+0xfffddf30>
 80467c4:	bc400007 	ldb	r17,0(r23)
 80467c8:	00801b04 	movi	r2,108
 80467cc:	88830a26 	beq	r17,r2,80473f8 <___svfprintf_internal_r+0x1994>
 80467d0:	84000414 	ori	r16,r16,16
 80467d4:	003cf806 	br	8045bb8 <__alt_data_end+0xfffddb18>
 80467d8:	8025883a 	mov	r18,r16
 80467dc:	dc002903 	ldbu	r16,164(sp)
 80467e0:	e011883a 	mov	r8,fp
 80467e4:	84003fcc 	andi	r16,r16,255
 80467e8:	8005471e 	bne	r16,zero,8047d08 <___svfprintf_internal_r+0x22a4>
 80467ec:	9080080c 	andi	r2,r18,32
 80467f0:	10028c26 	beq	r2,zero,8047224 <___svfprintf_internal_r+0x17c0>
 80467f4:	d9002e17 	ldw	r4,184(sp)
 80467f8:	d9402f17 	ldw	r5,188(sp)
 80467fc:	20800017 	ldw	r2,0(r4)
 8046800:	2807d7fa 	srai	r3,r5,31
 8046804:	21000104 	addi	r4,r4,4
 8046808:	d9002e15 	stw	r4,184(sp)
 804680c:	11400015 	stw	r5,0(r2)
 8046810:	10c00115 	stw	r3,4(r2)
 8046814:	003cbe06 	br	8045b10 <__alt_data_end+0xfffdda70>
 8046818:	84001014 	ori	r16,r16,64
 804681c:	bc400007 	ldb	r17,0(r23)
 8046820:	003ce506 	br	8045bb8 <__alt_data_end+0xfffddb18>
 8046824:	01020174 	movhi	r4,2053
 8046828:	21116b04 	addi	r4,r4,17836
 804682c:	0039883a 	mov	fp,zero
 8046830:	d9003a15 	stw	r4,232(sp)
 8046834:	04401e04 	movi	r17,120
 8046838:	003f6906 	br	80465e0 <__alt_data_end+0xfffde540>
 804683c:	8025883a 	mov	r18,r16
 8046840:	dc002903 	ldbu	r16,164(sp)
 8046844:	e011883a 	mov	r8,fp
 8046848:	84003fcc 	andi	r16,r16,255
 804684c:	8005261e 	bne	r16,zero,8047ce8 <___svfprintf_internal_r+0x2284>
 8046850:	883d6526 	beq	r17,zero,8045de8 <__alt_data_end+0xfffddd48>
 8046854:	00c00044 	movi	r3,1
 8046858:	d8c02915 	stw	r3,164(sp)
 804685c:	dc401405 	stb	r17,80(sp)
 8046860:	d8002785 	stb	zero,158(sp)
 8046864:	003f7a06 	br	8046650 <__alt_data_end+0xfffde5b0>
 8046868:	01020174 	movhi	r4,2053
 804686c:	21116b04 	addi	r4,r4,17836
 8046870:	d9003a15 	stw	r4,232(sp)
 8046874:	d8c02e15 	stw	r3,184(sp)
 8046878:	1025883a 	mov	r18,r2
 804687c:	04401e04 	movi	r17,120
 8046880:	a584b03a 	or	r2,r20,r22
 8046884:	1000fa1e 	bne	r2,zero,8046c70 <___svfprintf_internal_r+0x120c>
 8046888:	0039883a 	mov	fp,zero
 804688c:	00800084 	movi	r2,2
 8046890:	10803fcc 	andi	r2,r2,255
 8046894:	00c00044 	movi	r3,1
 8046898:	10c21626 	beq	r2,r3,80470f4 <___svfprintf_internal_r+0x1690>
 804689c:	00c00084 	movi	r3,2
 80468a0:	10fe0e1e 	bne	r2,r3,80460dc <__alt_data_end+0xfffde03c>
 80468a4:	003d4606 	br	8045dc0 <__alt_data_end+0xfffddd20>
 80468a8:	d8c02017 	ldw	r3,128(sp)
 80468ac:	003e7306 	br	804627c <__alt_data_end+0xfffde1dc>
 80468b0:	00801944 	movi	r2,101
 80468b4:	14407c0e 	bge	r2,r17,8046aa8 <___svfprintf_internal_r+0x1044>
 80468b8:	d9003617 	ldw	r4,216(sp)
 80468bc:	d9403717 	ldw	r5,220(sp)
 80468c0:	000d883a 	mov	r6,zero
 80468c4:	000f883a 	mov	r7,zero
 80468c8:	d8c03d15 	stw	r3,244(sp)
 80468cc:	da003e15 	stw	r8,248(sp)
 80468d0:	804fccc0 	call	804fccc <__eqdf2>
 80468d4:	d8c03d17 	ldw	r3,244(sp)
 80468d8:	da003e17 	ldw	r8,248(sp)
 80468dc:	1000f51e 	bne	r2,zero,8046cb4 <___svfprintf_internal_r+0x1250>
 80468e0:	d8801f17 	ldw	r2,124(sp)
 80468e4:	01020174 	movhi	r4,2053
 80468e8:	21117204 	addi	r4,r4,17864
 80468ec:	18c00044 	addi	r3,r3,1
 80468f0:	10800044 	addi	r2,r2,1
 80468f4:	41000015 	stw	r4,0(r8)
 80468f8:	01000044 	movi	r4,1
 80468fc:	41000115 	stw	r4,4(r8)
 8046900:	d8c02015 	stw	r3,128(sp)
 8046904:	d8801f15 	stw	r2,124(sp)
 8046908:	010001c4 	movi	r4,7
 804690c:	20826616 	blt	r4,r2,80472a8 <___svfprintf_internal_r+0x1844>
 8046910:	42000204 	addi	r8,r8,8
 8046914:	d8802617 	ldw	r2,152(sp)
 8046918:	d9403317 	ldw	r5,204(sp)
 804691c:	11400216 	blt	r2,r5,8046928 <___svfprintf_internal_r+0xec4>
 8046920:	9080004c 	andi	r2,r18,1
 8046924:	103eb326 	beq	r2,zero,80463f4 <__alt_data_end+0xfffde354>
 8046928:	d8803817 	ldw	r2,224(sp)
 804692c:	d9003417 	ldw	r4,208(sp)
 8046930:	d9403817 	ldw	r5,224(sp)
 8046934:	1887883a 	add	r3,r3,r2
 8046938:	d8801f17 	ldw	r2,124(sp)
 804693c:	41000015 	stw	r4,0(r8)
 8046940:	41400115 	stw	r5,4(r8)
 8046944:	10800044 	addi	r2,r2,1
 8046948:	d8c02015 	stw	r3,128(sp)
 804694c:	d8801f15 	stw	r2,124(sp)
 8046950:	010001c4 	movi	r4,7
 8046954:	2082af16 	blt	r4,r2,8047414 <___svfprintf_internal_r+0x19b0>
 8046958:	42000204 	addi	r8,r8,8
 804695c:	d8803317 	ldw	r2,204(sp)
 8046960:	143fffc4 	addi	r16,r2,-1
 8046964:	043ea30e 	bge	zero,r16,80463f4 <__alt_data_end+0xfffde354>
 8046968:	04400404 	movi	r17,16
 804696c:	d8801f17 	ldw	r2,124(sp)
 8046970:	8c00860e 	bge	r17,r16,8046b8c <___svfprintf_internal_r+0x1128>
 8046974:	01420174 	movhi	r5,2053
 8046978:	29517284 	addi	r5,r5,17866
 804697c:	d9402c15 	stw	r5,176(sp)
 8046980:	058001c4 	movi	r22,7
 8046984:	dd002d17 	ldw	r20,180(sp)
 8046988:	00000306 	br	8046998 <___svfprintf_internal_r+0xf34>
 804698c:	42000204 	addi	r8,r8,8
 8046990:	843ffc04 	addi	r16,r16,-16
 8046994:	8c00800e 	bge	r17,r16,8046b98 <___svfprintf_internal_r+0x1134>
 8046998:	18c00404 	addi	r3,r3,16
 804699c:	10800044 	addi	r2,r2,1
 80469a0:	45400015 	stw	r21,0(r8)
 80469a4:	44400115 	stw	r17,4(r8)
 80469a8:	d8c02015 	stw	r3,128(sp)
 80469ac:	d8801f15 	stw	r2,124(sp)
 80469b0:	b0bff60e 	bge	r22,r2,804698c <__alt_data_end+0xfffde8ec>
 80469b4:	d9801e04 	addi	r6,sp,120
 80469b8:	a00b883a 	mov	r5,r20
 80469bc:	9809883a 	mov	r4,r19
 80469c0:	804c3f40 	call	804c3f4 <__ssprint_r>
 80469c4:	103d0e1e 	bne	r2,zero,8045e00 <__alt_data_end+0xfffddd60>
 80469c8:	d8c02017 	ldw	r3,128(sp)
 80469cc:	d8801f17 	ldw	r2,124(sp)
 80469d0:	da000404 	addi	r8,sp,16
 80469d4:	003fee06 	br	8046990 <__alt_data_end+0xfffde8f0>
 80469d8:	d9403117 	ldw	r5,196(sp)
 80469dc:	d8802917 	ldw	r2,164(sp)
 80469e0:	28adc83a 	sub	r22,r5,r2
 80469e4:	05be430e 	bge	zero,r22,80462f4 <__alt_data_end+0xfffde254>
 80469e8:	07000404 	movi	fp,16
 80469ec:	d8801f17 	ldw	r2,124(sp)
 80469f0:	e583a20e 	bge	fp,r22,804787c <___svfprintf_internal_r+0x1e18>
 80469f4:	01420174 	movhi	r5,2053
 80469f8:	29517284 	addi	r5,r5,17866
 80469fc:	dc403015 	stw	r17,192(sp)
 8046a00:	d9402c15 	stw	r5,176(sp)
 8046a04:	b023883a 	mov	r17,r22
 8046a08:	050001c4 	movi	r20,7
 8046a0c:	902d883a 	mov	r22,r18
 8046a10:	8025883a 	mov	r18,r16
 8046a14:	dc002d17 	ldw	r16,180(sp)
 8046a18:	00000306 	br	8046a28 <___svfprintf_internal_r+0xfc4>
 8046a1c:	8c7ffc04 	addi	r17,r17,-16
 8046a20:	42000204 	addi	r8,r8,8
 8046a24:	e440110e 	bge	fp,r17,8046a6c <___svfprintf_internal_r+0x1008>
 8046a28:	18c00404 	addi	r3,r3,16
 8046a2c:	10800044 	addi	r2,r2,1
 8046a30:	45400015 	stw	r21,0(r8)
 8046a34:	47000115 	stw	fp,4(r8)
 8046a38:	d8c02015 	stw	r3,128(sp)
 8046a3c:	d8801f15 	stw	r2,124(sp)
 8046a40:	a0bff60e 	bge	r20,r2,8046a1c <__alt_data_end+0xfffde97c>
 8046a44:	d9801e04 	addi	r6,sp,120
 8046a48:	800b883a 	mov	r5,r16
 8046a4c:	9809883a 	mov	r4,r19
 8046a50:	804c3f40 	call	804c3f4 <__ssprint_r>
 8046a54:	103cea1e 	bne	r2,zero,8045e00 <__alt_data_end+0xfffddd60>
 8046a58:	8c7ffc04 	addi	r17,r17,-16
 8046a5c:	d8c02017 	ldw	r3,128(sp)
 8046a60:	d8801f17 	ldw	r2,124(sp)
 8046a64:	da000404 	addi	r8,sp,16
 8046a68:	e47fef16 	blt	fp,r17,8046a28 <__alt_data_end+0xfffde988>
 8046a6c:	9021883a 	mov	r16,r18
 8046a70:	b025883a 	mov	r18,r22
 8046a74:	882d883a 	mov	r22,r17
 8046a78:	dc403017 	ldw	r17,192(sp)
 8046a7c:	d9002c17 	ldw	r4,176(sp)
 8046a80:	1d87883a 	add	r3,r3,r22
 8046a84:	10800044 	addi	r2,r2,1
 8046a88:	41000015 	stw	r4,0(r8)
 8046a8c:	45800115 	stw	r22,4(r8)
 8046a90:	d8c02015 	stw	r3,128(sp)
 8046a94:	d8801f15 	stw	r2,124(sp)
 8046a98:	010001c4 	movi	r4,7
 8046a9c:	20819a16 	blt	r4,r2,8047108 <___svfprintf_internal_r+0x16a4>
 8046aa0:	42000204 	addi	r8,r8,8
 8046aa4:	003e1306 	br	80462f4 <__alt_data_end+0xfffde254>
 8046aa8:	d9403317 	ldw	r5,204(sp)
 8046aac:	00800044 	movi	r2,1
 8046ab0:	18c00044 	addi	r3,r3,1
 8046ab4:	1141710e 	bge	r2,r5,804707c <___svfprintf_internal_r+0x1618>
 8046ab8:	dc401f17 	ldw	r17,124(sp)
 8046abc:	00800044 	movi	r2,1
 8046ac0:	40800115 	stw	r2,4(r8)
 8046ac4:	8c400044 	addi	r17,r17,1
 8046ac8:	44000015 	stw	r16,0(r8)
 8046acc:	d8c02015 	stw	r3,128(sp)
 8046ad0:	dc401f15 	stw	r17,124(sp)
 8046ad4:	008001c4 	movi	r2,7
 8046ad8:	14417416 	blt	r2,r17,80470ac <___svfprintf_internal_r+0x1648>
 8046adc:	42000204 	addi	r8,r8,8
 8046ae0:	d8803817 	ldw	r2,224(sp)
 8046ae4:	d9003417 	ldw	r4,208(sp)
 8046ae8:	8c400044 	addi	r17,r17,1
 8046aec:	10c7883a 	add	r3,r2,r3
 8046af0:	40800115 	stw	r2,4(r8)
 8046af4:	41000015 	stw	r4,0(r8)
 8046af8:	d8c02015 	stw	r3,128(sp)
 8046afc:	dc401f15 	stw	r17,124(sp)
 8046b00:	008001c4 	movi	r2,7
 8046b04:	14417216 	blt	r2,r17,80470d0 <___svfprintf_internal_r+0x166c>
 8046b08:	45800204 	addi	r22,r8,8
 8046b0c:	d9003617 	ldw	r4,216(sp)
 8046b10:	d9403717 	ldw	r5,220(sp)
 8046b14:	000d883a 	mov	r6,zero
 8046b18:	000f883a 	mov	r7,zero
 8046b1c:	d8c03d15 	stw	r3,244(sp)
 8046b20:	804fccc0 	call	804fccc <__eqdf2>
 8046b24:	d8c03d17 	ldw	r3,244(sp)
 8046b28:	1000b326 	beq	r2,zero,8046df8 <___svfprintf_internal_r+0x1394>
 8046b2c:	d9403317 	ldw	r5,204(sp)
 8046b30:	84000044 	addi	r16,r16,1
 8046b34:	8c400044 	addi	r17,r17,1
 8046b38:	28bfffc4 	addi	r2,r5,-1
 8046b3c:	1887883a 	add	r3,r3,r2
 8046b40:	b0800115 	stw	r2,4(r22)
 8046b44:	b4000015 	stw	r16,0(r22)
 8046b48:	d8c02015 	stw	r3,128(sp)
 8046b4c:	dc401f15 	stw	r17,124(sp)
 8046b50:	008001c4 	movi	r2,7
 8046b54:	1440d216 	blt	r2,r17,8046ea0 <___svfprintf_internal_r+0x143c>
 8046b58:	b5800204 	addi	r22,r22,8
 8046b5c:	d9003b17 	ldw	r4,236(sp)
 8046b60:	df0022c4 	addi	fp,sp,139
 8046b64:	8c400044 	addi	r17,r17,1
 8046b68:	20c7883a 	add	r3,r4,r3
 8046b6c:	b7000015 	stw	fp,0(r22)
 8046b70:	b1000115 	stw	r4,4(r22)
 8046b74:	d8c02015 	stw	r3,128(sp)
 8046b78:	dc401f15 	stw	r17,124(sp)
 8046b7c:	008001c4 	movi	r2,7
 8046b80:	14400e16 	blt	r2,r17,8046bbc <___svfprintf_internal_r+0x1158>
 8046b84:	b2000204 	addi	r8,r22,8
 8046b88:	003e1a06 	br	80463f4 <__alt_data_end+0xfffde354>
 8046b8c:	01020174 	movhi	r4,2053
 8046b90:	21117284 	addi	r4,r4,17866
 8046b94:	d9002c15 	stw	r4,176(sp)
 8046b98:	d9002c17 	ldw	r4,176(sp)
 8046b9c:	1c07883a 	add	r3,r3,r16
 8046ba0:	44000115 	stw	r16,4(r8)
 8046ba4:	41000015 	stw	r4,0(r8)
 8046ba8:	10800044 	addi	r2,r2,1
 8046bac:	d8c02015 	stw	r3,128(sp)
 8046bb0:	d8801f15 	stw	r2,124(sp)
 8046bb4:	010001c4 	movi	r4,7
 8046bb8:	20be0d0e 	bge	r4,r2,80463f0 <__alt_data_end+0xfffde350>
 8046bbc:	d9402d17 	ldw	r5,180(sp)
 8046bc0:	d9801e04 	addi	r6,sp,120
 8046bc4:	9809883a 	mov	r4,r19
 8046bc8:	804c3f40 	call	804c3f4 <__ssprint_r>
 8046bcc:	103c8c1e 	bne	r2,zero,8045e00 <__alt_data_end+0xfffddd60>
 8046bd0:	d8c02017 	ldw	r3,128(sp)
 8046bd4:	da000404 	addi	r8,sp,16
 8046bd8:	003e0606 	br	80463f4 <__alt_data_end+0xfffde354>
 8046bdc:	d9402d17 	ldw	r5,180(sp)
 8046be0:	d9801e04 	addi	r6,sp,120
 8046be4:	9809883a 	mov	r4,r19
 8046be8:	804c3f40 	call	804c3f4 <__ssprint_r>
 8046bec:	103e3d26 	beq	r2,zero,80464e4 <__alt_data_end+0xfffde444>
 8046bf0:	003c8306 	br	8045e00 <__alt_data_end+0xfffddd60>
 8046bf4:	d9402d17 	ldw	r5,180(sp)
 8046bf8:	d9801e04 	addi	r6,sp,120
 8046bfc:	9809883a 	mov	r4,r19
 8046c00:	804c3f40 	call	804c3f4 <__ssprint_r>
 8046c04:	103c7e1e 	bne	r2,zero,8045e00 <__alt_data_end+0xfffddd60>
 8046c08:	d8c02017 	ldw	r3,128(sp)
 8046c0c:	da000404 	addi	r8,sp,16
 8046c10:	003deb06 	br	80463c0 <__alt_data_end+0xfffde320>
 8046c14:	d9402d17 	ldw	r5,180(sp)
 8046c18:	d9801e04 	addi	r6,sp,120
 8046c1c:	9809883a 	mov	r4,r19
 8046c20:	804c3f40 	call	804c3f4 <__ssprint_r>
 8046c24:	103c761e 	bne	r2,zero,8045e00 <__alt_data_end+0xfffddd60>
 8046c28:	d8c02017 	ldw	r3,128(sp)
 8046c2c:	da000404 	addi	r8,sp,16
 8046c30:	003d9f06 	br	80462b0 <__alt_data_end+0xfffde210>
 8046c34:	d9402d17 	ldw	r5,180(sp)
 8046c38:	d9801e04 	addi	r6,sp,120
 8046c3c:	9809883a 	mov	r4,r19
 8046c40:	804c3f40 	call	804c3f4 <__ssprint_r>
 8046c44:	103c6e1e 	bne	r2,zero,8045e00 <__alt_data_end+0xfffddd60>
 8046c48:	d8c02017 	ldw	r3,128(sp)
 8046c4c:	da000404 	addi	r8,sp,16
 8046c50:	003da506 	br	80462e8 <__alt_data_end+0xfffde248>
 8046c54:	d9402a17 	ldw	r5,168(sp)
 8046c58:	d8002785 	stb	zero,158(sp)
 8046c5c:	283f0816 	blt	r5,zero,8046880 <__alt_data_end+0xfffde7e0>
 8046c60:	00ffdfc4 	movi	r3,-129
 8046c64:	a584b03a 	or	r2,r20,r22
 8046c68:	90e4703a 	and	r18,r18,r3
 8046c6c:	103c5126 	beq	r2,zero,8045db4 <__alt_data_end+0xfffddd14>
 8046c70:	0039883a 	mov	fp,zero
 8046c74:	003e5a06 	br	80465e0 <__alt_data_end+0xfffde540>
 8046c78:	9080040c 	andi	r2,r18,16
 8046c7c:	10013d26 	beq	r2,zero,8047174 <___svfprintf_internal_r+0x1710>
 8046c80:	d8c02e17 	ldw	r3,184(sp)
 8046c84:	d9002a17 	ldw	r4,168(sp)
 8046c88:	d8002785 	stb	zero,158(sp)
 8046c8c:	18800104 	addi	r2,r3,4
 8046c90:	1d000017 	ldw	r20,0(r3)
 8046c94:	002d883a 	mov	r22,zero
 8046c98:	20013f16 	blt	r4,zero,8047198 <___svfprintf_internal_r+0x1734>
 8046c9c:	00ffdfc4 	movi	r3,-129
 8046ca0:	d8802e15 	stw	r2,184(sp)
 8046ca4:	90e4703a 	and	r18,r18,r3
 8046ca8:	a03d0926 	beq	r20,zero,80460d0 <__alt_data_end+0xfffde030>
 8046cac:	0039883a 	mov	fp,zero
 8046cb0:	003d0c06 	br	80460e4 <__alt_data_end+0xfffde044>
 8046cb4:	dc402617 	ldw	r17,152(sp)
 8046cb8:	0441830e 	bge	zero,r17,80472c8 <___svfprintf_internal_r+0x1864>
 8046cbc:	dc403217 	ldw	r17,200(sp)
 8046cc0:	d8803317 	ldw	r2,204(sp)
 8046cc4:	1440010e 	bge	r2,r17,8046ccc <___svfprintf_internal_r+0x1268>
 8046cc8:	1023883a 	mov	r17,r2
 8046ccc:	04400a0e 	bge	zero,r17,8046cf8 <___svfprintf_internal_r+0x1294>
 8046cd0:	d8801f17 	ldw	r2,124(sp)
 8046cd4:	1c47883a 	add	r3,r3,r17
 8046cd8:	44000015 	stw	r16,0(r8)
 8046cdc:	10800044 	addi	r2,r2,1
 8046ce0:	44400115 	stw	r17,4(r8)
 8046ce4:	d8c02015 	stw	r3,128(sp)
 8046ce8:	d8801f15 	stw	r2,124(sp)
 8046cec:	010001c4 	movi	r4,7
 8046cf0:	20827516 	blt	r4,r2,80476c8 <___svfprintf_internal_r+0x1c64>
 8046cf4:	42000204 	addi	r8,r8,8
 8046cf8:	88027b16 	blt	r17,zero,80476e8 <___svfprintf_internal_r+0x1c84>
 8046cfc:	d9003217 	ldw	r4,200(sp)
 8046d00:	2463c83a 	sub	r17,r4,r17
 8046d04:	0440990e 	bge	zero,r17,8046f6c <___svfprintf_internal_r+0x1508>
 8046d08:	05800404 	movi	r22,16
 8046d0c:	d8801f17 	ldw	r2,124(sp)
 8046d10:	b441530e 	bge	r22,r17,8047260 <___svfprintf_internal_r+0x17fc>
 8046d14:	01020174 	movhi	r4,2053
 8046d18:	21117284 	addi	r4,r4,17866
 8046d1c:	d9002c15 	stw	r4,176(sp)
 8046d20:	070001c4 	movi	fp,7
 8046d24:	dd002d17 	ldw	r20,180(sp)
 8046d28:	00000306 	br	8046d38 <___svfprintf_internal_r+0x12d4>
 8046d2c:	42000204 	addi	r8,r8,8
 8046d30:	8c7ffc04 	addi	r17,r17,-16
 8046d34:	b4414d0e 	bge	r22,r17,804726c <___svfprintf_internal_r+0x1808>
 8046d38:	18c00404 	addi	r3,r3,16
 8046d3c:	10800044 	addi	r2,r2,1
 8046d40:	45400015 	stw	r21,0(r8)
 8046d44:	45800115 	stw	r22,4(r8)
 8046d48:	d8c02015 	stw	r3,128(sp)
 8046d4c:	d8801f15 	stw	r2,124(sp)
 8046d50:	e0bff60e 	bge	fp,r2,8046d2c <__alt_data_end+0xfffdec8c>
 8046d54:	d9801e04 	addi	r6,sp,120
 8046d58:	a00b883a 	mov	r5,r20
 8046d5c:	9809883a 	mov	r4,r19
 8046d60:	804c3f40 	call	804c3f4 <__ssprint_r>
 8046d64:	103c261e 	bne	r2,zero,8045e00 <__alt_data_end+0xfffddd60>
 8046d68:	d8c02017 	ldw	r3,128(sp)
 8046d6c:	d8801f17 	ldw	r2,124(sp)
 8046d70:	da000404 	addi	r8,sp,16
 8046d74:	003fee06 	br	8046d30 <__alt_data_end+0xfffdec90>
 8046d78:	d9402d17 	ldw	r5,180(sp)
 8046d7c:	d9801e04 	addi	r6,sp,120
 8046d80:	9809883a 	mov	r4,r19
 8046d84:	804c3f40 	call	804c3f4 <__ssprint_r>
 8046d88:	103c1d1e 	bne	r2,zero,8045e00 <__alt_data_end+0xfffddd60>
 8046d8c:	d8c02017 	ldw	r3,128(sp)
 8046d90:	df002787 	ldb	fp,158(sp)
 8046d94:	da000404 	addi	r8,sp,16
 8046d98:	003d3806 	br	804627c <__alt_data_end+0xfffde1dc>
 8046d9c:	9080040c 	andi	r2,r18,16
 8046da0:	10005c26 	beq	r2,zero,8046f14 <___svfprintf_internal_r+0x14b0>
 8046da4:	d8c02e17 	ldw	r3,184(sp)
 8046da8:	d9002a17 	ldw	r4,168(sp)
 8046dac:	d8002785 	stb	zero,158(sp)
 8046db0:	18800104 	addi	r2,r3,4
 8046db4:	1d000017 	ldw	r20,0(r3)
 8046db8:	002d883a 	mov	r22,zero
 8046dbc:	20005e16 	blt	r4,zero,8046f38 <___svfprintf_internal_r+0x14d4>
 8046dc0:	00ffdfc4 	movi	r3,-129
 8046dc4:	d8802e15 	stw	r2,184(sp)
 8046dc8:	90e4703a 	and	r18,r18,r3
 8046dcc:	0039883a 	mov	fp,zero
 8046dd0:	a03ddf26 	beq	r20,zero,8046550 <__alt_data_end+0xfffde4b0>
 8046dd4:	00800244 	movi	r2,9
 8046dd8:	153c8e36 	bltu	r2,r20,8046014 <__alt_data_end+0xfffddf74>
 8046ddc:	a5000c04 	addi	r20,r20,48
 8046de0:	dc001dc4 	addi	r16,sp,119
 8046de4:	dd001dc5 	stb	r20,119(sp)
 8046de8:	d8c02817 	ldw	r3,160(sp)
 8046dec:	1c07c83a 	sub	r3,r3,r16
 8046df0:	d8c02b15 	stw	r3,172(sp)
 8046df4:	003cd306 	br	8046144 <__alt_data_end+0xfffde0a4>
 8046df8:	d8803317 	ldw	r2,204(sp)
 8046dfc:	143fffc4 	addi	r16,r2,-1
 8046e00:	043f560e 	bge	zero,r16,8046b5c <__alt_data_end+0xfffdeabc>
 8046e04:	07000404 	movi	fp,16
 8046e08:	e403530e 	bge	fp,r16,8047b58 <___svfprintf_internal_r+0x20f4>
 8046e0c:	01420174 	movhi	r5,2053
 8046e10:	29517284 	addi	r5,r5,17866
 8046e14:	d9402c15 	stw	r5,176(sp)
 8046e18:	01c001c4 	movi	r7,7
 8046e1c:	dd002d17 	ldw	r20,180(sp)
 8046e20:	00000306 	br	8046e30 <___svfprintf_internal_r+0x13cc>
 8046e24:	843ffc04 	addi	r16,r16,-16
 8046e28:	b5800204 	addi	r22,r22,8
 8046e2c:	e400130e 	bge	fp,r16,8046e7c <___svfprintf_internal_r+0x1418>
 8046e30:	18c00404 	addi	r3,r3,16
 8046e34:	8c400044 	addi	r17,r17,1
 8046e38:	b5400015 	stw	r21,0(r22)
 8046e3c:	b7000115 	stw	fp,4(r22)
 8046e40:	d8c02015 	stw	r3,128(sp)
 8046e44:	dc401f15 	stw	r17,124(sp)
 8046e48:	3c7ff60e 	bge	r7,r17,8046e24 <__alt_data_end+0xfffded84>
 8046e4c:	d9801e04 	addi	r6,sp,120
 8046e50:	a00b883a 	mov	r5,r20
 8046e54:	9809883a 	mov	r4,r19
 8046e58:	d9c03d15 	stw	r7,244(sp)
 8046e5c:	804c3f40 	call	804c3f4 <__ssprint_r>
 8046e60:	d9c03d17 	ldw	r7,244(sp)
 8046e64:	103be61e 	bne	r2,zero,8045e00 <__alt_data_end+0xfffddd60>
 8046e68:	843ffc04 	addi	r16,r16,-16
 8046e6c:	d8c02017 	ldw	r3,128(sp)
 8046e70:	dc401f17 	ldw	r17,124(sp)
 8046e74:	dd800404 	addi	r22,sp,16
 8046e78:	e43fed16 	blt	fp,r16,8046e30 <__alt_data_end+0xfffded90>
 8046e7c:	d8802c17 	ldw	r2,176(sp)
 8046e80:	1c07883a 	add	r3,r3,r16
 8046e84:	8c400044 	addi	r17,r17,1
 8046e88:	b0800015 	stw	r2,0(r22)
 8046e8c:	b4000115 	stw	r16,4(r22)
 8046e90:	d8c02015 	stw	r3,128(sp)
 8046e94:	dc401f15 	stw	r17,124(sp)
 8046e98:	008001c4 	movi	r2,7
 8046e9c:	147f2e0e 	bge	r2,r17,8046b58 <__alt_data_end+0xfffdeab8>
 8046ea0:	d9402d17 	ldw	r5,180(sp)
 8046ea4:	d9801e04 	addi	r6,sp,120
 8046ea8:	9809883a 	mov	r4,r19
 8046eac:	804c3f40 	call	804c3f4 <__ssprint_r>
 8046eb0:	103bd31e 	bne	r2,zero,8045e00 <__alt_data_end+0xfffddd60>
 8046eb4:	d8c02017 	ldw	r3,128(sp)
 8046eb8:	dc401f17 	ldw	r17,124(sp)
 8046ebc:	dd800404 	addi	r22,sp,16
 8046ec0:	003f2606 	br	8046b5c <__alt_data_end+0xfffdeabc>
 8046ec4:	9080040c 	andi	r2,r18,16
 8046ec8:	1000c326 	beq	r2,zero,80471d8 <___svfprintf_internal_r+0x1774>
 8046ecc:	d9402e17 	ldw	r5,184(sp)
 8046ed0:	2d000017 	ldw	r20,0(r5)
 8046ed4:	29400104 	addi	r5,r5,4
 8046ed8:	d9402e15 	stw	r5,184(sp)
 8046edc:	a02dd7fa 	srai	r22,r20,31
 8046ee0:	b005883a 	mov	r2,r22
 8046ee4:	103c430e 	bge	r2,zero,8045ff4 <__alt_data_end+0xfffddf54>
 8046ee8:	d9402a17 	ldw	r5,168(sp)
 8046eec:	0529c83a 	sub	r20,zero,r20
 8046ef0:	07000b44 	movi	fp,45
 8046ef4:	a004c03a 	cmpne	r2,r20,zero
 8046ef8:	05adc83a 	sub	r22,zero,r22
 8046efc:	df002785 	stb	fp,158(sp)
 8046f00:	b0adc83a 	sub	r22,r22,r2
 8046f04:	28022e16 	blt	r5,zero,80477c0 <___svfprintf_internal_r+0x1d5c>
 8046f08:	00bfdfc4 	movi	r2,-129
 8046f0c:	90a4703a 	and	r18,r18,r2
 8046f10:	003c3f06 	br	8046010 <__alt_data_end+0xfffddf70>
 8046f14:	9080100c 	andi	r2,r18,64
 8046f18:	d8002785 	stb	zero,158(sp)
 8046f1c:	10012526 	beq	r2,zero,80473b4 <___svfprintf_internal_r+0x1950>
 8046f20:	d9402e17 	ldw	r5,184(sp)
 8046f24:	d8c02a17 	ldw	r3,168(sp)
 8046f28:	002d883a 	mov	r22,zero
 8046f2c:	28800104 	addi	r2,r5,4
 8046f30:	2d00000b 	ldhu	r20,0(r5)
 8046f34:	183fa20e 	bge	r3,zero,8046dc0 <__alt_data_end+0xfffded20>
 8046f38:	d8802e15 	stw	r2,184(sp)
 8046f3c:	0039883a 	mov	fp,zero
 8046f40:	a584b03a 	or	r2,r20,r22
 8046f44:	103c321e 	bne	r2,zero,8046010 <__alt_data_end+0xfffddf70>
 8046f48:	00800044 	movi	r2,1
 8046f4c:	003e5006 	br	8046890 <__alt_data_end+0xfffde7f0>
 8046f50:	d9402d17 	ldw	r5,180(sp)
 8046f54:	d9801e04 	addi	r6,sp,120
 8046f58:	9809883a 	mov	r4,r19
 8046f5c:	804c3f40 	call	804c3f4 <__ssprint_r>
 8046f60:	103ba71e 	bne	r2,zero,8045e00 <__alt_data_end+0xfffddd60>
 8046f64:	d8c02017 	ldw	r3,128(sp)
 8046f68:	da000404 	addi	r8,sp,16
 8046f6c:	d9003217 	ldw	r4,200(sp)
 8046f70:	d8802617 	ldw	r2,152(sp)
 8046f74:	d9403317 	ldw	r5,204(sp)
 8046f78:	8123883a 	add	r17,r16,r4
 8046f7c:	11400216 	blt	r2,r5,8046f88 <___svfprintf_internal_r+0x1524>
 8046f80:	9100004c 	andi	r4,r18,1
 8046f84:	20000d26 	beq	r4,zero,8046fbc <___svfprintf_internal_r+0x1558>
 8046f88:	d9003817 	ldw	r4,224(sp)
 8046f8c:	d9403417 	ldw	r5,208(sp)
 8046f90:	1907883a 	add	r3,r3,r4
 8046f94:	d9001f17 	ldw	r4,124(sp)
 8046f98:	41400015 	stw	r5,0(r8)
 8046f9c:	d9403817 	ldw	r5,224(sp)
 8046fa0:	21000044 	addi	r4,r4,1
 8046fa4:	d8c02015 	stw	r3,128(sp)
 8046fa8:	41400115 	stw	r5,4(r8)
 8046fac:	d9001f15 	stw	r4,124(sp)
 8046fb0:	014001c4 	movi	r5,7
 8046fb4:	2901dc16 	blt	r5,r4,8047728 <___svfprintf_internal_r+0x1cc4>
 8046fb8:	42000204 	addi	r8,r8,8
 8046fbc:	d9003317 	ldw	r4,204(sp)
 8046fc0:	8121883a 	add	r16,r16,r4
 8046fc4:	2085c83a 	sub	r2,r4,r2
 8046fc8:	8461c83a 	sub	r16,r16,r17
 8046fcc:	1400010e 	bge	r2,r16,8046fd4 <___svfprintf_internal_r+0x1570>
 8046fd0:	1021883a 	mov	r16,r2
 8046fd4:	04000a0e 	bge	zero,r16,8047000 <___svfprintf_internal_r+0x159c>
 8046fd8:	d9001f17 	ldw	r4,124(sp)
 8046fdc:	1c07883a 	add	r3,r3,r16
 8046fe0:	44400015 	stw	r17,0(r8)
 8046fe4:	21000044 	addi	r4,r4,1
 8046fe8:	44000115 	stw	r16,4(r8)
 8046fec:	d8c02015 	stw	r3,128(sp)
 8046ff0:	d9001f15 	stw	r4,124(sp)
 8046ff4:	014001c4 	movi	r5,7
 8046ff8:	2901e616 	blt	r5,r4,8047794 <___svfprintf_internal_r+0x1d30>
 8046ffc:	42000204 	addi	r8,r8,8
 8047000:	8001f616 	blt	r16,zero,80477dc <___svfprintf_internal_r+0x1d78>
 8047004:	1421c83a 	sub	r16,r2,r16
 8047008:	043cfa0e 	bge	zero,r16,80463f4 <__alt_data_end+0xfffde354>
 804700c:	04400404 	movi	r17,16
 8047010:	d8801f17 	ldw	r2,124(sp)
 8047014:	8c3edd0e 	bge	r17,r16,8046b8c <__alt_data_end+0xfffdeaec>
 8047018:	01420174 	movhi	r5,2053
 804701c:	29517284 	addi	r5,r5,17866
 8047020:	d9402c15 	stw	r5,176(sp)
 8047024:	058001c4 	movi	r22,7
 8047028:	dd002d17 	ldw	r20,180(sp)
 804702c:	00000306 	br	804703c <___svfprintf_internal_r+0x15d8>
 8047030:	42000204 	addi	r8,r8,8
 8047034:	843ffc04 	addi	r16,r16,-16
 8047038:	8c3ed70e 	bge	r17,r16,8046b98 <__alt_data_end+0xfffdeaf8>
 804703c:	18c00404 	addi	r3,r3,16
 8047040:	10800044 	addi	r2,r2,1
 8047044:	45400015 	stw	r21,0(r8)
 8047048:	44400115 	stw	r17,4(r8)
 804704c:	d8c02015 	stw	r3,128(sp)
 8047050:	d8801f15 	stw	r2,124(sp)
 8047054:	b0bff60e 	bge	r22,r2,8047030 <__alt_data_end+0xfffdef90>
 8047058:	d9801e04 	addi	r6,sp,120
 804705c:	a00b883a 	mov	r5,r20
 8047060:	9809883a 	mov	r4,r19
 8047064:	804c3f40 	call	804c3f4 <__ssprint_r>
 8047068:	103b651e 	bne	r2,zero,8045e00 <__alt_data_end+0xfffddd60>
 804706c:	d8c02017 	ldw	r3,128(sp)
 8047070:	d8801f17 	ldw	r2,124(sp)
 8047074:	da000404 	addi	r8,sp,16
 8047078:	003fee06 	br	8047034 <__alt_data_end+0xfffdef94>
 804707c:	9088703a 	and	r4,r18,r2
 8047080:	203e8d1e 	bne	r4,zero,8046ab8 <__alt_data_end+0xfffdea18>
 8047084:	dc401f17 	ldw	r17,124(sp)
 8047088:	40800115 	stw	r2,4(r8)
 804708c:	44000015 	stw	r16,0(r8)
 8047090:	8c400044 	addi	r17,r17,1
 8047094:	d8c02015 	stw	r3,128(sp)
 8047098:	dc401f15 	stw	r17,124(sp)
 804709c:	008001c4 	movi	r2,7
 80470a0:	147f7f16 	blt	r2,r17,8046ea0 <__alt_data_end+0xfffdee00>
 80470a4:	45800204 	addi	r22,r8,8
 80470a8:	003eac06 	br	8046b5c <__alt_data_end+0xfffdeabc>
 80470ac:	d9402d17 	ldw	r5,180(sp)
 80470b0:	d9801e04 	addi	r6,sp,120
 80470b4:	9809883a 	mov	r4,r19
 80470b8:	804c3f40 	call	804c3f4 <__ssprint_r>
 80470bc:	103b501e 	bne	r2,zero,8045e00 <__alt_data_end+0xfffddd60>
 80470c0:	d8c02017 	ldw	r3,128(sp)
 80470c4:	dc401f17 	ldw	r17,124(sp)
 80470c8:	da000404 	addi	r8,sp,16
 80470cc:	003e8406 	br	8046ae0 <__alt_data_end+0xfffdea40>
 80470d0:	d9402d17 	ldw	r5,180(sp)
 80470d4:	d9801e04 	addi	r6,sp,120
 80470d8:	9809883a 	mov	r4,r19
 80470dc:	804c3f40 	call	804c3f4 <__ssprint_r>
 80470e0:	103b471e 	bne	r2,zero,8045e00 <__alt_data_end+0xfffddd60>
 80470e4:	d8c02017 	ldw	r3,128(sp)
 80470e8:	dc401f17 	ldw	r17,124(sp)
 80470ec:	dd800404 	addi	r22,sp,16
 80470f0:	003e8606 	br	8046b0c <__alt_data_end+0xfffdea6c>
 80470f4:	0029883a 	mov	r20,zero
 80470f8:	a5000c04 	addi	r20,r20,48
 80470fc:	dc001dc4 	addi	r16,sp,119
 8047100:	dd001dc5 	stb	r20,119(sp)
 8047104:	003f3806 	br	8046de8 <__alt_data_end+0xfffded48>
 8047108:	d9402d17 	ldw	r5,180(sp)
 804710c:	d9801e04 	addi	r6,sp,120
 8047110:	9809883a 	mov	r4,r19
 8047114:	804c3f40 	call	804c3f4 <__ssprint_r>
 8047118:	103b391e 	bne	r2,zero,8045e00 <__alt_data_end+0xfffddd60>
 804711c:	d8c02017 	ldw	r3,128(sp)
 8047120:	da000404 	addi	r8,sp,16
 8047124:	003c7306 	br	80462f4 <__alt_data_end+0xfffde254>
 8047128:	d9003617 	ldw	r4,216(sp)
 804712c:	d9403717 	ldw	r5,220(sp)
 8047130:	da003e15 	stw	r8,248(sp)
 8047134:	804c1140 	call	804c114 <__fpclassifyd>
 8047138:	da003e17 	ldw	r8,248(sp)
 804713c:	1000bd1e 	bne	r2,zero,8047434 <___svfprintf_internal_r+0x19d0>
 8047140:	008011c4 	movi	r2,71
 8047144:	14411e0e 	bge	r2,r17,80475c0 <___svfprintf_internal_r+0x1b5c>
 8047148:	04020174 	movhi	r16,2053
 804714c:	84116504 	addi	r16,r16,17812
 8047150:	00c000c4 	movi	r3,3
 8047154:	00bfdfc4 	movi	r2,-129
 8047158:	d8c02915 	stw	r3,164(sp)
 804715c:	90a4703a 	and	r18,r18,r2
 8047160:	df002783 	ldbu	fp,158(sp)
 8047164:	d8c02b15 	stw	r3,172(sp)
 8047168:	d8002a15 	stw	zero,168(sp)
 804716c:	d8003215 	stw	zero,200(sp)
 8047170:	003bfa06 	br	804615c <__alt_data_end+0xfffde0bc>
 8047174:	9080100c 	andi	r2,r18,64
 8047178:	d8002785 	stb	zero,158(sp)
 804717c:	10009426 	beq	r2,zero,80473d0 <___svfprintf_internal_r+0x196c>
 8047180:	d9402e17 	ldw	r5,184(sp)
 8047184:	d8c02a17 	ldw	r3,168(sp)
 8047188:	002d883a 	mov	r22,zero
 804718c:	28800104 	addi	r2,r5,4
 8047190:	2d00000b 	ldhu	r20,0(r5)
 8047194:	183ec10e 	bge	r3,zero,8046c9c <__alt_data_end+0xfffdebfc>
 8047198:	a586b03a 	or	r3,r20,r22
 804719c:	d8802e15 	stw	r2,184(sp)
 80471a0:	183ec21e 	bne	r3,zero,8046cac <__alt_data_end+0xfffdec0c>
 80471a4:	0039883a 	mov	fp,zero
 80471a8:	0005883a 	mov	r2,zero
 80471ac:	003db806 	br	8046890 <__alt_data_end+0xfffde7f0>
 80471b0:	d8c02e17 	ldw	r3,184(sp)
 80471b4:	d9002e17 	ldw	r4,184(sp)
 80471b8:	d9402e17 	ldw	r5,184(sp)
 80471bc:	18c00017 	ldw	r3,0(r3)
 80471c0:	21000117 	ldw	r4,4(r4)
 80471c4:	29400204 	addi	r5,r5,8
 80471c8:	d8c03615 	stw	r3,216(sp)
 80471cc:	d9003715 	stw	r4,220(sp)
 80471d0:	d9402e15 	stw	r5,184(sp)
 80471d4:	003b5a06 	br	8045f40 <__alt_data_end+0xfffddea0>
 80471d8:	9080100c 	andi	r2,r18,64
 80471dc:	10010726 	beq	r2,zero,80475fc <___svfprintf_internal_r+0x1b98>
 80471e0:	d8802e17 	ldw	r2,184(sp)
 80471e4:	1500000f 	ldh	r20,0(r2)
 80471e8:	10800104 	addi	r2,r2,4
 80471ec:	d8802e15 	stw	r2,184(sp)
 80471f0:	a02dd7fa 	srai	r22,r20,31
 80471f4:	b005883a 	mov	r2,r22
 80471f8:	003b7d06 	br	8045ff0 <__alt_data_end+0xfffddf50>
 80471fc:	9080100c 	andi	r2,r18,64
 8047200:	10010526 	beq	r2,zero,8047618 <___svfprintf_internal_r+0x1bb4>
 8047204:	d8c02e17 	ldw	r3,184(sp)
 8047208:	002d883a 	mov	r22,zero
 804720c:	1d00000b 	ldhu	r20,0(r3)
 8047210:	18c00104 	addi	r3,r3,4
 8047214:	d8c02e15 	stw	r3,184(sp)
 8047218:	003ce206 	br	80465a4 <__alt_data_end+0xfffde504>
 804721c:	bc400007 	ldb	r17,0(r23)
 8047220:	003a6506 	br	8045bb8 <__alt_data_end+0xfffddb18>
 8047224:	9080040c 	andi	r2,r18,16
 8047228:	10010126 	beq	r2,zero,8047630 <___svfprintf_internal_r+0x1bcc>
 804722c:	d8c02e17 	ldw	r3,184(sp)
 8047230:	d9002f17 	ldw	r4,188(sp)
 8047234:	18800017 	ldw	r2,0(r3)
 8047238:	18c00104 	addi	r3,r3,4
 804723c:	d8c02e15 	stw	r3,184(sp)
 8047240:	11000015 	stw	r4,0(r2)
 8047244:	003a3206 	br	8045b10 <__alt_data_end+0xfffdda70>
 8047248:	d9002a17 	ldw	r4,168(sp)
 804724c:	d8002785 	stb	zero,158(sp)
 8047250:	203d8d16 	blt	r4,zero,8046888 <__alt_data_end+0xfffde7e8>
 8047254:	00bfdfc4 	movi	r2,-129
 8047258:	90a4703a 	and	r18,r18,r2
 804725c:	003ad506 	br	8045db4 <__alt_data_end+0xfffddd14>
 8047260:	01420174 	movhi	r5,2053
 8047264:	29517284 	addi	r5,r5,17866
 8047268:	d9402c15 	stw	r5,176(sp)
 804726c:	d9402c17 	ldw	r5,176(sp)
 8047270:	1c47883a 	add	r3,r3,r17
 8047274:	10800044 	addi	r2,r2,1
 8047278:	41400015 	stw	r5,0(r8)
 804727c:	44400115 	stw	r17,4(r8)
 8047280:	d8c02015 	stw	r3,128(sp)
 8047284:	d8801f15 	stw	r2,124(sp)
 8047288:	010001c4 	movi	r4,7
 804728c:	20bf3016 	blt	r4,r2,8046f50 <__alt_data_end+0xfffdeeb0>
 8047290:	42000204 	addi	r8,r8,8
 8047294:	003f3506 	br	8046f6c <__alt_data_end+0xfffdeecc>
 8047298:	01020174 	movhi	r4,2053
 804729c:	21117284 	addi	r4,r4,17866
 80472a0:	d9002c15 	stw	r4,176(sp)
 80472a4:	003c3c06 	br	8046398 <__alt_data_end+0xfffde2f8>
 80472a8:	d9402d17 	ldw	r5,180(sp)
 80472ac:	d9801e04 	addi	r6,sp,120
 80472b0:	9809883a 	mov	r4,r19
 80472b4:	804c3f40 	call	804c3f4 <__ssprint_r>
 80472b8:	103ad11e 	bne	r2,zero,8045e00 <__alt_data_end+0xfffddd60>
 80472bc:	d8c02017 	ldw	r3,128(sp)
 80472c0:	da000404 	addi	r8,sp,16
 80472c4:	003d9306 	br	8046914 <__alt_data_end+0xfffde874>
 80472c8:	d8801f17 	ldw	r2,124(sp)
 80472cc:	01420174 	movhi	r5,2053
 80472d0:	01000044 	movi	r4,1
 80472d4:	18c00044 	addi	r3,r3,1
 80472d8:	10800044 	addi	r2,r2,1
 80472dc:	29517204 	addi	r5,r5,17864
 80472e0:	41000115 	stw	r4,4(r8)
 80472e4:	41400015 	stw	r5,0(r8)
 80472e8:	d8c02015 	stw	r3,128(sp)
 80472ec:	d8801f15 	stw	r2,124(sp)
 80472f0:	010001c4 	movi	r4,7
 80472f4:	2080b516 	blt	r4,r2,80475cc <___svfprintf_internal_r+0x1b68>
 80472f8:	42000204 	addi	r8,r8,8
 80472fc:	8800041e 	bne	r17,zero,8047310 <___svfprintf_internal_r+0x18ac>
 8047300:	d8803317 	ldw	r2,204(sp)
 8047304:	1000021e 	bne	r2,zero,8047310 <___svfprintf_internal_r+0x18ac>
 8047308:	9080004c 	andi	r2,r18,1
 804730c:	103c3926 	beq	r2,zero,80463f4 <__alt_data_end+0xfffde354>
 8047310:	d9003817 	ldw	r4,224(sp)
 8047314:	d8801f17 	ldw	r2,124(sp)
 8047318:	d9403417 	ldw	r5,208(sp)
 804731c:	20c7883a 	add	r3,r4,r3
 8047320:	10800044 	addi	r2,r2,1
 8047324:	41000115 	stw	r4,4(r8)
 8047328:	41400015 	stw	r5,0(r8)
 804732c:	d8c02015 	stw	r3,128(sp)
 8047330:	d8801f15 	stw	r2,124(sp)
 8047334:	010001c4 	movi	r4,7
 8047338:	20818016 	blt	r4,r2,804793c <___svfprintf_internal_r+0x1ed8>
 804733c:	42000204 	addi	r8,r8,8
 8047340:	0463c83a 	sub	r17,zero,r17
 8047344:	0440cb0e 	bge	zero,r17,8047674 <___svfprintf_internal_r+0x1c10>
 8047348:	05800404 	movi	r22,16
 804734c:	b440e80e 	bge	r22,r17,80476f0 <___svfprintf_internal_r+0x1c8c>
 8047350:	01420174 	movhi	r5,2053
 8047354:	29517284 	addi	r5,r5,17866
 8047358:	d9402c15 	stw	r5,176(sp)
 804735c:	070001c4 	movi	fp,7
 8047360:	dd002d17 	ldw	r20,180(sp)
 8047364:	00000306 	br	8047374 <___svfprintf_internal_r+0x1910>
 8047368:	42000204 	addi	r8,r8,8
 804736c:	8c7ffc04 	addi	r17,r17,-16
 8047370:	b440e20e 	bge	r22,r17,80476fc <___svfprintf_internal_r+0x1c98>
 8047374:	18c00404 	addi	r3,r3,16
 8047378:	10800044 	addi	r2,r2,1
 804737c:	45400015 	stw	r21,0(r8)
 8047380:	45800115 	stw	r22,4(r8)
 8047384:	d8c02015 	stw	r3,128(sp)
 8047388:	d8801f15 	stw	r2,124(sp)
 804738c:	e0bff60e 	bge	fp,r2,8047368 <__alt_data_end+0xfffdf2c8>
 8047390:	d9801e04 	addi	r6,sp,120
 8047394:	a00b883a 	mov	r5,r20
 8047398:	9809883a 	mov	r4,r19
 804739c:	804c3f40 	call	804c3f4 <__ssprint_r>
 80473a0:	103a971e 	bne	r2,zero,8045e00 <__alt_data_end+0xfffddd60>
 80473a4:	d8c02017 	ldw	r3,128(sp)
 80473a8:	d8801f17 	ldw	r2,124(sp)
 80473ac:	da000404 	addi	r8,sp,16
 80473b0:	003fee06 	br	804736c <__alt_data_end+0xfffdf2cc>
 80473b4:	d9002e17 	ldw	r4,184(sp)
 80473b8:	d9402a17 	ldw	r5,168(sp)
 80473bc:	002d883a 	mov	r22,zero
 80473c0:	20800104 	addi	r2,r4,4
 80473c4:	25000017 	ldw	r20,0(r4)
 80473c8:	283e7d0e 	bge	r5,zero,8046dc0 <__alt_data_end+0xfffded20>
 80473cc:	003eda06 	br	8046f38 <__alt_data_end+0xfffdee98>
 80473d0:	d9002e17 	ldw	r4,184(sp)
 80473d4:	d9402a17 	ldw	r5,168(sp)
 80473d8:	002d883a 	mov	r22,zero
 80473dc:	20800104 	addi	r2,r4,4
 80473e0:	25000017 	ldw	r20,0(r4)
 80473e4:	283e2d0e 	bge	r5,zero,8046c9c <__alt_data_end+0xfffdebfc>
 80473e8:	003f6b06 	br	8047198 <__alt_data_end+0xfffdf0f8>
 80473ec:	d8c02e15 	stw	r3,184(sp)
 80473f0:	0039883a 	mov	fp,zero
 80473f4:	003ed206 	br	8046f40 <__alt_data_end+0xfffdeea0>
 80473f8:	bc400043 	ldbu	r17,1(r23)
 80473fc:	84000814 	ori	r16,r16,32
 8047400:	bdc00044 	addi	r23,r23,1
 8047404:	8c403fcc 	andi	r17,r17,255
 8047408:	8c40201c 	xori	r17,r17,128
 804740c:	8c7fe004 	addi	r17,r17,-128
 8047410:	0039e906 	br	8045bb8 <__alt_data_end+0xfffddb18>
 8047414:	d9402d17 	ldw	r5,180(sp)
 8047418:	d9801e04 	addi	r6,sp,120
 804741c:	9809883a 	mov	r4,r19
 8047420:	804c3f40 	call	804c3f4 <__ssprint_r>
 8047424:	103a761e 	bne	r2,zero,8045e00 <__alt_data_end+0xfffddd60>
 8047428:	d8c02017 	ldw	r3,128(sp)
 804742c:	da000404 	addi	r8,sp,16
 8047430:	003d4a06 	br	804695c <__alt_data_end+0xfffde8bc>
 8047434:	d9002a17 	ldw	r4,168(sp)
 8047438:	05bff7c4 	movi	r22,-33
 804743c:	00bfffc4 	movi	r2,-1
 8047440:	8dac703a 	and	r22,r17,r22
 8047444:	20806a26 	beq	r4,r2,80475f0 <___svfprintf_internal_r+0x1b8c>
 8047448:	008011c4 	movi	r2,71
 804744c:	b0813726 	beq	r22,r2,804792c <___svfprintf_internal_r+0x1ec8>
 8047450:	d9003717 	ldw	r4,220(sp)
 8047454:	90c04014 	ori	r3,r18,256
 8047458:	d8c02c15 	stw	r3,176(sp)
 804745c:	20015d16 	blt	r4,zero,80479d4 <___svfprintf_internal_r+0x1f70>
 8047460:	dd003717 	ldw	r20,220(sp)
 8047464:	d8002905 	stb	zero,164(sp)
 8047468:	00801984 	movi	r2,102
 804746c:	88814026 	beq	r17,r2,8047970 <___svfprintf_internal_r+0x1f0c>
 8047470:	00801184 	movi	r2,70
 8047474:	88817126 	beq	r17,r2,8047a3c <___svfprintf_internal_r+0x1fd8>
 8047478:	00801144 	movi	r2,69
 804747c:	b0816226 	beq	r22,r2,8047a08 <___svfprintf_internal_r+0x1fa4>
 8047480:	d8c02a17 	ldw	r3,168(sp)
 8047484:	d8802104 	addi	r2,sp,132
 8047488:	d8800315 	stw	r2,12(sp)
 804748c:	d9403617 	ldw	r5,216(sp)
 8047490:	d8802504 	addi	r2,sp,148
 8047494:	d8800215 	stw	r2,8(sp)
 8047498:	d8802604 	addi	r2,sp,152
 804749c:	d8c00015 	stw	r3,0(sp)
 80474a0:	d8800115 	stw	r2,4(sp)
 80474a4:	01c00084 	movi	r7,2
 80474a8:	a00d883a 	mov	r6,r20
 80474ac:	9809883a 	mov	r4,r19
 80474b0:	d8c03d15 	stw	r3,244(sp)
 80474b4:	da003e15 	stw	r8,248(sp)
 80474b8:	8047f480 	call	8047f48 <_dtoa_r>
 80474bc:	1021883a 	mov	r16,r2
 80474c0:	008019c4 	movi	r2,103
 80474c4:	d8c03d17 	ldw	r3,244(sp)
 80474c8:	da003e17 	ldw	r8,248(sp)
 80474cc:	8880e726 	beq	r17,r2,804786c <___svfprintf_internal_r+0x1e08>
 80474d0:	008011c4 	movi	r2,71
 80474d4:	8880d426 	beq	r17,r2,8047828 <___svfprintf_internal_r+0x1dc4>
 80474d8:	80f9883a 	add	fp,r16,r3
 80474dc:	d9003617 	ldw	r4,216(sp)
 80474e0:	000d883a 	mov	r6,zero
 80474e4:	000f883a 	mov	r7,zero
 80474e8:	a00b883a 	mov	r5,r20
 80474ec:	da003e15 	stw	r8,248(sp)
 80474f0:	804fccc0 	call	804fccc <__eqdf2>
 80474f4:	da003e17 	ldw	r8,248(sp)
 80474f8:	1000e426 	beq	r2,zero,804788c <___svfprintf_internal_r+0x1e28>
 80474fc:	d8802117 	ldw	r2,132(sp)
 8047500:	1700062e 	bgeu	r2,fp,804751c <___svfprintf_internal_r+0x1ab8>
 8047504:	01000c04 	movi	r4,48
 8047508:	10c00044 	addi	r3,r2,1
 804750c:	d8c02115 	stw	r3,132(sp)
 8047510:	11000005 	stb	r4,0(r2)
 8047514:	d8802117 	ldw	r2,132(sp)
 8047518:	173ffb36 	bltu	r2,fp,8047508 <__alt_data_end+0xfffdf468>
 804751c:	1405c83a 	sub	r2,r2,r16
 8047520:	d8803315 	stw	r2,204(sp)
 8047524:	008011c4 	movi	r2,71
 8047528:	b080c526 	beq	r22,r2,8047840 <___svfprintf_internal_r+0x1ddc>
 804752c:	00801944 	movi	r2,101
 8047530:	1441d80e 	bge	r2,r17,8047c94 <___svfprintf_internal_r+0x2230>
 8047534:	d8c02617 	ldw	r3,152(sp)
 8047538:	00801984 	movi	r2,102
 804753c:	d8c03215 	stw	r3,200(sp)
 8047540:	88813426 	beq	r17,r2,8047a14 <___svfprintf_internal_r+0x1fb0>
 8047544:	d8c03217 	ldw	r3,200(sp)
 8047548:	d9003317 	ldw	r4,204(sp)
 804754c:	19012516 	blt	r3,r4,80479e4 <___svfprintf_internal_r+0x1f80>
 8047550:	9480004c 	andi	r18,r18,1
 8047554:	9001841e 	bne	r18,zero,8047b68 <___svfprintf_internal_r+0x2104>
 8047558:	1805883a 	mov	r2,r3
 804755c:	1801cb16 	blt	r3,zero,8047c8c <___svfprintf_internal_r+0x2228>
 8047560:	d8c03217 	ldw	r3,200(sp)
 8047564:	044019c4 	movi	r17,103
 8047568:	d8c02b15 	stw	r3,172(sp)
 804756c:	df002907 	ldb	fp,164(sp)
 8047570:	e000a61e 	bne	fp,zero,804780c <___svfprintf_internal_r+0x1da8>
 8047574:	df002783 	ldbu	fp,158(sp)
 8047578:	d8802915 	stw	r2,164(sp)
 804757c:	dc802c17 	ldw	r18,176(sp)
 8047580:	d8002a15 	stw	zero,168(sp)
 8047584:	003af506 	br	804615c <__alt_data_end+0xfffde0bc>
 8047588:	04020174 	movhi	r16,2053
 804758c:	84116204 	addi	r16,r16,17800
 8047590:	003a7e06 	br	8045f8c <__alt_data_end+0xfffddeec>
 8047594:	d9003917 	ldw	r4,228(sp)
 8047598:	04001004 	movi	r16,64
 804759c:	800b883a 	mov	r5,r16
 80475a0:	804a0ac0 	call	804a0ac <_malloc_r>
 80475a4:	d9002d17 	ldw	r4,180(sp)
 80475a8:	20800015 	stw	r2,0(r4)
 80475ac:	20800415 	stw	r2,16(r4)
 80475b0:	1001d026 	beq	r2,zero,8047cf4 <___svfprintf_internal_r+0x2290>
 80475b4:	d8802d17 	ldw	r2,180(sp)
 80475b8:	14000515 	stw	r16,20(r2)
 80475bc:	00394406 	br	8045ad0 <__alt_data_end+0xfffdda30>
 80475c0:	04020174 	movhi	r16,2053
 80475c4:	84116404 	addi	r16,r16,17808
 80475c8:	003ee106 	br	8047150 <__alt_data_end+0xfffdf0b0>
 80475cc:	d9402d17 	ldw	r5,180(sp)
 80475d0:	d9801e04 	addi	r6,sp,120
 80475d4:	9809883a 	mov	r4,r19
 80475d8:	804c3f40 	call	804c3f4 <__ssprint_r>
 80475dc:	103a081e 	bne	r2,zero,8045e00 <__alt_data_end+0xfffddd60>
 80475e0:	dc402617 	ldw	r17,152(sp)
 80475e4:	d8c02017 	ldw	r3,128(sp)
 80475e8:	da000404 	addi	r8,sp,16
 80475ec:	003f4306 	br	80472fc <__alt_data_end+0xfffdf25c>
 80475f0:	01400184 	movi	r5,6
 80475f4:	d9402a15 	stw	r5,168(sp)
 80475f8:	003f9506 	br	8047450 <__alt_data_end+0xfffdf3b0>
 80475fc:	d8c02e17 	ldw	r3,184(sp)
 8047600:	1d000017 	ldw	r20,0(r3)
 8047604:	18c00104 	addi	r3,r3,4
 8047608:	d8c02e15 	stw	r3,184(sp)
 804760c:	a02dd7fa 	srai	r22,r20,31
 8047610:	b005883a 	mov	r2,r22
 8047614:	003a7606 	br	8045ff0 <__alt_data_end+0xfffddf50>
 8047618:	d9002e17 	ldw	r4,184(sp)
 804761c:	002d883a 	mov	r22,zero
 8047620:	25000017 	ldw	r20,0(r4)
 8047624:	21000104 	addi	r4,r4,4
 8047628:	d9002e15 	stw	r4,184(sp)
 804762c:	003bdd06 	br	80465a4 <__alt_data_end+0xfffde504>
 8047630:	9480100c 	andi	r18,r18,64
 8047634:	90006e26 	beq	r18,zero,80477f0 <___svfprintf_internal_r+0x1d8c>
 8047638:	d9402e17 	ldw	r5,184(sp)
 804763c:	d8c02f17 	ldw	r3,188(sp)
 8047640:	28800017 	ldw	r2,0(r5)
 8047644:	29400104 	addi	r5,r5,4
 8047648:	d9402e15 	stw	r5,184(sp)
 804764c:	10c0000d 	sth	r3,0(r2)
 8047650:	00392f06 	br	8045b10 <__alt_data_end+0xfffdda70>
 8047654:	d9402d17 	ldw	r5,180(sp)
 8047658:	d9801e04 	addi	r6,sp,120
 804765c:	9809883a 	mov	r4,r19
 8047660:	804c3f40 	call	804c3f4 <__ssprint_r>
 8047664:	1039e61e 	bne	r2,zero,8045e00 <__alt_data_end+0xfffddd60>
 8047668:	d8c02017 	ldw	r3,128(sp)
 804766c:	d8801f17 	ldw	r2,124(sp)
 8047670:	da000404 	addi	r8,sp,16
 8047674:	d9403317 	ldw	r5,204(sp)
 8047678:	10800044 	addi	r2,r2,1
 804767c:	44000015 	stw	r16,0(r8)
 8047680:	28c7883a 	add	r3,r5,r3
 8047684:	003b5506 	br	80463dc <__alt_data_end+0xfffde33c>
 8047688:	8009883a 	mov	r4,r16
 804768c:	df003e15 	stw	fp,248(sp)
 8047690:	80459cc0 	call	80459cc <strlen>
 8047694:	d8802b15 	stw	r2,172(sp)
 8047698:	da003e17 	ldw	r8,248(sp)
 804769c:	103c160e 	bge	r2,zero,80466f8 <__alt_data_end+0xfffde658>
 80476a0:	0005883a 	mov	r2,zero
 80476a4:	003c1406 	br	80466f8 <__alt_data_end+0xfffde658>
 80476a8:	00bfffc4 	movi	r2,-1
 80476ac:	0039d906 	br	8045e14 <__alt_data_end+0xfffddd74>
 80476b0:	01020174 	movhi	r4,2053
 80476b4:	21117684 	addi	r4,r4,17882
 80476b8:	d9003515 	stw	r4,212(sp)
 80476bc:	003ae406 	br	8046250 <__alt_data_end+0xfffde1b0>
 80476c0:	013fffc4 	movi	r4,-1
 80476c4:	0039fa06 	br	8045eb0 <__alt_data_end+0xfffdde10>
 80476c8:	d9402d17 	ldw	r5,180(sp)
 80476cc:	d9801e04 	addi	r6,sp,120
 80476d0:	9809883a 	mov	r4,r19
 80476d4:	804c3f40 	call	804c3f4 <__ssprint_r>
 80476d8:	1039c91e 	bne	r2,zero,8045e00 <__alt_data_end+0xfffddd60>
 80476dc:	d8c02017 	ldw	r3,128(sp)
 80476e0:	da000404 	addi	r8,sp,16
 80476e4:	003d8406 	br	8046cf8 <__alt_data_end+0xfffdec58>
 80476e8:	0023883a 	mov	r17,zero
 80476ec:	003d8306 	br	8046cfc <__alt_data_end+0xfffdec5c>
 80476f0:	01020174 	movhi	r4,2053
 80476f4:	21117284 	addi	r4,r4,17866
 80476f8:	d9002c15 	stw	r4,176(sp)
 80476fc:	d9002c17 	ldw	r4,176(sp)
 8047700:	1c47883a 	add	r3,r3,r17
 8047704:	10800044 	addi	r2,r2,1
 8047708:	41000015 	stw	r4,0(r8)
 804770c:	44400115 	stw	r17,4(r8)
 8047710:	d8c02015 	stw	r3,128(sp)
 8047714:	d8801f15 	stw	r2,124(sp)
 8047718:	010001c4 	movi	r4,7
 804771c:	20bfcd16 	blt	r4,r2,8047654 <__alt_data_end+0xfffdf5b4>
 8047720:	42000204 	addi	r8,r8,8
 8047724:	003fd306 	br	8047674 <__alt_data_end+0xfffdf5d4>
 8047728:	d9402d17 	ldw	r5,180(sp)
 804772c:	d9801e04 	addi	r6,sp,120
 8047730:	9809883a 	mov	r4,r19
 8047734:	804c3f40 	call	804c3f4 <__ssprint_r>
 8047738:	1039b11e 	bne	r2,zero,8045e00 <__alt_data_end+0xfffddd60>
 804773c:	d8802617 	ldw	r2,152(sp)
 8047740:	d8c02017 	ldw	r3,128(sp)
 8047744:	da000404 	addi	r8,sp,16
 8047748:	003e1c06 	br	8046fbc <__alt_data_end+0xfffdef1c>
 804774c:	d8802a17 	ldw	r2,168(sp)
 8047750:	00c00184 	movi	r3,6
 8047754:	1880012e 	bgeu	r3,r2,804775c <___svfprintf_internal_r+0x1cf8>
 8047758:	1805883a 	mov	r2,r3
 804775c:	d8802b15 	stw	r2,172(sp)
 8047760:	1000f316 	blt	r2,zero,8047b30 <___svfprintf_internal_r+0x20cc>
 8047764:	04020174 	movhi	r16,2053
 8047768:	d8802915 	stw	r2,164(sp)
 804776c:	dd002e15 	stw	r20,184(sp)
 8047770:	d8002a15 	stw	zero,168(sp)
 8047774:	d8003215 	stw	zero,200(sp)
 8047778:	84117004 	addi	r16,r16,17856
 804777c:	0039883a 	mov	fp,zero
 8047780:	003a7d06 	br	8046178 <__alt_data_end+0xfffde0d8>
 8047784:	01020174 	movhi	r4,2053
 8047788:	21117684 	addi	r4,r4,17882
 804778c:	d9003515 	stw	r4,212(sp)
 8047790:	003b3d06 	br	8046488 <__alt_data_end+0xfffde3e8>
 8047794:	d9402d17 	ldw	r5,180(sp)
 8047798:	d9801e04 	addi	r6,sp,120
 804779c:	9809883a 	mov	r4,r19
 80477a0:	804c3f40 	call	804c3f4 <__ssprint_r>
 80477a4:	1039961e 	bne	r2,zero,8045e00 <__alt_data_end+0xfffddd60>
 80477a8:	d8802617 	ldw	r2,152(sp)
 80477ac:	d9403317 	ldw	r5,204(sp)
 80477b0:	d8c02017 	ldw	r3,128(sp)
 80477b4:	da000404 	addi	r8,sp,16
 80477b8:	2885c83a 	sub	r2,r5,r2
 80477bc:	003e1006 	br	8047000 <__alt_data_end+0xfffdef60>
 80477c0:	00800044 	movi	r2,1
 80477c4:	10803fcc 	andi	r2,r2,255
 80477c8:	00c00044 	movi	r3,1
 80477cc:	10fa1026 	beq	r2,r3,8046010 <__alt_data_end+0xfffddf70>
 80477d0:	00c00084 	movi	r3,2
 80477d4:	10fb8226 	beq	r2,r3,80465e0 <__alt_data_end+0xfffde540>
 80477d8:	003a4206 	br	80460e4 <__alt_data_end+0xfffde044>
 80477dc:	0021883a 	mov	r16,zero
 80477e0:	003e0806 	br	8047004 <__alt_data_end+0xfffdef64>
 80477e4:	07000b44 	movi	fp,45
 80477e8:	df002785 	stb	fp,158(sp)
 80477ec:	0039e306 	br	8045f7c <__alt_data_end+0xfffddedc>
 80477f0:	d9002e17 	ldw	r4,184(sp)
 80477f4:	d9402f17 	ldw	r5,188(sp)
 80477f8:	20800017 	ldw	r2,0(r4)
 80477fc:	21000104 	addi	r4,r4,4
 8047800:	d9002e15 	stw	r4,184(sp)
 8047804:	11400015 	stw	r5,0(r2)
 8047808:	0038c106 	br	8045b10 <__alt_data_end+0xfffdda70>
 804780c:	00c00b44 	movi	r3,45
 8047810:	d8c02785 	stb	r3,158(sp)
 8047814:	d8802915 	stw	r2,164(sp)
 8047818:	dc802c17 	ldw	r18,176(sp)
 804781c:	d8002a15 	stw	zero,168(sp)
 8047820:	07000b44 	movi	fp,45
 8047824:	003a5106 	br	804616c <__alt_data_end+0xfffde0cc>
 8047828:	9080004c 	andi	r2,r18,1
 804782c:	1000941e 	bne	r2,zero,8047a80 <___svfprintf_internal_r+0x201c>
 8047830:	d8802117 	ldw	r2,132(sp)
 8047834:	1405c83a 	sub	r2,r2,r16
 8047838:	d8803315 	stw	r2,204(sp)
 804783c:	b441151e 	bne	r22,r17,8047c94 <___svfprintf_internal_r+0x2230>
 8047840:	dd802617 	ldw	r22,152(sp)
 8047844:	00bfff44 	movi	r2,-3
 8047848:	b0801a16 	blt	r22,r2,80478b4 <___svfprintf_internal_r+0x1e50>
 804784c:	d9402a17 	ldw	r5,168(sp)
 8047850:	2d801816 	blt	r5,r22,80478b4 <___svfprintf_internal_r+0x1e50>
 8047854:	dd803215 	stw	r22,200(sp)
 8047858:	003f3a06 	br	8047544 <__alt_data_end+0xfffdf4a4>
 804785c:	1025883a 	mov	r18,r2
 8047860:	0039883a 	mov	fp,zero
 8047864:	00800084 	movi	r2,2
 8047868:	003fd606 	br	80477c4 <__alt_data_end+0xfffdf724>
 804786c:	9080004c 	andi	r2,r18,1
 8047870:	103f191e 	bne	r2,zero,80474d8 <__alt_data_end+0xfffdf438>
 8047874:	d8802117 	ldw	r2,132(sp)
 8047878:	003f2806 	br	804751c <__alt_data_end+0xfffdf47c>
 804787c:	01020174 	movhi	r4,2053
 8047880:	21117284 	addi	r4,r4,17866
 8047884:	d9002c15 	stw	r4,176(sp)
 8047888:	003c7c06 	br	8046a7c <__alt_data_end+0xfffde9dc>
 804788c:	e005883a 	mov	r2,fp
 8047890:	003f2206 	br	804751c <__alt_data_end+0xfffdf47c>
 8047894:	d9002a17 	ldw	r4,168(sp)
 8047898:	df002783 	ldbu	fp,158(sp)
 804789c:	dd002e15 	stw	r20,184(sp)
 80478a0:	d9002915 	stw	r4,164(sp)
 80478a4:	d9002b15 	stw	r4,172(sp)
 80478a8:	d8002a15 	stw	zero,168(sp)
 80478ac:	d8003215 	stw	zero,200(sp)
 80478b0:	003a2a06 	br	804615c <__alt_data_end+0xfffde0bc>
 80478b4:	8c7fff84 	addi	r17,r17,-2
 80478b8:	b5bfffc4 	addi	r22,r22,-1
 80478bc:	dd802615 	stw	r22,152(sp)
 80478c0:	dc4022c5 	stb	r17,139(sp)
 80478c4:	b000c316 	blt	r22,zero,8047bd4 <___svfprintf_internal_r+0x2170>
 80478c8:	00800ac4 	movi	r2,43
 80478cc:	d8802305 	stb	r2,140(sp)
 80478d0:	00800244 	movi	r2,9
 80478d4:	15806e16 	blt	r2,r22,8047a90 <___svfprintf_internal_r+0x202c>
 80478d8:	00800c04 	movi	r2,48
 80478dc:	b5800c04 	addi	r22,r22,48
 80478e0:	d8802345 	stb	r2,141(sp)
 80478e4:	dd802385 	stb	r22,142(sp)
 80478e8:	d88023c4 	addi	r2,sp,143
 80478ec:	df0022c4 	addi	fp,sp,139
 80478f0:	d8c03317 	ldw	r3,204(sp)
 80478f4:	1739c83a 	sub	fp,r2,fp
 80478f8:	d9003317 	ldw	r4,204(sp)
 80478fc:	e0c7883a 	add	r3,fp,r3
 8047900:	df003b15 	stw	fp,236(sp)
 8047904:	d8c02b15 	stw	r3,172(sp)
 8047908:	00800044 	movi	r2,1
 804790c:	1100b70e 	bge	r2,r4,8047bec <___svfprintf_internal_r+0x2188>
 8047910:	d8c02b17 	ldw	r3,172(sp)
 8047914:	18c00044 	addi	r3,r3,1
 8047918:	d8c02b15 	stw	r3,172(sp)
 804791c:	1805883a 	mov	r2,r3
 8047920:	1800b016 	blt	r3,zero,8047be4 <___svfprintf_internal_r+0x2180>
 8047924:	d8003215 	stw	zero,200(sp)
 8047928:	003f1006 	br	804756c <__alt_data_end+0xfffdf4cc>
 804792c:	d8802a17 	ldw	r2,168(sp)
 8047930:	103ec71e 	bne	r2,zero,8047450 <__alt_data_end+0xfffdf3b0>
 8047934:	dc002a15 	stw	r16,168(sp)
 8047938:	003ec506 	br	8047450 <__alt_data_end+0xfffdf3b0>
 804793c:	d9402d17 	ldw	r5,180(sp)
 8047940:	d9801e04 	addi	r6,sp,120
 8047944:	9809883a 	mov	r4,r19
 8047948:	804c3f40 	call	804c3f4 <__ssprint_r>
 804794c:	10392c1e 	bne	r2,zero,8045e00 <__alt_data_end+0xfffddd60>
 8047950:	dc402617 	ldw	r17,152(sp)
 8047954:	d8c02017 	ldw	r3,128(sp)
 8047958:	d8801f17 	ldw	r2,124(sp)
 804795c:	da000404 	addi	r8,sp,16
 8047960:	003e7706 	br	8047340 <__alt_data_end+0xfffdf2a0>
 8047964:	182f883a 	mov	r23,r3
 8047968:	d8002a15 	stw	zero,168(sp)
 804796c:	00389306 	br	8045bbc <__alt_data_end+0xfffddb1c>
 8047970:	d8c02a17 	ldw	r3,168(sp)
 8047974:	d8802104 	addi	r2,sp,132
 8047978:	d8800315 	stw	r2,12(sp)
 804797c:	d9403617 	ldw	r5,216(sp)
 8047980:	d8802504 	addi	r2,sp,148
 8047984:	d8800215 	stw	r2,8(sp)
 8047988:	d8802604 	addi	r2,sp,152
 804798c:	d8c00015 	stw	r3,0(sp)
 8047990:	9809883a 	mov	r4,r19
 8047994:	d8800115 	stw	r2,4(sp)
 8047998:	01c000c4 	movi	r7,3
 804799c:	a00d883a 	mov	r6,r20
 80479a0:	da003e15 	stw	r8,248(sp)
 80479a4:	8047f480 	call	8047f48 <_dtoa_r>
 80479a8:	d9002a17 	ldw	r4,168(sp)
 80479ac:	da003e17 	ldw	r8,248(sp)
 80479b0:	1021883a 	mov	r16,r2
 80479b4:	1139883a 	add	fp,r2,r4
 80479b8:	2007883a 	mov	r3,r4
 80479bc:	81000007 	ldb	r4,0(r16)
 80479c0:	00800c04 	movi	r2,48
 80479c4:	20806f26 	beq	r4,r2,8047b84 <___svfprintf_internal_r+0x2120>
 80479c8:	d8c02617 	ldw	r3,152(sp)
 80479cc:	e0f9883a 	add	fp,fp,r3
 80479d0:	003ec206 	br	80474dc <__alt_data_end+0xfffdf43c>
 80479d4:	00c00b44 	movi	r3,45
 80479d8:	2520003c 	xorhi	r20,r4,32768
 80479dc:	d8c02905 	stb	r3,164(sp)
 80479e0:	003ea106 	br	8047468 <__alt_data_end+0xfffdf3c8>
 80479e4:	d8c03217 	ldw	r3,200(sp)
 80479e8:	00c0890e 	bge	zero,r3,8047c10 <___svfprintf_internal_r+0x21ac>
 80479ec:	00800044 	movi	r2,1
 80479f0:	d9003317 	ldw	r4,204(sp)
 80479f4:	1105883a 	add	r2,r2,r4
 80479f8:	d8802b15 	stw	r2,172(sp)
 80479fc:	10005f16 	blt	r2,zero,8047b7c <___svfprintf_internal_r+0x2118>
 8047a00:	044019c4 	movi	r17,103
 8047a04:	003ed906 	br	804756c <__alt_data_end+0xfffdf4cc>
 8047a08:	d9002a17 	ldw	r4,168(sp)
 8047a0c:	20c00044 	addi	r3,r4,1
 8047a10:	003e9c06 	br	8047484 <__alt_data_end+0xfffdf3e4>
 8047a14:	d9002a17 	ldw	r4,168(sp)
 8047a18:	00c0680e 	bge	zero,r3,8047bbc <___svfprintf_internal_r+0x2158>
 8047a1c:	2000461e 	bne	r4,zero,8047b38 <___svfprintf_internal_r+0x20d4>
 8047a20:	9480004c 	andi	r18,r18,1
 8047a24:	9000441e 	bne	r18,zero,8047b38 <___svfprintf_internal_r+0x20d4>
 8047a28:	1805883a 	mov	r2,r3
 8047a2c:	1800a116 	blt	r3,zero,8047cb4 <___svfprintf_internal_r+0x2250>
 8047a30:	d8c03217 	ldw	r3,200(sp)
 8047a34:	d8c02b15 	stw	r3,172(sp)
 8047a38:	003ecc06 	br	804756c <__alt_data_end+0xfffdf4cc>
 8047a3c:	d9402a17 	ldw	r5,168(sp)
 8047a40:	d8802104 	addi	r2,sp,132
 8047a44:	d8800315 	stw	r2,12(sp)
 8047a48:	d9400015 	stw	r5,0(sp)
 8047a4c:	d8802504 	addi	r2,sp,148
 8047a50:	d9403617 	ldw	r5,216(sp)
 8047a54:	d8800215 	stw	r2,8(sp)
 8047a58:	d8802604 	addi	r2,sp,152
 8047a5c:	d8800115 	stw	r2,4(sp)
 8047a60:	01c000c4 	movi	r7,3
 8047a64:	a00d883a 	mov	r6,r20
 8047a68:	9809883a 	mov	r4,r19
 8047a6c:	da003e15 	stw	r8,248(sp)
 8047a70:	8047f480 	call	8047f48 <_dtoa_r>
 8047a74:	d8c02a17 	ldw	r3,168(sp)
 8047a78:	da003e17 	ldw	r8,248(sp)
 8047a7c:	1021883a 	mov	r16,r2
 8047a80:	00801184 	movi	r2,70
 8047a84:	80f9883a 	add	fp,r16,r3
 8047a88:	88bfcc26 	beq	r17,r2,80479bc <__alt_data_end+0xfffdf91c>
 8047a8c:	003e9306 	br	80474dc <__alt_data_end+0xfffdf43c>
 8047a90:	df0022c4 	addi	fp,sp,139
 8047a94:	dc002a15 	stw	r16,168(sp)
 8047a98:	9829883a 	mov	r20,r19
 8047a9c:	e021883a 	mov	r16,fp
 8047aa0:	4027883a 	mov	r19,r8
 8047aa4:	b009883a 	mov	r4,r22
 8047aa8:	01400284 	movi	r5,10
 8047aac:	8042c7c0 	call	8042c7c <__modsi3>
 8047ab0:	10800c04 	addi	r2,r2,48
 8047ab4:	843fffc4 	addi	r16,r16,-1
 8047ab8:	b009883a 	mov	r4,r22
 8047abc:	01400284 	movi	r5,10
 8047ac0:	80800005 	stb	r2,0(r16)
 8047ac4:	8042bf80 	call	8042bf8 <__divsi3>
 8047ac8:	102d883a 	mov	r22,r2
 8047acc:	00800244 	movi	r2,9
 8047ad0:	15bff416 	blt	r2,r22,8047aa4 <__alt_data_end+0xfffdfa04>
 8047ad4:	9811883a 	mov	r8,r19
 8047ad8:	b0800c04 	addi	r2,r22,48
 8047adc:	a027883a 	mov	r19,r20
 8047ae0:	8029883a 	mov	r20,r16
 8047ae4:	a17fffc4 	addi	r5,r20,-1
 8047ae8:	a0bfffc5 	stb	r2,-1(r20)
 8047aec:	dc002a17 	ldw	r16,168(sp)
 8047af0:	2f00782e 	bgeu	r5,fp,8047cd4 <___svfprintf_internal_r+0x2270>
 8047af4:	d9c02384 	addi	r7,sp,142
 8047af8:	3d0fc83a 	sub	r7,r7,r20
 8047afc:	d9002344 	addi	r4,sp,141
 8047b00:	e1cf883a 	add	r7,fp,r7
 8047b04:	00000106 	br	8047b0c <___svfprintf_internal_r+0x20a8>
 8047b08:	28800003 	ldbu	r2,0(r5)
 8047b0c:	20800005 	stb	r2,0(r4)
 8047b10:	21000044 	addi	r4,r4,1
 8047b14:	29400044 	addi	r5,r5,1
 8047b18:	21fffb1e 	bne	r4,r7,8047b08 <__alt_data_end+0xfffdfa68>
 8047b1c:	d8802304 	addi	r2,sp,140
 8047b20:	1505c83a 	sub	r2,r2,r20
 8047b24:	d8c02344 	addi	r3,sp,141
 8047b28:	1885883a 	add	r2,r3,r2
 8047b2c:	003f7006 	br	80478f0 <__alt_data_end+0xfffdf850>
 8047b30:	0005883a 	mov	r2,zero
 8047b34:	003f0b06 	br	8047764 <__alt_data_end+0xfffdf6c4>
 8047b38:	d9002a17 	ldw	r4,168(sp)
 8047b3c:	d8c03217 	ldw	r3,200(sp)
 8047b40:	20800044 	addi	r2,r4,1
 8047b44:	1885883a 	add	r2,r3,r2
 8047b48:	d8802b15 	stw	r2,172(sp)
 8047b4c:	103e870e 	bge	r2,zero,804756c <__alt_data_end+0xfffdf4cc>
 8047b50:	0005883a 	mov	r2,zero
 8047b54:	003e8506 	br	804756c <__alt_data_end+0xfffdf4cc>
 8047b58:	01020174 	movhi	r4,2053
 8047b5c:	21117284 	addi	r4,r4,17866
 8047b60:	d9002c15 	stw	r4,176(sp)
 8047b64:	003cc506 	br	8046e7c <__alt_data_end+0xfffdeddc>
 8047b68:	d8c03217 	ldw	r3,200(sp)
 8047b6c:	18c00044 	addi	r3,r3,1
 8047b70:	d8c02b15 	stw	r3,172(sp)
 8047b74:	1805883a 	mov	r2,r3
 8047b78:	183fa10e 	bge	r3,zero,8047a00 <__alt_data_end+0xfffdf960>
 8047b7c:	0005883a 	mov	r2,zero
 8047b80:	003f9f06 	br	8047a00 <__alt_data_end+0xfffdf960>
 8047b84:	d9003617 	ldw	r4,216(sp)
 8047b88:	000d883a 	mov	r6,zero
 8047b8c:	000f883a 	mov	r7,zero
 8047b90:	a00b883a 	mov	r5,r20
 8047b94:	d8c03d15 	stw	r3,244(sp)
 8047b98:	da003e15 	stw	r8,248(sp)
 8047b9c:	804fccc0 	call	804fccc <__eqdf2>
 8047ba0:	d8c03d17 	ldw	r3,244(sp)
 8047ba4:	da003e17 	ldw	r8,248(sp)
 8047ba8:	103f8726 	beq	r2,zero,80479c8 <__alt_data_end+0xfffdf928>
 8047bac:	00800044 	movi	r2,1
 8047bb0:	10c7c83a 	sub	r3,r2,r3
 8047bb4:	d8c02615 	stw	r3,152(sp)
 8047bb8:	003f8406 	br	80479cc <__alt_data_end+0xfffdf92c>
 8047bbc:	20000e1e 	bne	r4,zero,8047bf8 <___svfprintf_internal_r+0x2194>
 8047bc0:	9480004c 	andi	r18,r18,1
 8047bc4:	90000c1e 	bne	r18,zero,8047bf8 <___svfprintf_internal_r+0x2194>
 8047bc8:	00800044 	movi	r2,1
 8047bcc:	d8802b15 	stw	r2,172(sp)
 8047bd0:	003e6606 	br	804756c <__alt_data_end+0xfffdf4cc>
 8047bd4:	00800b44 	movi	r2,45
 8047bd8:	05adc83a 	sub	r22,zero,r22
 8047bdc:	d8802305 	stb	r2,140(sp)
 8047be0:	003f3b06 	br	80478d0 <__alt_data_end+0xfffdf830>
 8047be4:	0005883a 	mov	r2,zero
 8047be8:	003f4e06 	br	8047924 <__alt_data_end+0xfffdf884>
 8047bec:	90a4703a 	and	r18,r18,r2
 8047bf0:	903f4a26 	beq	r18,zero,804791c <__alt_data_end+0xfffdf87c>
 8047bf4:	003f4606 	br	8047910 <__alt_data_end+0xfffdf870>
 8047bf8:	d8c02a17 	ldw	r3,168(sp)
 8047bfc:	18c00084 	addi	r3,r3,2
 8047c00:	d8c02b15 	stw	r3,172(sp)
 8047c04:	1805883a 	mov	r2,r3
 8047c08:	183e580e 	bge	r3,zero,804756c <__alt_data_end+0xfffdf4cc>
 8047c0c:	003fd006 	br	8047b50 <__alt_data_end+0xfffdfab0>
 8047c10:	00800084 	movi	r2,2
 8047c14:	10c5c83a 	sub	r2,r2,r3
 8047c18:	003f7506 	br	80479f0 <__alt_data_end+0xfffdf950>
 8047c1c:	d9402e17 	ldw	r5,184(sp)
 8047c20:	d9002e17 	ldw	r4,184(sp)
 8047c24:	bc400043 	ldbu	r17,1(r23)
 8047c28:	29400017 	ldw	r5,0(r5)
 8047c2c:	20800104 	addi	r2,r4,4
 8047c30:	d8802e15 	stw	r2,184(sp)
 8047c34:	d9402a15 	stw	r5,168(sp)
 8047c38:	182f883a 	mov	r23,r3
 8047c3c:	283df10e 	bge	r5,zero,8047404 <__alt_data_end+0xfffdf364>
 8047c40:	8c403fcc 	andi	r17,r17,255
 8047c44:	017fffc4 	movi	r5,-1
 8047c48:	8c40201c 	xori	r17,r17,128
 8047c4c:	d9402a15 	stw	r5,168(sp)
 8047c50:	8c7fe004 	addi	r17,r17,-128
 8047c54:	0037d806 	br	8045bb8 <__alt_data_end+0xfffddb18>
 8047c58:	9080004c 	andi	r2,r18,1
 8047c5c:	0039883a 	mov	fp,zero
 8047c60:	10000726 	beq	r2,zero,8047c80 <___svfprintf_internal_r+0x221c>
 8047c64:	d8c02817 	ldw	r3,160(sp)
 8047c68:	dc001dc4 	addi	r16,sp,119
 8047c6c:	00800c04 	movi	r2,48
 8047c70:	1c07c83a 	sub	r3,r3,r16
 8047c74:	d8801dc5 	stb	r2,119(sp)
 8047c78:	d8c02b15 	stw	r3,172(sp)
 8047c7c:	00393106 	br	8046144 <__alt_data_end+0xfffde0a4>
 8047c80:	d8002b15 	stw	zero,172(sp)
 8047c84:	dc001e04 	addi	r16,sp,120
 8047c88:	00392e06 	br	8046144 <__alt_data_end+0xfffde0a4>
 8047c8c:	0005883a 	mov	r2,zero
 8047c90:	003e3306 	br	8047560 <__alt_data_end+0xfffdf4c0>
 8047c94:	dd802617 	ldw	r22,152(sp)
 8047c98:	003f0706 	br	80478b8 <__alt_data_end+0xfffdf818>
 8047c9c:	d8c02b03 	ldbu	r3,172(sp)
 8047ca0:	d8c02785 	stb	r3,158(sp)
 8047ca4:	003a3506 	br	804657c <__alt_data_end+0xfffde4dc>
 8047ca8:	d8c02b03 	ldbu	r3,172(sp)
 8047cac:	d8c02785 	stb	r3,158(sp)
 8047cb0:	003a1706 	br	8046510 <__alt_data_end+0xfffde470>
 8047cb4:	0005883a 	mov	r2,zero
 8047cb8:	003f5d06 	br	8047a30 <__alt_data_end+0xfffdf990>
 8047cbc:	d8c02b03 	ldbu	r3,172(sp)
 8047cc0:	d8c02785 	stb	r3,158(sp)
 8047cc4:	0038f306 	br	8046094 <__alt_data_end+0xfffddff4>
 8047cc8:	d8c02b03 	ldbu	r3,172(sp)
 8047ccc:	d8c02785 	stb	r3,158(sp)
 8047cd0:	0038be06 	br	8045fcc <__alt_data_end+0xfffddf2c>
 8047cd4:	d8802344 	addi	r2,sp,141
 8047cd8:	003f0506 	br	80478f0 <__alt_data_end+0xfffdf850>
 8047cdc:	d8c02b03 	ldbu	r3,172(sp)
 8047ce0:	d8c02785 	stb	r3,158(sp)
 8047ce4:	00388b06 	br	8045f14 <__alt_data_end+0xfffdde74>
 8047ce8:	d8c02b03 	ldbu	r3,172(sp)
 8047cec:	d8c02785 	stb	r3,158(sp)
 8047cf0:	003ad706 	br	8046850 <__alt_data_end+0xfffde7b0>
 8047cf4:	d9403917 	ldw	r5,228(sp)
 8047cf8:	00800304 	movi	r2,12
 8047cfc:	28800015 	stw	r2,0(r5)
 8047d00:	00bfffc4 	movi	r2,-1
 8047d04:	00384306 	br	8045e14 <__alt_data_end+0xfffddd74>
 8047d08:	d8c02b03 	ldbu	r3,172(sp)
 8047d0c:	d8c02785 	stb	r3,158(sp)
 8047d10:	003ab606 	br	80467ec <__alt_data_end+0xfffde74c>
 8047d14:	d8c02b03 	ldbu	r3,172(sp)
 8047d18:	d8c02785 	stb	r3,158(sp)
 8047d1c:	003a8906 	br	8046744 <__alt_data_end+0xfffde6a4>

08047d20 <quorem>:
 8047d20:	defff204 	addi	sp,sp,-56
 8047d24:	ddc00b15 	stw	r23,44(sp)
 8047d28:	20800417 	ldw	r2,16(r4)
 8047d2c:	2dc00417 	ldw	r23,16(r5)
 8047d30:	dfc00d15 	stw	ra,52(sp)
 8047d34:	df000c15 	stw	fp,48(sp)
 8047d38:	dd800a15 	stw	r22,40(sp)
 8047d3c:	dd400915 	stw	r21,36(sp)
 8047d40:	dd000815 	stw	r20,32(sp)
 8047d44:	dcc00715 	stw	r19,28(sp)
 8047d48:	dc800615 	stw	r18,24(sp)
 8047d4c:	dc400515 	stw	r17,20(sp)
 8047d50:	dc000415 	stw	r16,16(sp)
 8047d54:	15c07a16 	blt	r2,r23,8047f40 <quorem+0x220>
 8047d58:	bdffffc4 	addi	r23,r23,-1
 8047d5c:	bde9883a 	add	r20,r23,r23
 8047d60:	28c00504 	addi	r3,r5,20
 8047d64:	a529883a 	add	r20,r20,r20
 8047d68:	1d39883a 	add	fp,r3,r20
 8047d6c:	24c00504 	addi	r19,r4,20
 8047d70:	d9400215 	stw	r5,8(sp)
 8047d74:	9d29883a 	add	r20,r19,r20
 8047d78:	e1400017 	ldw	r5,0(fp)
 8047d7c:	d9000015 	stw	r4,0(sp)
 8047d80:	a1000017 	ldw	r4,0(r20)
 8047d84:	29400044 	addi	r5,r5,1
 8047d88:	d8c00115 	stw	r3,4(sp)
 8047d8c:	dd000315 	stw	r20,12(sp)
 8047d90:	8042cf00 	call	8042cf0 <__udivsi3>
 8047d94:	1025883a 	mov	r18,r2
 8047d98:	10003026 	beq	r2,zero,8047e5c <quorem+0x13c>
 8047d9c:	dc400117 	ldw	r17,4(sp)
 8047da0:	9829883a 	mov	r20,r19
 8047da4:	002d883a 	mov	r22,zero
 8047da8:	0021883a 	mov	r16,zero
 8047dac:	8d400017 	ldw	r21,0(r17)
 8047db0:	900b883a 	mov	r5,r18
 8047db4:	8c400104 	addi	r17,r17,4
 8047db8:	a93fffcc 	andi	r4,r21,65535
 8047dbc:	8042dac0 	call	8042dac <__mulsi3>
 8047dc0:	a808d43a 	srli	r4,r21,16
 8047dc4:	900b883a 	mov	r5,r18
 8047dc8:	15ad883a 	add	r22,r2,r22
 8047dcc:	8042dac0 	call	8042dac <__mulsi3>
 8047dd0:	a1000017 	ldw	r4,0(r20)
 8047dd4:	b00cd43a 	srli	r6,r22,16
 8047dd8:	b0ffffcc 	andi	r3,r22,65535
 8047ddc:	217fffcc 	andi	r5,r4,65535
 8047de0:	2c21883a 	add	r16,r5,r16
 8047de4:	80c7c83a 	sub	r3,r16,r3
 8047de8:	2008d43a 	srli	r4,r4,16
 8047dec:	1185883a 	add	r2,r2,r6
 8047df0:	1821d43a 	srai	r16,r3,16
 8047df4:	117fffcc 	andi	r5,r2,65535
 8047df8:	2149c83a 	sub	r4,r4,r5
 8047dfc:	2421883a 	add	r16,r4,r16
 8047e00:	8008943a 	slli	r4,r16,16
 8047e04:	18ffffcc 	andi	r3,r3,65535
 8047e08:	102cd43a 	srli	r22,r2,16
 8047e0c:	20c8b03a 	or	r4,r4,r3
 8047e10:	a1000015 	stw	r4,0(r20)
 8047e14:	8021d43a 	srai	r16,r16,16
 8047e18:	a5000104 	addi	r20,r20,4
 8047e1c:	e47fe32e 	bgeu	fp,r17,8047dac <__alt_data_end+0xfffdfd0c>
 8047e20:	d8c00317 	ldw	r3,12(sp)
 8047e24:	18800017 	ldw	r2,0(r3)
 8047e28:	10000c1e 	bne	r2,zero,8047e5c <quorem+0x13c>
 8047e2c:	18bfff04 	addi	r2,r3,-4
 8047e30:	9880082e 	bgeu	r19,r2,8047e54 <quorem+0x134>
 8047e34:	18ffff17 	ldw	r3,-4(r3)
 8047e38:	18000326 	beq	r3,zero,8047e48 <quorem+0x128>
 8047e3c:	00000506 	br	8047e54 <quorem+0x134>
 8047e40:	10c00017 	ldw	r3,0(r2)
 8047e44:	1800031e 	bne	r3,zero,8047e54 <quorem+0x134>
 8047e48:	10bfff04 	addi	r2,r2,-4
 8047e4c:	bdffffc4 	addi	r23,r23,-1
 8047e50:	98bffb36 	bltu	r19,r2,8047e40 <__alt_data_end+0xfffdfda0>
 8047e54:	d8c00017 	ldw	r3,0(sp)
 8047e58:	1dc00415 	stw	r23,16(r3)
 8047e5c:	d9400217 	ldw	r5,8(sp)
 8047e60:	d9000017 	ldw	r4,0(sp)
 8047e64:	804b47c0 	call	804b47c <__mcmp>
 8047e68:	10002816 	blt	r2,zero,8047f0c <quorem+0x1ec>
 8047e6c:	dc400117 	ldw	r17,4(sp)
 8047e70:	94800044 	addi	r18,r18,1
 8047e74:	980d883a 	mov	r6,r19
 8047e78:	0007883a 	mov	r3,zero
 8047e7c:	31000017 	ldw	r4,0(r6)
 8047e80:	89400017 	ldw	r5,0(r17)
 8047e84:	31800104 	addi	r6,r6,4
 8047e88:	20bfffcc 	andi	r2,r4,65535
 8047e8c:	10c7883a 	add	r3,r2,r3
 8047e90:	28bfffcc 	andi	r2,r5,65535
 8047e94:	1885c83a 	sub	r2,r3,r2
 8047e98:	280ad43a 	srli	r5,r5,16
 8047e9c:	2008d43a 	srli	r4,r4,16
 8047ea0:	1007d43a 	srai	r3,r2,16
 8047ea4:	10bfffcc 	andi	r2,r2,65535
 8047ea8:	2149c83a 	sub	r4,r4,r5
 8047eac:	20c9883a 	add	r4,r4,r3
 8047eb0:	200a943a 	slli	r5,r4,16
 8047eb4:	8c400104 	addi	r17,r17,4
 8047eb8:	2007d43a 	srai	r3,r4,16
 8047ebc:	2884b03a 	or	r2,r5,r2
 8047ec0:	30bfff15 	stw	r2,-4(r6)
 8047ec4:	e47fed2e 	bgeu	fp,r17,8047e7c <__alt_data_end+0xfffdfddc>
 8047ec8:	bdc5883a 	add	r2,r23,r23
 8047ecc:	1085883a 	add	r2,r2,r2
 8047ed0:	9887883a 	add	r3,r19,r2
 8047ed4:	18800017 	ldw	r2,0(r3)
 8047ed8:	10000c1e 	bne	r2,zero,8047f0c <quorem+0x1ec>
 8047edc:	18bfff04 	addi	r2,r3,-4
 8047ee0:	9880082e 	bgeu	r19,r2,8047f04 <quorem+0x1e4>
 8047ee4:	18ffff17 	ldw	r3,-4(r3)
 8047ee8:	18000326 	beq	r3,zero,8047ef8 <quorem+0x1d8>
 8047eec:	00000506 	br	8047f04 <quorem+0x1e4>
 8047ef0:	10c00017 	ldw	r3,0(r2)
 8047ef4:	1800031e 	bne	r3,zero,8047f04 <quorem+0x1e4>
 8047ef8:	10bfff04 	addi	r2,r2,-4
 8047efc:	bdffffc4 	addi	r23,r23,-1
 8047f00:	98bffb36 	bltu	r19,r2,8047ef0 <__alt_data_end+0xfffdfe50>
 8047f04:	d8c00017 	ldw	r3,0(sp)
 8047f08:	1dc00415 	stw	r23,16(r3)
 8047f0c:	9005883a 	mov	r2,r18
 8047f10:	dfc00d17 	ldw	ra,52(sp)
 8047f14:	df000c17 	ldw	fp,48(sp)
 8047f18:	ddc00b17 	ldw	r23,44(sp)
 8047f1c:	dd800a17 	ldw	r22,40(sp)
 8047f20:	dd400917 	ldw	r21,36(sp)
 8047f24:	dd000817 	ldw	r20,32(sp)
 8047f28:	dcc00717 	ldw	r19,28(sp)
 8047f2c:	dc800617 	ldw	r18,24(sp)
 8047f30:	dc400517 	ldw	r17,20(sp)
 8047f34:	dc000417 	ldw	r16,16(sp)
 8047f38:	dec00e04 	addi	sp,sp,56
 8047f3c:	f800283a 	ret
 8047f40:	0005883a 	mov	r2,zero
 8047f44:	003ff206 	br	8047f10 <__alt_data_end+0xfffdfe70>

08047f48 <_dtoa_r>:
 8047f48:	20801017 	ldw	r2,64(r4)
 8047f4c:	deffde04 	addi	sp,sp,-136
 8047f50:	df002015 	stw	fp,128(sp)
 8047f54:	dcc01b15 	stw	r19,108(sp)
 8047f58:	dc801a15 	stw	r18,104(sp)
 8047f5c:	dc401915 	stw	r17,100(sp)
 8047f60:	dc001815 	stw	r16,96(sp)
 8047f64:	dfc02115 	stw	ra,132(sp)
 8047f68:	ddc01f15 	stw	r23,124(sp)
 8047f6c:	dd801e15 	stw	r22,120(sp)
 8047f70:	dd401d15 	stw	r21,116(sp)
 8047f74:	dd001c15 	stw	r20,112(sp)
 8047f78:	d9c00315 	stw	r7,12(sp)
 8047f7c:	2039883a 	mov	fp,r4
 8047f80:	3023883a 	mov	r17,r6
 8047f84:	2825883a 	mov	r18,r5
 8047f88:	dc002417 	ldw	r16,144(sp)
 8047f8c:	3027883a 	mov	r19,r6
 8047f90:	10000826 	beq	r2,zero,8047fb4 <_dtoa_r+0x6c>
 8047f94:	21801117 	ldw	r6,68(r4)
 8047f98:	00c00044 	movi	r3,1
 8047f9c:	100b883a 	mov	r5,r2
 8047fa0:	1986983a 	sll	r3,r3,r6
 8047fa4:	11800115 	stw	r6,4(r2)
 8047fa8:	10c00215 	stw	r3,8(r2)
 8047fac:	804aba00 	call	804aba0 <_Bfree>
 8047fb0:	e0001015 	stw	zero,64(fp)
 8047fb4:	88002e16 	blt	r17,zero,8048070 <_dtoa_r+0x128>
 8047fb8:	80000015 	stw	zero,0(r16)
 8047fbc:	889ffc2c 	andhi	r2,r17,32752
 8047fc0:	00dffc34 	movhi	r3,32752
 8047fc4:	10c01c26 	beq	r2,r3,8048038 <_dtoa_r+0xf0>
 8047fc8:	000d883a 	mov	r6,zero
 8047fcc:	000f883a 	mov	r7,zero
 8047fd0:	9009883a 	mov	r4,r18
 8047fd4:	980b883a 	mov	r5,r19
 8047fd8:	804fccc0 	call	804fccc <__eqdf2>
 8047fdc:	10002b1e 	bne	r2,zero,804808c <_dtoa_r+0x144>
 8047fe0:	d9c02317 	ldw	r7,140(sp)
 8047fe4:	00800044 	movi	r2,1
 8047fe8:	38800015 	stw	r2,0(r7)
 8047fec:	d8802517 	ldw	r2,148(sp)
 8047ff0:	10019e26 	beq	r2,zero,804866c <_dtoa_r+0x724>
 8047ff4:	d8c02517 	ldw	r3,148(sp)
 8047ff8:	00820174 	movhi	r2,2053
 8047ffc:	10917244 	addi	r2,r2,17865
 8048000:	18800015 	stw	r2,0(r3)
 8048004:	10bfffc4 	addi	r2,r2,-1
 8048008:	dfc02117 	ldw	ra,132(sp)
 804800c:	df002017 	ldw	fp,128(sp)
 8048010:	ddc01f17 	ldw	r23,124(sp)
 8048014:	dd801e17 	ldw	r22,120(sp)
 8048018:	dd401d17 	ldw	r21,116(sp)
 804801c:	dd001c17 	ldw	r20,112(sp)
 8048020:	dcc01b17 	ldw	r19,108(sp)
 8048024:	dc801a17 	ldw	r18,104(sp)
 8048028:	dc401917 	ldw	r17,100(sp)
 804802c:	dc001817 	ldw	r16,96(sp)
 8048030:	dec02204 	addi	sp,sp,136
 8048034:	f800283a 	ret
 8048038:	d8c02317 	ldw	r3,140(sp)
 804803c:	0089c3c4 	movi	r2,9999
 8048040:	18800015 	stw	r2,0(r3)
 8048044:	90017726 	beq	r18,zero,8048624 <_dtoa_r+0x6dc>
 8048048:	00820174 	movhi	r2,2053
 804804c:	10917e04 	addi	r2,r2,17912
 8048050:	d9002517 	ldw	r4,148(sp)
 8048054:	203fec26 	beq	r4,zero,8048008 <__alt_data_end+0xfffdff68>
 8048058:	10c000c7 	ldb	r3,3(r2)
 804805c:	1801781e 	bne	r3,zero,8048640 <_dtoa_r+0x6f8>
 8048060:	10c000c4 	addi	r3,r2,3
 8048064:	d9802517 	ldw	r6,148(sp)
 8048068:	30c00015 	stw	r3,0(r6)
 804806c:	003fe606 	br	8048008 <__alt_data_end+0xfffdff68>
 8048070:	04e00034 	movhi	r19,32768
 8048074:	9cffffc4 	addi	r19,r19,-1
 8048078:	00800044 	movi	r2,1
 804807c:	8ce6703a 	and	r19,r17,r19
 8048080:	80800015 	stw	r2,0(r16)
 8048084:	9823883a 	mov	r17,r19
 8048088:	003fcc06 	br	8047fbc <__alt_data_end+0xfffdff1c>
 804808c:	d8800204 	addi	r2,sp,8
 8048090:	d8800015 	stw	r2,0(sp)
 8048094:	d9c00104 	addi	r7,sp,4
 8048098:	900b883a 	mov	r5,r18
 804809c:	980d883a 	mov	r6,r19
 80480a0:	e009883a 	mov	r4,fp
 80480a4:	8820d53a 	srli	r16,r17,20
 80480a8:	804b8480 	call	804b848 <__d2b>
 80480ac:	d8800915 	stw	r2,36(sp)
 80480b0:	8001651e 	bne	r16,zero,8048648 <_dtoa_r+0x700>
 80480b4:	dd800217 	ldw	r22,8(sp)
 80480b8:	dc000117 	ldw	r16,4(sp)
 80480bc:	00800804 	movi	r2,32
 80480c0:	b421883a 	add	r16,r22,r16
 80480c4:	80c10c84 	addi	r3,r16,1074
 80480c8:	10c2d10e 	bge	r2,r3,8048c10 <_dtoa_r+0xcc8>
 80480cc:	00801004 	movi	r2,64
 80480d0:	81010484 	addi	r4,r16,1042
 80480d4:	10c7c83a 	sub	r3,r2,r3
 80480d8:	9108d83a 	srl	r4,r18,r4
 80480dc:	88e2983a 	sll	r17,r17,r3
 80480e0:	2448b03a 	or	r4,r4,r17
 80480e4:	804fe300 	call	804fe30 <__floatunsidf>
 80480e8:	017f8434 	movhi	r5,65040
 80480ec:	01800044 	movi	r6,1
 80480f0:	1009883a 	mov	r4,r2
 80480f4:	194b883a 	add	r5,r3,r5
 80480f8:	843fffc4 	addi	r16,r16,-1
 80480fc:	d9801115 	stw	r6,68(sp)
 8048100:	000d883a 	mov	r6,zero
 8048104:	01cffe34 	movhi	r7,16376
 8048108:	80448b00 	call	80448b0 <__subdf3>
 804810c:	0198dbf4 	movhi	r6,25455
 8048110:	01cff4f4 	movhi	r7,16339
 8048114:	3190d844 	addi	r6,r6,17249
 8048118:	39e1e9c4 	addi	r7,r7,-30809
 804811c:	1009883a 	mov	r4,r2
 8048120:	180b883a 	mov	r5,r3
 8048124:	80440440 	call	8044044 <__muldf3>
 8048128:	01a2d874 	movhi	r6,35681
 804812c:	01cff1f4 	movhi	r7,16327
 8048130:	31b22cc4 	addi	r6,r6,-14157
 8048134:	39e28a04 	addi	r7,r7,-30168
 8048138:	180b883a 	mov	r5,r3
 804813c:	1009883a 	mov	r4,r2
 8048140:	804f4200 	call	804f420 <__adddf3>
 8048144:	8009883a 	mov	r4,r16
 8048148:	1029883a 	mov	r20,r2
 804814c:	1823883a 	mov	r17,r3
 8048150:	804fd540 	call	804fd54 <__floatsidf>
 8048154:	019427f4 	movhi	r6,20639
 8048158:	01cff4f4 	movhi	r7,16339
 804815c:	319e7ec4 	addi	r6,r6,31227
 8048160:	39d104c4 	addi	r7,r7,17427
 8048164:	1009883a 	mov	r4,r2
 8048168:	180b883a 	mov	r5,r3
 804816c:	80440440 	call	8044044 <__muldf3>
 8048170:	100d883a 	mov	r6,r2
 8048174:	180f883a 	mov	r7,r3
 8048178:	a009883a 	mov	r4,r20
 804817c:	880b883a 	mov	r5,r17
 8048180:	804f4200 	call	804f420 <__adddf3>
 8048184:	1009883a 	mov	r4,r2
 8048188:	180b883a 	mov	r5,r3
 804818c:	1029883a 	mov	r20,r2
 8048190:	1823883a 	mov	r17,r3
 8048194:	80451ac0 	call	80451ac <__fixdfsi>
 8048198:	000d883a 	mov	r6,zero
 804819c:	000f883a 	mov	r7,zero
 80481a0:	a009883a 	mov	r4,r20
 80481a4:	880b883a 	mov	r5,r17
 80481a8:	d8800515 	stw	r2,20(sp)
 80481ac:	8043f500 	call	8043f50 <__ledf2>
 80481b0:	10028716 	blt	r2,zero,8048bd0 <_dtoa_r+0xc88>
 80481b4:	d8c00517 	ldw	r3,20(sp)
 80481b8:	00800584 	movi	r2,22
 80481bc:	10c27536 	bltu	r2,r3,8048b94 <_dtoa_r+0xc4c>
 80481c0:	180490fa 	slli	r2,r3,3
 80481c4:	00c20174 	movhi	r3,2053
 80481c8:	18d19a04 	addi	r3,r3,18024
 80481cc:	1885883a 	add	r2,r3,r2
 80481d0:	11000017 	ldw	r4,0(r2)
 80481d4:	11400117 	ldw	r5,4(r2)
 80481d8:	900d883a 	mov	r6,r18
 80481dc:	980f883a 	mov	r7,r19
 80481e0:	8043e740 	call	8043e74 <__gedf2>
 80481e4:	00828d0e 	bge	zero,r2,8048c1c <_dtoa_r+0xcd4>
 80481e8:	d9000517 	ldw	r4,20(sp)
 80481ec:	d8000e15 	stw	zero,56(sp)
 80481f0:	213fffc4 	addi	r4,r4,-1
 80481f4:	d9000515 	stw	r4,20(sp)
 80481f8:	b42dc83a 	sub	r22,r22,r16
 80481fc:	b5bfffc4 	addi	r22,r22,-1
 8048200:	b0026f16 	blt	r22,zero,8048bc0 <_dtoa_r+0xc78>
 8048204:	d8000815 	stw	zero,32(sp)
 8048208:	d9c00517 	ldw	r7,20(sp)
 804820c:	38026416 	blt	r7,zero,8048ba0 <_dtoa_r+0xc58>
 8048210:	b1ed883a 	add	r22,r22,r7
 8048214:	d9c00d15 	stw	r7,52(sp)
 8048218:	d8000a15 	stw	zero,40(sp)
 804821c:	d9800317 	ldw	r6,12(sp)
 8048220:	00800244 	movi	r2,9
 8048224:	11811436 	bltu	r2,r6,8048678 <_dtoa_r+0x730>
 8048228:	00800144 	movi	r2,5
 804822c:	1184e10e 	bge	r2,r6,80495b4 <_dtoa_r+0x166c>
 8048230:	31bfff04 	addi	r6,r6,-4
 8048234:	d9800315 	stw	r6,12(sp)
 8048238:	0023883a 	mov	r17,zero
 804823c:	d9800317 	ldw	r6,12(sp)
 8048240:	008000c4 	movi	r2,3
 8048244:	30836726 	beq	r6,r2,8048fe4 <_dtoa_r+0x109c>
 8048248:	1183410e 	bge	r2,r6,8048f50 <_dtoa_r+0x1008>
 804824c:	d9c00317 	ldw	r7,12(sp)
 8048250:	00800104 	movi	r2,4
 8048254:	38827c26 	beq	r7,r2,8048c48 <_dtoa_r+0xd00>
 8048258:	00800144 	movi	r2,5
 804825c:	3884c41e 	bne	r7,r2,8049570 <_dtoa_r+0x1628>
 8048260:	00800044 	movi	r2,1
 8048264:	d8800b15 	stw	r2,44(sp)
 8048268:	d8c00517 	ldw	r3,20(sp)
 804826c:	d9002217 	ldw	r4,136(sp)
 8048270:	1907883a 	add	r3,r3,r4
 8048274:	19800044 	addi	r6,r3,1
 8048278:	d8c00c15 	stw	r3,48(sp)
 804827c:	d9800615 	stw	r6,24(sp)
 8048280:	0183a40e 	bge	zero,r6,8049114 <_dtoa_r+0x11cc>
 8048284:	d9800617 	ldw	r6,24(sp)
 8048288:	3021883a 	mov	r16,r6
 804828c:	e0001115 	stw	zero,68(fp)
 8048290:	008005c4 	movi	r2,23
 8048294:	1184c92e 	bgeu	r2,r6,80495bc <_dtoa_r+0x1674>
 8048298:	00c00044 	movi	r3,1
 804829c:	00800104 	movi	r2,4
 80482a0:	1085883a 	add	r2,r2,r2
 80482a4:	11000504 	addi	r4,r2,20
 80482a8:	180b883a 	mov	r5,r3
 80482ac:	18c00044 	addi	r3,r3,1
 80482b0:	313ffb2e 	bgeu	r6,r4,80482a0 <__alt_data_end+0xfffe0200>
 80482b4:	e1401115 	stw	r5,68(fp)
 80482b8:	e009883a 	mov	r4,fp
 80482bc:	804aaf80 	call	804aaf8 <_Balloc>
 80482c0:	d8800715 	stw	r2,28(sp)
 80482c4:	e0801015 	stw	r2,64(fp)
 80482c8:	00800384 	movi	r2,14
 80482cc:	1400f736 	bltu	r2,r16,80486ac <_dtoa_r+0x764>
 80482d0:	8800f626 	beq	r17,zero,80486ac <_dtoa_r+0x764>
 80482d4:	d9c00517 	ldw	r7,20(sp)
 80482d8:	01c39a0e 	bge	zero,r7,8049144 <_dtoa_r+0x11fc>
 80482dc:	388003cc 	andi	r2,r7,15
 80482e0:	100490fa 	slli	r2,r2,3
 80482e4:	382bd13a 	srai	r21,r7,4
 80482e8:	00c20174 	movhi	r3,2053
 80482ec:	18d19a04 	addi	r3,r3,18024
 80482f0:	1885883a 	add	r2,r3,r2
 80482f4:	a8c0040c 	andi	r3,r21,16
 80482f8:	12400017 	ldw	r9,0(r2)
 80482fc:	12000117 	ldw	r8,4(r2)
 8048300:	18037926 	beq	r3,zero,80490e8 <_dtoa_r+0x11a0>
 8048304:	00820174 	movhi	r2,2053
 8048308:	10919004 	addi	r2,r2,17984
 804830c:	11800817 	ldw	r6,32(r2)
 8048310:	11c00917 	ldw	r7,36(r2)
 8048314:	9009883a 	mov	r4,r18
 8048318:	980b883a 	mov	r5,r19
 804831c:	da001715 	stw	r8,92(sp)
 8048320:	da401615 	stw	r9,88(sp)
 8048324:	80434a40 	call	80434a4 <__divdf3>
 8048328:	da001717 	ldw	r8,92(sp)
 804832c:	da401617 	ldw	r9,88(sp)
 8048330:	ad4003cc 	andi	r21,r21,15
 8048334:	040000c4 	movi	r16,3
 8048338:	1023883a 	mov	r17,r2
 804833c:	1829883a 	mov	r20,r3
 8048340:	a8001126 	beq	r21,zero,8048388 <_dtoa_r+0x440>
 8048344:	05c20174 	movhi	r23,2053
 8048348:	bdd19004 	addi	r23,r23,17984
 804834c:	4805883a 	mov	r2,r9
 8048350:	4007883a 	mov	r3,r8
 8048354:	a980004c 	andi	r6,r21,1
 8048358:	1009883a 	mov	r4,r2
 804835c:	a82bd07a 	srai	r21,r21,1
 8048360:	180b883a 	mov	r5,r3
 8048364:	30000426 	beq	r6,zero,8048378 <_dtoa_r+0x430>
 8048368:	b9800017 	ldw	r6,0(r23)
 804836c:	b9c00117 	ldw	r7,4(r23)
 8048370:	84000044 	addi	r16,r16,1
 8048374:	80440440 	call	8044044 <__muldf3>
 8048378:	bdc00204 	addi	r23,r23,8
 804837c:	a83ff51e 	bne	r21,zero,8048354 <__alt_data_end+0xfffe02b4>
 8048380:	1013883a 	mov	r9,r2
 8048384:	1811883a 	mov	r8,r3
 8048388:	480d883a 	mov	r6,r9
 804838c:	400f883a 	mov	r7,r8
 8048390:	8809883a 	mov	r4,r17
 8048394:	a00b883a 	mov	r5,r20
 8048398:	80434a40 	call	80434a4 <__divdf3>
 804839c:	d8800f15 	stw	r2,60(sp)
 80483a0:	d8c01015 	stw	r3,64(sp)
 80483a4:	d8c00e17 	ldw	r3,56(sp)
 80483a8:	18000626 	beq	r3,zero,80483c4 <_dtoa_r+0x47c>
 80483ac:	d9000f17 	ldw	r4,60(sp)
 80483b0:	d9401017 	ldw	r5,64(sp)
 80483b4:	000d883a 	mov	r6,zero
 80483b8:	01cffc34 	movhi	r7,16368
 80483bc:	8043f500 	call	8043f50 <__ledf2>
 80483c0:	10040b16 	blt	r2,zero,80493f0 <_dtoa_r+0x14a8>
 80483c4:	8009883a 	mov	r4,r16
 80483c8:	804fd540 	call	804fd54 <__floatsidf>
 80483cc:	d9800f17 	ldw	r6,60(sp)
 80483d0:	d9c01017 	ldw	r7,64(sp)
 80483d4:	1009883a 	mov	r4,r2
 80483d8:	180b883a 	mov	r5,r3
 80483dc:	80440440 	call	8044044 <__muldf3>
 80483e0:	000d883a 	mov	r6,zero
 80483e4:	01d00734 	movhi	r7,16412
 80483e8:	1009883a 	mov	r4,r2
 80483ec:	180b883a 	mov	r5,r3
 80483f0:	804f4200 	call	804f420 <__adddf3>
 80483f4:	1021883a 	mov	r16,r2
 80483f8:	d8800617 	ldw	r2,24(sp)
 80483fc:	047f3034 	movhi	r17,64704
 8048400:	1c63883a 	add	r17,r3,r17
 8048404:	10031826 	beq	r2,zero,8049068 <_dtoa_r+0x1120>
 8048408:	d8c00517 	ldw	r3,20(sp)
 804840c:	db000617 	ldw	r12,24(sp)
 8048410:	d8c01315 	stw	r3,76(sp)
 8048414:	d9000b17 	ldw	r4,44(sp)
 8048418:	20038f26 	beq	r4,zero,8049258 <_dtoa_r+0x1310>
 804841c:	60bfffc4 	addi	r2,r12,-1
 8048420:	100490fa 	slli	r2,r2,3
 8048424:	00c20174 	movhi	r3,2053
 8048428:	18d19a04 	addi	r3,r3,18024
 804842c:	1885883a 	add	r2,r3,r2
 8048430:	11800017 	ldw	r6,0(r2)
 8048434:	11c00117 	ldw	r7,4(r2)
 8048438:	d8800717 	ldw	r2,28(sp)
 804843c:	0009883a 	mov	r4,zero
 8048440:	014ff834 	movhi	r5,16352
 8048444:	db001615 	stw	r12,88(sp)
 8048448:	15c00044 	addi	r23,r2,1
 804844c:	80434a40 	call	80434a4 <__divdf3>
 8048450:	800d883a 	mov	r6,r16
 8048454:	880f883a 	mov	r7,r17
 8048458:	1009883a 	mov	r4,r2
 804845c:	180b883a 	mov	r5,r3
 8048460:	80448b00 	call	80448b0 <__subdf3>
 8048464:	d9401017 	ldw	r5,64(sp)
 8048468:	d9000f17 	ldw	r4,60(sp)
 804846c:	102b883a 	mov	r21,r2
 8048470:	d8c01215 	stw	r3,72(sp)
 8048474:	80451ac0 	call	80451ac <__fixdfsi>
 8048478:	1009883a 	mov	r4,r2
 804847c:	1029883a 	mov	r20,r2
 8048480:	804fd540 	call	804fd54 <__floatsidf>
 8048484:	d9000f17 	ldw	r4,60(sp)
 8048488:	d9401017 	ldw	r5,64(sp)
 804848c:	100d883a 	mov	r6,r2
 8048490:	180f883a 	mov	r7,r3
 8048494:	80448b00 	call	80448b0 <__subdf3>
 8048498:	1823883a 	mov	r17,r3
 804849c:	d8c00717 	ldw	r3,28(sp)
 80484a0:	d9401217 	ldw	r5,72(sp)
 80484a4:	a2000c04 	addi	r8,r20,48
 80484a8:	1021883a 	mov	r16,r2
 80484ac:	1a000005 	stb	r8,0(r3)
 80484b0:	800d883a 	mov	r6,r16
 80484b4:	880f883a 	mov	r7,r17
 80484b8:	a809883a 	mov	r4,r21
 80484bc:	4029883a 	mov	r20,r8
 80484c0:	8043e740 	call	8043e74 <__gedf2>
 80484c4:	00841d16 	blt	zero,r2,804953c <_dtoa_r+0x15f4>
 80484c8:	800d883a 	mov	r6,r16
 80484cc:	880f883a 	mov	r7,r17
 80484d0:	0009883a 	mov	r4,zero
 80484d4:	014ffc34 	movhi	r5,16368
 80484d8:	80448b00 	call	80448b0 <__subdf3>
 80484dc:	d9401217 	ldw	r5,72(sp)
 80484e0:	100d883a 	mov	r6,r2
 80484e4:	180f883a 	mov	r7,r3
 80484e8:	a809883a 	mov	r4,r21
 80484ec:	8043e740 	call	8043e74 <__gedf2>
 80484f0:	db001617 	ldw	r12,88(sp)
 80484f4:	00840e16 	blt	zero,r2,8049530 <_dtoa_r+0x15e8>
 80484f8:	00800044 	movi	r2,1
 80484fc:	13006b0e 	bge	r2,r12,80486ac <_dtoa_r+0x764>
 8048500:	d9000717 	ldw	r4,28(sp)
 8048504:	dd800f15 	stw	r22,60(sp)
 8048508:	dcc01015 	stw	r19,64(sp)
 804850c:	2319883a 	add	r12,r4,r12
 8048510:	dcc01217 	ldw	r19,72(sp)
 8048514:	602d883a 	mov	r22,r12
 8048518:	dc801215 	stw	r18,72(sp)
 804851c:	b825883a 	mov	r18,r23
 8048520:	00000906 	br	8048548 <_dtoa_r+0x600>
 8048524:	80448b00 	call	80448b0 <__subdf3>
 8048528:	a80d883a 	mov	r6,r21
 804852c:	980f883a 	mov	r7,r19
 8048530:	1009883a 	mov	r4,r2
 8048534:	180b883a 	mov	r5,r3
 8048538:	8043f500 	call	8043f50 <__ledf2>
 804853c:	1003e816 	blt	r2,zero,80494e0 <_dtoa_r+0x1598>
 8048540:	b825883a 	mov	r18,r23
 8048544:	bd83e926 	beq	r23,r22,80494ec <_dtoa_r+0x15a4>
 8048548:	a809883a 	mov	r4,r21
 804854c:	980b883a 	mov	r5,r19
 8048550:	000d883a 	mov	r6,zero
 8048554:	01d00934 	movhi	r7,16420
 8048558:	80440440 	call	8044044 <__muldf3>
 804855c:	000d883a 	mov	r6,zero
 8048560:	01d00934 	movhi	r7,16420
 8048564:	8009883a 	mov	r4,r16
 8048568:	880b883a 	mov	r5,r17
 804856c:	102b883a 	mov	r21,r2
 8048570:	1827883a 	mov	r19,r3
 8048574:	80440440 	call	8044044 <__muldf3>
 8048578:	180b883a 	mov	r5,r3
 804857c:	1009883a 	mov	r4,r2
 8048580:	1821883a 	mov	r16,r3
 8048584:	1023883a 	mov	r17,r2
 8048588:	80451ac0 	call	80451ac <__fixdfsi>
 804858c:	1009883a 	mov	r4,r2
 8048590:	1029883a 	mov	r20,r2
 8048594:	804fd540 	call	804fd54 <__floatsidf>
 8048598:	8809883a 	mov	r4,r17
 804859c:	800b883a 	mov	r5,r16
 80485a0:	100d883a 	mov	r6,r2
 80485a4:	180f883a 	mov	r7,r3
 80485a8:	80448b00 	call	80448b0 <__subdf3>
 80485ac:	a5000c04 	addi	r20,r20,48
 80485b0:	a80d883a 	mov	r6,r21
 80485b4:	980f883a 	mov	r7,r19
 80485b8:	1009883a 	mov	r4,r2
 80485bc:	180b883a 	mov	r5,r3
 80485c0:	95000005 	stb	r20,0(r18)
 80485c4:	1021883a 	mov	r16,r2
 80485c8:	1823883a 	mov	r17,r3
 80485cc:	8043f500 	call	8043f50 <__ledf2>
 80485d0:	bdc00044 	addi	r23,r23,1
 80485d4:	800d883a 	mov	r6,r16
 80485d8:	880f883a 	mov	r7,r17
 80485dc:	0009883a 	mov	r4,zero
 80485e0:	014ffc34 	movhi	r5,16368
 80485e4:	103fcf0e 	bge	r2,zero,8048524 <__alt_data_end+0xfffe0484>
 80485e8:	d8c01317 	ldw	r3,76(sp)
 80485ec:	d8c00515 	stw	r3,20(sp)
 80485f0:	d9400917 	ldw	r5,36(sp)
 80485f4:	e009883a 	mov	r4,fp
 80485f8:	804aba00 	call	804aba0 <_Bfree>
 80485fc:	d9000517 	ldw	r4,20(sp)
 8048600:	d9802317 	ldw	r6,140(sp)
 8048604:	d9c02517 	ldw	r7,148(sp)
 8048608:	b8000005 	stb	zero,0(r23)
 804860c:	20800044 	addi	r2,r4,1
 8048610:	30800015 	stw	r2,0(r6)
 8048614:	3802aa26 	beq	r7,zero,80490c0 <_dtoa_r+0x1178>
 8048618:	3dc00015 	stw	r23,0(r7)
 804861c:	d8800717 	ldw	r2,28(sp)
 8048620:	003e7906 	br	8048008 <__alt_data_end+0xfffdff68>
 8048624:	00800434 	movhi	r2,16
 8048628:	10bfffc4 	addi	r2,r2,-1
 804862c:	88a2703a 	and	r17,r17,r2
 8048630:	883e851e 	bne	r17,zero,8048048 <__alt_data_end+0xfffdffa8>
 8048634:	00820174 	movhi	r2,2053
 8048638:	10917b04 	addi	r2,r2,17900
 804863c:	003e8406 	br	8048050 <__alt_data_end+0xfffdffb0>
 8048640:	10c00204 	addi	r3,r2,8
 8048644:	003e8706 	br	8048064 <__alt_data_end+0xfffdffc4>
 8048648:	01400434 	movhi	r5,16
 804864c:	297fffc4 	addi	r5,r5,-1
 8048650:	994a703a 	and	r5,r19,r5
 8048654:	9009883a 	mov	r4,r18
 8048658:	843f0044 	addi	r16,r16,-1023
 804865c:	294ffc34 	orhi	r5,r5,16368
 8048660:	dd800217 	ldw	r22,8(sp)
 8048664:	d8001115 	stw	zero,68(sp)
 8048668:	003ea506 	br	8048100 <__alt_data_end+0xfffe0060>
 804866c:	00820174 	movhi	r2,2053
 8048670:	10917204 	addi	r2,r2,17864
 8048674:	003e6406 	br	8048008 <__alt_data_end+0xfffdff68>
 8048678:	e0001115 	stw	zero,68(fp)
 804867c:	000b883a 	mov	r5,zero
 8048680:	e009883a 	mov	r4,fp
 8048684:	804aaf80 	call	804aaf8 <_Balloc>
 8048688:	01bfffc4 	movi	r6,-1
 804868c:	01c00044 	movi	r7,1
 8048690:	d8800715 	stw	r2,28(sp)
 8048694:	d9800c15 	stw	r6,48(sp)
 8048698:	e0801015 	stw	r2,64(fp)
 804869c:	d8000315 	stw	zero,12(sp)
 80486a0:	d9c00b15 	stw	r7,44(sp)
 80486a4:	d9800615 	stw	r6,24(sp)
 80486a8:	d8002215 	stw	zero,136(sp)
 80486ac:	d8800117 	ldw	r2,4(sp)
 80486b0:	10008916 	blt	r2,zero,80488d8 <_dtoa_r+0x990>
 80486b4:	d9000517 	ldw	r4,20(sp)
 80486b8:	00c00384 	movi	r3,14
 80486bc:	19008616 	blt	r3,r4,80488d8 <_dtoa_r+0x990>
 80486c0:	200490fa 	slli	r2,r4,3
 80486c4:	00c20174 	movhi	r3,2053
 80486c8:	d9802217 	ldw	r6,136(sp)
 80486cc:	18d19a04 	addi	r3,r3,18024
 80486d0:	1885883a 	add	r2,r3,r2
 80486d4:	14000017 	ldw	r16,0(r2)
 80486d8:	14400117 	ldw	r17,4(r2)
 80486dc:	30016316 	blt	r6,zero,8048c6c <_dtoa_r+0xd24>
 80486e0:	800d883a 	mov	r6,r16
 80486e4:	880f883a 	mov	r7,r17
 80486e8:	9009883a 	mov	r4,r18
 80486ec:	980b883a 	mov	r5,r19
 80486f0:	80434a40 	call	80434a4 <__divdf3>
 80486f4:	180b883a 	mov	r5,r3
 80486f8:	1009883a 	mov	r4,r2
 80486fc:	80451ac0 	call	80451ac <__fixdfsi>
 8048700:	1009883a 	mov	r4,r2
 8048704:	102b883a 	mov	r21,r2
 8048708:	804fd540 	call	804fd54 <__floatsidf>
 804870c:	800d883a 	mov	r6,r16
 8048710:	880f883a 	mov	r7,r17
 8048714:	1009883a 	mov	r4,r2
 8048718:	180b883a 	mov	r5,r3
 804871c:	80440440 	call	8044044 <__muldf3>
 8048720:	100d883a 	mov	r6,r2
 8048724:	180f883a 	mov	r7,r3
 8048728:	9009883a 	mov	r4,r18
 804872c:	980b883a 	mov	r5,r19
 8048730:	80448b00 	call	80448b0 <__subdf3>
 8048734:	d9c00717 	ldw	r7,28(sp)
 8048738:	1009883a 	mov	r4,r2
 804873c:	a8800c04 	addi	r2,r21,48
 8048740:	38800005 	stb	r2,0(r7)
 8048744:	3dc00044 	addi	r23,r7,1
 8048748:	d9c00617 	ldw	r7,24(sp)
 804874c:	01800044 	movi	r6,1
 8048750:	180b883a 	mov	r5,r3
 8048754:	2005883a 	mov	r2,r4
 8048758:	39803826 	beq	r7,r6,804883c <_dtoa_r+0x8f4>
 804875c:	000d883a 	mov	r6,zero
 8048760:	01d00934 	movhi	r7,16420
 8048764:	80440440 	call	8044044 <__muldf3>
 8048768:	000d883a 	mov	r6,zero
 804876c:	000f883a 	mov	r7,zero
 8048770:	1009883a 	mov	r4,r2
 8048774:	180b883a 	mov	r5,r3
 8048778:	1025883a 	mov	r18,r2
 804877c:	1827883a 	mov	r19,r3
 8048780:	804fccc0 	call	804fccc <__eqdf2>
 8048784:	103f9a26 	beq	r2,zero,80485f0 <__alt_data_end+0xfffe0550>
 8048788:	d9c00617 	ldw	r7,24(sp)
 804878c:	d8c00717 	ldw	r3,28(sp)
 8048790:	b829883a 	mov	r20,r23
 8048794:	38bfffc4 	addi	r2,r7,-1
 8048798:	18ad883a 	add	r22,r3,r2
 804879c:	00000a06 	br	80487c8 <_dtoa_r+0x880>
 80487a0:	80440440 	call	8044044 <__muldf3>
 80487a4:	000d883a 	mov	r6,zero
 80487a8:	000f883a 	mov	r7,zero
 80487ac:	1009883a 	mov	r4,r2
 80487b0:	180b883a 	mov	r5,r3
 80487b4:	1025883a 	mov	r18,r2
 80487b8:	1827883a 	mov	r19,r3
 80487bc:	b829883a 	mov	r20,r23
 80487c0:	804fccc0 	call	804fccc <__eqdf2>
 80487c4:	103f8a26 	beq	r2,zero,80485f0 <__alt_data_end+0xfffe0550>
 80487c8:	800d883a 	mov	r6,r16
 80487cc:	880f883a 	mov	r7,r17
 80487d0:	9009883a 	mov	r4,r18
 80487d4:	980b883a 	mov	r5,r19
 80487d8:	80434a40 	call	80434a4 <__divdf3>
 80487dc:	180b883a 	mov	r5,r3
 80487e0:	1009883a 	mov	r4,r2
 80487e4:	80451ac0 	call	80451ac <__fixdfsi>
 80487e8:	1009883a 	mov	r4,r2
 80487ec:	102b883a 	mov	r21,r2
 80487f0:	804fd540 	call	804fd54 <__floatsidf>
 80487f4:	800d883a 	mov	r6,r16
 80487f8:	880f883a 	mov	r7,r17
 80487fc:	1009883a 	mov	r4,r2
 8048800:	180b883a 	mov	r5,r3
 8048804:	80440440 	call	8044044 <__muldf3>
 8048808:	100d883a 	mov	r6,r2
 804880c:	180f883a 	mov	r7,r3
 8048810:	9009883a 	mov	r4,r18
 8048814:	980b883a 	mov	r5,r19
 8048818:	80448b00 	call	80448b0 <__subdf3>
 804881c:	aa000c04 	addi	r8,r21,48
 8048820:	a2000005 	stb	r8,0(r20)
 8048824:	000d883a 	mov	r6,zero
 8048828:	01d00934 	movhi	r7,16420
 804882c:	1009883a 	mov	r4,r2
 8048830:	180b883a 	mov	r5,r3
 8048834:	a5c00044 	addi	r23,r20,1
 8048838:	b53fd91e 	bne	r22,r20,80487a0 <__alt_data_end+0xfffe0700>
 804883c:	100d883a 	mov	r6,r2
 8048840:	180f883a 	mov	r7,r3
 8048844:	1009883a 	mov	r4,r2
 8048848:	180b883a 	mov	r5,r3
 804884c:	804f4200 	call	804f420 <__adddf3>
 8048850:	100d883a 	mov	r6,r2
 8048854:	180f883a 	mov	r7,r3
 8048858:	8009883a 	mov	r4,r16
 804885c:	880b883a 	mov	r5,r17
 8048860:	1027883a 	mov	r19,r2
 8048864:	1825883a 	mov	r18,r3
 8048868:	8043f500 	call	8043f50 <__ledf2>
 804886c:	10000816 	blt	r2,zero,8048890 <_dtoa_r+0x948>
 8048870:	980d883a 	mov	r6,r19
 8048874:	900f883a 	mov	r7,r18
 8048878:	8009883a 	mov	r4,r16
 804887c:	880b883a 	mov	r5,r17
 8048880:	804fccc0 	call	804fccc <__eqdf2>
 8048884:	103f5a1e 	bne	r2,zero,80485f0 <__alt_data_end+0xfffe0550>
 8048888:	ad40004c 	andi	r21,r21,1
 804888c:	a83f5826 	beq	r21,zero,80485f0 <__alt_data_end+0xfffe0550>
 8048890:	bd3fffc3 	ldbu	r20,-1(r23)
 8048894:	b8bfffc4 	addi	r2,r23,-1
 8048898:	1007883a 	mov	r3,r2
 804889c:	01400e44 	movi	r5,57
 80488a0:	d9800717 	ldw	r6,28(sp)
 80488a4:	00000506 	br	80488bc <_dtoa_r+0x974>
 80488a8:	18ffffc4 	addi	r3,r3,-1
 80488ac:	11824726 	beq	r2,r6,80491cc <_dtoa_r+0x1284>
 80488b0:	1d000003 	ldbu	r20,0(r3)
 80488b4:	102f883a 	mov	r23,r2
 80488b8:	10bfffc4 	addi	r2,r2,-1
 80488bc:	a1003fcc 	andi	r4,r20,255
 80488c0:	2100201c 	xori	r4,r4,128
 80488c4:	213fe004 	addi	r4,r4,-128
 80488c8:	217ff726 	beq	r4,r5,80488a8 <__alt_data_end+0xfffe0808>
 80488cc:	a2000044 	addi	r8,r20,1
 80488d0:	12000005 	stb	r8,0(r2)
 80488d4:	003f4606 	br	80485f0 <__alt_data_end+0xfffe0550>
 80488d8:	d9000b17 	ldw	r4,44(sp)
 80488dc:	2000c826 	beq	r4,zero,8048c00 <_dtoa_r+0xcb8>
 80488e0:	d9800317 	ldw	r6,12(sp)
 80488e4:	00c00044 	movi	r3,1
 80488e8:	1980f90e 	bge	r3,r6,8048cd0 <_dtoa_r+0xd88>
 80488ec:	d8800617 	ldw	r2,24(sp)
 80488f0:	d8c00a17 	ldw	r3,40(sp)
 80488f4:	157fffc4 	addi	r21,r2,-1
 80488f8:	1d41f316 	blt	r3,r21,80490c8 <_dtoa_r+0x1180>
 80488fc:	1d6bc83a 	sub	r21,r3,r21
 8048900:	d9c00617 	ldw	r7,24(sp)
 8048904:	3802aa16 	blt	r7,zero,80493b0 <_dtoa_r+0x1468>
 8048908:	dd000817 	ldw	r20,32(sp)
 804890c:	d8800617 	ldw	r2,24(sp)
 8048910:	d8c00817 	ldw	r3,32(sp)
 8048914:	01400044 	movi	r5,1
 8048918:	e009883a 	mov	r4,fp
 804891c:	1887883a 	add	r3,r3,r2
 8048920:	d8c00815 	stw	r3,32(sp)
 8048924:	b0ad883a 	add	r22,r22,r2
 8048928:	804af2c0 	call	804af2c <__i2b>
 804892c:	1023883a 	mov	r17,r2
 8048930:	a0000826 	beq	r20,zero,8048954 <_dtoa_r+0xa0c>
 8048934:	0580070e 	bge	zero,r22,8048954 <_dtoa_r+0xa0c>
 8048938:	a005883a 	mov	r2,r20
 804893c:	b500b916 	blt	r22,r20,8048c24 <_dtoa_r+0xcdc>
 8048940:	d9000817 	ldw	r4,32(sp)
 8048944:	a0a9c83a 	sub	r20,r20,r2
 8048948:	b0adc83a 	sub	r22,r22,r2
 804894c:	2089c83a 	sub	r4,r4,r2
 8048950:	d9000815 	stw	r4,32(sp)
 8048954:	d9800a17 	ldw	r6,40(sp)
 8048958:	0181810e 	bge	zero,r6,8048f60 <_dtoa_r+0x1018>
 804895c:	d9c00b17 	ldw	r7,44(sp)
 8048960:	3800b326 	beq	r7,zero,8048c30 <_dtoa_r+0xce8>
 8048964:	a800b226 	beq	r21,zero,8048c30 <_dtoa_r+0xce8>
 8048968:	880b883a 	mov	r5,r17
 804896c:	a80d883a 	mov	r6,r21
 8048970:	e009883a 	mov	r4,fp
 8048974:	804b1f40 	call	804b1f4 <__pow5mult>
 8048978:	d9800917 	ldw	r6,36(sp)
 804897c:	100b883a 	mov	r5,r2
 8048980:	e009883a 	mov	r4,fp
 8048984:	1023883a 	mov	r17,r2
 8048988:	804af680 	call	804af68 <__multiply>
 804898c:	1021883a 	mov	r16,r2
 8048990:	d8800a17 	ldw	r2,40(sp)
 8048994:	d9400917 	ldw	r5,36(sp)
 8048998:	e009883a 	mov	r4,fp
 804899c:	1545c83a 	sub	r2,r2,r21
 80489a0:	d8800a15 	stw	r2,40(sp)
 80489a4:	804aba00 	call	804aba0 <_Bfree>
 80489a8:	d8c00a17 	ldw	r3,40(sp)
 80489ac:	18009f1e 	bne	r3,zero,8048c2c <_dtoa_r+0xce4>
 80489b0:	05c00044 	movi	r23,1
 80489b4:	e009883a 	mov	r4,fp
 80489b8:	b80b883a 	mov	r5,r23
 80489bc:	804af2c0 	call	804af2c <__i2b>
 80489c0:	d9000d17 	ldw	r4,52(sp)
 80489c4:	102b883a 	mov	r21,r2
 80489c8:	2000ce26 	beq	r4,zero,8048d04 <_dtoa_r+0xdbc>
 80489cc:	200d883a 	mov	r6,r4
 80489d0:	100b883a 	mov	r5,r2
 80489d4:	e009883a 	mov	r4,fp
 80489d8:	804b1f40 	call	804b1f4 <__pow5mult>
 80489dc:	d9800317 	ldw	r6,12(sp)
 80489e0:	102b883a 	mov	r21,r2
 80489e4:	b981810e 	bge	r23,r6,8048fec <_dtoa_r+0x10a4>
 80489e8:	0027883a 	mov	r19,zero
 80489ec:	a8800417 	ldw	r2,16(r21)
 80489f0:	05c00804 	movi	r23,32
 80489f4:	10800104 	addi	r2,r2,4
 80489f8:	1085883a 	add	r2,r2,r2
 80489fc:	1085883a 	add	r2,r2,r2
 8048a00:	a885883a 	add	r2,r21,r2
 8048a04:	11000017 	ldw	r4,0(r2)
 8048a08:	804ae140 	call	804ae14 <__hi0bits>
 8048a0c:	b885c83a 	sub	r2,r23,r2
 8048a10:	1585883a 	add	r2,r2,r22
 8048a14:	108007cc 	andi	r2,r2,31
 8048a18:	1000b326 	beq	r2,zero,8048ce8 <_dtoa_r+0xda0>
 8048a1c:	00c00804 	movi	r3,32
 8048a20:	1887c83a 	sub	r3,r3,r2
 8048a24:	01000104 	movi	r4,4
 8048a28:	20c2cd0e 	bge	r4,r3,8049560 <_dtoa_r+0x1618>
 8048a2c:	00c00704 	movi	r3,28
 8048a30:	1885c83a 	sub	r2,r3,r2
 8048a34:	d8c00817 	ldw	r3,32(sp)
 8048a38:	a0a9883a 	add	r20,r20,r2
 8048a3c:	b0ad883a 	add	r22,r22,r2
 8048a40:	1887883a 	add	r3,r3,r2
 8048a44:	d8c00815 	stw	r3,32(sp)
 8048a48:	d9800817 	ldw	r6,32(sp)
 8048a4c:	0180040e 	bge	zero,r6,8048a60 <_dtoa_r+0xb18>
 8048a50:	800b883a 	mov	r5,r16
 8048a54:	e009883a 	mov	r4,fp
 8048a58:	804b3340 	call	804b334 <__lshift>
 8048a5c:	1021883a 	mov	r16,r2
 8048a60:	0580050e 	bge	zero,r22,8048a78 <_dtoa_r+0xb30>
 8048a64:	a80b883a 	mov	r5,r21
 8048a68:	b00d883a 	mov	r6,r22
 8048a6c:	e009883a 	mov	r4,fp
 8048a70:	804b3340 	call	804b334 <__lshift>
 8048a74:	102b883a 	mov	r21,r2
 8048a78:	d9c00e17 	ldw	r7,56(sp)
 8048a7c:	3801211e 	bne	r7,zero,8048f04 <_dtoa_r+0xfbc>
 8048a80:	d9800617 	ldw	r6,24(sp)
 8048a84:	0181380e 	bge	zero,r6,8048f68 <_dtoa_r+0x1020>
 8048a88:	d8c00b17 	ldw	r3,44(sp)
 8048a8c:	1800ab1e 	bne	r3,zero,8048d3c <_dtoa_r+0xdf4>
 8048a90:	dc800717 	ldw	r18,28(sp)
 8048a94:	dcc00617 	ldw	r19,24(sp)
 8048a98:	9029883a 	mov	r20,r18
 8048a9c:	00000206 	br	8048aa8 <_dtoa_r+0xb60>
 8048aa0:	804abc80 	call	804abc8 <__multadd>
 8048aa4:	1021883a 	mov	r16,r2
 8048aa8:	a80b883a 	mov	r5,r21
 8048aac:	8009883a 	mov	r4,r16
 8048ab0:	8047d200 	call	8047d20 <quorem>
 8048ab4:	10800c04 	addi	r2,r2,48
 8048ab8:	90800005 	stb	r2,0(r18)
 8048abc:	94800044 	addi	r18,r18,1
 8048ac0:	9507c83a 	sub	r3,r18,r20
 8048ac4:	000f883a 	mov	r7,zero
 8048ac8:	01800284 	movi	r6,10
 8048acc:	800b883a 	mov	r5,r16
 8048ad0:	e009883a 	mov	r4,fp
 8048ad4:	1cfff216 	blt	r3,r19,8048aa0 <__alt_data_end+0xfffe0a00>
 8048ad8:	1011883a 	mov	r8,r2
 8048adc:	d8800617 	ldw	r2,24(sp)
 8048ae0:	0082370e 	bge	zero,r2,80493c0 <_dtoa_r+0x1478>
 8048ae4:	d9000717 	ldw	r4,28(sp)
 8048ae8:	0025883a 	mov	r18,zero
 8048aec:	20af883a 	add	r23,r4,r2
 8048af0:	01800044 	movi	r6,1
 8048af4:	800b883a 	mov	r5,r16
 8048af8:	e009883a 	mov	r4,fp
 8048afc:	da001715 	stw	r8,92(sp)
 8048b00:	804b3340 	call	804b334 <__lshift>
 8048b04:	a80b883a 	mov	r5,r21
 8048b08:	1009883a 	mov	r4,r2
 8048b0c:	d8800915 	stw	r2,36(sp)
 8048b10:	804b47c0 	call	804b47c <__mcmp>
 8048b14:	da001717 	ldw	r8,92(sp)
 8048b18:	0081800e 	bge	zero,r2,804911c <_dtoa_r+0x11d4>
 8048b1c:	b93fffc3 	ldbu	r4,-1(r23)
 8048b20:	b8bfffc4 	addi	r2,r23,-1
 8048b24:	1007883a 	mov	r3,r2
 8048b28:	01800e44 	movi	r6,57
 8048b2c:	d9c00717 	ldw	r7,28(sp)
 8048b30:	00000506 	br	8048b48 <_dtoa_r+0xc00>
 8048b34:	18ffffc4 	addi	r3,r3,-1
 8048b38:	11c12326 	beq	r2,r7,8048fc8 <_dtoa_r+0x1080>
 8048b3c:	19000003 	ldbu	r4,0(r3)
 8048b40:	102f883a 	mov	r23,r2
 8048b44:	10bfffc4 	addi	r2,r2,-1
 8048b48:	21403fcc 	andi	r5,r4,255
 8048b4c:	2940201c 	xori	r5,r5,128
 8048b50:	297fe004 	addi	r5,r5,-128
 8048b54:	29bff726 	beq	r5,r6,8048b34 <__alt_data_end+0xfffe0a94>
 8048b58:	21000044 	addi	r4,r4,1
 8048b5c:	11000005 	stb	r4,0(r2)
 8048b60:	a80b883a 	mov	r5,r21
 8048b64:	e009883a 	mov	r4,fp
 8048b68:	804aba00 	call	804aba0 <_Bfree>
 8048b6c:	883ea026 	beq	r17,zero,80485f0 <__alt_data_end+0xfffe0550>
 8048b70:	90000426 	beq	r18,zero,8048b84 <_dtoa_r+0xc3c>
 8048b74:	94400326 	beq	r18,r17,8048b84 <_dtoa_r+0xc3c>
 8048b78:	900b883a 	mov	r5,r18
 8048b7c:	e009883a 	mov	r4,fp
 8048b80:	804aba00 	call	804aba0 <_Bfree>
 8048b84:	880b883a 	mov	r5,r17
 8048b88:	e009883a 	mov	r4,fp
 8048b8c:	804aba00 	call	804aba0 <_Bfree>
 8048b90:	003e9706 	br	80485f0 <__alt_data_end+0xfffe0550>
 8048b94:	01800044 	movi	r6,1
 8048b98:	d9800e15 	stw	r6,56(sp)
 8048b9c:	003d9606 	br	80481f8 <__alt_data_end+0xfffe0158>
 8048ba0:	d8800817 	ldw	r2,32(sp)
 8048ba4:	d8c00517 	ldw	r3,20(sp)
 8048ba8:	d8000d15 	stw	zero,52(sp)
 8048bac:	10c5c83a 	sub	r2,r2,r3
 8048bb0:	00c9c83a 	sub	r4,zero,r3
 8048bb4:	d8800815 	stw	r2,32(sp)
 8048bb8:	d9000a15 	stw	r4,40(sp)
 8048bbc:	003d9706 	br	804821c <__alt_data_end+0xfffe017c>
 8048bc0:	05adc83a 	sub	r22,zero,r22
 8048bc4:	dd800815 	stw	r22,32(sp)
 8048bc8:	002d883a 	mov	r22,zero
 8048bcc:	003d8e06 	br	8048208 <__alt_data_end+0xfffe0168>
 8048bd0:	d9000517 	ldw	r4,20(sp)
 8048bd4:	804fd540 	call	804fd54 <__floatsidf>
 8048bd8:	100d883a 	mov	r6,r2
 8048bdc:	180f883a 	mov	r7,r3
 8048be0:	a009883a 	mov	r4,r20
 8048be4:	880b883a 	mov	r5,r17
 8048be8:	804fccc0 	call	804fccc <__eqdf2>
 8048bec:	103d7126 	beq	r2,zero,80481b4 <__alt_data_end+0xfffe0114>
 8048bf0:	d9c00517 	ldw	r7,20(sp)
 8048bf4:	39ffffc4 	addi	r7,r7,-1
 8048bf8:	d9c00515 	stw	r7,20(sp)
 8048bfc:	003d6d06 	br	80481b4 <__alt_data_end+0xfffe0114>
 8048c00:	dd400a17 	ldw	r21,40(sp)
 8048c04:	dd000817 	ldw	r20,32(sp)
 8048c08:	0023883a 	mov	r17,zero
 8048c0c:	003f4806 	br	8048930 <__alt_data_end+0xfffe0890>
 8048c10:	10e3c83a 	sub	r17,r2,r3
 8048c14:	9448983a 	sll	r4,r18,r17
 8048c18:	003d3206 	br	80480e4 <__alt_data_end+0xfffe0044>
 8048c1c:	d8000e15 	stw	zero,56(sp)
 8048c20:	003d7506 	br	80481f8 <__alt_data_end+0xfffe0158>
 8048c24:	b005883a 	mov	r2,r22
 8048c28:	003f4506 	br	8048940 <__alt_data_end+0xfffe08a0>
 8048c2c:	dc000915 	stw	r16,36(sp)
 8048c30:	d9800a17 	ldw	r6,40(sp)
 8048c34:	d9400917 	ldw	r5,36(sp)
 8048c38:	e009883a 	mov	r4,fp
 8048c3c:	804b1f40 	call	804b1f4 <__pow5mult>
 8048c40:	1021883a 	mov	r16,r2
 8048c44:	003f5a06 	br	80489b0 <__alt_data_end+0xfffe0910>
 8048c48:	01c00044 	movi	r7,1
 8048c4c:	d9c00b15 	stw	r7,44(sp)
 8048c50:	d8802217 	ldw	r2,136(sp)
 8048c54:	0081280e 	bge	zero,r2,80490f8 <_dtoa_r+0x11b0>
 8048c58:	100d883a 	mov	r6,r2
 8048c5c:	1021883a 	mov	r16,r2
 8048c60:	d8800c15 	stw	r2,48(sp)
 8048c64:	d8800615 	stw	r2,24(sp)
 8048c68:	003d8806 	br	804828c <__alt_data_end+0xfffe01ec>
 8048c6c:	d8800617 	ldw	r2,24(sp)
 8048c70:	00be9b16 	blt	zero,r2,80486e0 <__alt_data_end+0xfffe0640>
 8048c74:	10010f1e 	bne	r2,zero,80490b4 <_dtoa_r+0x116c>
 8048c78:	880b883a 	mov	r5,r17
 8048c7c:	000d883a 	mov	r6,zero
 8048c80:	01d00534 	movhi	r7,16404
 8048c84:	8009883a 	mov	r4,r16
 8048c88:	80440440 	call	8044044 <__muldf3>
 8048c8c:	900d883a 	mov	r6,r18
 8048c90:	980f883a 	mov	r7,r19
 8048c94:	1009883a 	mov	r4,r2
 8048c98:	180b883a 	mov	r5,r3
 8048c9c:	8043e740 	call	8043e74 <__gedf2>
 8048ca0:	002b883a 	mov	r21,zero
 8048ca4:	0023883a 	mov	r17,zero
 8048ca8:	1000bf16 	blt	r2,zero,8048fa8 <_dtoa_r+0x1060>
 8048cac:	d9802217 	ldw	r6,136(sp)
 8048cb0:	ddc00717 	ldw	r23,28(sp)
 8048cb4:	018c303a 	nor	r6,zero,r6
 8048cb8:	d9800515 	stw	r6,20(sp)
 8048cbc:	a80b883a 	mov	r5,r21
 8048cc0:	e009883a 	mov	r4,fp
 8048cc4:	804aba00 	call	804aba0 <_Bfree>
 8048cc8:	883e4926 	beq	r17,zero,80485f0 <__alt_data_end+0xfffe0550>
 8048ccc:	003fad06 	br	8048b84 <__alt_data_end+0xfffe0ae4>
 8048cd0:	d9c01117 	ldw	r7,68(sp)
 8048cd4:	3801bc26 	beq	r7,zero,80493c8 <_dtoa_r+0x1480>
 8048cd8:	10810cc4 	addi	r2,r2,1075
 8048cdc:	dd400a17 	ldw	r21,40(sp)
 8048ce0:	dd000817 	ldw	r20,32(sp)
 8048ce4:	003f0a06 	br	8048910 <__alt_data_end+0xfffe0870>
 8048ce8:	00800704 	movi	r2,28
 8048cec:	d9000817 	ldw	r4,32(sp)
 8048cf0:	a0a9883a 	add	r20,r20,r2
 8048cf4:	b0ad883a 	add	r22,r22,r2
 8048cf8:	2089883a 	add	r4,r4,r2
 8048cfc:	d9000815 	stw	r4,32(sp)
 8048d00:	003f5106 	br	8048a48 <__alt_data_end+0xfffe09a8>
 8048d04:	d8c00317 	ldw	r3,12(sp)
 8048d08:	b8c1fc0e 	bge	r23,r3,80494fc <_dtoa_r+0x15b4>
 8048d0c:	0027883a 	mov	r19,zero
 8048d10:	b805883a 	mov	r2,r23
 8048d14:	003f3e06 	br	8048a10 <__alt_data_end+0xfffe0970>
 8048d18:	880b883a 	mov	r5,r17
 8048d1c:	e009883a 	mov	r4,fp
 8048d20:	000f883a 	mov	r7,zero
 8048d24:	01800284 	movi	r6,10
 8048d28:	804abc80 	call	804abc8 <__multadd>
 8048d2c:	d9000c17 	ldw	r4,48(sp)
 8048d30:	1023883a 	mov	r17,r2
 8048d34:	0102040e 	bge	zero,r4,8049548 <_dtoa_r+0x1600>
 8048d38:	d9000615 	stw	r4,24(sp)
 8048d3c:	0500050e 	bge	zero,r20,8048d54 <_dtoa_r+0xe0c>
 8048d40:	880b883a 	mov	r5,r17
 8048d44:	a00d883a 	mov	r6,r20
 8048d48:	e009883a 	mov	r4,fp
 8048d4c:	804b3340 	call	804b334 <__lshift>
 8048d50:	1023883a 	mov	r17,r2
 8048d54:	9801241e 	bne	r19,zero,80491e8 <_dtoa_r+0x12a0>
 8048d58:	8829883a 	mov	r20,r17
 8048d5c:	d9000617 	ldw	r4,24(sp)
 8048d60:	dcc00717 	ldw	r19,28(sp)
 8048d64:	9480004c 	andi	r18,r18,1
 8048d68:	20bfffc4 	addi	r2,r4,-1
 8048d6c:	9885883a 	add	r2,r19,r2
 8048d70:	d8800415 	stw	r2,16(sp)
 8048d74:	dc800615 	stw	r18,24(sp)
 8048d78:	a80b883a 	mov	r5,r21
 8048d7c:	8009883a 	mov	r4,r16
 8048d80:	8047d200 	call	8047d20 <quorem>
 8048d84:	880b883a 	mov	r5,r17
 8048d88:	8009883a 	mov	r4,r16
 8048d8c:	102f883a 	mov	r23,r2
 8048d90:	804b47c0 	call	804b47c <__mcmp>
 8048d94:	a80b883a 	mov	r5,r21
 8048d98:	a00d883a 	mov	r6,r20
 8048d9c:	e009883a 	mov	r4,fp
 8048da0:	102d883a 	mov	r22,r2
 8048da4:	804b4dc0 	call	804b4dc <__mdiff>
 8048da8:	1007883a 	mov	r3,r2
 8048dac:	10800317 	ldw	r2,12(r2)
 8048db0:	bc800c04 	addi	r18,r23,48
 8048db4:	180b883a 	mov	r5,r3
 8048db8:	10004e1e 	bne	r2,zero,8048ef4 <_dtoa_r+0xfac>
 8048dbc:	8009883a 	mov	r4,r16
 8048dc0:	d8c01615 	stw	r3,88(sp)
 8048dc4:	804b47c0 	call	804b47c <__mcmp>
 8048dc8:	d8c01617 	ldw	r3,88(sp)
 8048dcc:	e009883a 	mov	r4,fp
 8048dd0:	d8801615 	stw	r2,88(sp)
 8048dd4:	180b883a 	mov	r5,r3
 8048dd8:	804aba00 	call	804aba0 <_Bfree>
 8048ddc:	d8801617 	ldw	r2,88(sp)
 8048de0:	1000041e 	bne	r2,zero,8048df4 <_dtoa_r+0xeac>
 8048de4:	d9800317 	ldw	r6,12(sp)
 8048de8:	3000021e 	bne	r6,zero,8048df4 <_dtoa_r+0xeac>
 8048dec:	d8c00617 	ldw	r3,24(sp)
 8048df0:	18003726 	beq	r3,zero,8048ed0 <_dtoa_r+0xf88>
 8048df4:	b0002016 	blt	r22,zero,8048e78 <_dtoa_r+0xf30>
 8048df8:	b000041e 	bne	r22,zero,8048e0c <_dtoa_r+0xec4>
 8048dfc:	d9000317 	ldw	r4,12(sp)
 8048e00:	2000021e 	bne	r4,zero,8048e0c <_dtoa_r+0xec4>
 8048e04:	d8c00617 	ldw	r3,24(sp)
 8048e08:	18001b26 	beq	r3,zero,8048e78 <_dtoa_r+0xf30>
 8048e0c:	00810716 	blt	zero,r2,804922c <_dtoa_r+0x12e4>
 8048e10:	d8c00417 	ldw	r3,16(sp)
 8048e14:	9d800044 	addi	r22,r19,1
 8048e18:	9c800005 	stb	r18,0(r19)
 8048e1c:	b02f883a 	mov	r23,r22
 8048e20:	98c10626 	beq	r19,r3,804923c <_dtoa_r+0x12f4>
 8048e24:	800b883a 	mov	r5,r16
 8048e28:	000f883a 	mov	r7,zero
 8048e2c:	01800284 	movi	r6,10
 8048e30:	e009883a 	mov	r4,fp
 8048e34:	804abc80 	call	804abc8 <__multadd>
 8048e38:	1021883a 	mov	r16,r2
 8048e3c:	000f883a 	mov	r7,zero
 8048e40:	01800284 	movi	r6,10
 8048e44:	880b883a 	mov	r5,r17
 8048e48:	e009883a 	mov	r4,fp
 8048e4c:	8d002526 	beq	r17,r20,8048ee4 <_dtoa_r+0xf9c>
 8048e50:	804abc80 	call	804abc8 <__multadd>
 8048e54:	a00b883a 	mov	r5,r20
 8048e58:	000f883a 	mov	r7,zero
 8048e5c:	01800284 	movi	r6,10
 8048e60:	e009883a 	mov	r4,fp
 8048e64:	1023883a 	mov	r17,r2
 8048e68:	804abc80 	call	804abc8 <__multadd>
 8048e6c:	1029883a 	mov	r20,r2
 8048e70:	b027883a 	mov	r19,r22
 8048e74:	003fc006 	br	8048d78 <__alt_data_end+0xfffe0cd8>
 8048e78:	9011883a 	mov	r8,r18
 8048e7c:	00800e0e 	bge	zero,r2,8048eb8 <_dtoa_r+0xf70>
 8048e80:	800b883a 	mov	r5,r16
 8048e84:	01800044 	movi	r6,1
 8048e88:	e009883a 	mov	r4,fp
 8048e8c:	da001715 	stw	r8,92(sp)
 8048e90:	804b3340 	call	804b334 <__lshift>
 8048e94:	a80b883a 	mov	r5,r21
 8048e98:	1009883a 	mov	r4,r2
 8048e9c:	1021883a 	mov	r16,r2
 8048ea0:	804b47c0 	call	804b47c <__mcmp>
 8048ea4:	da001717 	ldw	r8,92(sp)
 8048ea8:	0081960e 	bge	zero,r2,8049504 <_dtoa_r+0x15bc>
 8048eac:	00800e44 	movi	r2,57
 8048eb0:	40817026 	beq	r8,r2,8049474 <_dtoa_r+0x152c>
 8048eb4:	ba000c44 	addi	r8,r23,49
 8048eb8:	8825883a 	mov	r18,r17
 8048ebc:	9dc00044 	addi	r23,r19,1
 8048ec0:	9a000005 	stb	r8,0(r19)
 8048ec4:	a023883a 	mov	r17,r20
 8048ec8:	dc000915 	stw	r16,36(sp)
 8048ecc:	003f2406 	br	8048b60 <__alt_data_end+0xfffe0ac0>
 8048ed0:	00800e44 	movi	r2,57
 8048ed4:	9011883a 	mov	r8,r18
 8048ed8:	90816626 	beq	r18,r2,8049474 <_dtoa_r+0x152c>
 8048edc:	05bff516 	blt	zero,r22,8048eb4 <__alt_data_end+0xfffe0e14>
 8048ee0:	003ff506 	br	8048eb8 <__alt_data_end+0xfffe0e18>
 8048ee4:	804abc80 	call	804abc8 <__multadd>
 8048ee8:	1023883a 	mov	r17,r2
 8048eec:	1029883a 	mov	r20,r2
 8048ef0:	003fdf06 	br	8048e70 <__alt_data_end+0xfffe0dd0>
 8048ef4:	e009883a 	mov	r4,fp
 8048ef8:	804aba00 	call	804aba0 <_Bfree>
 8048efc:	00800044 	movi	r2,1
 8048f00:	003fbc06 	br	8048df4 <__alt_data_end+0xfffe0d54>
 8048f04:	a80b883a 	mov	r5,r21
 8048f08:	8009883a 	mov	r4,r16
 8048f0c:	804b47c0 	call	804b47c <__mcmp>
 8048f10:	103edb0e 	bge	r2,zero,8048a80 <__alt_data_end+0xfffe09e0>
 8048f14:	800b883a 	mov	r5,r16
 8048f18:	000f883a 	mov	r7,zero
 8048f1c:	01800284 	movi	r6,10
 8048f20:	e009883a 	mov	r4,fp
 8048f24:	804abc80 	call	804abc8 <__multadd>
 8048f28:	1021883a 	mov	r16,r2
 8048f2c:	d8800517 	ldw	r2,20(sp)
 8048f30:	d8c00b17 	ldw	r3,44(sp)
 8048f34:	10bfffc4 	addi	r2,r2,-1
 8048f38:	d8800515 	stw	r2,20(sp)
 8048f3c:	183f761e 	bne	r3,zero,8048d18 <__alt_data_end+0xfffe0c78>
 8048f40:	d9000c17 	ldw	r4,48(sp)
 8048f44:	0101730e 	bge	zero,r4,8049514 <_dtoa_r+0x15cc>
 8048f48:	d9000615 	stw	r4,24(sp)
 8048f4c:	003ed006 	br	8048a90 <__alt_data_end+0xfffe09f0>
 8048f50:	00800084 	movi	r2,2
 8048f54:	3081861e 	bne	r6,r2,8049570 <_dtoa_r+0x1628>
 8048f58:	d8000b15 	stw	zero,44(sp)
 8048f5c:	003f3c06 	br	8048c50 <__alt_data_end+0xfffe0bb0>
 8048f60:	dc000917 	ldw	r16,36(sp)
 8048f64:	003e9206 	br	80489b0 <__alt_data_end+0xfffe0910>
 8048f68:	d9c00317 	ldw	r7,12(sp)
 8048f6c:	00800084 	movi	r2,2
 8048f70:	11fec50e 	bge	r2,r7,8048a88 <__alt_data_end+0xfffe09e8>
 8048f74:	d9000617 	ldw	r4,24(sp)
 8048f78:	20013c1e 	bne	r4,zero,804946c <_dtoa_r+0x1524>
 8048f7c:	a80b883a 	mov	r5,r21
 8048f80:	000f883a 	mov	r7,zero
 8048f84:	01800144 	movi	r6,5
 8048f88:	e009883a 	mov	r4,fp
 8048f8c:	804abc80 	call	804abc8 <__multadd>
 8048f90:	100b883a 	mov	r5,r2
 8048f94:	8009883a 	mov	r4,r16
 8048f98:	102b883a 	mov	r21,r2
 8048f9c:	804b47c0 	call	804b47c <__mcmp>
 8048fa0:	dc000915 	stw	r16,36(sp)
 8048fa4:	00bf410e 	bge	zero,r2,8048cac <__alt_data_end+0xfffe0c0c>
 8048fa8:	d9c00717 	ldw	r7,28(sp)
 8048fac:	00800c44 	movi	r2,49
 8048fb0:	38800005 	stb	r2,0(r7)
 8048fb4:	d8800517 	ldw	r2,20(sp)
 8048fb8:	3dc00044 	addi	r23,r7,1
 8048fbc:	10800044 	addi	r2,r2,1
 8048fc0:	d8800515 	stw	r2,20(sp)
 8048fc4:	003f3d06 	br	8048cbc <__alt_data_end+0xfffe0c1c>
 8048fc8:	d9800517 	ldw	r6,20(sp)
 8048fcc:	d9c00717 	ldw	r7,28(sp)
 8048fd0:	00800c44 	movi	r2,49
 8048fd4:	31800044 	addi	r6,r6,1
 8048fd8:	d9800515 	stw	r6,20(sp)
 8048fdc:	38800005 	stb	r2,0(r7)
 8048fe0:	003edf06 	br	8048b60 <__alt_data_end+0xfffe0ac0>
 8048fe4:	d8000b15 	stw	zero,44(sp)
 8048fe8:	003c9f06 	br	8048268 <__alt_data_end+0xfffe01c8>
 8048fec:	903e7e1e 	bne	r18,zero,80489e8 <__alt_data_end+0xfffe0948>
 8048ff0:	00800434 	movhi	r2,16
 8048ff4:	10bfffc4 	addi	r2,r2,-1
 8048ff8:	9884703a 	and	r2,r19,r2
 8048ffc:	1000ea1e 	bne	r2,zero,80493a8 <_dtoa_r+0x1460>
 8049000:	9cdffc2c 	andhi	r19,r19,32752
 8049004:	9800e826 	beq	r19,zero,80493a8 <_dtoa_r+0x1460>
 8049008:	d9c00817 	ldw	r7,32(sp)
 804900c:	b5800044 	addi	r22,r22,1
 8049010:	04c00044 	movi	r19,1
 8049014:	39c00044 	addi	r7,r7,1
 8049018:	d9c00815 	stw	r7,32(sp)
 804901c:	d8800d17 	ldw	r2,52(sp)
 8049020:	103e721e 	bne	r2,zero,80489ec <__alt_data_end+0xfffe094c>
 8049024:	00800044 	movi	r2,1
 8049028:	003e7906 	br	8048a10 <__alt_data_end+0xfffe0970>
 804902c:	8009883a 	mov	r4,r16
 8049030:	804fd540 	call	804fd54 <__floatsidf>
 8049034:	d9800f17 	ldw	r6,60(sp)
 8049038:	d9c01017 	ldw	r7,64(sp)
 804903c:	1009883a 	mov	r4,r2
 8049040:	180b883a 	mov	r5,r3
 8049044:	80440440 	call	8044044 <__muldf3>
 8049048:	000d883a 	mov	r6,zero
 804904c:	01d00734 	movhi	r7,16412
 8049050:	1009883a 	mov	r4,r2
 8049054:	180b883a 	mov	r5,r3
 8049058:	804f4200 	call	804f420 <__adddf3>
 804905c:	047f3034 	movhi	r17,64704
 8049060:	1021883a 	mov	r16,r2
 8049064:	1c63883a 	add	r17,r3,r17
 8049068:	d9000f17 	ldw	r4,60(sp)
 804906c:	d9401017 	ldw	r5,64(sp)
 8049070:	000d883a 	mov	r6,zero
 8049074:	01d00534 	movhi	r7,16404
 8049078:	80448b00 	call	80448b0 <__subdf3>
 804907c:	800d883a 	mov	r6,r16
 8049080:	880f883a 	mov	r7,r17
 8049084:	1009883a 	mov	r4,r2
 8049088:	180b883a 	mov	r5,r3
 804908c:	102b883a 	mov	r21,r2
 8049090:	1829883a 	mov	r20,r3
 8049094:	8043e740 	call	8043e74 <__gedf2>
 8049098:	00806c16 	blt	zero,r2,804924c <_dtoa_r+0x1304>
 804909c:	89e0003c 	xorhi	r7,r17,32768
 80490a0:	800d883a 	mov	r6,r16
 80490a4:	a809883a 	mov	r4,r21
 80490a8:	a00b883a 	mov	r5,r20
 80490ac:	8043f500 	call	8043f50 <__ledf2>
 80490b0:	103d7e0e 	bge	r2,zero,80486ac <__alt_data_end+0xfffe060c>
 80490b4:	002b883a 	mov	r21,zero
 80490b8:	0023883a 	mov	r17,zero
 80490bc:	003efb06 	br	8048cac <__alt_data_end+0xfffe0c0c>
 80490c0:	d8800717 	ldw	r2,28(sp)
 80490c4:	003bd006 	br	8048008 <__alt_data_end+0xfffdff68>
 80490c8:	d9000a17 	ldw	r4,40(sp)
 80490cc:	d9800d17 	ldw	r6,52(sp)
 80490d0:	dd400a15 	stw	r21,40(sp)
 80490d4:	a905c83a 	sub	r2,r21,r4
 80490d8:	308d883a 	add	r6,r6,r2
 80490dc:	d9800d15 	stw	r6,52(sp)
 80490e0:	002b883a 	mov	r21,zero
 80490e4:	003e0606 	br	8048900 <__alt_data_end+0xfffe0860>
 80490e8:	9023883a 	mov	r17,r18
 80490ec:	9829883a 	mov	r20,r19
 80490f0:	04000084 	movi	r16,2
 80490f4:	003c9206 	br	8048340 <__alt_data_end+0xfffe02a0>
 80490f8:	04000044 	movi	r16,1
 80490fc:	dc000c15 	stw	r16,48(sp)
 8049100:	dc000615 	stw	r16,24(sp)
 8049104:	dc002215 	stw	r16,136(sp)
 8049108:	e0001115 	stw	zero,68(fp)
 804910c:	000b883a 	mov	r5,zero
 8049110:	003c6906 	br	80482b8 <__alt_data_end+0xfffe0218>
 8049114:	3021883a 	mov	r16,r6
 8049118:	003ffb06 	br	8049108 <__alt_data_end+0xfffe1068>
 804911c:	1000021e 	bne	r2,zero,8049128 <_dtoa_r+0x11e0>
 8049120:	4200004c 	andi	r8,r8,1
 8049124:	403e7d1e 	bne	r8,zero,8048b1c <__alt_data_end+0xfffe0a7c>
 8049128:	01000c04 	movi	r4,48
 804912c:	00000106 	br	8049134 <_dtoa_r+0x11ec>
 8049130:	102f883a 	mov	r23,r2
 8049134:	b8bfffc4 	addi	r2,r23,-1
 8049138:	10c00007 	ldb	r3,0(r2)
 804913c:	193ffc26 	beq	r3,r4,8049130 <__alt_data_end+0xfffe1090>
 8049140:	003e8706 	br	8048b60 <__alt_data_end+0xfffe0ac0>
 8049144:	d8800517 	ldw	r2,20(sp)
 8049148:	00a3c83a 	sub	r17,zero,r2
 804914c:	8800a426 	beq	r17,zero,80493e0 <_dtoa_r+0x1498>
 8049150:	888003cc 	andi	r2,r17,15
 8049154:	100490fa 	slli	r2,r2,3
 8049158:	00c20174 	movhi	r3,2053
 804915c:	18d19a04 	addi	r3,r3,18024
 8049160:	1885883a 	add	r2,r3,r2
 8049164:	11800017 	ldw	r6,0(r2)
 8049168:	11c00117 	ldw	r7,4(r2)
 804916c:	9009883a 	mov	r4,r18
 8049170:	980b883a 	mov	r5,r19
 8049174:	8823d13a 	srai	r17,r17,4
 8049178:	80440440 	call	8044044 <__muldf3>
 804917c:	d8800f15 	stw	r2,60(sp)
 8049180:	d8c01015 	stw	r3,64(sp)
 8049184:	8800e826 	beq	r17,zero,8049528 <_dtoa_r+0x15e0>
 8049188:	05020174 	movhi	r20,2053
 804918c:	a5119004 	addi	r20,r20,17984
 8049190:	04000084 	movi	r16,2
 8049194:	8980004c 	andi	r6,r17,1
 8049198:	1009883a 	mov	r4,r2
 804919c:	8823d07a 	srai	r17,r17,1
 80491a0:	180b883a 	mov	r5,r3
 80491a4:	30000426 	beq	r6,zero,80491b8 <_dtoa_r+0x1270>
 80491a8:	a1800017 	ldw	r6,0(r20)
 80491ac:	a1c00117 	ldw	r7,4(r20)
 80491b0:	84000044 	addi	r16,r16,1
 80491b4:	80440440 	call	8044044 <__muldf3>
 80491b8:	a5000204 	addi	r20,r20,8
 80491bc:	883ff51e 	bne	r17,zero,8049194 <__alt_data_end+0xfffe10f4>
 80491c0:	d8800f15 	stw	r2,60(sp)
 80491c4:	d8c01015 	stw	r3,64(sp)
 80491c8:	003c7606 	br	80483a4 <__alt_data_end+0xfffe0304>
 80491cc:	00c00c04 	movi	r3,48
 80491d0:	10c00005 	stb	r3,0(r2)
 80491d4:	d8c00517 	ldw	r3,20(sp)
 80491d8:	bd3fffc3 	ldbu	r20,-1(r23)
 80491dc:	18c00044 	addi	r3,r3,1
 80491e0:	d8c00515 	stw	r3,20(sp)
 80491e4:	003db906 	br	80488cc <__alt_data_end+0xfffe082c>
 80491e8:	89400117 	ldw	r5,4(r17)
 80491ec:	e009883a 	mov	r4,fp
 80491f0:	804aaf80 	call	804aaf8 <_Balloc>
 80491f4:	89800417 	ldw	r6,16(r17)
 80491f8:	89400304 	addi	r5,r17,12
 80491fc:	11000304 	addi	r4,r2,12
 8049200:	31800084 	addi	r6,r6,2
 8049204:	318d883a 	add	r6,r6,r6
 8049208:	318d883a 	add	r6,r6,r6
 804920c:	1027883a 	mov	r19,r2
 8049210:	80455480 	call	8045548 <memcpy>
 8049214:	01800044 	movi	r6,1
 8049218:	980b883a 	mov	r5,r19
 804921c:	e009883a 	mov	r4,fp
 8049220:	804b3340 	call	804b334 <__lshift>
 8049224:	1029883a 	mov	r20,r2
 8049228:	003ecc06 	br	8048d5c <__alt_data_end+0xfffe0cbc>
 804922c:	00800e44 	movi	r2,57
 8049230:	90809026 	beq	r18,r2,8049474 <_dtoa_r+0x152c>
 8049234:	92000044 	addi	r8,r18,1
 8049238:	003f1f06 	br	8048eb8 <__alt_data_end+0xfffe0e18>
 804923c:	9011883a 	mov	r8,r18
 8049240:	8825883a 	mov	r18,r17
 8049244:	a023883a 	mov	r17,r20
 8049248:	003e2906 	br	8048af0 <__alt_data_end+0xfffe0a50>
 804924c:	002b883a 	mov	r21,zero
 8049250:	0023883a 	mov	r17,zero
 8049254:	003f5406 	br	8048fa8 <__alt_data_end+0xfffe0f08>
 8049258:	61bfffc4 	addi	r6,r12,-1
 804925c:	300490fa 	slli	r2,r6,3
 8049260:	00c20174 	movhi	r3,2053
 8049264:	18d19a04 	addi	r3,r3,18024
 8049268:	1885883a 	add	r2,r3,r2
 804926c:	11000017 	ldw	r4,0(r2)
 8049270:	11400117 	ldw	r5,4(r2)
 8049274:	d8800717 	ldw	r2,28(sp)
 8049278:	880f883a 	mov	r7,r17
 804927c:	d9801215 	stw	r6,72(sp)
 8049280:	800d883a 	mov	r6,r16
 8049284:	db001615 	stw	r12,88(sp)
 8049288:	15c00044 	addi	r23,r2,1
 804928c:	80440440 	call	8044044 <__muldf3>
 8049290:	d9401017 	ldw	r5,64(sp)
 8049294:	d9000f17 	ldw	r4,60(sp)
 8049298:	d8c01515 	stw	r3,84(sp)
 804929c:	d8801415 	stw	r2,80(sp)
 80492a0:	80451ac0 	call	80451ac <__fixdfsi>
 80492a4:	1009883a 	mov	r4,r2
 80492a8:	1021883a 	mov	r16,r2
 80492ac:	804fd540 	call	804fd54 <__floatsidf>
 80492b0:	d9000f17 	ldw	r4,60(sp)
 80492b4:	d9401017 	ldw	r5,64(sp)
 80492b8:	100d883a 	mov	r6,r2
 80492bc:	180f883a 	mov	r7,r3
 80492c0:	80448b00 	call	80448b0 <__subdf3>
 80492c4:	1829883a 	mov	r20,r3
 80492c8:	d8c00717 	ldw	r3,28(sp)
 80492cc:	84000c04 	addi	r16,r16,48
 80492d0:	1023883a 	mov	r17,r2
 80492d4:	1c000005 	stb	r16,0(r3)
 80492d8:	db001617 	ldw	r12,88(sp)
 80492dc:	00800044 	movi	r2,1
 80492e0:	60802226 	beq	r12,r2,804936c <_dtoa_r+0x1424>
 80492e4:	d9c00717 	ldw	r7,28(sp)
 80492e8:	8805883a 	mov	r2,r17
 80492ec:	b82b883a 	mov	r21,r23
 80492f0:	3b19883a 	add	r12,r7,r12
 80492f4:	6023883a 	mov	r17,r12
 80492f8:	a007883a 	mov	r3,r20
 80492fc:	dc800f15 	stw	r18,60(sp)
 8049300:	000d883a 	mov	r6,zero
 8049304:	01d00934 	movhi	r7,16420
 8049308:	1009883a 	mov	r4,r2
 804930c:	180b883a 	mov	r5,r3
 8049310:	80440440 	call	8044044 <__muldf3>
 8049314:	180b883a 	mov	r5,r3
 8049318:	1009883a 	mov	r4,r2
 804931c:	1829883a 	mov	r20,r3
 8049320:	1025883a 	mov	r18,r2
 8049324:	80451ac0 	call	80451ac <__fixdfsi>
 8049328:	1009883a 	mov	r4,r2
 804932c:	1021883a 	mov	r16,r2
 8049330:	804fd540 	call	804fd54 <__floatsidf>
 8049334:	100d883a 	mov	r6,r2
 8049338:	180f883a 	mov	r7,r3
 804933c:	9009883a 	mov	r4,r18
 8049340:	a00b883a 	mov	r5,r20
 8049344:	84000c04 	addi	r16,r16,48
 8049348:	80448b00 	call	80448b0 <__subdf3>
 804934c:	ad400044 	addi	r21,r21,1
 8049350:	ac3fffc5 	stb	r16,-1(r21)
 8049354:	ac7fea1e 	bne	r21,r17,8049300 <__alt_data_end+0xfffe1260>
 8049358:	1023883a 	mov	r17,r2
 804935c:	d8801217 	ldw	r2,72(sp)
 8049360:	dc800f17 	ldw	r18,60(sp)
 8049364:	1829883a 	mov	r20,r3
 8049368:	b8af883a 	add	r23,r23,r2
 804936c:	d9001417 	ldw	r4,80(sp)
 8049370:	d9401517 	ldw	r5,84(sp)
 8049374:	000d883a 	mov	r6,zero
 8049378:	01cff834 	movhi	r7,16352
 804937c:	804f4200 	call	804f420 <__adddf3>
 8049380:	880d883a 	mov	r6,r17
 8049384:	a00f883a 	mov	r7,r20
 8049388:	1009883a 	mov	r4,r2
 804938c:	180b883a 	mov	r5,r3
 8049390:	8043f500 	call	8043f50 <__ledf2>
 8049394:	10003e0e 	bge	r2,zero,8049490 <_dtoa_r+0x1548>
 8049398:	d9001317 	ldw	r4,76(sp)
 804939c:	bd3fffc3 	ldbu	r20,-1(r23)
 80493a0:	d9000515 	stw	r4,20(sp)
 80493a4:	003d3b06 	br	8048894 <__alt_data_end+0xfffe07f4>
 80493a8:	0027883a 	mov	r19,zero
 80493ac:	003f1b06 	br	804901c <__alt_data_end+0xfffe0f7c>
 80493b0:	d8800817 	ldw	r2,32(sp)
 80493b4:	11e9c83a 	sub	r20,r2,r7
 80493b8:	0005883a 	mov	r2,zero
 80493bc:	003d5406 	br	8048910 <__alt_data_end+0xfffe0870>
 80493c0:	00800044 	movi	r2,1
 80493c4:	003dc706 	br	8048ae4 <__alt_data_end+0xfffe0a44>
 80493c8:	d8c00217 	ldw	r3,8(sp)
 80493cc:	00800d84 	movi	r2,54
 80493d0:	dd400a17 	ldw	r21,40(sp)
 80493d4:	10c5c83a 	sub	r2,r2,r3
 80493d8:	dd000817 	ldw	r20,32(sp)
 80493dc:	003d4c06 	br	8048910 <__alt_data_end+0xfffe0870>
 80493e0:	dc800f15 	stw	r18,60(sp)
 80493e4:	dcc01015 	stw	r19,64(sp)
 80493e8:	04000084 	movi	r16,2
 80493ec:	003bed06 	br	80483a4 <__alt_data_end+0xfffe0304>
 80493f0:	d9000617 	ldw	r4,24(sp)
 80493f4:	203f0d26 	beq	r4,zero,804902c <__alt_data_end+0xfffe0f8c>
 80493f8:	d9800c17 	ldw	r6,48(sp)
 80493fc:	01bcab0e 	bge	zero,r6,80486ac <__alt_data_end+0xfffe060c>
 8049400:	d9401017 	ldw	r5,64(sp)
 8049404:	d9000f17 	ldw	r4,60(sp)
 8049408:	000d883a 	mov	r6,zero
 804940c:	01d00934 	movhi	r7,16420
 8049410:	80440440 	call	8044044 <__muldf3>
 8049414:	81000044 	addi	r4,r16,1
 8049418:	d8800f15 	stw	r2,60(sp)
 804941c:	d8c01015 	stw	r3,64(sp)
 8049420:	804fd540 	call	804fd54 <__floatsidf>
 8049424:	d9800f17 	ldw	r6,60(sp)
 8049428:	d9c01017 	ldw	r7,64(sp)
 804942c:	1009883a 	mov	r4,r2
 8049430:	180b883a 	mov	r5,r3
 8049434:	80440440 	call	8044044 <__muldf3>
 8049438:	01d00734 	movhi	r7,16412
 804943c:	000d883a 	mov	r6,zero
 8049440:	1009883a 	mov	r4,r2
 8049444:	180b883a 	mov	r5,r3
 8049448:	804f4200 	call	804f420 <__adddf3>
 804944c:	d9c00517 	ldw	r7,20(sp)
 8049450:	047f3034 	movhi	r17,64704
 8049454:	1021883a 	mov	r16,r2
 8049458:	39ffffc4 	addi	r7,r7,-1
 804945c:	d9c01315 	stw	r7,76(sp)
 8049460:	1c63883a 	add	r17,r3,r17
 8049464:	db000c17 	ldw	r12,48(sp)
 8049468:	003bea06 	br	8048414 <__alt_data_end+0xfffe0374>
 804946c:	dc000915 	stw	r16,36(sp)
 8049470:	003e0e06 	br	8048cac <__alt_data_end+0xfffe0c0c>
 8049474:	01000e44 	movi	r4,57
 8049478:	8825883a 	mov	r18,r17
 804947c:	9dc00044 	addi	r23,r19,1
 8049480:	99000005 	stb	r4,0(r19)
 8049484:	a023883a 	mov	r17,r20
 8049488:	dc000915 	stw	r16,36(sp)
 804948c:	003da406 	br	8048b20 <__alt_data_end+0xfffe0a80>
 8049490:	d9801417 	ldw	r6,80(sp)
 8049494:	d9c01517 	ldw	r7,84(sp)
 8049498:	0009883a 	mov	r4,zero
 804949c:	014ff834 	movhi	r5,16352
 80494a0:	80448b00 	call	80448b0 <__subdf3>
 80494a4:	880d883a 	mov	r6,r17
 80494a8:	a00f883a 	mov	r7,r20
 80494ac:	1009883a 	mov	r4,r2
 80494b0:	180b883a 	mov	r5,r3
 80494b4:	8043e740 	call	8043e74 <__gedf2>
 80494b8:	00bc7c0e 	bge	zero,r2,80486ac <__alt_data_end+0xfffe060c>
 80494bc:	01000c04 	movi	r4,48
 80494c0:	00000106 	br	80494c8 <_dtoa_r+0x1580>
 80494c4:	102f883a 	mov	r23,r2
 80494c8:	b8bfffc4 	addi	r2,r23,-1
 80494cc:	10c00007 	ldb	r3,0(r2)
 80494d0:	193ffc26 	beq	r3,r4,80494c4 <__alt_data_end+0xfffe1424>
 80494d4:	d9801317 	ldw	r6,76(sp)
 80494d8:	d9800515 	stw	r6,20(sp)
 80494dc:	003c4406 	br	80485f0 <__alt_data_end+0xfffe0550>
 80494e0:	d9801317 	ldw	r6,76(sp)
 80494e4:	d9800515 	stw	r6,20(sp)
 80494e8:	003cea06 	br	8048894 <__alt_data_end+0xfffe07f4>
 80494ec:	dd800f17 	ldw	r22,60(sp)
 80494f0:	dcc01017 	ldw	r19,64(sp)
 80494f4:	dc801217 	ldw	r18,72(sp)
 80494f8:	003c6c06 	br	80486ac <__alt_data_end+0xfffe060c>
 80494fc:	903e031e 	bne	r18,zero,8048d0c <__alt_data_end+0xfffe0c6c>
 8049500:	003ebb06 	br	8048ff0 <__alt_data_end+0xfffe0f50>
 8049504:	103e6c1e 	bne	r2,zero,8048eb8 <__alt_data_end+0xfffe0e18>
 8049508:	4080004c 	andi	r2,r8,1
 804950c:	103e6a26 	beq	r2,zero,8048eb8 <__alt_data_end+0xfffe0e18>
 8049510:	003e6606 	br	8048eac <__alt_data_end+0xfffe0e0c>
 8049514:	d8c00317 	ldw	r3,12(sp)
 8049518:	00800084 	movi	r2,2
 804951c:	10c02916 	blt	r2,r3,80495c4 <_dtoa_r+0x167c>
 8049520:	d9000c17 	ldw	r4,48(sp)
 8049524:	003e8806 	br	8048f48 <__alt_data_end+0xfffe0ea8>
 8049528:	04000084 	movi	r16,2
 804952c:	003b9d06 	br	80483a4 <__alt_data_end+0xfffe0304>
 8049530:	d9001317 	ldw	r4,76(sp)
 8049534:	d9000515 	stw	r4,20(sp)
 8049538:	003cd606 	br	8048894 <__alt_data_end+0xfffe07f4>
 804953c:	d8801317 	ldw	r2,76(sp)
 8049540:	d8800515 	stw	r2,20(sp)
 8049544:	003c2a06 	br	80485f0 <__alt_data_end+0xfffe0550>
 8049548:	d9800317 	ldw	r6,12(sp)
 804954c:	00800084 	movi	r2,2
 8049550:	11801516 	blt	r2,r6,80495a8 <_dtoa_r+0x1660>
 8049554:	d9c00c17 	ldw	r7,48(sp)
 8049558:	d9c00615 	stw	r7,24(sp)
 804955c:	003df706 	br	8048d3c <__alt_data_end+0xfffe0c9c>
 8049560:	193d3926 	beq	r3,r4,8048a48 <__alt_data_end+0xfffe09a8>
 8049564:	00c00f04 	movi	r3,60
 8049568:	1885c83a 	sub	r2,r3,r2
 804956c:	003ddf06 	br	8048cec <__alt_data_end+0xfffe0c4c>
 8049570:	e009883a 	mov	r4,fp
 8049574:	e0001115 	stw	zero,68(fp)
 8049578:	000b883a 	mov	r5,zero
 804957c:	804aaf80 	call	804aaf8 <_Balloc>
 8049580:	d8800715 	stw	r2,28(sp)
 8049584:	d8c00717 	ldw	r3,28(sp)
 8049588:	00bfffc4 	movi	r2,-1
 804958c:	01000044 	movi	r4,1
 8049590:	d8800c15 	stw	r2,48(sp)
 8049594:	e0c01015 	stw	r3,64(fp)
 8049598:	d9000b15 	stw	r4,44(sp)
 804959c:	d8800615 	stw	r2,24(sp)
 80495a0:	d8002215 	stw	zero,136(sp)
 80495a4:	003c4106 	br	80486ac <__alt_data_end+0xfffe060c>
 80495a8:	d8c00c17 	ldw	r3,48(sp)
 80495ac:	d8c00615 	stw	r3,24(sp)
 80495b0:	003e7006 	br	8048f74 <__alt_data_end+0xfffe0ed4>
 80495b4:	04400044 	movi	r17,1
 80495b8:	003b2006 	br	804823c <__alt_data_end+0xfffe019c>
 80495bc:	000b883a 	mov	r5,zero
 80495c0:	003b3d06 	br	80482b8 <__alt_data_end+0xfffe0218>
 80495c4:	d8800c17 	ldw	r2,48(sp)
 80495c8:	d8800615 	stw	r2,24(sp)
 80495cc:	003e6906 	br	8048f74 <__alt_data_end+0xfffe0ed4>

080495d0 <__fp_unlock>:
 80495d0:	0005883a 	mov	r2,zero
 80495d4:	f800283a 	ret

080495d8 <_cleanup_r>:
 80495d8:	01420174 	movhi	r5,2053
 80495dc:	29771204 	addi	r5,r5,-9144
 80495e0:	8049f0c1 	jmpi	8049f0c <_fwalk_reent>

080495e4 <__sinit.part.1>:
 80495e4:	defff704 	addi	sp,sp,-36
 80495e8:	00c20174 	movhi	r3,2053
 80495ec:	dfc00815 	stw	ra,32(sp)
 80495f0:	ddc00715 	stw	r23,28(sp)
 80495f4:	dd800615 	stw	r22,24(sp)
 80495f8:	dd400515 	stw	r21,20(sp)
 80495fc:	dd000415 	stw	r20,16(sp)
 8049600:	dcc00315 	stw	r19,12(sp)
 8049604:	dc800215 	stw	r18,8(sp)
 8049608:	dc400115 	stw	r17,4(sp)
 804960c:	dc000015 	stw	r16,0(sp)
 8049610:	18e57604 	addi	r3,r3,-27176
 8049614:	24000117 	ldw	r16,4(r4)
 8049618:	20c00f15 	stw	r3,60(r4)
 804961c:	2080bb04 	addi	r2,r4,748
 8049620:	00c000c4 	movi	r3,3
 8049624:	20c0b915 	stw	r3,740(r4)
 8049628:	2080ba15 	stw	r2,744(r4)
 804962c:	2000b815 	stw	zero,736(r4)
 8049630:	05c00204 	movi	r23,8
 8049634:	00800104 	movi	r2,4
 8049638:	2025883a 	mov	r18,r4
 804963c:	b80d883a 	mov	r6,r23
 8049640:	81001704 	addi	r4,r16,92
 8049644:	000b883a 	mov	r5,zero
 8049648:	80000015 	stw	zero,0(r16)
 804964c:	80000115 	stw	zero,4(r16)
 8049650:	80000215 	stw	zero,8(r16)
 8049654:	8080030d 	sth	r2,12(r16)
 8049658:	80001915 	stw	zero,100(r16)
 804965c:	8000038d 	sth	zero,14(r16)
 8049660:	80000415 	stw	zero,16(r16)
 8049664:	80000515 	stw	zero,20(r16)
 8049668:	80000615 	stw	zero,24(r16)
 804966c:	80456900 	call	8045690 <memset>
 8049670:	05820174 	movhi	r22,2053
 8049674:	94400217 	ldw	r17,8(r18)
 8049678:	05420174 	movhi	r21,2053
 804967c:	05020174 	movhi	r20,2053
 8049680:	04c20174 	movhi	r19,2053
 8049684:	b5b07704 	addi	r22,r22,-15908
 8049688:	ad708e04 	addi	r21,r21,-15816
 804968c:	a530ad04 	addi	r20,r20,-15692
 8049690:	9cf0c404 	addi	r19,r19,-15600
 8049694:	85800815 	stw	r22,32(r16)
 8049698:	85400915 	stw	r21,36(r16)
 804969c:	85000a15 	stw	r20,40(r16)
 80496a0:	84c00b15 	stw	r19,44(r16)
 80496a4:	84000715 	stw	r16,28(r16)
 80496a8:	00800284 	movi	r2,10
 80496ac:	8880030d 	sth	r2,12(r17)
 80496b0:	00800044 	movi	r2,1
 80496b4:	b80d883a 	mov	r6,r23
 80496b8:	89001704 	addi	r4,r17,92
 80496bc:	000b883a 	mov	r5,zero
 80496c0:	88000015 	stw	zero,0(r17)
 80496c4:	88000115 	stw	zero,4(r17)
 80496c8:	88000215 	stw	zero,8(r17)
 80496cc:	88001915 	stw	zero,100(r17)
 80496d0:	8880038d 	sth	r2,14(r17)
 80496d4:	88000415 	stw	zero,16(r17)
 80496d8:	88000515 	stw	zero,20(r17)
 80496dc:	88000615 	stw	zero,24(r17)
 80496e0:	80456900 	call	8045690 <memset>
 80496e4:	94000317 	ldw	r16,12(r18)
 80496e8:	00800484 	movi	r2,18
 80496ec:	8c400715 	stw	r17,28(r17)
 80496f0:	8d800815 	stw	r22,32(r17)
 80496f4:	8d400915 	stw	r21,36(r17)
 80496f8:	8d000a15 	stw	r20,40(r17)
 80496fc:	8cc00b15 	stw	r19,44(r17)
 8049700:	8080030d 	sth	r2,12(r16)
 8049704:	00800084 	movi	r2,2
 8049708:	80000015 	stw	zero,0(r16)
 804970c:	80000115 	stw	zero,4(r16)
 8049710:	80000215 	stw	zero,8(r16)
 8049714:	80001915 	stw	zero,100(r16)
 8049718:	8080038d 	sth	r2,14(r16)
 804971c:	80000415 	stw	zero,16(r16)
 8049720:	80000515 	stw	zero,20(r16)
 8049724:	80000615 	stw	zero,24(r16)
 8049728:	b80d883a 	mov	r6,r23
 804972c:	000b883a 	mov	r5,zero
 8049730:	81001704 	addi	r4,r16,92
 8049734:	80456900 	call	8045690 <memset>
 8049738:	00800044 	movi	r2,1
 804973c:	84000715 	stw	r16,28(r16)
 8049740:	85800815 	stw	r22,32(r16)
 8049744:	85400915 	stw	r21,36(r16)
 8049748:	85000a15 	stw	r20,40(r16)
 804974c:	84c00b15 	stw	r19,44(r16)
 8049750:	90800e15 	stw	r2,56(r18)
 8049754:	dfc00817 	ldw	ra,32(sp)
 8049758:	ddc00717 	ldw	r23,28(sp)
 804975c:	dd800617 	ldw	r22,24(sp)
 8049760:	dd400517 	ldw	r21,20(sp)
 8049764:	dd000417 	ldw	r20,16(sp)
 8049768:	dcc00317 	ldw	r19,12(sp)
 804976c:	dc800217 	ldw	r18,8(sp)
 8049770:	dc400117 	ldw	r17,4(sp)
 8049774:	dc000017 	ldw	r16,0(sp)
 8049778:	dec00904 	addi	sp,sp,36
 804977c:	f800283a 	ret

08049780 <__fp_lock>:
 8049780:	0005883a 	mov	r2,zero
 8049784:	f800283a 	ret

08049788 <__sfmoreglue>:
 8049788:	defffc04 	addi	sp,sp,-16
 804978c:	dc800215 	stw	r18,8(sp)
 8049790:	2825883a 	mov	r18,r5
 8049794:	dc000015 	stw	r16,0(sp)
 8049798:	01401a04 	movi	r5,104
 804979c:	2021883a 	mov	r16,r4
 80497a0:	913fffc4 	addi	r4,r18,-1
 80497a4:	dfc00315 	stw	ra,12(sp)
 80497a8:	dc400115 	stw	r17,4(sp)
 80497ac:	8042dac0 	call	8042dac <__mulsi3>
 80497b0:	8009883a 	mov	r4,r16
 80497b4:	11401d04 	addi	r5,r2,116
 80497b8:	1023883a 	mov	r17,r2
 80497bc:	804a0ac0 	call	804a0ac <_malloc_r>
 80497c0:	1021883a 	mov	r16,r2
 80497c4:	10000726 	beq	r2,zero,80497e4 <__sfmoreglue+0x5c>
 80497c8:	11000304 	addi	r4,r2,12
 80497cc:	10000015 	stw	zero,0(r2)
 80497d0:	14800115 	stw	r18,4(r2)
 80497d4:	11000215 	stw	r4,8(r2)
 80497d8:	89801a04 	addi	r6,r17,104
 80497dc:	000b883a 	mov	r5,zero
 80497e0:	80456900 	call	8045690 <memset>
 80497e4:	8005883a 	mov	r2,r16
 80497e8:	dfc00317 	ldw	ra,12(sp)
 80497ec:	dc800217 	ldw	r18,8(sp)
 80497f0:	dc400117 	ldw	r17,4(sp)
 80497f4:	dc000017 	ldw	r16,0(sp)
 80497f8:	dec00404 	addi	sp,sp,16
 80497fc:	f800283a 	ret

08049800 <__sfp>:
 8049800:	defffb04 	addi	sp,sp,-20
 8049804:	dc000015 	stw	r16,0(sp)
 8049808:	04020174 	movhi	r16,2053
 804980c:	8418ec04 	addi	r16,r16,25520
 8049810:	dcc00315 	stw	r19,12(sp)
 8049814:	2027883a 	mov	r19,r4
 8049818:	81000017 	ldw	r4,0(r16)
 804981c:	dfc00415 	stw	ra,16(sp)
 8049820:	dc800215 	stw	r18,8(sp)
 8049824:	20800e17 	ldw	r2,56(r4)
 8049828:	dc400115 	stw	r17,4(sp)
 804982c:	1000021e 	bne	r2,zero,8049838 <__sfp+0x38>
 8049830:	80495e40 	call	80495e4 <__sinit.part.1>
 8049834:	81000017 	ldw	r4,0(r16)
 8049838:	2480b804 	addi	r18,r4,736
 804983c:	047fffc4 	movi	r17,-1
 8049840:	91000117 	ldw	r4,4(r18)
 8049844:	94000217 	ldw	r16,8(r18)
 8049848:	213fffc4 	addi	r4,r4,-1
 804984c:	20000a16 	blt	r4,zero,8049878 <__sfp+0x78>
 8049850:	8080030f 	ldh	r2,12(r16)
 8049854:	10000c26 	beq	r2,zero,8049888 <__sfp+0x88>
 8049858:	80c01d04 	addi	r3,r16,116
 804985c:	00000206 	br	8049868 <__sfp+0x68>
 8049860:	18bfe60f 	ldh	r2,-104(r3)
 8049864:	10000826 	beq	r2,zero,8049888 <__sfp+0x88>
 8049868:	213fffc4 	addi	r4,r4,-1
 804986c:	1c3ffd04 	addi	r16,r3,-12
 8049870:	18c01a04 	addi	r3,r3,104
 8049874:	247ffa1e 	bne	r4,r17,8049860 <__alt_data_end+0xfffe17c0>
 8049878:	90800017 	ldw	r2,0(r18)
 804987c:	10001d26 	beq	r2,zero,80498f4 <__sfp+0xf4>
 8049880:	1025883a 	mov	r18,r2
 8049884:	003fee06 	br	8049840 <__alt_data_end+0xfffe17a0>
 8049888:	00bfffc4 	movi	r2,-1
 804988c:	8080038d 	sth	r2,14(r16)
 8049890:	00800044 	movi	r2,1
 8049894:	8080030d 	sth	r2,12(r16)
 8049898:	80001915 	stw	zero,100(r16)
 804989c:	80000015 	stw	zero,0(r16)
 80498a0:	80000215 	stw	zero,8(r16)
 80498a4:	80000115 	stw	zero,4(r16)
 80498a8:	80000415 	stw	zero,16(r16)
 80498ac:	80000515 	stw	zero,20(r16)
 80498b0:	80000615 	stw	zero,24(r16)
 80498b4:	01800204 	movi	r6,8
 80498b8:	000b883a 	mov	r5,zero
 80498bc:	81001704 	addi	r4,r16,92
 80498c0:	80456900 	call	8045690 <memset>
 80498c4:	8005883a 	mov	r2,r16
 80498c8:	80000c15 	stw	zero,48(r16)
 80498cc:	80000d15 	stw	zero,52(r16)
 80498d0:	80001115 	stw	zero,68(r16)
 80498d4:	80001215 	stw	zero,72(r16)
 80498d8:	dfc00417 	ldw	ra,16(sp)
 80498dc:	dcc00317 	ldw	r19,12(sp)
 80498e0:	dc800217 	ldw	r18,8(sp)
 80498e4:	dc400117 	ldw	r17,4(sp)
 80498e8:	dc000017 	ldw	r16,0(sp)
 80498ec:	dec00504 	addi	sp,sp,20
 80498f0:	f800283a 	ret
 80498f4:	01400104 	movi	r5,4
 80498f8:	9809883a 	mov	r4,r19
 80498fc:	80497880 	call	8049788 <__sfmoreglue>
 8049900:	90800015 	stw	r2,0(r18)
 8049904:	103fde1e 	bne	r2,zero,8049880 <__alt_data_end+0xfffe17e0>
 8049908:	00800304 	movi	r2,12
 804990c:	98800015 	stw	r2,0(r19)
 8049910:	0005883a 	mov	r2,zero
 8049914:	003ff006 	br	80498d8 <__alt_data_end+0xfffe1838>

08049918 <_cleanup>:
 8049918:	00820174 	movhi	r2,2053
 804991c:	1098ec04 	addi	r2,r2,25520
 8049920:	11000017 	ldw	r4,0(r2)
 8049924:	01420174 	movhi	r5,2053
 8049928:	29771204 	addi	r5,r5,-9144
 804992c:	8049f0c1 	jmpi	8049f0c <_fwalk_reent>

08049930 <__sinit>:
 8049930:	20800e17 	ldw	r2,56(r4)
 8049934:	10000126 	beq	r2,zero,804993c <__sinit+0xc>
 8049938:	f800283a 	ret
 804993c:	80495e41 	jmpi	80495e4 <__sinit.part.1>

08049940 <__sfp_lock_acquire>:
 8049940:	f800283a 	ret

08049944 <__sfp_lock_release>:
 8049944:	f800283a 	ret

08049948 <__sinit_lock_acquire>:
 8049948:	f800283a 	ret

0804994c <__sinit_lock_release>:
 804994c:	f800283a 	ret

08049950 <__fp_lock_all>:
 8049950:	00820174 	movhi	r2,2053
 8049954:	1098ed04 	addi	r2,r2,25524
 8049958:	11000017 	ldw	r4,0(r2)
 804995c:	01420174 	movhi	r5,2053
 8049960:	2965e004 	addi	r5,r5,-26752
 8049964:	8049e481 	jmpi	8049e48 <_fwalk>

08049968 <__fp_unlock_all>:
 8049968:	00820174 	movhi	r2,2053
 804996c:	1098ed04 	addi	r2,r2,25524
 8049970:	11000017 	ldw	r4,0(r2)
 8049974:	01420174 	movhi	r5,2053
 8049978:	29657404 	addi	r5,r5,-27184
 804997c:	8049e481 	jmpi	8049e48 <_fwalk>

08049980 <__sfvwrite_r>:
 8049980:	30800217 	ldw	r2,8(r6)
 8049984:	10006726 	beq	r2,zero,8049b24 <__sfvwrite_r+0x1a4>
 8049988:	28c0030b 	ldhu	r3,12(r5)
 804998c:	defff404 	addi	sp,sp,-48
 8049990:	dd400715 	stw	r21,28(sp)
 8049994:	dd000615 	stw	r20,24(sp)
 8049998:	dc000215 	stw	r16,8(sp)
 804999c:	dfc00b15 	stw	ra,44(sp)
 80499a0:	df000a15 	stw	fp,40(sp)
 80499a4:	ddc00915 	stw	r23,36(sp)
 80499a8:	dd800815 	stw	r22,32(sp)
 80499ac:	dcc00515 	stw	r19,20(sp)
 80499b0:	dc800415 	stw	r18,16(sp)
 80499b4:	dc400315 	stw	r17,12(sp)
 80499b8:	1880020c 	andi	r2,r3,8
 80499bc:	2821883a 	mov	r16,r5
 80499c0:	202b883a 	mov	r21,r4
 80499c4:	3029883a 	mov	r20,r6
 80499c8:	10002726 	beq	r2,zero,8049a68 <__sfvwrite_r+0xe8>
 80499cc:	28800417 	ldw	r2,16(r5)
 80499d0:	10002526 	beq	r2,zero,8049a68 <__sfvwrite_r+0xe8>
 80499d4:	1880008c 	andi	r2,r3,2
 80499d8:	a4400017 	ldw	r17,0(r20)
 80499dc:	10002a26 	beq	r2,zero,8049a88 <__sfvwrite_r+0x108>
 80499e0:	05a00034 	movhi	r22,32768
 80499e4:	0027883a 	mov	r19,zero
 80499e8:	0025883a 	mov	r18,zero
 80499ec:	b5bf0004 	addi	r22,r22,-1024
 80499f0:	980d883a 	mov	r6,r19
 80499f4:	a809883a 	mov	r4,r21
 80499f8:	90004626 	beq	r18,zero,8049b14 <__sfvwrite_r+0x194>
 80499fc:	900f883a 	mov	r7,r18
 8049a00:	b480022e 	bgeu	r22,r18,8049a0c <__sfvwrite_r+0x8c>
 8049a04:	01e00034 	movhi	r7,32768
 8049a08:	39ff0004 	addi	r7,r7,-1024
 8049a0c:	80800917 	ldw	r2,36(r16)
 8049a10:	81400717 	ldw	r5,28(r16)
 8049a14:	103ee83a 	callr	r2
 8049a18:	00805a0e 	bge	zero,r2,8049b84 <__sfvwrite_r+0x204>
 8049a1c:	a0c00217 	ldw	r3,8(r20)
 8049a20:	98a7883a 	add	r19,r19,r2
 8049a24:	90a5c83a 	sub	r18,r18,r2
 8049a28:	1885c83a 	sub	r2,r3,r2
 8049a2c:	a0800215 	stw	r2,8(r20)
 8049a30:	103fef1e 	bne	r2,zero,80499f0 <__alt_data_end+0xfffe1950>
 8049a34:	0005883a 	mov	r2,zero
 8049a38:	dfc00b17 	ldw	ra,44(sp)
 8049a3c:	df000a17 	ldw	fp,40(sp)
 8049a40:	ddc00917 	ldw	r23,36(sp)
 8049a44:	dd800817 	ldw	r22,32(sp)
 8049a48:	dd400717 	ldw	r21,28(sp)
 8049a4c:	dd000617 	ldw	r20,24(sp)
 8049a50:	dcc00517 	ldw	r19,20(sp)
 8049a54:	dc800417 	ldw	r18,16(sp)
 8049a58:	dc400317 	ldw	r17,12(sp)
 8049a5c:	dc000217 	ldw	r16,8(sp)
 8049a60:	dec00c04 	addi	sp,sp,48
 8049a64:	f800283a 	ret
 8049a68:	800b883a 	mov	r5,r16
 8049a6c:	a809883a 	mov	r4,r21
 8049a70:	804d9c40 	call	804d9c4 <__swsetup_r>
 8049a74:	1000ee1e 	bne	r2,zero,8049e30 <__sfvwrite_r+0x4b0>
 8049a78:	80c0030b 	ldhu	r3,12(r16)
 8049a7c:	a4400017 	ldw	r17,0(r20)
 8049a80:	1880008c 	andi	r2,r3,2
 8049a84:	103fd61e 	bne	r2,zero,80499e0 <__alt_data_end+0xfffe1940>
 8049a88:	1880004c 	andi	r2,r3,1
 8049a8c:	1000421e 	bne	r2,zero,8049b98 <__sfvwrite_r+0x218>
 8049a90:	0039883a 	mov	fp,zero
 8049a94:	0025883a 	mov	r18,zero
 8049a98:	90001a26 	beq	r18,zero,8049b04 <__sfvwrite_r+0x184>
 8049a9c:	1880800c 	andi	r2,r3,512
 8049aa0:	84c00217 	ldw	r19,8(r16)
 8049aa4:	10002126 	beq	r2,zero,8049b2c <__sfvwrite_r+0x1ac>
 8049aa8:	982f883a 	mov	r23,r19
 8049aac:	94c09636 	bltu	r18,r19,8049d08 <__sfvwrite_r+0x388>
 8049ab0:	1881200c 	andi	r2,r3,1152
 8049ab4:	1000a11e 	bne	r2,zero,8049d3c <__sfvwrite_r+0x3bc>
 8049ab8:	81000017 	ldw	r4,0(r16)
 8049abc:	b80d883a 	mov	r6,r23
 8049ac0:	e00b883a 	mov	r5,fp
 8049ac4:	804a99c0 	call	804a99c <memmove>
 8049ac8:	80c00217 	ldw	r3,8(r16)
 8049acc:	81000017 	ldw	r4,0(r16)
 8049ad0:	9005883a 	mov	r2,r18
 8049ad4:	1ce7c83a 	sub	r19,r3,r19
 8049ad8:	25cf883a 	add	r7,r4,r23
 8049adc:	84c00215 	stw	r19,8(r16)
 8049ae0:	81c00015 	stw	r7,0(r16)
 8049ae4:	a0c00217 	ldw	r3,8(r20)
 8049ae8:	e0b9883a 	add	fp,fp,r2
 8049aec:	90a5c83a 	sub	r18,r18,r2
 8049af0:	18a7c83a 	sub	r19,r3,r2
 8049af4:	a4c00215 	stw	r19,8(r20)
 8049af8:	983fce26 	beq	r19,zero,8049a34 <__alt_data_end+0xfffe1994>
 8049afc:	80c0030b 	ldhu	r3,12(r16)
 8049b00:	903fe61e 	bne	r18,zero,8049a9c <__alt_data_end+0xfffe19fc>
 8049b04:	8f000017 	ldw	fp,0(r17)
 8049b08:	8c800117 	ldw	r18,4(r17)
 8049b0c:	8c400204 	addi	r17,r17,8
 8049b10:	003fe106 	br	8049a98 <__alt_data_end+0xfffe19f8>
 8049b14:	8cc00017 	ldw	r19,0(r17)
 8049b18:	8c800117 	ldw	r18,4(r17)
 8049b1c:	8c400204 	addi	r17,r17,8
 8049b20:	003fb306 	br	80499f0 <__alt_data_end+0xfffe1950>
 8049b24:	0005883a 	mov	r2,zero
 8049b28:	f800283a 	ret
 8049b2c:	81000017 	ldw	r4,0(r16)
 8049b30:	80800417 	ldw	r2,16(r16)
 8049b34:	11005a36 	bltu	r2,r4,8049ca0 <__sfvwrite_r+0x320>
 8049b38:	85c00517 	ldw	r23,20(r16)
 8049b3c:	95c05836 	bltu	r18,r23,8049ca0 <__sfvwrite_r+0x320>
 8049b40:	00a00034 	movhi	r2,32768
 8049b44:	10bfffc4 	addi	r2,r2,-1
 8049b48:	9009883a 	mov	r4,r18
 8049b4c:	1480012e 	bgeu	r2,r18,8049b54 <__sfvwrite_r+0x1d4>
 8049b50:	1009883a 	mov	r4,r2
 8049b54:	b80b883a 	mov	r5,r23
 8049b58:	8042bf80 	call	8042bf8 <__divsi3>
 8049b5c:	b80b883a 	mov	r5,r23
 8049b60:	1009883a 	mov	r4,r2
 8049b64:	8042dac0 	call	8042dac <__mulsi3>
 8049b68:	81400717 	ldw	r5,28(r16)
 8049b6c:	80c00917 	ldw	r3,36(r16)
 8049b70:	100f883a 	mov	r7,r2
 8049b74:	e00d883a 	mov	r6,fp
 8049b78:	a809883a 	mov	r4,r21
 8049b7c:	183ee83a 	callr	r3
 8049b80:	00bfd816 	blt	zero,r2,8049ae4 <__alt_data_end+0xfffe1a44>
 8049b84:	8080030b 	ldhu	r2,12(r16)
 8049b88:	10801014 	ori	r2,r2,64
 8049b8c:	8080030d 	sth	r2,12(r16)
 8049b90:	00bfffc4 	movi	r2,-1
 8049b94:	003fa806 	br	8049a38 <__alt_data_end+0xfffe1998>
 8049b98:	0027883a 	mov	r19,zero
 8049b9c:	0011883a 	mov	r8,zero
 8049ba0:	0039883a 	mov	fp,zero
 8049ba4:	0025883a 	mov	r18,zero
 8049ba8:	90001f26 	beq	r18,zero,8049c28 <__sfvwrite_r+0x2a8>
 8049bac:	40005a26 	beq	r8,zero,8049d18 <__sfvwrite_r+0x398>
 8049bb0:	982d883a 	mov	r22,r19
 8049bb4:	94c0012e 	bgeu	r18,r19,8049bbc <__sfvwrite_r+0x23c>
 8049bb8:	902d883a 	mov	r22,r18
 8049bbc:	81000017 	ldw	r4,0(r16)
 8049bc0:	80800417 	ldw	r2,16(r16)
 8049bc4:	b02f883a 	mov	r23,r22
 8049bc8:	81c00517 	ldw	r7,20(r16)
 8049bcc:	1100032e 	bgeu	r2,r4,8049bdc <__sfvwrite_r+0x25c>
 8049bd0:	80c00217 	ldw	r3,8(r16)
 8049bd4:	38c7883a 	add	r3,r7,r3
 8049bd8:	1d801816 	blt	r3,r22,8049c3c <__sfvwrite_r+0x2bc>
 8049bdc:	b1c03e16 	blt	r22,r7,8049cd8 <__sfvwrite_r+0x358>
 8049be0:	80800917 	ldw	r2,36(r16)
 8049be4:	81400717 	ldw	r5,28(r16)
 8049be8:	e00d883a 	mov	r6,fp
 8049bec:	da000115 	stw	r8,4(sp)
 8049bf0:	a809883a 	mov	r4,r21
 8049bf4:	103ee83a 	callr	r2
 8049bf8:	102f883a 	mov	r23,r2
 8049bfc:	da000117 	ldw	r8,4(sp)
 8049c00:	00bfe00e 	bge	zero,r2,8049b84 <__alt_data_end+0xfffe1ae4>
 8049c04:	9de7c83a 	sub	r19,r19,r23
 8049c08:	98001f26 	beq	r19,zero,8049c88 <__sfvwrite_r+0x308>
 8049c0c:	a0800217 	ldw	r2,8(r20)
 8049c10:	e5f9883a 	add	fp,fp,r23
 8049c14:	95e5c83a 	sub	r18,r18,r23
 8049c18:	15efc83a 	sub	r23,r2,r23
 8049c1c:	a5c00215 	stw	r23,8(r20)
 8049c20:	b83f8426 	beq	r23,zero,8049a34 <__alt_data_end+0xfffe1994>
 8049c24:	903fe11e 	bne	r18,zero,8049bac <__alt_data_end+0xfffe1b0c>
 8049c28:	8f000017 	ldw	fp,0(r17)
 8049c2c:	8c800117 	ldw	r18,4(r17)
 8049c30:	0011883a 	mov	r8,zero
 8049c34:	8c400204 	addi	r17,r17,8
 8049c38:	003fdb06 	br	8049ba8 <__alt_data_end+0xfffe1b08>
 8049c3c:	180d883a 	mov	r6,r3
 8049c40:	e00b883a 	mov	r5,fp
 8049c44:	da000115 	stw	r8,4(sp)
 8049c48:	d8c00015 	stw	r3,0(sp)
 8049c4c:	804a99c0 	call	804a99c <memmove>
 8049c50:	d8c00017 	ldw	r3,0(sp)
 8049c54:	80800017 	ldw	r2,0(r16)
 8049c58:	800b883a 	mov	r5,r16
 8049c5c:	a809883a 	mov	r4,r21
 8049c60:	10c5883a 	add	r2,r2,r3
 8049c64:	80800015 	stw	r2,0(r16)
 8049c68:	d8c00015 	stw	r3,0(sp)
 8049c6c:	804df680 	call	804df68 <_fflush_r>
 8049c70:	d8c00017 	ldw	r3,0(sp)
 8049c74:	da000117 	ldw	r8,4(sp)
 8049c78:	103fc21e 	bne	r2,zero,8049b84 <__alt_data_end+0xfffe1ae4>
 8049c7c:	182f883a 	mov	r23,r3
 8049c80:	9de7c83a 	sub	r19,r19,r23
 8049c84:	983fe11e 	bne	r19,zero,8049c0c <__alt_data_end+0xfffe1b6c>
 8049c88:	800b883a 	mov	r5,r16
 8049c8c:	a809883a 	mov	r4,r21
 8049c90:	804df680 	call	804df68 <_fflush_r>
 8049c94:	103fbb1e 	bne	r2,zero,8049b84 <__alt_data_end+0xfffe1ae4>
 8049c98:	0011883a 	mov	r8,zero
 8049c9c:	003fdb06 	br	8049c0c <__alt_data_end+0xfffe1b6c>
 8049ca0:	94c0012e 	bgeu	r18,r19,8049ca8 <__sfvwrite_r+0x328>
 8049ca4:	9027883a 	mov	r19,r18
 8049ca8:	980d883a 	mov	r6,r19
 8049cac:	e00b883a 	mov	r5,fp
 8049cb0:	804a99c0 	call	804a99c <memmove>
 8049cb4:	80800217 	ldw	r2,8(r16)
 8049cb8:	80c00017 	ldw	r3,0(r16)
 8049cbc:	14c5c83a 	sub	r2,r2,r19
 8049cc0:	1cc7883a 	add	r3,r3,r19
 8049cc4:	80800215 	stw	r2,8(r16)
 8049cc8:	80c00015 	stw	r3,0(r16)
 8049ccc:	10004326 	beq	r2,zero,8049ddc <__sfvwrite_r+0x45c>
 8049cd0:	9805883a 	mov	r2,r19
 8049cd4:	003f8306 	br	8049ae4 <__alt_data_end+0xfffe1a44>
 8049cd8:	b00d883a 	mov	r6,r22
 8049cdc:	e00b883a 	mov	r5,fp
 8049ce0:	da000115 	stw	r8,4(sp)
 8049ce4:	804a99c0 	call	804a99c <memmove>
 8049ce8:	80800217 	ldw	r2,8(r16)
 8049cec:	80c00017 	ldw	r3,0(r16)
 8049cf0:	da000117 	ldw	r8,4(sp)
 8049cf4:	1585c83a 	sub	r2,r2,r22
 8049cf8:	1dad883a 	add	r22,r3,r22
 8049cfc:	80800215 	stw	r2,8(r16)
 8049d00:	85800015 	stw	r22,0(r16)
 8049d04:	003fbf06 	br	8049c04 <__alt_data_end+0xfffe1b64>
 8049d08:	81000017 	ldw	r4,0(r16)
 8049d0c:	9027883a 	mov	r19,r18
 8049d10:	902f883a 	mov	r23,r18
 8049d14:	003f6906 	br	8049abc <__alt_data_end+0xfffe1a1c>
 8049d18:	900d883a 	mov	r6,r18
 8049d1c:	01400284 	movi	r5,10
 8049d20:	e009883a 	mov	r4,fp
 8049d24:	804a8b80 	call	804a8b8 <memchr>
 8049d28:	10003e26 	beq	r2,zero,8049e24 <__sfvwrite_r+0x4a4>
 8049d2c:	10800044 	addi	r2,r2,1
 8049d30:	1727c83a 	sub	r19,r2,fp
 8049d34:	02000044 	movi	r8,1
 8049d38:	003f9d06 	br	8049bb0 <__alt_data_end+0xfffe1b10>
 8049d3c:	80800517 	ldw	r2,20(r16)
 8049d40:	81400417 	ldw	r5,16(r16)
 8049d44:	81c00017 	ldw	r7,0(r16)
 8049d48:	10a7883a 	add	r19,r2,r2
 8049d4c:	9885883a 	add	r2,r19,r2
 8049d50:	1026d7fa 	srli	r19,r2,31
 8049d54:	396dc83a 	sub	r22,r7,r5
 8049d58:	b1000044 	addi	r4,r22,1
 8049d5c:	9885883a 	add	r2,r19,r2
 8049d60:	1027d07a 	srai	r19,r2,1
 8049d64:	2485883a 	add	r2,r4,r18
 8049d68:	980d883a 	mov	r6,r19
 8049d6c:	9880022e 	bgeu	r19,r2,8049d78 <__sfvwrite_r+0x3f8>
 8049d70:	1027883a 	mov	r19,r2
 8049d74:	100d883a 	mov	r6,r2
 8049d78:	18c1000c 	andi	r3,r3,1024
 8049d7c:	18001c26 	beq	r3,zero,8049df0 <__sfvwrite_r+0x470>
 8049d80:	300b883a 	mov	r5,r6
 8049d84:	a809883a 	mov	r4,r21
 8049d88:	804a0ac0 	call	804a0ac <_malloc_r>
 8049d8c:	102f883a 	mov	r23,r2
 8049d90:	10002926 	beq	r2,zero,8049e38 <__sfvwrite_r+0x4b8>
 8049d94:	81400417 	ldw	r5,16(r16)
 8049d98:	b00d883a 	mov	r6,r22
 8049d9c:	1009883a 	mov	r4,r2
 8049da0:	80455480 	call	8045548 <memcpy>
 8049da4:	8080030b 	ldhu	r2,12(r16)
 8049da8:	00fedfc4 	movi	r3,-1153
 8049dac:	10c4703a 	and	r2,r2,r3
 8049db0:	10802014 	ori	r2,r2,128
 8049db4:	8080030d 	sth	r2,12(r16)
 8049db8:	bd89883a 	add	r4,r23,r22
 8049dbc:	9d8fc83a 	sub	r7,r19,r22
 8049dc0:	85c00415 	stw	r23,16(r16)
 8049dc4:	84c00515 	stw	r19,20(r16)
 8049dc8:	81000015 	stw	r4,0(r16)
 8049dcc:	9027883a 	mov	r19,r18
 8049dd0:	81c00215 	stw	r7,8(r16)
 8049dd4:	902f883a 	mov	r23,r18
 8049dd8:	003f3806 	br	8049abc <__alt_data_end+0xfffe1a1c>
 8049ddc:	800b883a 	mov	r5,r16
 8049de0:	a809883a 	mov	r4,r21
 8049de4:	804df680 	call	804df68 <_fflush_r>
 8049de8:	103fb926 	beq	r2,zero,8049cd0 <__alt_data_end+0xfffe1c30>
 8049dec:	003f6506 	br	8049b84 <__alt_data_end+0xfffe1ae4>
 8049df0:	a809883a 	mov	r4,r21
 8049df4:	804bbb00 	call	804bbb0 <_realloc_r>
 8049df8:	102f883a 	mov	r23,r2
 8049dfc:	103fee1e 	bne	r2,zero,8049db8 <__alt_data_end+0xfffe1d18>
 8049e00:	81400417 	ldw	r5,16(r16)
 8049e04:	a809883a 	mov	r4,r21
 8049e08:	804e1180 	call	804e118 <_free_r>
 8049e0c:	8080030b 	ldhu	r2,12(r16)
 8049e10:	00ffdfc4 	movi	r3,-129
 8049e14:	1884703a 	and	r2,r3,r2
 8049e18:	00c00304 	movi	r3,12
 8049e1c:	a8c00015 	stw	r3,0(r21)
 8049e20:	003f5906 	br	8049b88 <__alt_data_end+0xfffe1ae8>
 8049e24:	94c00044 	addi	r19,r18,1
 8049e28:	02000044 	movi	r8,1
 8049e2c:	003f6006 	br	8049bb0 <__alt_data_end+0xfffe1b10>
 8049e30:	00bfffc4 	movi	r2,-1
 8049e34:	003f0006 	br	8049a38 <__alt_data_end+0xfffe1998>
 8049e38:	00800304 	movi	r2,12
 8049e3c:	a8800015 	stw	r2,0(r21)
 8049e40:	8080030b 	ldhu	r2,12(r16)
 8049e44:	003f5006 	br	8049b88 <__alt_data_end+0xfffe1ae8>

08049e48 <_fwalk>:
 8049e48:	defff704 	addi	sp,sp,-36
 8049e4c:	dd000415 	stw	r20,16(sp)
 8049e50:	dfc00815 	stw	ra,32(sp)
 8049e54:	ddc00715 	stw	r23,28(sp)
 8049e58:	dd800615 	stw	r22,24(sp)
 8049e5c:	dd400515 	stw	r21,20(sp)
 8049e60:	dcc00315 	stw	r19,12(sp)
 8049e64:	dc800215 	stw	r18,8(sp)
 8049e68:	dc400115 	stw	r17,4(sp)
 8049e6c:	dc000015 	stw	r16,0(sp)
 8049e70:	2500b804 	addi	r20,r4,736
 8049e74:	a0002326 	beq	r20,zero,8049f04 <_fwalk+0xbc>
 8049e78:	282b883a 	mov	r21,r5
 8049e7c:	002f883a 	mov	r23,zero
 8049e80:	05800044 	movi	r22,1
 8049e84:	04ffffc4 	movi	r19,-1
 8049e88:	a4400117 	ldw	r17,4(r20)
 8049e8c:	a4800217 	ldw	r18,8(r20)
 8049e90:	8c7fffc4 	addi	r17,r17,-1
 8049e94:	88000d16 	blt	r17,zero,8049ecc <_fwalk+0x84>
 8049e98:	94000304 	addi	r16,r18,12
 8049e9c:	94800384 	addi	r18,r18,14
 8049ea0:	8080000b 	ldhu	r2,0(r16)
 8049ea4:	8c7fffc4 	addi	r17,r17,-1
 8049ea8:	813ffd04 	addi	r4,r16,-12
 8049eac:	b080042e 	bgeu	r22,r2,8049ec0 <_fwalk+0x78>
 8049eb0:	9080000f 	ldh	r2,0(r18)
 8049eb4:	14c00226 	beq	r2,r19,8049ec0 <_fwalk+0x78>
 8049eb8:	a83ee83a 	callr	r21
 8049ebc:	b8aeb03a 	or	r23,r23,r2
 8049ec0:	84001a04 	addi	r16,r16,104
 8049ec4:	94801a04 	addi	r18,r18,104
 8049ec8:	8cfff51e 	bne	r17,r19,8049ea0 <__alt_data_end+0xfffe1e00>
 8049ecc:	a5000017 	ldw	r20,0(r20)
 8049ed0:	a03fed1e 	bne	r20,zero,8049e88 <__alt_data_end+0xfffe1de8>
 8049ed4:	b805883a 	mov	r2,r23
 8049ed8:	dfc00817 	ldw	ra,32(sp)
 8049edc:	ddc00717 	ldw	r23,28(sp)
 8049ee0:	dd800617 	ldw	r22,24(sp)
 8049ee4:	dd400517 	ldw	r21,20(sp)
 8049ee8:	dd000417 	ldw	r20,16(sp)
 8049eec:	dcc00317 	ldw	r19,12(sp)
 8049ef0:	dc800217 	ldw	r18,8(sp)
 8049ef4:	dc400117 	ldw	r17,4(sp)
 8049ef8:	dc000017 	ldw	r16,0(sp)
 8049efc:	dec00904 	addi	sp,sp,36
 8049f00:	f800283a 	ret
 8049f04:	002f883a 	mov	r23,zero
 8049f08:	003ff206 	br	8049ed4 <__alt_data_end+0xfffe1e34>

08049f0c <_fwalk_reent>:
 8049f0c:	defff704 	addi	sp,sp,-36
 8049f10:	dd000415 	stw	r20,16(sp)
 8049f14:	dfc00815 	stw	ra,32(sp)
 8049f18:	ddc00715 	stw	r23,28(sp)
 8049f1c:	dd800615 	stw	r22,24(sp)
 8049f20:	dd400515 	stw	r21,20(sp)
 8049f24:	dcc00315 	stw	r19,12(sp)
 8049f28:	dc800215 	stw	r18,8(sp)
 8049f2c:	dc400115 	stw	r17,4(sp)
 8049f30:	dc000015 	stw	r16,0(sp)
 8049f34:	2500b804 	addi	r20,r4,736
 8049f38:	a0002326 	beq	r20,zero,8049fc8 <_fwalk_reent+0xbc>
 8049f3c:	282b883a 	mov	r21,r5
 8049f40:	2027883a 	mov	r19,r4
 8049f44:	002f883a 	mov	r23,zero
 8049f48:	05800044 	movi	r22,1
 8049f4c:	04bfffc4 	movi	r18,-1
 8049f50:	a4400117 	ldw	r17,4(r20)
 8049f54:	a4000217 	ldw	r16,8(r20)
 8049f58:	8c7fffc4 	addi	r17,r17,-1
 8049f5c:	88000c16 	blt	r17,zero,8049f90 <_fwalk_reent+0x84>
 8049f60:	84000304 	addi	r16,r16,12
 8049f64:	8080000b 	ldhu	r2,0(r16)
 8049f68:	8c7fffc4 	addi	r17,r17,-1
 8049f6c:	817ffd04 	addi	r5,r16,-12
 8049f70:	b080052e 	bgeu	r22,r2,8049f88 <_fwalk_reent+0x7c>
 8049f74:	8080008f 	ldh	r2,2(r16)
 8049f78:	9809883a 	mov	r4,r19
 8049f7c:	14800226 	beq	r2,r18,8049f88 <_fwalk_reent+0x7c>
 8049f80:	a83ee83a 	callr	r21
 8049f84:	b8aeb03a 	or	r23,r23,r2
 8049f88:	84001a04 	addi	r16,r16,104
 8049f8c:	8cbff51e 	bne	r17,r18,8049f64 <__alt_data_end+0xfffe1ec4>
 8049f90:	a5000017 	ldw	r20,0(r20)
 8049f94:	a03fee1e 	bne	r20,zero,8049f50 <__alt_data_end+0xfffe1eb0>
 8049f98:	b805883a 	mov	r2,r23
 8049f9c:	dfc00817 	ldw	ra,32(sp)
 8049fa0:	ddc00717 	ldw	r23,28(sp)
 8049fa4:	dd800617 	ldw	r22,24(sp)
 8049fa8:	dd400517 	ldw	r21,20(sp)
 8049fac:	dd000417 	ldw	r20,16(sp)
 8049fb0:	dcc00317 	ldw	r19,12(sp)
 8049fb4:	dc800217 	ldw	r18,8(sp)
 8049fb8:	dc400117 	ldw	r17,4(sp)
 8049fbc:	dc000017 	ldw	r16,0(sp)
 8049fc0:	dec00904 	addi	sp,sp,36
 8049fc4:	f800283a 	ret
 8049fc8:	002f883a 	mov	r23,zero
 8049fcc:	003ff206 	br	8049f98 <__alt_data_end+0xfffe1ef8>

08049fd0 <_setlocale_r>:
 8049fd0:	30001b26 	beq	r6,zero,804a040 <_setlocale_r+0x70>
 8049fd4:	01420174 	movhi	r5,2053
 8049fd8:	defffe04 	addi	sp,sp,-8
 8049fdc:	29518004 	addi	r5,r5,17920
 8049fe0:	3009883a 	mov	r4,r6
 8049fe4:	dc000015 	stw	r16,0(sp)
 8049fe8:	dfc00115 	stw	ra,4(sp)
 8049fec:	3021883a 	mov	r16,r6
 8049ff0:	804c3180 	call	804c318 <strcmp>
 8049ff4:	1000061e 	bne	r2,zero,804a010 <_setlocale_r+0x40>
 8049ff8:	00820174 	movhi	r2,2053
 8049ffc:	10917f04 	addi	r2,r2,17916
 804a000:	dfc00117 	ldw	ra,4(sp)
 804a004:	dc000017 	ldw	r16,0(sp)
 804a008:	dec00204 	addi	sp,sp,8
 804a00c:	f800283a 	ret
 804a010:	01420174 	movhi	r5,2053
 804a014:	29517f04 	addi	r5,r5,17916
 804a018:	8009883a 	mov	r4,r16
 804a01c:	804c3180 	call	804c318 <strcmp>
 804a020:	103ff526 	beq	r2,zero,8049ff8 <__alt_data_end+0xfffe1f58>
 804a024:	01420174 	movhi	r5,2053
 804a028:	29516a04 	addi	r5,r5,17832
 804a02c:	8009883a 	mov	r4,r16
 804a030:	804c3180 	call	804c318 <strcmp>
 804a034:	103ff026 	beq	r2,zero,8049ff8 <__alt_data_end+0xfffe1f58>
 804a038:	0005883a 	mov	r2,zero
 804a03c:	003ff006 	br	804a000 <__alt_data_end+0xfffe1f60>
 804a040:	00820174 	movhi	r2,2053
 804a044:	10917f04 	addi	r2,r2,17916
 804a048:	f800283a 	ret

0804a04c <__locale_charset>:
 804a04c:	00820174 	movhi	r2,2053
 804a050:	10931a04 	addi	r2,r2,19560
 804a054:	f800283a 	ret

0804a058 <__locale_mb_cur_max>:
 804a058:	00820174 	movhi	r2,2053
 804a05c:	1098ee04 	addi	r2,r2,25528
 804a060:	10800017 	ldw	r2,0(r2)
 804a064:	f800283a 	ret

0804a068 <__locale_msgcharset>:
 804a068:	00820174 	movhi	r2,2053
 804a06c:	10931204 	addi	r2,r2,19528
 804a070:	f800283a 	ret

0804a074 <__locale_cjk_lang>:
 804a074:	0005883a 	mov	r2,zero
 804a078:	f800283a 	ret

0804a07c <_localeconv_r>:
 804a07c:	00820174 	movhi	r2,2053
 804a080:	10932204 	addi	r2,r2,19592
 804a084:	f800283a 	ret

0804a088 <setlocale>:
 804a088:	00820174 	movhi	r2,2053
 804a08c:	1098ed04 	addi	r2,r2,25524
 804a090:	280d883a 	mov	r6,r5
 804a094:	200b883a 	mov	r5,r4
 804a098:	11000017 	ldw	r4,0(r2)
 804a09c:	8049fd01 	jmpi	8049fd0 <_setlocale_r>

0804a0a0 <localeconv>:
 804a0a0:	00820174 	movhi	r2,2053
 804a0a4:	10932204 	addi	r2,r2,19592
 804a0a8:	f800283a 	ret

0804a0ac <_malloc_r>:
 804a0ac:	defff504 	addi	sp,sp,-44
 804a0b0:	dc800315 	stw	r18,12(sp)
 804a0b4:	dfc00a15 	stw	ra,40(sp)
 804a0b8:	df000915 	stw	fp,36(sp)
 804a0bc:	ddc00815 	stw	r23,32(sp)
 804a0c0:	dd800715 	stw	r22,28(sp)
 804a0c4:	dd400615 	stw	r21,24(sp)
 804a0c8:	dd000515 	stw	r20,20(sp)
 804a0cc:	dcc00415 	stw	r19,16(sp)
 804a0d0:	dc400215 	stw	r17,8(sp)
 804a0d4:	dc000115 	stw	r16,4(sp)
 804a0d8:	288002c4 	addi	r2,r5,11
 804a0dc:	00c00584 	movi	r3,22
 804a0e0:	2025883a 	mov	r18,r4
 804a0e4:	18807f2e 	bgeu	r3,r2,804a2e4 <_malloc_r+0x238>
 804a0e8:	047ffe04 	movi	r17,-8
 804a0ec:	1462703a 	and	r17,r2,r17
 804a0f0:	8800a316 	blt	r17,zero,804a380 <_malloc_r+0x2d4>
 804a0f4:	8940a236 	bltu	r17,r5,804a380 <_malloc_r+0x2d4>
 804a0f8:	80508400 	call	8050840 <__malloc_lock>
 804a0fc:	00807dc4 	movi	r2,503
 804a100:	1441e92e 	bgeu	r2,r17,804a8a8 <_malloc_r+0x7fc>
 804a104:	8804d27a 	srli	r2,r17,9
 804a108:	1000a126 	beq	r2,zero,804a390 <_malloc_r+0x2e4>
 804a10c:	00c00104 	movi	r3,4
 804a110:	18811e36 	bltu	r3,r2,804a58c <_malloc_r+0x4e0>
 804a114:	8804d1ba 	srli	r2,r17,6
 804a118:	12000e44 	addi	r8,r2,57
 804a11c:	11c00e04 	addi	r7,r2,56
 804a120:	4209883a 	add	r4,r8,r8
 804a124:	04c20174 	movhi	r19,2053
 804a128:	2109883a 	add	r4,r4,r4
 804a12c:	9cd33004 	addi	r19,r19,19648
 804a130:	2109883a 	add	r4,r4,r4
 804a134:	9909883a 	add	r4,r19,r4
 804a138:	24000117 	ldw	r16,4(r4)
 804a13c:	213ffe04 	addi	r4,r4,-8
 804a140:	24009726 	beq	r4,r16,804a3a0 <_malloc_r+0x2f4>
 804a144:	80800117 	ldw	r2,4(r16)
 804a148:	01bfff04 	movi	r6,-4
 804a14c:	014003c4 	movi	r5,15
 804a150:	1184703a 	and	r2,r2,r6
 804a154:	1447c83a 	sub	r3,r2,r17
 804a158:	28c00716 	blt	r5,r3,804a178 <_malloc_r+0xcc>
 804a15c:	1800920e 	bge	r3,zero,804a3a8 <_malloc_r+0x2fc>
 804a160:	84000317 	ldw	r16,12(r16)
 804a164:	24008e26 	beq	r4,r16,804a3a0 <_malloc_r+0x2f4>
 804a168:	80800117 	ldw	r2,4(r16)
 804a16c:	1184703a 	and	r2,r2,r6
 804a170:	1447c83a 	sub	r3,r2,r17
 804a174:	28fff90e 	bge	r5,r3,804a15c <__alt_data_end+0xfffe20bc>
 804a178:	3809883a 	mov	r4,r7
 804a17c:	01820174 	movhi	r6,2053
 804a180:	9c000417 	ldw	r16,16(r19)
 804a184:	31933004 	addi	r6,r6,19648
 804a188:	32000204 	addi	r8,r6,8
 804a18c:	82013426 	beq	r16,r8,804a660 <_malloc_r+0x5b4>
 804a190:	80c00117 	ldw	r3,4(r16)
 804a194:	00bfff04 	movi	r2,-4
 804a198:	188e703a 	and	r7,r3,r2
 804a19c:	3c45c83a 	sub	r2,r7,r17
 804a1a0:	00c003c4 	movi	r3,15
 804a1a4:	18811f16 	blt	r3,r2,804a624 <_malloc_r+0x578>
 804a1a8:	32000515 	stw	r8,20(r6)
 804a1ac:	32000415 	stw	r8,16(r6)
 804a1b0:	10007f0e 	bge	r2,zero,804a3b0 <_malloc_r+0x304>
 804a1b4:	00807fc4 	movi	r2,511
 804a1b8:	11c0fd36 	bltu	r2,r7,804a5b0 <_malloc_r+0x504>
 804a1bc:	3806d0fa 	srli	r3,r7,3
 804a1c0:	01c00044 	movi	r7,1
 804a1c4:	30800117 	ldw	r2,4(r6)
 804a1c8:	19400044 	addi	r5,r3,1
 804a1cc:	294b883a 	add	r5,r5,r5
 804a1d0:	1807d0ba 	srai	r3,r3,2
 804a1d4:	294b883a 	add	r5,r5,r5
 804a1d8:	294b883a 	add	r5,r5,r5
 804a1dc:	298b883a 	add	r5,r5,r6
 804a1e0:	38c6983a 	sll	r3,r7,r3
 804a1e4:	29c00017 	ldw	r7,0(r5)
 804a1e8:	2a7ffe04 	addi	r9,r5,-8
 804a1ec:	1886b03a 	or	r3,r3,r2
 804a1f0:	82400315 	stw	r9,12(r16)
 804a1f4:	81c00215 	stw	r7,8(r16)
 804a1f8:	30c00115 	stw	r3,4(r6)
 804a1fc:	2c000015 	stw	r16,0(r5)
 804a200:	3c000315 	stw	r16,12(r7)
 804a204:	2005d0ba 	srai	r2,r4,2
 804a208:	01400044 	movi	r5,1
 804a20c:	288a983a 	sll	r5,r5,r2
 804a210:	19406f36 	bltu	r3,r5,804a3d0 <_malloc_r+0x324>
 804a214:	28c4703a 	and	r2,r5,r3
 804a218:	10000a1e 	bne	r2,zero,804a244 <_malloc_r+0x198>
 804a21c:	00bfff04 	movi	r2,-4
 804a220:	294b883a 	add	r5,r5,r5
 804a224:	2088703a 	and	r4,r4,r2
 804a228:	28c4703a 	and	r2,r5,r3
 804a22c:	21000104 	addi	r4,r4,4
 804a230:	1000041e 	bne	r2,zero,804a244 <_malloc_r+0x198>
 804a234:	294b883a 	add	r5,r5,r5
 804a238:	28c4703a 	and	r2,r5,r3
 804a23c:	21000104 	addi	r4,r4,4
 804a240:	103ffc26 	beq	r2,zero,804a234 <__alt_data_end+0xfffe2194>
 804a244:	02bfff04 	movi	r10,-4
 804a248:	024003c4 	movi	r9,15
 804a24c:	21800044 	addi	r6,r4,1
 804a250:	318d883a 	add	r6,r6,r6
 804a254:	318d883a 	add	r6,r6,r6
 804a258:	318d883a 	add	r6,r6,r6
 804a25c:	998d883a 	add	r6,r19,r6
 804a260:	333ffe04 	addi	r12,r6,-8
 804a264:	2017883a 	mov	r11,r4
 804a268:	31800104 	addi	r6,r6,4
 804a26c:	34000017 	ldw	r16,0(r6)
 804a270:	31fffd04 	addi	r7,r6,-12
 804a274:	81c0041e 	bne	r16,r7,804a288 <_malloc_r+0x1dc>
 804a278:	0000fb06 	br	804a668 <_malloc_r+0x5bc>
 804a27c:	1801030e 	bge	r3,zero,804a68c <_malloc_r+0x5e0>
 804a280:	84000317 	ldw	r16,12(r16)
 804a284:	81c0f826 	beq	r16,r7,804a668 <_malloc_r+0x5bc>
 804a288:	80800117 	ldw	r2,4(r16)
 804a28c:	1284703a 	and	r2,r2,r10
 804a290:	1447c83a 	sub	r3,r2,r17
 804a294:	48fff90e 	bge	r9,r3,804a27c <__alt_data_end+0xfffe21dc>
 804a298:	80800317 	ldw	r2,12(r16)
 804a29c:	81000217 	ldw	r4,8(r16)
 804a2a0:	89400054 	ori	r5,r17,1
 804a2a4:	81400115 	stw	r5,4(r16)
 804a2a8:	20800315 	stw	r2,12(r4)
 804a2ac:	11000215 	stw	r4,8(r2)
 804a2b0:	8463883a 	add	r17,r16,r17
 804a2b4:	9c400515 	stw	r17,20(r19)
 804a2b8:	9c400415 	stw	r17,16(r19)
 804a2bc:	18800054 	ori	r2,r3,1
 804a2c0:	88800115 	stw	r2,4(r17)
 804a2c4:	8a000315 	stw	r8,12(r17)
 804a2c8:	8a000215 	stw	r8,8(r17)
 804a2cc:	88e3883a 	add	r17,r17,r3
 804a2d0:	88c00015 	stw	r3,0(r17)
 804a2d4:	9009883a 	mov	r4,r18
 804a2d8:	80508640 	call	8050864 <__malloc_unlock>
 804a2dc:	80800204 	addi	r2,r16,8
 804a2e0:	00001b06 	br	804a350 <_malloc_r+0x2a4>
 804a2e4:	04400404 	movi	r17,16
 804a2e8:	89402536 	bltu	r17,r5,804a380 <_malloc_r+0x2d4>
 804a2ec:	80508400 	call	8050840 <__malloc_lock>
 804a2f0:	00800184 	movi	r2,6
 804a2f4:	01000084 	movi	r4,2
 804a2f8:	04c20174 	movhi	r19,2053
 804a2fc:	1085883a 	add	r2,r2,r2
 804a300:	9cd33004 	addi	r19,r19,19648
 804a304:	1085883a 	add	r2,r2,r2
 804a308:	9885883a 	add	r2,r19,r2
 804a30c:	14000117 	ldw	r16,4(r2)
 804a310:	10fffe04 	addi	r3,r2,-8
 804a314:	80c0d926 	beq	r16,r3,804a67c <_malloc_r+0x5d0>
 804a318:	80c00117 	ldw	r3,4(r16)
 804a31c:	81000317 	ldw	r4,12(r16)
 804a320:	00bfff04 	movi	r2,-4
 804a324:	1884703a 	and	r2,r3,r2
 804a328:	81400217 	ldw	r5,8(r16)
 804a32c:	8085883a 	add	r2,r16,r2
 804a330:	10c00117 	ldw	r3,4(r2)
 804a334:	29000315 	stw	r4,12(r5)
 804a338:	21400215 	stw	r5,8(r4)
 804a33c:	18c00054 	ori	r3,r3,1
 804a340:	10c00115 	stw	r3,4(r2)
 804a344:	9009883a 	mov	r4,r18
 804a348:	80508640 	call	8050864 <__malloc_unlock>
 804a34c:	80800204 	addi	r2,r16,8
 804a350:	dfc00a17 	ldw	ra,40(sp)
 804a354:	df000917 	ldw	fp,36(sp)
 804a358:	ddc00817 	ldw	r23,32(sp)
 804a35c:	dd800717 	ldw	r22,28(sp)
 804a360:	dd400617 	ldw	r21,24(sp)
 804a364:	dd000517 	ldw	r20,20(sp)
 804a368:	dcc00417 	ldw	r19,16(sp)
 804a36c:	dc800317 	ldw	r18,12(sp)
 804a370:	dc400217 	ldw	r17,8(sp)
 804a374:	dc000117 	ldw	r16,4(sp)
 804a378:	dec00b04 	addi	sp,sp,44
 804a37c:	f800283a 	ret
 804a380:	00800304 	movi	r2,12
 804a384:	90800015 	stw	r2,0(r18)
 804a388:	0005883a 	mov	r2,zero
 804a38c:	003ff006 	br	804a350 <__alt_data_end+0xfffe22b0>
 804a390:	01002004 	movi	r4,128
 804a394:	02001004 	movi	r8,64
 804a398:	01c00fc4 	movi	r7,63
 804a39c:	003f6106 	br	804a124 <__alt_data_end+0xfffe2084>
 804a3a0:	4009883a 	mov	r4,r8
 804a3a4:	003f7506 	br	804a17c <__alt_data_end+0xfffe20dc>
 804a3a8:	81000317 	ldw	r4,12(r16)
 804a3ac:	003fde06 	br	804a328 <__alt_data_end+0xfffe2288>
 804a3b0:	81c5883a 	add	r2,r16,r7
 804a3b4:	11400117 	ldw	r5,4(r2)
 804a3b8:	9009883a 	mov	r4,r18
 804a3bc:	29400054 	ori	r5,r5,1
 804a3c0:	11400115 	stw	r5,4(r2)
 804a3c4:	80508640 	call	8050864 <__malloc_unlock>
 804a3c8:	80800204 	addi	r2,r16,8
 804a3cc:	003fe006 	br	804a350 <__alt_data_end+0xfffe22b0>
 804a3d0:	9c000217 	ldw	r16,8(r19)
 804a3d4:	00bfff04 	movi	r2,-4
 804a3d8:	85800117 	ldw	r22,4(r16)
 804a3dc:	b0ac703a 	and	r22,r22,r2
 804a3e0:	b4400336 	bltu	r22,r17,804a3f0 <_malloc_r+0x344>
 804a3e4:	b445c83a 	sub	r2,r22,r17
 804a3e8:	00c003c4 	movi	r3,15
 804a3ec:	18805d16 	blt	r3,r2,804a564 <_malloc_r+0x4b8>
 804a3f0:	05c20174 	movhi	r23,2053
 804a3f4:	00820174 	movhi	r2,2053
 804a3f8:	109ff804 	addi	r2,r2,32736
 804a3fc:	bdd8ef04 	addi	r23,r23,25532
 804a400:	15400017 	ldw	r21,0(r2)
 804a404:	b8c00017 	ldw	r3,0(r23)
 804a408:	00bfffc4 	movi	r2,-1
 804a40c:	858d883a 	add	r6,r16,r22
 804a410:	8d6b883a 	add	r21,r17,r21
 804a414:	1880ea26 	beq	r3,r2,804a7c0 <_malloc_r+0x714>
 804a418:	ad4403c4 	addi	r21,r21,4111
 804a41c:	00bc0004 	movi	r2,-4096
 804a420:	a8aa703a 	and	r21,r21,r2
 804a424:	a80b883a 	mov	r5,r21
 804a428:	9009883a 	mov	r4,r18
 804a42c:	d9800015 	stw	r6,0(sp)
 804a430:	804c1880 	call	804c188 <_sbrk_r>
 804a434:	1029883a 	mov	r20,r2
 804a438:	00bfffc4 	movi	r2,-1
 804a43c:	d9800017 	ldw	r6,0(sp)
 804a440:	a080e826 	beq	r20,r2,804a7e4 <_malloc_r+0x738>
 804a444:	a180a636 	bltu	r20,r6,804a6e0 <_malloc_r+0x634>
 804a448:	070201b4 	movhi	fp,2054
 804a44c:	e7200704 	addi	fp,fp,-32740
 804a450:	e0800017 	ldw	r2,0(fp)
 804a454:	a887883a 	add	r3,r21,r2
 804a458:	e0c00015 	stw	r3,0(fp)
 804a45c:	3500e626 	beq	r6,r20,804a7f8 <_malloc_r+0x74c>
 804a460:	b9000017 	ldw	r4,0(r23)
 804a464:	00bfffc4 	movi	r2,-1
 804a468:	2080ee26 	beq	r4,r2,804a824 <_malloc_r+0x778>
 804a46c:	a185c83a 	sub	r2,r20,r6
 804a470:	10c5883a 	add	r2,r2,r3
 804a474:	e0800015 	stw	r2,0(fp)
 804a478:	a0c001cc 	andi	r3,r20,7
 804a47c:	1800bc26 	beq	r3,zero,804a770 <_malloc_r+0x6c4>
 804a480:	a0e9c83a 	sub	r20,r20,r3
 804a484:	00840204 	movi	r2,4104
 804a488:	a5000204 	addi	r20,r20,8
 804a48c:	10c7c83a 	sub	r3,r2,r3
 804a490:	a545883a 	add	r2,r20,r21
 804a494:	1083ffcc 	andi	r2,r2,4095
 804a498:	18abc83a 	sub	r21,r3,r2
 804a49c:	a80b883a 	mov	r5,r21
 804a4a0:	9009883a 	mov	r4,r18
 804a4a4:	804c1880 	call	804c188 <_sbrk_r>
 804a4a8:	00ffffc4 	movi	r3,-1
 804a4ac:	10c0e126 	beq	r2,r3,804a834 <_malloc_r+0x788>
 804a4b0:	1505c83a 	sub	r2,r2,r20
 804a4b4:	1545883a 	add	r2,r2,r21
 804a4b8:	10800054 	ori	r2,r2,1
 804a4bc:	e0c00017 	ldw	r3,0(fp)
 804a4c0:	9d000215 	stw	r20,8(r19)
 804a4c4:	a0800115 	stw	r2,4(r20)
 804a4c8:	a8c7883a 	add	r3,r21,r3
 804a4cc:	e0c00015 	stw	r3,0(fp)
 804a4d0:	84c00e26 	beq	r16,r19,804a50c <_malloc_r+0x460>
 804a4d4:	018003c4 	movi	r6,15
 804a4d8:	3580a72e 	bgeu	r6,r22,804a778 <_malloc_r+0x6cc>
 804a4dc:	81400117 	ldw	r5,4(r16)
 804a4e0:	013ffe04 	movi	r4,-8
 804a4e4:	b0bffd04 	addi	r2,r22,-12
 804a4e8:	1104703a 	and	r2,r2,r4
 804a4ec:	2900004c 	andi	r4,r5,1
 804a4f0:	2088b03a 	or	r4,r4,r2
 804a4f4:	81000115 	stw	r4,4(r16)
 804a4f8:	01400144 	movi	r5,5
 804a4fc:	8089883a 	add	r4,r16,r2
 804a500:	21400115 	stw	r5,4(r4)
 804a504:	21400215 	stw	r5,8(r4)
 804a508:	3080cd36 	bltu	r6,r2,804a840 <_malloc_r+0x794>
 804a50c:	00820174 	movhi	r2,2053
 804a510:	109ff704 	addi	r2,r2,32732
 804a514:	11000017 	ldw	r4,0(r2)
 804a518:	20c0012e 	bgeu	r4,r3,804a520 <_malloc_r+0x474>
 804a51c:	10c00015 	stw	r3,0(r2)
 804a520:	00820174 	movhi	r2,2053
 804a524:	109ff604 	addi	r2,r2,32728
 804a528:	11000017 	ldw	r4,0(r2)
 804a52c:	9c000217 	ldw	r16,8(r19)
 804a530:	20c0012e 	bgeu	r4,r3,804a538 <_malloc_r+0x48c>
 804a534:	10c00015 	stw	r3,0(r2)
 804a538:	80c00117 	ldw	r3,4(r16)
 804a53c:	00bfff04 	movi	r2,-4
 804a540:	1886703a 	and	r3,r3,r2
 804a544:	1c45c83a 	sub	r2,r3,r17
 804a548:	1c400236 	bltu	r3,r17,804a554 <_malloc_r+0x4a8>
 804a54c:	00c003c4 	movi	r3,15
 804a550:	18800416 	blt	r3,r2,804a564 <_malloc_r+0x4b8>
 804a554:	9009883a 	mov	r4,r18
 804a558:	80508640 	call	8050864 <__malloc_unlock>
 804a55c:	0005883a 	mov	r2,zero
 804a560:	003f7b06 	br	804a350 <__alt_data_end+0xfffe22b0>
 804a564:	88c00054 	ori	r3,r17,1
 804a568:	80c00115 	stw	r3,4(r16)
 804a56c:	8463883a 	add	r17,r16,r17
 804a570:	10800054 	ori	r2,r2,1
 804a574:	9c400215 	stw	r17,8(r19)
 804a578:	88800115 	stw	r2,4(r17)
 804a57c:	9009883a 	mov	r4,r18
 804a580:	80508640 	call	8050864 <__malloc_unlock>
 804a584:	80800204 	addi	r2,r16,8
 804a588:	003f7106 	br	804a350 <__alt_data_end+0xfffe22b0>
 804a58c:	00c00504 	movi	r3,20
 804a590:	18804a2e 	bgeu	r3,r2,804a6bc <_malloc_r+0x610>
 804a594:	00c01504 	movi	r3,84
 804a598:	18806e36 	bltu	r3,r2,804a754 <_malloc_r+0x6a8>
 804a59c:	8804d33a 	srli	r2,r17,12
 804a5a0:	12001bc4 	addi	r8,r2,111
 804a5a4:	11c01b84 	addi	r7,r2,110
 804a5a8:	4209883a 	add	r4,r8,r8
 804a5ac:	003edd06 	br	804a124 <__alt_data_end+0xfffe2084>
 804a5b0:	3804d27a 	srli	r2,r7,9
 804a5b4:	00c00104 	movi	r3,4
 804a5b8:	1880442e 	bgeu	r3,r2,804a6cc <_malloc_r+0x620>
 804a5bc:	00c00504 	movi	r3,20
 804a5c0:	18808136 	bltu	r3,r2,804a7c8 <_malloc_r+0x71c>
 804a5c4:	11401704 	addi	r5,r2,92
 804a5c8:	10c016c4 	addi	r3,r2,91
 804a5cc:	294b883a 	add	r5,r5,r5
 804a5d0:	294b883a 	add	r5,r5,r5
 804a5d4:	294b883a 	add	r5,r5,r5
 804a5d8:	994b883a 	add	r5,r19,r5
 804a5dc:	28800017 	ldw	r2,0(r5)
 804a5e0:	01820174 	movhi	r6,2053
 804a5e4:	297ffe04 	addi	r5,r5,-8
 804a5e8:	31933004 	addi	r6,r6,19648
 804a5ec:	28806526 	beq	r5,r2,804a784 <_malloc_r+0x6d8>
 804a5f0:	01bfff04 	movi	r6,-4
 804a5f4:	10c00117 	ldw	r3,4(r2)
 804a5f8:	1986703a 	and	r3,r3,r6
 804a5fc:	38c0022e 	bgeu	r7,r3,804a608 <_malloc_r+0x55c>
 804a600:	10800217 	ldw	r2,8(r2)
 804a604:	28bffb1e 	bne	r5,r2,804a5f4 <__alt_data_end+0xfffe2554>
 804a608:	11400317 	ldw	r5,12(r2)
 804a60c:	98c00117 	ldw	r3,4(r19)
 804a610:	81400315 	stw	r5,12(r16)
 804a614:	80800215 	stw	r2,8(r16)
 804a618:	2c000215 	stw	r16,8(r5)
 804a61c:	14000315 	stw	r16,12(r2)
 804a620:	003ef806 	br	804a204 <__alt_data_end+0xfffe2164>
 804a624:	88c00054 	ori	r3,r17,1
 804a628:	80c00115 	stw	r3,4(r16)
 804a62c:	8463883a 	add	r17,r16,r17
 804a630:	34400515 	stw	r17,20(r6)
 804a634:	34400415 	stw	r17,16(r6)
 804a638:	10c00054 	ori	r3,r2,1
 804a63c:	8a000315 	stw	r8,12(r17)
 804a640:	8a000215 	stw	r8,8(r17)
 804a644:	88c00115 	stw	r3,4(r17)
 804a648:	88a3883a 	add	r17,r17,r2
 804a64c:	88800015 	stw	r2,0(r17)
 804a650:	9009883a 	mov	r4,r18
 804a654:	80508640 	call	8050864 <__malloc_unlock>
 804a658:	80800204 	addi	r2,r16,8
 804a65c:	003f3c06 	br	804a350 <__alt_data_end+0xfffe22b0>
 804a660:	30c00117 	ldw	r3,4(r6)
 804a664:	003ee706 	br	804a204 <__alt_data_end+0xfffe2164>
 804a668:	5ac00044 	addi	r11,r11,1
 804a66c:	588000cc 	andi	r2,r11,3
 804a670:	31800204 	addi	r6,r6,8
 804a674:	103efd1e 	bne	r2,zero,804a26c <__alt_data_end+0xfffe21cc>
 804a678:	00002406 	br	804a70c <_malloc_r+0x660>
 804a67c:	14000317 	ldw	r16,12(r2)
 804a680:	143f251e 	bne	r2,r16,804a318 <__alt_data_end+0xfffe2278>
 804a684:	21000084 	addi	r4,r4,2
 804a688:	003ebc06 	br	804a17c <__alt_data_end+0xfffe20dc>
 804a68c:	8085883a 	add	r2,r16,r2
 804a690:	10c00117 	ldw	r3,4(r2)
 804a694:	81000317 	ldw	r4,12(r16)
 804a698:	81400217 	ldw	r5,8(r16)
 804a69c:	18c00054 	ori	r3,r3,1
 804a6a0:	10c00115 	stw	r3,4(r2)
 804a6a4:	29000315 	stw	r4,12(r5)
 804a6a8:	21400215 	stw	r5,8(r4)
 804a6ac:	9009883a 	mov	r4,r18
 804a6b0:	80508640 	call	8050864 <__malloc_unlock>
 804a6b4:	80800204 	addi	r2,r16,8
 804a6b8:	003f2506 	br	804a350 <__alt_data_end+0xfffe22b0>
 804a6bc:	12001704 	addi	r8,r2,92
 804a6c0:	11c016c4 	addi	r7,r2,91
 804a6c4:	4209883a 	add	r4,r8,r8
 804a6c8:	003e9606 	br	804a124 <__alt_data_end+0xfffe2084>
 804a6cc:	3804d1ba 	srli	r2,r7,6
 804a6d0:	11400e44 	addi	r5,r2,57
 804a6d4:	10c00e04 	addi	r3,r2,56
 804a6d8:	294b883a 	add	r5,r5,r5
 804a6dc:	003fbc06 	br	804a5d0 <__alt_data_end+0xfffe2530>
 804a6e0:	84ff5926 	beq	r16,r19,804a448 <__alt_data_end+0xfffe23a8>
 804a6e4:	00820174 	movhi	r2,2053
 804a6e8:	10933004 	addi	r2,r2,19648
 804a6ec:	14000217 	ldw	r16,8(r2)
 804a6f0:	00bfff04 	movi	r2,-4
 804a6f4:	80c00117 	ldw	r3,4(r16)
 804a6f8:	1886703a 	and	r3,r3,r2
 804a6fc:	003f9106 	br	804a544 <__alt_data_end+0xfffe24a4>
 804a700:	60800217 	ldw	r2,8(r12)
 804a704:	213fffc4 	addi	r4,r4,-1
 804a708:	1300651e 	bne	r2,r12,804a8a0 <_malloc_r+0x7f4>
 804a70c:	208000cc 	andi	r2,r4,3
 804a710:	633ffe04 	addi	r12,r12,-8
 804a714:	103ffa1e 	bne	r2,zero,804a700 <__alt_data_end+0xfffe2660>
 804a718:	98800117 	ldw	r2,4(r19)
 804a71c:	0146303a 	nor	r3,zero,r5
 804a720:	1884703a 	and	r2,r3,r2
 804a724:	98800115 	stw	r2,4(r19)
 804a728:	294b883a 	add	r5,r5,r5
 804a72c:	117f2836 	bltu	r2,r5,804a3d0 <__alt_data_end+0xfffe2330>
 804a730:	283f2726 	beq	r5,zero,804a3d0 <__alt_data_end+0xfffe2330>
 804a734:	2886703a 	and	r3,r5,r2
 804a738:	5809883a 	mov	r4,r11
 804a73c:	183ec31e 	bne	r3,zero,804a24c <__alt_data_end+0xfffe21ac>
 804a740:	294b883a 	add	r5,r5,r5
 804a744:	2886703a 	and	r3,r5,r2
 804a748:	21000104 	addi	r4,r4,4
 804a74c:	183ffc26 	beq	r3,zero,804a740 <__alt_data_end+0xfffe26a0>
 804a750:	003ebe06 	br	804a24c <__alt_data_end+0xfffe21ac>
 804a754:	00c05504 	movi	r3,340
 804a758:	18801236 	bltu	r3,r2,804a7a4 <_malloc_r+0x6f8>
 804a75c:	8804d3fa 	srli	r2,r17,15
 804a760:	12001e04 	addi	r8,r2,120
 804a764:	11c01dc4 	addi	r7,r2,119
 804a768:	4209883a 	add	r4,r8,r8
 804a76c:	003e6d06 	br	804a124 <__alt_data_end+0xfffe2084>
 804a770:	00c40004 	movi	r3,4096
 804a774:	003f4606 	br	804a490 <__alt_data_end+0xfffe23f0>
 804a778:	00800044 	movi	r2,1
 804a77c:	a0800115 	stw	r2,4(r20)
 804a780:	003f7406 	br	804a554 <__alt_data_end+0xfffe24b4>
 804a784:	1805d0ba 	srai	r2,r3,2
 804a788:	01c00044 	movi	r7,1
 804a78c:	30c00117 	ldw	r3,4(r6)
 804a790:	388e983a 	sll	r7,r7,r2
 804a794:	2805883a 	mov	r2,r5
 804a798:	38c6b03a 	or	r3,r7,r3
 804a79c:	30c00115 	stw	r3,4(r6)
 804a7a0:	003f9b06 	br	804a610 <__alt_data_end+0xfffe2570>
 804a7a4:	00c15504 	movi	r3,1364
 804a7a8:	18801a36 	bltu	r3,r2,804a814 <_malloc_r+0x768>
 804a7ac:	8804d4ba 	srli	r2,r17,18
 804a7b0:	12001f44 	addi	r8,r2,125
 804a7b4:	11c01f04 	addi	r7,r2,124
 804a7b8:	4209883a 	add	r4,r8,r8
 804a7bc:	003e5906 	br	804a124 <__alt_data_end+0xfffe2084>
 804a7c0:	ad400404 	addi	r21,r21,16
 804a7c4:	003f1706 	br	804a424 <__alt_data_end+0xfffe2384>
 804a7c8:	00c01504 	movi	r3,84
 804a7cc:	18802336 	bltu	r3,r2,804a85c <_malloc_r+0x7b0>
 804a7d0:	3804d33a 	srli	r2,r7,12
 804a7d4:	11401bc4 	addi	r5,r2,111
 804a7d8:	10c01b84 	addi	r3,r2,110
 804a7dc:	294b883a 	add	r5,r5,r5
 804a7e0:	003f7b06 	br	804a5d0 <__alt_data_end+0xfffe2530>
 804a7e4:	9c000217 	ldw	r16,8(r19)
 804a7e8:	00bfff04 	movi	r2,-4
 804a7ec:	80c00117 	ldw	r3,4(r16)
 804a7f0:	1886703a 	and	r3,r3,r2
 804a7f4:	003f5306 	br	804a544 <__alt_data_end+0xfffe24a4>
 804a7f8:	3083ffcc 	andi	r2,r6,4095
 804a7fc:	103f181e 	bne	r2,zero,804a460 <__alt_data_end+0xfffe23c0>
 804a800:	99000217 	ldw	r4,8(r19)
 804a804:	b545883a 	add	r2,r22,r21
 804a808:	10800054 	ori	r2,r2,1
 804a80c:	20800115 	stw	r2,4(r4)
 804a810:	003f3e06 	br	804a50c <__alt_data_end+0xfffe246c>
 804a814:	01003f84 	movi	r4,254
 804a818:	02001fc4 	movi	r8,127
 804a81c:	01c01f84 	movi	r7,126
 804a820:	003e4006 	br	804a124 <__alt_data_end+0xfffe2084>
 804a824:	00820174 	movhi	r2,2053
 804a828:	1098ef04 	addi	r2,r2,25532
 804a82c:	15000015 	stw	r20,0(r2)
 804a830:	003f1106 	br	804a478 <__alt_data_end+0xfffe23d8>
 804a834:	00800044 	movi	r2,1
 804a838:	002b883a 	mov	r21,zero
 804a83c:	003f1f06 	br	804a4bc <__alt_data_end+0xfffe241c>
 804a840:	81400204 	addi	r5,r16,8
 804a844:	9009883a 	mov	r4,r18
 804a848:	804e1180 	call	804e118 <_free_r>
 804a84c:	008201b4 	movhi	r2,2054
 804a850:	10a00704 	addi	r2,r2,-32740
 804a854:	10c00017 	ldw	r3,0(r2)
 804a858:	003f2c06 	br	804a50c <__alt_data_end+0xfffe246c>
 804a85c:	00c05504 	movi	r3,340
 804a860:	18800536 	bltu	r3,r2,804a878 <_malloc_r+0x7cc>
 804a864:	3804d3fa 	srli	r2,r7,15
 804a868:	11401e04 	addi	r5,r2,120
 804a86c:	10c01dc4 	addi	r3,r2,119
 804a870:	294b883a 	add	r5,r5,r5
 804a874:	003f5606 	br	804a5d0 <__alt_data_end+0xfffe2530>
 804a878:	00c15504 	movi	r3,1364
 804a87c:	18800536 	bltu	r3,r2,804a894 <_malloc_r+0x7e8>
 804a880:	3804d4ba 	srli	r2,r7,18
 804a884:	11401f44 	addi	r5,r2,125
 804a888:	10c01f04 	addi	r3,r2,124
 804a88c:	294b883a 	add	r5,r5,r5
 804a890:	003f4f06 	br	804a5d0 <__alt_data_end+0xfffe2530>
 804a894:	01403f84 	movi	r5,254
 804a898:	00c01f84 	movi	r3,126
 804a89c:	003f4c06 	br	804a5d0 <__alt_data_end+0xfffe2530>
 804a8a0:	98800117 	ldw	r2,4(r19)
 804a8a4:	003fa006 	br	804a728 <__alt_data_end+0xfffe2688>
 804a8a8:	8808d0fa 	srli	r4,r17,3
 804a8ac:	20800044 	addi	r2,r4,1
 804a8b0:	1085883a 	add	r2,r2,r2
 804a8b4:	003e9006 	br	804a2f8 <__alt_data_end+0xfffe2258>

0804a8b8 <memchr>:
 804a8b8:	208000cc 	andi	r2,r4,3
 804a8bc:	280f883a 	mov	r7,r5
 804a8c0:	10003426 	beq	r2,zero,804a994 <memchr+0xdc>
 804a8c4:	30bfffc4 	addi	r2,r6,-1
 804a8c8:	30001a26 	beq	r6,zero,804a934 <memchr+0x7c>
 804a8cc:	20c00003 	ldbu	r3,0(r4)
 804a8d0:	29803fcc 	andi	r6,r5,255
 804a8d4:	30c0051e 	bne	r6,r3,804a8ec <memchr+0x34>
 804a8d8:	00001806 	br	804a93c <memchr+0x84>
 804a8dc:	10001526 	beq	r2,zero,804a934 <memchr+0x7c>
 804a8e0:	20c00003 	ldbu	r3,0(r4)
 804a8e4:	10bfffc4 	addi	r2,r2,-1
 804a8e8:	30c01426 	beq	r6,r3,804a93c <memchr+0x84>
 804a8ec:	21000044 	addi	r4,r4,1
 804a8f0:	20c000cc 	andi	r3,r4,3
 804a8f4:	183ff91e 	bne	r3,zero,804a8dc <__alt_data_end+0xfffe283c>
 804a8f8:	020000c4 	movi	r8,3
 804a8fc:	40801136 	bltu	r8,r2,804a944 <memchr+0x8c>
 804a900:	10000c26 	beq	r2,zero,804a934 <memchr+0x7c>
 804a904:	20c00003 	ldbu	r3,0(r4)
 804a908:	29403fcc 	andi	r5,r5,255
 804a90c:	28c00b26 	beq	r5,r3,804a93c <memchr+0x84>
 804a910:	20c00044 	addi	r3,r4,1
 804a914:	39803fcc 	andi	r6,r7,255
 804a918:	2089883a 	add	r4,r4,r2
 804a91c:	00000306 	br	804a92c <memchr+0x74>
 804a920:	18c00044 	addi	r3,r3,1
 804a924:	197fffc3 	ldbu	r5,-1(r3)
 804a928:	31400526 	beq	r6,r5,804a940 <memchr+0x88>
 804a92c:	1805883a 	mov	r2,r3
 804a930:	20fffb1e 	bne	r4,r3,804a920 <__alt_data_end+0xfffe2880>
 804a934:	0005883a 	mov	r2,zero
 804a938:	f800283a 	ret
 804a93c:	2005883a 	mov	r2,r4
 804a940:	f800283a 	ret
 804a944:	28c03fcc 	andi	r3,r5,255
 804a948:	1812923a 	slli	r9,r3,8
 804a94c:	02ffbff4 	movhi	r11,65279
 804a950:	02a02074 	movhi	r10,32897
 804a954:	48d2b03a 	or	r9,r9,r3
 804a958:	4806943a 	slli	r3,r9,16
 804a95c:	5affbfc4 	addi	r11,r11,-257
 804a960:	52a02004 	addi	r10,r10,-32640
 804a964:	48d2b03a 	or	r9,r9,r3
 804a968:	20c00017 	ldw	r3,0(r4)
 804a96c:	48c6f03a 	xor	r3,r9,r3
 804a970:	1acd883a 	add	r6,r3,r11
 804a974:	00c6303a 	nor	r3,zero,r3
 804a978:	30c6703a 	and	r3,r6,r3
 804a97c:	1a86703a 	and	r3,r3,r10
 804a980:	183fe01e 	bne	r3,zero,804a904 <__alt_data_end+0xfffe2864>
 804a984:	10bfff04 	addi	r2,r2,-4
 804a988:	21000104 	addi	r4,r4,4
 804a98c:	40bff636 	bltu	r8,r2,804a968 <__alt_data_end+0xfffe28c8>
 804a990:	003fdb06 	br	804a900 <__alt_data_end+0xfffe2860>
 804a994:	3005883a 	mov	r2,r6
 804a998:	003fd706 	br	804a8f8 <__alt_data_end+0xfffe2858>

0804a99c <memmove>:
 804a99c:	2005883a 	mov	r2,r4
 804a9a0:	29000b2e 	bgeu	r5,r4,804a9d0 <memmove+0x34>
 804a9a4:	298f883a 	add	r7,r5,r6
 804a9a8:	21c0092e 	bgeu	r4,r7,804a9d0 <memmove+0x34>
 804a9ac:	2187883a 	add	r3,r4,r6
 804a9b0:	198bc83a 	sub	r5,r3,r6
 804a9b4:	30004826 	beq	r6,zero,804aad8 <memmove+0x13c>
 804a9b8:	39ffffc4 	addi	r7,r7,-1
 804a9bc:	39000003 	ldbu	r4,0(r7)
 804a9c0:	18ffffc4 	addi	r3,r3,-1
 804a9c4:	19000005 	stb	r4,0(r3)
 804a9c8:	28fffb1e 	bne	r5,r3,804a9b8 <__alt_data_end+0xfffe2918>
 804a9cc:	f800283a 	ret
 804a9d0:	00c003c4 	movi	r3,15
 804a9d4:	1980412e 	bgeu	r3,r6,804aadc <memmove+0x140>
 804a9d8:	2886b03a 	or	r3,r5,r2
 804a9dc:	18c000cc 	andi	r3,r3,3
 804a9e0:	1800401e 	bne	r3,zero,804aae4 <memmove+0x148>
 804a9e4:	33fffc04 	addi	r15,r6,-16
 804a9e8:	781ed13a 	srli	r15,r15,4
 804a9ec:	28c00104 	addi	r3,r5,4
 804a9f0:	13400104 	addi	r13,r2,4
 804a9f4:	781c913a 	slli	r14,r15,4
 804a9f8:	2b000204 	addi	r12,r5,8
 804a9fc:	12c00204 	addi	r11,r2,8
 804aa00:	73800504 	addi	r14,r14,20
 804aa04:	2a800304 	addi	r10,r5,12
 804aa08:	12400304 	addi	r9,r2,12
 804aa0c:	2b9d883a 	add	r14,r5,r14
 804aa10:	2811883a 	mov	r8,r5
 804aa14:	100f883a 	mov	r7,r2
 804aa18:	41000017 	ldw	r4,0(r8)
 804aa1c:	39c00404 	addi	r7,r7,16
 804aa20:	18c00404 	addi	r3,r3,16
 804aa24:	393ffc15 	stw	r4,-16(r7)
 804aa28:	193ffc17 	ldw	r4,-16(r3)
 804aa2c:	6b400404 	addi	r13,r13,16
 804aa30:	5ac00404 	addi	r11,r11,16
 804aa34:	693ffc15 	stw	r4,-16(r13)
 804aa38:	61000017 	ldw	r4,0(r12)
 804aa3c:	4a400404 	addi	r9,r9,16
 804aa40:	42000404 	addi	r8,r8,16
 804aa44:	593ffc15 	stw	r4,-16(r11)
 804aa48:	51000017 	ldw	r4,0(r10)
 804aa4c:	63000404 	addi	r12,r12,16
 804aa50:	52800404 	addi	r10,r10,16
 804aa54:	493ffc15 	stw	r4,-16(r9)
 804aa58:	1bbfef1e 	bne	r3,r14,804aa18 <__alt_data_end+0xfffe2978>
 804aa5c:	79000044 	addi	r4,r15,1
 804aa60:	2008913a 	slli	r4,r4,4
 804aa64:	328003cc 	andi	r10,r6,15
 804aa68:	02c000c4 	movi	r11,3
 804aa6c:	1107883a 	add	r3,r2,r4
 804aa70:	290b883a 	add	r5,r5,r4
 804aa74:	5a801e2e 	bgeu	r11,r10,804aaf0 <memmove+0x154>
 804aa78:	1813883a 	mov	r9,r3
 804aa7c:	2811883a 	mov	r8,r5
 804aa80:	500f883a 	mov	r7,r10
 804aa84:	41000017 	ldw	r4,0(r8)
 804aa88:	4a400104 	addi	r9,r9,4
 804aa8c:	39ffff04 	addi	r7,r7,-4
 804aa90:	493fff15 	stw	r4,-4(r9)
 804aa94:	42000104 	addi	r8,r8,4
 804aa98:	59fffa36 	bltu	r11,r7,804aa84 <__alt_data_end+0xfffe29e4>
 804aa9c:	513fff04 	addi	r4,r10,-4
 804aaa0:	2008d0ba 	srli	r4,r4,2
 804aaa4:	318000cc 	andi	r6,r6,3
 804aaa8:	21000044 	addi	r4,r4,1
 804aaac:	2109883a 	add	r4,r4,r4
 804aab0:	2109883a 	add	r4,r4,r4
 804aab4:	1907883a 	add	r3,r3,r4
 804aab8:	290b883a 	add	r5,r5,r4
 804aabc:	30000b26 	beq	r6,zero,804aaec <memmove+0x150>
 804aac0:	198d883a 	add	r6,r3,r6
 804aac4:	29c00003 	ldbu	r7,0(r5)
 804aac8:	18c00044 	addi	r3,r3,1
 804aacc:	29400044 	addi	r5,r5,1
 804aad0:	19ffffc5 	stb	r7,-1(r3)
 804aad4:	19bffb1e 	bne	r3,r6,804aac4 <__alt_data_end+0xfffe2a24>
 804aad8:	f800283a 	ret
 804aadc:	1007883a 	mov	r3,r2
 804aae0:	003ff606 	br	804aabc <__alt_data_end+0xfffe2a1c>
 804aae4:	1007883a 	mov	r3,r2
 804aae8:	003ff506 	br	804aac0 <__alt_data_end+0xfffe2a20>
 804aaec:	f800283a 	ret
 804aaf0:	500d883a 	mov	r6,r10
 804aaf4:	003ff106 	br	804aabc <__alt_data_end+0xfffe2a1c>

0804aaf8 <_Balloc>:
 804aaf8:	20801317 	ldw	r2,76(r4)
 804aafc:	defffc04 	addi	sp,sp,-16
 804ab00:	dc400115 	stw	r17,4(sp)
 804ab04:	dc000015 	stw	r16,0(sp)
 804ab08:	dfc00315 	stw	ra,12(sp)
 804ab0c:	dc800215 	stw	r18,8(sp)
 804ab10:	2023883a 	mov	r17,r4
 804ab14:	2821883a 	mov	r16,r5
 804ab18:	10000f26 	beq	r2,zero,804ab58 <_Balloc+0x60>
 804ab1c:	8407883a 	add	r3,r16,r16
 804ab20:	18c7883a 	add	r3,r3,r3
 804ab24:	10c7883a 	add	r3,r2,r3
 804ab28:	18800017 	ldw	r2,0(r3)
 804ab2c:	10001126 	beq	r2,zero,804ab74 <_Balloc+0x7c>
 804ab30:	11000017 	ldw	r4,0(r2)
 804ab34:	19000015 	stw	r4,0(r3)
 804ab38:	10000415 	stw	zero,16(r2)
 804ab3c:	10000315 	stw	zero,12(r2)
 804ab40:	dfc00317 	ldw	ra,12(sp)
 804ab44:	dc800217 	ldw	r18,8(sp)
 804ab48:	dc400117 	ldw	r17,4(sp)
 804ab4c:	dc000017 	ldw	r16,0(sp)
 804ab50:	dec00404 	addi	sp,sp,16
 804ab54:	f800283a 	ret
 804ab58:	01800844 	movi	r6,33
 804ab5c:	01400104 	movi	r5,4
 804ab60:	804db6c0 	call	804db6c <_calloc_r>
 804ab64:	88801315 	stw	r2,76(r17)
 804ab68:	103fec1e 	bne	r2,zero,804ab1c <__alt_data_end+0xfffe2a7c>
 804ab6c:	0005883a 	mov	r2,zero
 804ab70:	003ff306 	br	804ab40 <__alt_data_end+0xfffe2aa0>
 804ab74:	01400044 	movi	r5,1
 804ab78:	2c24983a 	sll	r18,r5,r16
 804ab7c:	8809883a 	mov	r4,r17
 804ab80:	91800144 	addi	r6,r18,5
 804ab84:	318d883a 	add	r6,r6,r6
 804ab88:	318d883a 	add	r6,r6,r6
 804ab8c:	804db6c0 	call	804db6c <_calloc_r>
 804ab90:	103ff626 	beq	r2,zero,804ab6c <__alt_data_end+0xfffe2acc>
 804ab94:	14000115 	stw	r16,4(r2)
 804ab98:	14800215 	stw	r18,8(r2)
 804ab9c:	003fe606 	br	804ab38 <__alt_data_end+0xfffe2a98>

0804aba0 <_Bfree>:
 804aba0:	28000826 	beq	r5,zero,804abc4 <_Bfree+0x24>
 804aba4:	28c00117 	ldw	r3,4(r5)
 804aba8:	20801317 	ldw	r2,76(r4)
 804abac:	18c7883a 	add	r3,r3,r3
 804abb0:	18c7883a 	add	r3,r3,r3
 804abb4:	10c5883a 	add	r2,r2,r3
 804abb8:	10c00017 	ldw	r3,0(r2)
 804abbc:	28c00015 	stw	r3,0(r5)
 804abc0:	11400015 	stw	r5,0(r2)
 804abc4:	f800283a 	ret

0804abc8 <__multadd>:
 804abc8:	defff704 	addi	sp,sp,-36
 804abcc:	dc800215 	stw	r18,8(sp)
 804abd0:	2c800417 	ldw	r18,16(r5)
 804abd4:	dd800615 	stw	r22,24(sp)
 804abd8:	dd400515 	stw	r21,20(sp)
 804abdc:	dd000415 	stw	r20,16(sp)
 804abe0:	dcc00315 	stw	r19,12(sp)
 804abe4:	dc400115 	stw	r17,4(sp)
 804abe8:	dc000015 	stw	r16,0(sp)
 804abec:	dfc00815 	stw	ra,32(sp)
 804abf0:	ddc00715 	stw	r23,28(sp)
 804abf4:	2827883a 	mov	r19,r5
 804abf8:	2029883a 	mov	r20,r4
 804abfc:	3023883a 	mov	r17,r6
 804ac00:	3821883a 	mov	r16,r7
 804ac04:	2d400504 	addi	r21,r5,20
 804ac08:	002d883a 	mov	r22,zero
 804ac0c:	adc00017 	ldw	r23,0(r21)
 804ac10:	880b883a 	mov	r5,r17
 804ac14:	ad400104 	addi	r21,r21,4
 804ac18:	b93fffcc 	andi	r4,r23,65535
 804ac1c:	8042dac0 	call	8042dac <__mulsi3>
 804ac20:	b808d43a 	srli	r4,r23,16
 804ac24:	880b883a 	mov	r5,r17
 804ac28:	1421883a 	add	r16,r2,r16
 804ac2c:	8042dac0 	call	8042dac <__mulsi3>
 804ac30:	800ed43a 	srli	r7,r16,16
 804ac34:	80ffffcc 	andi	r3,r16,65535
 804ac38:	b5800044 	addi	r22,r22,1
 804ac3c:	11c5883a 	add	r2,r2,r7
 804ac40:	100e943a 	slli	r7,r2,16
 804ac44:	1020d43a 	srli	r16,r2,16
 804ac48:	38c7883a 	add	r3,r7,r3
 804ac4c:	a8ffff15 	stw	r3,-4(r21)
 804ac50:	b4bfee16 	blt	r22,r18,804ac0c <__alt_data_end+0xfffe2b6c>
 804ac54:	80000926 	beq	r16,zero,804ac7c <__multadd+0xb4>
 804ac58:	98800217 	ldw	r2,8(r19)
 804ac5c:	9080130e 	bge	r18,r2,804acac <__multadd+0xe4>
 804ac60:	90800144 	addi	r2,r18,5
 804ac64:	1085883a 	add	r2,r2,r2
 804ac68:	1085883a 	add	r2,r2,r2
 804ac6c:	9885883a 	add	r2,r19,r2
 804ac70:	14000015 	stw	r16,0(r2)
 804ac74:	94800044 	addi	r18,r18,1
 804ac78:	9c800415 	stw	r18,16(r19)
 804ac7c:	9805883a 	mov	r2,r19
 804ac80:	dfc00817 	ldw	ra,32(sp)
 804ac84:	ddc00717 	ldw	r23,28(sp)
 804ac88:	dd800617 	ldw	r22,24(sp)
 804ac8c:	dd400517 	ldw	r21,20(sp)
 804ac90:	dd000417 	ldw	r20,16(sp)
 804ac94:	dcc00317 	ldw	r19,12(sp)
 804ac98:	dc800217 	ldw	r18,8(sp)
 804ac9c:	dc400117 	ldw	r17,4(sp)
 804aca0:	dc000017 	ldw	r16,0(sp)
 804aca4:	dec00904 	addi	sp,sp,36
 804aca8:	f800283a 	ret
 804acac:	99400117 	ldw	r5,4(r19)
 804acb0:	a009883a 	mov	r4,r20
 804acb4:	29400044 	addi	r5,r5,1
 804acb8:	804aaf80 	call	804aaf8 <_Balloc>
 804acbc:	99800417 	ldw	r6,16(r19)
 804acc0:	99400304 	addi	r5,r19,12
 804acc4:	11000304 	addi	r4,r2,12
 804acc8:	31800084 	addi	r6,r6,2
 804accc:	318d883a 	add	r6,r6,r6
 804acd0:	318d883a 	add	r6,r6,r6
 804acd4:	1023883a 	mov	r17,r2
 804acd8:	80455480 	call	8045548 <memcpy>
 804acdc:	98000a26 	beq	r19,zero,804ad08 <__multadd+0x140>
 804ace0:	98c00117 	ldw	r3,4(r19)
 804ace4:	a0801317 	ldw	r2,76(r20)
 804ace8:	18c7883a 	add	r3,r3,r3
 804acec:	18c7883a 	add	r3,r3,r3
 804acf0:	10c5883a 	add	r2,r2,r3
 804acf4:	10c00017 	ldw	r3,0(r2)
 804acf8:	98c00015 	stw	r3,0(r19)
 804acfc:	14c00015 	stw	r19,0(r2)
 804ad00:	8827883a 	mov	r19,r17
 804ad04:	003fd606 	br	804ac60 <__alt_data_end+0xfffe2bc0>
 804ad08:	8827883a 	mov	r19,r17
 804ad0c:	003fd406 	br	804ac60 <__alt_data_end+0xfffe2bc0>

0804ad10 <__s2b>:
 804ad10:	defff904 	addi	sp,sp,-28
 804ad14:	dc400115 	stw	r17,4(sp)
 804ad18:	dc000015 	stw	r16,0(sp)
 804ad1c:	2023883a 	mov	r17,r4
 804ad20:	2821883a 	mov	r16,r5
 804ad24:	39000204 	addi	r4,r7,8
 804ad28:	01400244 	movi	r5,9
 804ad2c:	dcc00315 	stw	r19,12(sp)
 804ad30:	dc800215 	stw	r18,8(sp)
 804ad34:	dfc00615 	stw	ra,24(sp)
 804ad38:	dd400515 	stw	r21,20(sp)
 804ad3c:	dd000415 	stw	r20,16(sp)
 804ad40:	3825883a 	mov	r18,r7
 804ad44:	3027883a 	mov	r19,r6
 804ad48:	8042bf80 	call	8042bf8 <__divsi3>
 804ad4c:	00c00044 	movi	r3,1
 804ad50:	000b883a 	mov	r5,zero
 804ad54:	1880030e 	bge	r3,r2,804ad64 <__s2b+0x54>
 804ad58:	18c7883a 	add	r3,r3,r3
 804ad5c:	29400044 	addi	r5,r5,1
 804ad60:	18bffd16 	blt	r3,r2,804ad58 <__alt_data_end+0xfffe2cb8>
 804ad64:	8809883a 	mov	r4,r17
 804ad68:	804aaf80 	call	804aaf8 <_Balloc>
 804ad6c:	d8c00717 	ldw	r3,28(sp)
 804ad70:	10c00515 	stw	r3,20(r2)
 804ad74:	00c00044 	movi	r3,1
 804ad78:	10c00415 	stw	r3,16(r2)
 804ad7c:	00c00244 	movi	r3,9
 804ad80:	1cc0210e 	bge	r3,r19,804ae08 <__s2b+0xf8>
 804ad84:	80eb883a 	add	r21,r16,r3
 804ad88:	a829883a 	mov	r20,r21
 804ad8c:	84e1883a 	add	r16,r16,r19
 804ad90:	a1c00007 	ldb	r7,0(r20)
 804ad94:	01800284 	movi	r6,10
 804ad98:	a5000044 	addi	r20,r20,1
 804ad9c:	100b883a 	mov	r5,r2
 804ada0:	39fff404 	addi	r7,r7,-48
 804ada4:	8809883a 	mov	r4,r17
 804ada8:	804abc80 	call	804abc8 <__multadd>
 804adac:	a43ff81e 	bne	r20,r16,804ad90 <__alt_data_end+0xfffe2cf0>
 804adb0:	ace1883a 	add	r16,r21,r19
 804adb4:	843ffe04 	addi	r16,r16,-8
 804adb8:	9c800a0e 	bge	r19,r18,804ade4 <__s2b+0xd4>
 804adbc:	94e5c83a 	sub	r18,r18,r19
 804adc0:	84a5883a 	add	r18,r16,r18
 804adc4:	81c00007 	ldb	r7,0(r16)
 804adc8:	01800284 	movi	r6,10
 804adcc:	84000044 	addi	r16,r16,1
 804add0:	100b883a 	mov	r5,r2
 804add4:	39fff404 	addi	r7,r7,-48
 804add8:	8809883a 	mov	r4,r17
 804addc:	804abc80 	call	804abc8 <__multadd>
 804ade0:	84bff81e 	bne	r16,r18,804adc4 <__alt_data_end+0xfffe2d24>
 804ade4:	dfc00617 	ldw	ra,24(sp)
 804ade8:	dd400517 	ldw	r21,20(sp)
 804adec:	dd000417 	ldw	r20,16(sp)
 804adf0:	dcc00317 	ldw	r19,12(sp)
 804adf4:	dc800217 	ldw	r18,8(sp)
 804adf8:	dc400117 	ldw	r17,4(sp)
 804adfc:	dc000017 	ldw	r16,0(sp)
 804ae00:	dec00704 	addi	sp,sp,28
 804ae04:	f800283a 	ret
 804ae08:	84000284 	addi	r16,r16,10
 804ae0c:	1827883a 	mov	r19,r3
 804ae10:	003fe906 	br	804adb8 <__alt_data_end+0xfffe2d18>

0804ae14 <__hi0bits>:
 804ae14:	20bfffec 	andhi	r2,r4,65535
 804ae18:	1000141e 	bne	r2,zero,804ae6c <__hi0bits+0x58>
 804ae1c:	2008943a 	slli	r4,r4,16
 804ae20:	00800404 	movi	r2,16
 804ae24:	20ffc02c 	andhi	r3,r4,65280
 804ae28:	1800021e 	bne	r3,zero,804ae34 <__hi0bits+0x20>
 804ae2c:	2008923a 	slli	r4,r4,8
 804ae30:	10800204 	addi	r2,r2,8
 804ae34:	20fc002c 	andhi	r3,r4,61440
 804ae38:	1800021e 	bne	r3,zero,804ae44 <__hi0bits+0x30>
 804ae3c:	2008913a 	slli	r4,r4,4
 804ae40:	10800104 	addi	r2,r2,4
 804ae44:	20f0002c 	andhi	r3,r4,49152
 804ae48:	1800031e 	bne	r3,zero,804ae58 <__hi0bits+0x44>
 804ae4c:	2109883a 	add	r4,r4,r4
 804ae50:	10800084 	addi	r2,r2,2
 804ae54:	2109883a 	add	r4,r4,r4
 804ae58:	20000316 	blt	r4,zero,804ae68 <__hi0bits+0x54>
 804ae5c:	2110002c 	andhi	r4,r4,16384
 804ae60:	2000041e 	bne	r4,zero,804ae74 <__hi0bits+0x60>
 804ae64:	00800804 	movi	r2,32
 804ae68:	f800283a 	ret
 804ae6c:	0005883a 	mov	r2,zero
 804ae70:	003fec06 	br	804ae24 <__alt_data_end+0xfffe2d84>
 804ae74:	10800044 	addi	r2,r2,1
 804ae78:	f800283a 	ret

0804ae7c <__lo0bits>:
 804ae7c:	20c00017 	ldw	r3,0(r4)
 804ae80:	188001cc 	andi	r2,r3,7
 804ae84:	10000826 	beq	r2,zero,804aea8 <__lo0bits+0x2c>
 804ae88:	1880004c 	andi	r2,r3,1
 804ae8c:	1000211e 	bne	r2,zero,804af14 <__lo0bits+0x98>
 804ae90:	1880008c 	andi	r2,r3,2
 804ae94:	1000211e 	bne	r2,zero,804af1c <__lo0bits+0xa0>
 804ae98:	1806d0ba 	srli	r3,r3,2
 804ae9c:	00800084 	movi	r2,2
 804aea0:	20c00015 	stw	r3,0(r4)
 804aea4:	f800283a 	ret
 804aea8:	18bfffcc 	andi	r2,r3,65535
 804aeac:	10001326 	beq	r2,zero,804aefc <__lo0bits+0x80>
 804aeb0:	0005883a 	mov	r2,zero
 804aeb4:	19403fcc 	andi	r5,r3,255
 804aeb8:	2800021e 	bne	r5,zero,804aec4 <__lo0bits+0x48>
 804aebc:	1806d23a 	srli	r3,r3,8
 804aec0:	10800204 	addi	r2,r2,8
 804aec4:	194003cc 	andi	r5,r3,15
 804aec8:	2800021e 	bne	r5,zero,804aed4 <__lo0bits+0x58>
 804aecc:	1806d13a 	srli	r3,r3,4
 804aed0:	10800104 	addi	r2,r2,4
 804aed4:	194000cc 	andi	r5,r3,3
 804aed8:	2800021e 	bne	r5,zero,804aee4 <__lo0bits+0x68>
 804aedc:	1806d0ba 	srli	r3,r3,2
 804aee0:	10800084 	addi	r2,r2,2
 804aee4:	1940004c 	andi	r5,r3,1
 804aee8:	2800081e 	bne	r5,zero,804af0c <__lo0bits+0x90>
 804aeec:	1806d07a 	srli	r3,r3,1
 804aef0:	1800051e 	bne	r3,zero,804af08 <__lo0bits+0x8c>
 804aef4:	00800804 	movi	r2,32
 804aef8:	f800283a 	ret
 804aefc:	1806d43a 	srli	r3,r3,16
 804af00:	00800404 	movi	r2,16
 804af04:	003feb06 	br	804aeb4 <__alt_data_end+0xfffe2e14>
 804af08:	10800044 	addi	r2,r2,1
 804af0c:	20c00015 	stw	r3,0(r4)
 804af10:	f800283a 	ret
 804af14:	0005883a 	mov	r2,zero
 804af18:	f800283a 	ret
 804af1c:	1806d07a 	srli	r3,r3,1
 804af20:	00800044 	movi	r2,1
 804af24:	20c00015 	stw	r3,0(r4)
 804af28:	f800283a 	ret

0804af2c <__i2b>:
 804af2c:	defffd04 	addi	sp,sp,-12
 804af30:	dc000015 	stw	r16,0(sp)
 804af34:	04000044 	movi	r16,1
 804af38:	dc400115 	stw	r17,4(sp)
 804af3c:	2823883a 	mov	r17,r5
 804af40:	800b883a 	mov	r5,r16
 804af44:	dfc00215 	stw	ra,8(sp)
 804af48:	804aaf80 	call	804aaf8 <_Balloc>
 804af4c:	14400515 	stw	r17,20(r2)
 804af50:	14000415 	stw	r16,16(r2)
 804af54:	dfc00217 	ldw	ra,8(sp)
 804af58:	dc400117 	ldw	r17,4(sp)
 804af5c:	dc000017 	ldw	r16,0(sp)
 804af60:	dec00304 	addi	sp,sp,12
 804af64:	f800283a 	ret

0804af68 <__multiply>:
 804af68:	deffef04 	addi	sp,sp,-68
 804af6c:	dc400815 	stw	r17,32(sp)
 804af70:	dc000715 	stw	r16,28(sp)
 804af74:	34400417 	ldw	r17,16(r6)
 804af78:	2c000417 	ldw	r16,16(r5)
 804af7c:	dd800d15 	stw	r22,52(sp)
 804af80:	dc800915 	stw	r18,36(sp)
 804af84:	dfc01015 	stw	ra,64(sp)
 804af88:	df000f15 	stw	fp,60(sp)
 804af8c:	ddc00e15 	stw	r23,56(sp)
 804af90:	dd400c15 	stw	r21,48(sp)
 804af94:	dd000b15 	stw	r20,44(sp)
 804af98:	dcc00a15 	stw	r19,40(sp)
 804af9c:	2825883a 	mov	r18,r5
 804afa0:	302d883a 	mov	r22,r6
 804afa4:	8440050e 	bge	r16,r17,804afbc <__multiply+0x54>
 804afa8:	8007883a 	mov	r3,r16
 804afac:	3025883a 	mov	r18,r6
 804afb0:	8821883a 	mov	r16,r17
 804afb4:	282d883a 	mov	r22,r5
 804afb8:	1823883a 	mov	r17,r3
 804afbc:	90800217 	ldw	r2,8(r18)
 804afc0:	8447883a 	add	r3,r16,r17
 804afc4:	d8c00215 	stw	r3,8(sp)
 804afc8:	91400117 	ldw	r5,4(r18)
 804afcc:	10c0010e 	bge	r2,r3,804afd4 <__multiply+0x6c>
 804afd0:	29400044 	addi	r5,r5,1
 804afd4:	804aaf80 	call	804aaf8 <_Balloc>
 804afd8:	d8c00217 	ldw	r3,8(sp)
 804afdc:	d8800615 	stw	r2,24(sp)
 804afe0:	18eb883a 	add	r21,r3,r3
 804afe4:	ad6b883a 	add	r21,r21,r21
 804afe8:	10c00504 	addi	r3,r2,20
 804afec:	1d6b883a 	add	r21,r3,r21
 804aff0:	d8c00115 	stw	r3,4(sp)
 804aff4:	dd400315 	stw	r21,12(sp)
 804aff8:	1805883a 	mov	r2,r3
 804affc:	1d40042e 	bgeu	r3,r21,804b010 <__multiply+0xa8>
 804b000:	d8c00317 	ldw	r3,12(sp)
 804b004:	10000015 	stw	zero,0(r2)
 804b008:	10800104 	addi	r2,r2,4
 804b00c:	10fffc36 	bltu	r2,r3,804b000 <__alt_data_end+0xfffe2f60>
 804b010:	8c63883a 	add	r17,r17,r17
 804b014:	b5800504 	addi	r22,r22,20
 804b018:	8c63883a 	add	r17,r17,r17
 804b01c:	94800504 	addi	r18,r18,20
 804b020:	8421883a 	add	r16,r16,r16
 804b024:	b463883a 	add	r17,r22,r17
 804b028:	8421883a 	add	r16,r16,r16
 804b02c:	dd800015 	stw	r22,0(sp)
 804b030:	dc800415 	stw	r18,16(sp)
 804b034:	dc400515 	stw	r17,20(sp)
 804b038:	9429883a 	add	r20,r18,r16
 804b03c:	b4404f2e 	bgeu	r22,r17,804b17c <__multiply+0x214>
 804b040:	d8c00017 	ldw	r3,0(sp)
 804b044:	1c800017 	ldw	r18,0(r3)
 804b048:	947fffcc 	andi	r17,r18,65535
 804b04c:	88001e26 	beq	r17,zero,804b0c8 <__multiply+0x160>
 804b050:	dd800117 	ldw	r22,4(sp)
 804b054:	dd400417 	ldw	r21,16(sp)
 804b058:	0027883a 	mov	r19,zero
 804b05c:	ac800017 	ldw	r18,0(r21)
 804b060:	b4000017 	ldw	r16,0(r22)
 804b064:	880b883a 	mov	r5,r17
 804b068:	913fffcc 	andi	r4,r18,65535
 804b06c:	8042dac0 	call	8042dac <__mulsi3>
 804b070:	9008d43a 	srli	r4,r18,16
 804b074:	84bfffcc 	andi	r18,r16,65535
 804b078:	1485883a 	add	r2,r2,r18
 804b07c:	14e5883a 	add	r18,r2,r19
 804b080:	8020d43a 	srli	r16,r16,16
 804b084:	9026d43a 	srli	r19,r18,16
 804b088:	880b883a 	mov	r5,r17
 804b08c:	8042dac0 	call	8042dac <__mulsi3>
 804b090:	1405883a 	add	r2,r2,r16
 804b094:	14e1883a 	add	r16,r2,r19
 804b098:	90ffffcc 	andi	r3,r18,65535
 804b09c:	8024943a 	slli	r18,r16,16
 804b0a0:	ad400104 	addi	r21,r21,4
 804b0a4:	b005883a 	mov	r2,r22
 804b0a8:	90c6b03a 	or	r3,r18,r3
 804b0ac:	b0c00015 	stw	r3,0(r22)
 804b0b0:	8026d43a 	srli	r19,r16,16
 804b0b4:	b5800104 	addi	r22,r22,4
 804b0b8:	ad3fe836 	bltu	r21,r20,804b05c <__alt_data_end+0xfffe2fbc>
 804b0bc:	d8c00017 	ldw	r3,0(sp)
 804b0c0:	14c00115 	stw	r19,4(r2)
 804b0c4:	1c800017 	ldw	r18,0(r3)
 804b0c8:	9024d43a 	srli	r18,r18,16
 804b0cc:	90002226 	beq	r18,zero,804b158 <__multiply+0x1f0>
 804b0d0:	d8c00117 	ldw	r3,4(sp)
 804b0d4:	dd800417 	ldw	r22,16(sp)
 804b0d8:	002f883a 	mov	r23,zero
 804b0dc:	1f000017 	ldw	fp,0(r3)
 804b0e0:	1823883a 	mov	r17,r3
 804b0e4:	182b883a 	mov	r21,r3
 804b0e8:	e021883a 	mov	r16,fp
 804b0ec:	00000106 	br	804b0f4 <__multiply+0x18c>
 804b0f0:	982b883a 	mov	r21,r19
 804b0f4:	b100000b 	ldhu	r4,0(r22)
 804b0f8:	8020d43a 	srli	r16,r16,16
 804b0fc:	900b883a 	mov	r5,r18
 804b100:	8042dac0 	call	8042dac <__mulsi3>
 804b104:	1405883a 	add	r2,r2,r16
 804b108:	15ef883a 	add	r23,r2,r23
 804b10c:	b804943a 	slli	r2,r23,16
 804b110:	e0ffffcc 	andi	r3,fp,65535
 804b114:	8c400104 	addi	r17,r17,4
 804b118:	10c6b03a 	or	r3,r2,r3
 804b11c:	88ffff15 	stw	r3,-4(r17)
 804b120:	b5800104 	addi	r22,r22,4
 804b124:	b13fff17 	ldw	r4,-4(r22)
 804b128:	acc00104 	addi	r19,r21,4
 804b12c:	900b883a 	mov	r5,r18
 804b130:	2008d43a 	srli	r4,r4,16
 804b134:	9c000017 	ldw	r16,0(r19)
 804b138:	8042dac0 	call	8042dac <__mulsi3>
 804b13c:	b806d43a 	srli	r3,r23,16
 804b140:	813fffcc 	andi	r4,r16,65535
 804b144:	1105883a 	add	r2,r2,r4
 804b148:	10f9883a 	add	fp,r2,r3
 804b14c:	e02ed43a 	srli	r23,fp,16
 804b150:	b53fe736 	bltu	r22,r20,804b0f0 <__alt_data_end+0xfffe3050>
 804b154:	af000115 	stw	fp,4(r21)
 804b158:	d8c00017 	ldw	r3,0(sp)
 804b15c:	d9000517 	ldw	r4,20(sp)
 804b160:	18c00104 	addi	r3,r3,4
 804b164:	d8c00015 	stw	r3,0(sp)
 804b168:	d8c00117 	ldw	r3,4(sp)
 804b16c:	18c00104 	addi	r3,r3,4
 804b170:	d8c00115 	stw	r3,4(sp)
 804b174:	d8c00017 	ldw	r3,0(sp)
 804b178:	193fb136 	bltu	r3,r4,804b040 <__alt_data_end+0xfffe2fa0>
 804b17c:	d8c00217 	ldw	r3,8(sp)
 804b180:	00c00c0e 	bge	zero,r3,804b1b4 <__multiply+0x24c>
 804b184:	d8c00317 	ldw	r3,12(sp)
 804b188:	18bfff17 	ldw	r2,-4(r3)
 804b18c:	1d7fff04 	addi	r21,r3,-4
 804b190:	10000326 	beq	r2,zero,804b1a0 <__multiply+0x238>
 804b194:	00000706 	br	804b1b4 <__multiply+0x24c>
 804b198:	a8800017 	ldw	r2,0(r21)
 804b19c:	1000051e 	bne	r2,zero,804b1b4 <__multiply+0x24c>
 804b1a0:	d8c00217 	ldw	r3,8(sp)
 804b1a4:	ad7fff04 	addi	r21,r21,-4
 804b1a8:	18ffffc4 	addi	r3,r3,-1
 804b1ac:	d8c00215 	stw	r3,8(sp)
 804b1b0:	183ff91e 	bne	r3,zero,804b198 <__alt_data_end+0xfffe30f8>
 804b1b4:	d8c00617 	ldw	r3,24(sp)
 804b1b8:	d9000217 	ldw	r4,8(sp)
 804b1bc:	1805883a 	mov	r2,r3
 804b1c0:	19000415 	stw	r4,16(r3)
 804b1c4:	dfc01017 	ldw	ra,64(sp)
 804b1c8:	df000f17 	ldw	fp,60(sp)
 804b1cc:	ddc00e17 	ldw	r23,56(sp)
 804b1d0:	dd800d17 	ldw	r22,52(sp)
 804b1d4:	dd400c17 	ldw	r21,48(sp)
 804b1d8:	dd000b17 	ldw	r20,44(sp)
 804b1dc:	dcc00a17 	ldw	r19,40(sp)
 804b1e0:	dc800917 	ldw	r18,36(sp)
 804b1e4:	dc400817 	ldw	r17,32(sp)
 804b1e8:	dc000717 	ldw	r16,28(sp)
 804b1ec:	dec01104 	addi	sp,sp,68
 804b1f0:	f800283a 	ret

0804b1f4 <__pow5mult>:
 804b1f4:	defffa04 	addi	sp,sp,-24
 804b1f8:	dcc00315 	stw	r19,12(sp)
 804b1fc:	dc000015 	stw	r16,0(sp)
 804b200:	dfc00515 	stw	ra,20(sp)
 804b204:	dd000415 	stw	r20,16(sp)
 804b208:	dc800215 	stw	r18,8(sp)
 804b20c:	dc400115 	stw	r17,4(sp)
 804b210:	308000cc 	andi	r2,r6,3
 804b214:	3021883a 	mov	r16,r6
 804b218:	2027883a 	mov	r19,r4
 804b21c:	10002f1e 	bne	r2,zero,804b2dc <__pow5mult+0xe8>
 804b220:	2825883a 	mov	r18,r5
 804b224:	8021d0ba 	srai	r16,r16,2
 804b228:	80001a26 	beq	r16,zero,804b294 <__pow5mult+0xa0>
 804b22c:	9c401217 	ldw	r17,72(r19)
 804b230:	8800061e 	bne	r17,zero,804b24c <__pow5mult+0x58>
 804b234:	00003406 	br	804b308 <__pow5mult+0x114>
 804b238:	8021d07a 	srai	r16,r16,1
 804b23c:	80001526 	beq	r16,zero,804b294 <__pow5mult+0xa0>
 804b240:	88800017 	ldw	r2,0(r17)
 804b244:	10001c26 	beq	r2,zero,804b2b8 <__pow5mult+0xc4>
 804b248:	1023883a 	mov	r17,r2
 804b24c:	8080004c 	andi	r2,r16,1
 804b250:	103ff926 	beq	r2,zero,804b238 <__alt_data_end+0xfffe3198>
 804b254:	880d883a 	mov	r6,r17
 804b258:	900b883a 	mov	r5,r18
 804b25c:	9809883a 	mov	r4,r19
 804b260:	804af680 	call	804af68 <__multiply>
 804b264:	90001b26 	beq	r18,zero,804b2d4 <__pow5mult+0xe0>
 804b268:	91000117 	ldw	r4,4(r18)
 804b26c:	98c01317 	ldw	r3,76(r19)
 804b270:	8021d07a 	srai	r16,r16,1
 804b274:	2109883a 	add	r4,r4,r4
 804b278:	2109883a 	add	r4,r4,r4
 804b27c:	1907883a 	add	r3,r3,r4
 804b280:	19000017 	ldw	r4,0(r3)
 804b284:	91000015 	stw	r4,0(r18)
 804b288:	1c800015 	stw	r18,0(r3)
 804b28c:	1025883a 	mov	r18,r2
 804b290:	803feb1e 	bne	r16,zero,804b240 <__alt_data_end+0xfffe31a0>
 804b294:	9005883a 	mov	r2,r18
 804b298:	dfc00517 	ldw	ra,20(sp)
 804b29c:	dd000417 	ldw	r20,16(sp)
 804b2a0:	dcc00317 	ldw	r19,12(sp)
 804b2a4:	dc800217 	ldw	r18,8(sp)
 804b2a8:	dc400117 	ldw	r17,4(sp)
 804b2ac:	dc000017 	ldw	r16,0(sp)
 804b2b0:	dec00604 	addi	sp,sp,24
 804b2b4:	f800283a 	ret
 804b2b8:	880d883a 	mov	r6,r17
 804b2bc:	880b883a 	mov	r5,r17
 804b2c0:	9809883a 	mov	r4,r19
 804b2c4:	804af680 	call	804af68 <__multiply>
 804b2c8:	88800015 	stw	r2,0(r17)
 804b2cc:	10000015 	stw	zero,0(r2)
 804b2d0:	003fdd06 	br	804b248 <__alt_data_end+0xfffe31a8>
 804b2d4:	1025883a 	mov	r18,r2
 804b2d8:	003fd706 	br	804b238 <__alt_data_end+0xfffe3198>
 804b2dc:	10bfffc4 	addi	r2,r2,-1
 804b2e0:	1085883a 	add	r2,r2,r2
 804b2e4:	00c20174 	movhi	r3,2053
 804b2e8:	18d18304 	addi	r3,r3,17932
 804b2ec:	1085883a 	add	r2,r2,r2
 804b2f0:	1885883a 	add	r2,r3,r2
 804b2f4:	11800017 	ldw	r6,0(r2)
 804b2f8:	000f883a 	mov	r7,zero
 804b2fc:	804abc80 	call	804abc8 <__multadd>
 804b300:	1025883a 	mov	r18,r2
 804b304:	003fc706 	br	804b224 <__alt_data_end+0xfffe3184>
 804b308:	05000044 	movi	r20,1
 804b30c:	a00b883a 	mov	r5,r20
 804b310:	9809883a 	mov	r4,r19
 804b314:	804aaf80 	call	804aaf8 <_Balloc>
 804b318:	1023883a 	mov	r17,r2
 804b31c:	00809c44 	movi	r2,625
 804b320:	88800515 	stw	r2,20(r17)
 804b324:	8d000415 	stw	r20,16(r17)
 804b328:	9c401215 	stw	r17,72(r19)
 804b32c:	88000015 	stw	zero,0(r17)
 804b330:	003fc606 	br	804b24c <__alt_data_end+0xfffe31ac>

0804b334 <__lshift>:
 804b334:	defff904 	addi	sp,sp,-28
 804b338:	dd400515 	stw	r21,20(sp)
 804b33c:	dcc00315 	stw	r19,12(sp)
 804b340:	302bd17a 	srai	r21,r6,5
 804b344:	2cc00417 	ldw	r19,16(r5)
 804b348:	28800217 	ldw	r2,8(r5)
 804b34c:	dd000415 	stw	r20,16(sp)
 804b350:	ace7883a 	add	r19,r21,r19
 804b354:	dc800215 	stw	r18,8(sp)
 804b358:	dc400115 	stw	r17,4(sp)
 804b35c:	dc000015 	stw	r16,0(sp)
 804b360:	dfc00615 	stw	ra,24(sp)
 804b364:	9c000044 	addi	r16,r19,1
 804b368:	2823883a 	mov	r17,r5
 804b36c:	3029883a 	mov	r20,r6
 804b370:	2025883a 	mov	r18,r4
 804b374:	29400117 	ldw	r5,4(r5)
 804b378:	1400030e 	bge	r2,r16,804b388 <__lshift+0x54>
 804b37c:	1085883a 	add	r2,r2,r2
 804b380:	29400044 	addi	r5,r5,1
 804b384:	143ffd16 	blt	r2,r16,804b37c <__alt_data_end+0xfffe32dc>
 804b388:	9009883a 	mov	r4,r18
 804b38c:	804aaf80 	call	804aaf8 <_Balloc>
 804b390:	10c00504 	addi	r3,r2,20
 804b394:	0540070e 	bge	zero,r21,804b3b4 <__lshift+0x80>
 804b398:	ad6b883a 	add	r21,r21,r21
 804b39c:	ad6b883a 	add	r21,r21,r21
 804b3a0:	1809883a 	mov	r4,r3
 804b3a4:	1d47883a 	add	r3,r3,r21
 804b3a8:	20000015 	stw	zero,0(r4)
 804b3ac:	21000104 	addi	r4,r4,4
 804b3b0:	193ffd1e 	bne	r3,r4,804b3a8 <__alt_data_end+0xfffe3308>
 804b3b4:	8a000417 	ldw	r8,16(r17)
 804b3b8:	89000504 	addi	r4,r17,20
 804b3bc:	a18007cc 	andi	r6,r20,31
 804b3c0:	4211883a 	add	r8,r8,r8
 804b3c4:	4211883a 	add	r8,r8,r8
 804b3c8:	2211883a 	add	r8,r4,r8
 804b3cc:	30002326 	beq	r6,zero,804b45c <__lshift+0x128>
 804b3d0:	02400804 	movi	r9,32
 804b3d4:	4993c83a 	sub	r9,r9,r6
 804b3d8:	000b883a 	mov	r5,zero
 804b3dc:	21c00017 	ldw	r7,0(r4)
 804b3e0:	1815883a 	mov	r10,r3
 804b3e4:	18c00104 	addi	r3,r3,4
 804b3e8:	398e983a 	sll	r7,r7,r6
 804b3ec:	21000104 	addi	r4,r4,4
 804b3f0:	394ab03a 	or	r5,r7,r5
 804b3f4:	197fff15 	stw	r5,-4(r3)
 804b3f8:	217fff17 	ldw	r5,-4(r4)
 804b3fc:	2a4ad83a 	srl	r5,r5,r9
 804b400:	223ff636 	bltu	r4,r8,804b3dc <__alt_data_end+0xfffe333c>
 804b404:	51400115 	stw	r5,4(r10)
 804b408:	28001a1e 	bne	r5,zero,804b474 <__lshift+0x140>
 804b40c:	843fffc4 	addi	r16,r16,-1
 804b410:	14000415 	stw	r16,16(r2)
 804b414:	88000826 	beq	r17,zero,804b438 <__lshift+0x104>
 804b418:	89000117 	ldw	r4,4(r17)
 804b41c:	90c01317 	ldw	r3,76(r18)
 804b420:	2109883a 	add	r4,r4,r4
 804b424:	2109883a 	add	r4,r4,r4
 804b428:	1907883a 	add	r3,r3,r4
 804b42c:	19000017 	ldw	r4,0(r3)
 804b430:	89000015 	stw	r4,0(r17)
 804b434:	1c400015 	stw	r17,0(r3)
 804b438:	dfc00617 	ldw	ra,24(sp)
 804b43c:	dd400517 	ldw	r21,20(sp)
 804b440:	dd000417 	ldw	r20,16(sp)
 804b444:	dcc00317 	ldw	r19,12(sp)
 804b448:	dc800217 	ldw	r18,8(sp)
 804b44c:	dc400117 	ldw	r17,4(sp)
 804b450:	dc000017 	ldw	r16,0(sp)
 804b454:	dec00704 	addi	sp,sp,28
 804b458:	f800283a 	ret
 804b45c:	21400017 	ldw	r5,0(r4)
 804b460:	18c00104 	addi	r3,r3,4
 804b464:	21000104 	addi	r4,r4,4
 804b468:	197fff15 	stw	r5,-4(r3)
 804b46c:	223ffb36 	bltu	r4,r8,804b45c <__alt_data_end+0xfffe33bc>
 804b470:	003fe606 	br	804b40c <__alt_data_end+0xfffe336c>
 804b474:	9c000084 	addi	r16,r19,2
 804b478:	003fe406 	br	804b40c <__alt_data_end+0xfffe336c>

0804b47c <__mcmp>:
 804b47c:	20800417 	ldw	r2,16(r4)
 804b480:	28c00417 	ldw	r3,16(r5)
 804b484:	10c5c83a 	sub	r2,r2,r3
 804b488:	1000111e 	bne	r2,zero,804b4d0 <__mcmp+0x54>
 804b48c:	18c7883a 	add	r3,r3,r3
 804b490:	18c7883a 	add	r3,r3,r3
 804b494:	21000504 	addi	r4,r4,20
 804b498:	29400504 	addi	r5,r5,20
 804b49c:	20c5883a 	add	r2,r4,r3
 804b4a0:	28cb883a 	add	r5,r5,r3
 804b4a4:	00000106 	br	804b4ac <__mcmp+0x30>
 804b4a8:	20800a2e 	bgeu	r4,r2,804b4d4 <__mcmp+0x58>
 804b4ac:	10bfff04 	addi	r2,r2,-4
 804b4b0:	297fff04 	addi	r5,r5,-4
 804b4b4:	11800017 	ldw	r6,0(r2)
 804b4b8:	28c00017 	ldw	r3,0(r5)
 804b4bc:	30fffa26 	beq	r6,r3,804b4a8 <__alt_data_end+0xfffe3408>
 804b4c0:	30c00236 	bltu	r6,r3,804b4cc <__mcmp+0x50>
 804b4c4:	00800044 	movi	r2,1
 804b4c8:	f800283a 	ret
 804b4cc:	00bfffc4 	movi	r2,-1
 804b4d0:	f800283a 	ret
 804b4d4:	0005883a 	mov	r2,zero
 804b4d8:	f800283a 	ret

0804b4dc <__mdiff>:
 804b4dc:	28c00417 	ldw	r3,16(r5)
 804b4e0:	30800417 	ldw	r2,16(r6)
 804b4e4:	defffa04 	addi	sp,sp,-24
 804b4e8:	dcc00315 	stw	r19,12(sp)
 804b4ec:	dc800215 	stw	r18,8(sp)
 804b4f0:	dfc00515 	stw	ra,20(sp)
 804b4f4:	dd000415 	stw	r20,16(sp)
 804b4f8:	dc400115 	stw	r17,4(sp)
 804b4fc:	dc000015 	stw	r16,0(sp)
 804b500:	1887c83a 	sub	r3,r3,r2
 804b504:	2825883a 	mov	r18,r5
 804b508:	3027883a 	mov	r19,r6
 804b50c:	1800141e 	bne	r3,zero,804b560 <__mdiff+0x84>
 804b510:	1085883a 	add	r2,r2,r2
 804b514:	1085883a 	add	r2,r2,r2
 804b518:	2a000504 	addi	r8,r5,20
 804b51c:	34000504 	addi	r16,r6,20
 804b520:	4087883a 	add	r3,r8,r2
 804b524:	8085883a 	add	r2,r16,r2
 804b528:	00000106 	br	804b530 <__mdiff+0x54>
 804b52c:	40c0592e 	bgeu	r8,r3,804b694 <__mdiff+0x1b8>
 804b530:	18ffff04 	addi	r3,r3,-4
 804b534:	10bfff04 	addi	r2,r2,-4
 804b538:	19c00017 	ldw	r7,0(r3)
 804b53c:	11400017 	ldw	r5,0(r2)
 804b540:	397ffa26 	beq	r7,r5,804b52c <__alt_data_end+0xfffe348c>
 804b544:	3940592e 	bgeu	r7,r5,804b6ac <__mdiff+0x1d0>
 804b548:	9005883a 	mov	r2,r18
 804b54c:	4023883a 	mov	r17,r8
 804b550:	9825883a 	mov	r18,r19
 804b554:	05000044 	movi	r20,1
 804b558:	1027883a 	mov	r19,r2
 804b55c:	00000406 	br	804b570 <__mdiff+0x94>
 804b560:	18005616 	blt	r3,zero,804b6bc <__mdiff+0x1e0>
 804b564:	34400504 	addi	r17,r6,20
 804b568:	2c000504 	addi	r16,r5,20
 804b56c:	0029883a 	mov	r20,zero
 804b570:	91400117 	ldw	r5,4(r18)
 804b574:	804aaf80 	call	804aaf8 <_Balloc>
 804b578:	92400417 	ldw	r9,16(r18)
 804b57c:	9b000417 	ldw	r12,16(r19)
 804b580:	12c00504 	addi	r11,r2,20
 804b584:	4a51883a 	add	r8,r9,r9
 804b588:	6319883a 	add	r12,r12,r12
 804b58c:	4211883a 	add	r8,r8,r8
 804b590:	6319883a 	add	r12,r12,r12
 804b594:	15000315 	stw	r20,12(r2)
 804b598:	8211883a 	add	r8,r16,r8
 804b59c:	8b19883a 	add	r12,r17,r12
 804b5a0:	0007883a 	mov	r3,zero
 804b5a4:	81400017 	ldw	r5,0(r16)
 804b5a8:	89c00017 	ldw	r7,0(r17)
 804b5ac:	59800104 	addi	r6,r11,4
 804b5b0:	293fffcc 	andi	r4,r5,65535
 804b5b4:	20c7883a 	add	r3,r4,r3
 804b5b8:	393fffcc 	andi	r4,r7,65535
 804b5bc:	1909c83a 	sub	r4,r3,r4
 804b5c0:	280ad43a 	srli	r5,r5,16
 804b5c4:	380ed43a 	srli	r7,r7,16
 804b5c8:	2007d43a 	srai	r3,r4,16
 804b5cc:	213fffcc 	andi	r4,r4,65535
 804b5d0:	29cbc83a 	sub	r5,r5,r7
 804b5d4:	28c7883a 	add	r3,r5,r3
 804b5d8:	180a943a 	slli	r5,r3,16
 804b5dc:	8c400104 	addi	r17,r17,4
 804b5e0:	84000104 	addi	r16,r16,4
 804b5e4:	2908b03a 	or	r4,r5,r4
 804b5e8:	59000015 	stw	r4,0(r11)
 804b5ec:	1807d43a 	srai	r3,r3,16
 804b5f0:	3015883a 	mov	r10,r6
 804b5f4:	3017883a 	mov	r11,r6
 804b5f8:	8b3fea36 	bltu	r17,r12,804b5a4 <__alt_data_end+0xfffe3504>
 804b5fc:	8200162e 	bgeu	r16,r8,804b658 <__mdiff+0x17c>
 804b600:	8017883a 	mov	r11,r16
 804b604:	59400017 	ldw	r5,0(r11)
 804b608:	31800104 	addi	r6,r6,4
 804b60c:	5ac00104 	addi	r11,r11,4
 804b610:	293fffcc 	andi	r4,r5,65535
 804b614:	20c7883a 	add	r3,r4,r3
 804b618:	280ed43a 	srli	r7,r5,16
 804b61c:	180bd43a 	srai	r5,r3,16
 804b620:	193fffcc 	andi	r4,r3,65535
 804b624:	3947883a 	add	r3,r7,r5
 804b628:	180a943a 	slli	r5,r3,16
 804b62c:	1807d43a 	srai	r3,r3,16
 804b630:	2908b03a 	or	r4,r5,r4
 804b634:	313fff15 	stw	r4,-4(r6)
 804b638:	5a3ff236 	bltu	r11,r8,804b604 <__alt_data_end+0xfffe3564>
 804b63c:	0406303a 	nor	r3,zero,r16
 804b640:	1a07883a 	add	r3,r3,r8
 804b644:	1806d0ba 	srli	r3,r3,2
 804b648:	18c00044 	addi	r3,r3,1
 804b64c:	18c7883a 	add	r3,r3,r3
 804b650:	18c7883a 	add	r3,r3,r3
 804b654:	50d5883a 	add	r10,r10,r3
 804b658:	50ffff04 	addi	r3,r10,-4
 804b65c:	2000041e 	bne	r4,zero,804b670 <__mdiff+0x194>
 804b660:	18ffff04 	addi	r3,r3,-4
 804b664:	19000017 	ldw	r4,0(r3)
 804b668:	4a7fffc4 	addi	r9,r9,-1
 804b66c:	203ffc26 	beq	r4,zero,804b660 <__alt_data_end+0xfffe35c0>
 804b670:	12400415 	stw	r9,16(r2)
 804b674:	dfc00517 	ldw	ra,20(sp)
 804b678:	dd000417 	ldw	r20,16(sp)
 804b67c:	dcc00317 	ldw	r19,12(sp)
 804b680:	dc800217 	ldw	r18,8(sp)
 804b684:	dc400117 	ldw	r17,4(sp)
 804b688:	dc000017 	ldw	r16,0(sp)
 804b68c:	dec00604 	addi	sp,sp,24
 804b690:	f800283a 	ret
 804b694:	000b883a 	mov	r5,zero
 804b698:	804aaf80 	call	804aaf8 <_Balloc>
 804b69c:	00c00044 	movi	r3,1
 804b6a0:	10c00415 	stw	r3,16(r2)
 804b6a4:	10000515 	stw	zero,20(r2)
 804b6a8:	003ff206 	br	804b674 <__alt_data_end+0xfffe35d4>
 804b6ac:	8023883a 	mov	r17,r16
 804b6b0:	0029883a 	mov	r20,zero
 804b6b4:	4021883a 	mov	r16,r8
 804b6b8:	003fad06 	br	804b570 <__alt_data_end+0xfffe34d0>
 804b6bc:	9005883a 	mov	r2,r18
 804b6c0:	94400504 	addi	r17,r18,20
 804b6c4:	9c000504 	addi	r16,r19,20
 804b6c8:	9825883a 	mov	r18,r19
 804b6cc:	05000044 	movi	r20,1
 804b6d0:	1027883a 	mov	r19,r2
 804b6d4:	003fa606 	br	804b570 <__alt_data_end+0xfffe34d0>

0804b6d8 <__ulp>:
 804b6d8:	295ffc2c 	andhi	r5,r5,32752
 804b6dc:	00bf3034 	movhi	r2,64704
 804b6e0:	2887883a 	add	r3,r5,r2
 804b6e4:	00c0020e 	bge	zero,r3,804b6f0 <__ulp+0x18>
 804b6e8:	0005883a 	mov	r2,zero
 804b6ec:	f800283a 	ret
 804b6f0:	00c7c83a 	sub	r3,zero,r3
 804b6f4:	1807d53a 	srai	r3,r3,20
 804b6f8:	008004c4 	movi	r2,19
 804b6fc:	10c00b0e 	bge	r2,r3,804b72c <__ulp+0x54>
 804b700:	18bffb04 	addi	r2,r3,-20
 804b704:	01000784 	movi	r4,30
 804b708:	0007883a 	mov	r3,zero
 804b70c:	20800516 	blt	r4,r2,804b724 <__ulp+0x4c>
 804b710:	010007c4 	movi	r4,31
 804b714:	2089c83a 	sub	r4,r4,r2
 804b718:	00800044 	movi	r2,1
 804b71c:	1104983a 	sll	r2,r2,r4
 804b720:	f800283a 	ret
 804b724:	00800044 	movi	r2,1
 804b728:	f800283a 	ret
 804b72c:	01400234 	movhi	r5,8
 804b730:	28c7d83a 	sra	r3,r5,r3
 804b734:	0005883a 	mov	r2,zero
 804b738:	f800283a 	ret

0804b73c <__b2d>:
 804b73c:	defffa04 	addi	sp,sp,-24
 804b740:	dc000015 	stw	r16,0(sp)
 804b744:	24000417 	ldw	r16,16(r4)
 804b748:	dc400115 	stw	r17,4(sp)
 804b74c:	24400504 	addi	r17,r4,20
 804b750:	8421883a 	add	r16,r16,r16
 804b754:	8421883a 	add	r16,r16,r16
 804b758:	8c21883a 	add	r16,r17,r16
 804b75c:	dc800215 	stw	r18,8(sp)
 804b760:	84bfff17 	ldw	r18,-4(r16)
 804b764:	dd000415 	stw	r20,16(sp)
 804b768:	dcc00315 	stw	r19,12(sp)
 804b76c:	9009883a 	mov	r4,r18
 804b770:	2829883a 	mov	r20,r5
 804b774:	dfc00515 	stw	ra,20(sp)
 804b778:	804ae140 	call	804ae14 <__hi0bits>
 804b77c:	00c00804 	movi	r3,32
 804b780:	1889c83a 	sub	r4,r3,r2
 804b784:	a1000015 	stw	r4,0(r20)
 804b788:	01000284 	movi	r4,10
 804b78c:	84ffff04 	addi	r19,r16,-4
 804b790:	20801216 	blt	r4,r2,804b7dc <__b2d+0xa0>
 804b794:	018002c4 	movi	r6,11
 804b798:	308dc83a 	sub	r6,r6,r2
 804b79c:	9186d83a 	srl	r3,r18,r6
 804b7a0:	18cffc34 	orhi	r3,r3,16368
 804b7a4:	8cc0212e 	bgeu	r17,r19,804b82c <__b2d+0xf0>
 804b7a8:	813ffe17 	ldw	r4,-8(r16)
 804b7ac:	218cd83a 	srl	r6,r4,r6
 804b7b0:	10800544 	addi	r2,r2,21
 804b7b4:	9084983a 	sll	r2,r18,r2
 804b7b8:	1184b03a 	or	r2,r2,r6
 804b7bc:	dfc00517 	ldw	ra,20(sp)
 804b7c0:	dd000417 	ldw	r20,16(sp)
 804b7c4:	dcc00317 	ldw	r19,12(sp)
 804b7c8:	dc800217 	ldw	r18,8(sp)
 804b7cc:	dc400117 	ldw	r17,4(sp)
 804b7d0:	dc000017 	ldw	r16,0(sp)
 804b7d4:	dec00604 	addi	sp,sp,24
 804b7d8:	f800283a 	ret
 804b7dc:	8cc00f2e 	bgeu	r17,r19,804b81c <__b2d+0xe0>
 804b7e0:	117ffd44 	addi	r5,r2,-11
 804b7e4:	80bffe17 	ldw	r2,-8(r16)
 804b7e8:	28000e26 	beq	r5,zero,804b824 <__b2d+0xe8>
 804b7ec:	1949c83a 	sub	r4,r3,r5
 804b7f0:	9164983a 	sll	r18,r18,r5
 804b7f4:	1106d83a 	srl	r3,r2,r4
 804b7f8:	81bffe04 	addi	r6,r16,-8
 804b7fc:	948ffc34 	orhi	r18,r18,16368
 804b800:	90c6b03a 	or	r3,r18,r3
 804b804:	89800e2e 	bgeu	r17,r6,804b840 <__b2d+0x104>
 804b808:	81bffd17 	ldw	r6,-12(r16)
 804b80c:	1144983a 	sll	r2,r2,r5
 804b810:	310ad83a 	srl	r5,r6,r4
 804b814:	2884b03a 	or	r2,r5,r2
 804b818:	003fe806 	br	804b7bc <__alt_data_end+0xfffe371c>
 804b81c:	10bffd44 	addi	r2,r2,-11
 804b820:	1000041e 	bne	r2,zero,804b834 <__b2d+0xf8>
 804b824:	90cffc34 	orhi	r3,r18,16368
 804b828:	003fe406 	br	804b7bc <__alt_data_end+0xfffe371c>
 804b82c:	000d883a 	mov	r6,zero
 804b830:	003fdf06 	br	804b7b0 <__alt_data_end+0xfffe3710>
 804b834:	90a4983a 	sll	r18,r18,r2
 804b838:	0005883a 	mov	r2,zero
 804b83c:	003ff906 	br	804b824 <__alt_data_end+0xfffe3784>
 804b840:	1144983a 	sll	r2,r2,r5
 804b844:	003fdd06 	br	804b7bc <__alt_data_end+0xfffe371c>

0804b848 <__d2b>:
 804b848:	defff804 	addi	sp,sp,-32
 804b84c:	dc000215 	stw	r16,8(sp)
 804b850:	3021883a 	mov	r16,r6
 804b854:	dc400315 	stw	r17,12(sp)
 804b858:	8022907a 	slli	r17,r16,1
 804b85c:	dd000615 	stw	r20,24(sp)
 804b860:	2829883a 	mov	r20,r5
 804b864:	01400044 	movi	r5,1
 804b868:	dcc00515 	stw	r19,20(sp)
 804b86c:	dc800415 	stw	r18,16(sp)
 804b870:	dfc00715 	stw	ra,28(sp)
 804b874:	3825883a 	mov	r18,r7
 804b878:	8822d57a 	srli	r17,r17,21
 804b87c:	804aaf80 	call	804aaf8 <_Balloc>
 804b880:	1027883a 	mov	r19,r2
 804b884:	00800434 	movhi	r2,16
 804b888:	10bfffc4 	addi	r2,r2,-1
 804b88c:	808c703a 	and	r6,r16,r2
 804b890:	88000126 	beq	r17,zero,804b898 <__d2b+0x50>
 804b894:	31800434 	orhi	r6,r6,16
 804b898:	d9800015 	stw	r6,0(sp)
 804b89c:	a0002426 	beq	r20,zero,804b930 <__d2b+0xe8>
 804b8a0:	d9000104 	addi	r4,sp,4
 804b8a4:	dd000115 	stw	r20,4(sp)
 804b8a8:	804ae7c0 	call	804ae7c <__lo0bits>
 804b8ac:	d8c00017 	ldw	r3,0(sp)
 804b8b0:	10002f1e 	bne	r2,zero,804b970 <__d2b+0x128>
 804b8b4:	d9000117 	ldw	r4,4(sp)
 804b8b8:	99000515 	stw	r4,20(r19)
 804b8bc:	1821003a 	cmpeq	r16,r3,zero
 804b8c0:	01000084 	movi	r4,2
 804b8c4:	2421c83a 	sub	r16,r4,r16
 804b8c8:	98c00615 	stw	r3,24(r19)
 804b8cc:	9c000415 	stw	r16,16(r19)
 804b8d0:	88001f1e 	bne	r17,zero,804b950 <__d2b+0x108>
 804b8d4:	10bef384 	addi	r2,r2,-1074
 804b8d8:	90800015 	stw	r2,0(r18)
 804b8dc:	00900034 	movhi	r2,16384
 804b8e0:	10bfffc4 	addi	r2,r2,-1
 804b8e4:	8085883a 	add	r2,r16,r2
 804b8e8:	1085883a 	add	r2,r2,r2
 804b8ec:	1085883a 	add	r2,r2,r2
 804b8f0:	9885883a 	add	r2,r19,r2
 804b8f4:	11000517 	ldw	r4,20(r2)
 804b8f8:	8020917a 	slli	r16,r16,5
 804b8fc:	804ae140 	call	804ae14 <__hi0bits>
 804b900:	d8c00817 	ldw	r3,32(sp)
 804b904:	8085c83a 	sub	r2,r16,r2
 804b908:	18800015 	stw	r2,0(r3)
 804b90c:	9805883a 	mov	r2,r19
 804b910:	dfc00717 	ldw	ra,28(sp)
 804b914:	dd000617 	ldw	r20,24(sp)
 804b918:	dcc00517 	ldw	r19,20(sp)
 804b91c:	dc800417 	ldw	r18,16(sp)
 804b920:	dc400317 	ldw	r17,12(sp)
 804b924:	dc000217 	ldw	r16,8(sp)
 804b928:	dec00804 	addi	sp,sp,32
 804b92c:	f800283a 	ret
 804b930:	d809883a 	mov	r4,sp
 804b934:	804ae7c0 	call	804ae7c <__lo0bits>
 804b938:	d8c00017 	ldw	r3,0(sp)
 804b93c:	04000044 	movi	r16,1
 804b940:	9c000415 	stw	r16,16(r19)
 804b944:	98c00515 	stw	r3,20(r19)
 804b948:	10800804 	addi	r2,r2,32
 804b94c:	883fe126 	beq	r17,zero,804b8d4 <__alt_data_end+0xfffe3834>
 804b950:	00c00d44 	movi	r3,53
 804b954:	8c7ef344 	addi	r17,r17,-1075
 804b958:	88a3883a 	add	r17,r17,r2
 804b95c:	1885c83a 	sub	r2,r3,r2
 804b960:	d8c00817 	ldw	r3,32(sp)
 804b964:	94400015 	stw	r17,0(r18)
 804b968:	18800015 	stw	r2,0(r3)
 804b96c:	003fe706 	br	804b90c <__alt_data_end+0xfffe386c>
 804b970:	01000804 	movi	r4,32
 804b974:	2089c83a 	sub	r4,r4,r2
 804b978:	1908983a 	sll	r4,r3,r4
 804b97c:	d9400117 	ldw	r5,4(sp)
 804b980:	1886d83a 	srl	r3,r3,r2
 804b984:	2148b03a 	or	r4,r4,r5
 804b988:	99000515 	stw	r4,20(r19)
 804b98c:	d8c00015 	stw	r3,0(sp)
 804b990:	003fca06 	br	804b8bc <__alt_data_end+0xfffe381c>

0804b994 <__ratio>:
 804b994:	defff904 	addi	sp,sp,-28
 804b998:	dc400315 	stw	r17,12(sp)
 804b99c:	2823883a 	mov	r17,r5
 804b9a0:	d9400104 	addi	r5,sp,4
 804b9a4:	dfc00615 	stw	ra,24(sp)
 804b9a8:	dcc00515 	stw	r19,20(sp)
 804b9ac:	dc800415 	stw	r18,16(sp)
 804b9b0:	2027883a 	mov	r19,r4
 804b9b4:	dc000215 	stw	r16,8(sp)
 804b9b8:	804b73c0 	call	804b73c <__b2d>
 804b9bc:	d80b883a 	mov	r5,sp
 804b9c0:	8809883a 	mov	r4,r17
 804b9c4:	1025883a 	mov	r18,r2
 804b9c8:	1821883a 	mov	r16,r3
 804b9cc:	804b73c0 	call	804b73c <__b2d>
 804b9d0:	8a000417 	ldw	r8,16(r17)
 804b9d4:	99000417 	ldw	r4,16(r19)
 804b9d8:	d9400117 	ldw	r5,4(sp)
 804b9dc:	2209c83a 	sub	r4,r4,r8
 804b9e0:	2010917a 	slli	r8,r4,5
 804b9e4:	d9000017 	ldw	r4,0(sp)
 804b9e8:	2909c83a 	sub	r4,r5,r4
 804b9ec:	4109883a 	add	r4,r8,r4
 804b9f0:	01000e0e 	bge	zero,r4,804ba2c <__ratio+0x98>
 804b9f4:	2008953a 	slli	r4,r4,20
 804b9f8:	2421883a 	add	r16,r4,r16
 804b9fc:	100d883a 	mov	r6,r2
 804ba00:	180f883a 	mov	r7,r3
 804ba04:	9009883a 	mov	r4,r18
 804ba08:	800b883a 	mov	r5,r16
 804ba0c:	80434a40 	call	80434a4 <__divdf3>
 804ba10:	dfc00617 	ldw	ra,24(sp)
 804ba14:	dcc00517 	ldw	r19,20(sp)
 804ba18:	dc800417 	ldw	r18,16(sp)
 804ba1c:	dc400317 	ldw	r17,12(sp)
 804ba20:	dc000217 	ldw	r16,8(sp)
 804ba24:	dec00704 	addi	sp,sp,28
 804ba28:	f800283a 	ret
 804ba2c:	2008953a 	slli	r4,r4,20
 804ba30:	1907c83a 	sub	r3,r3,r4
 804ba34:	003ff106 	br	804b9fc <__alt_data_end+0xfffe395c>

0804ba38 <_mprec_log10>:
 804ba38:	defffe04 	addi	sp,sp,-8
 804ba3c:	dc000015 	stw	r16,0(sp)
 804ba40:	dfc00115 	stw	ra,4(sp)
 804ba44:	008005c4 	movi	r2,23
 804ba48:	2021883a 	mov	r16,r4
 804ba4c:	11000d0e 	bge	r2,r4,804ba84 <_mprec_log10+0x4c>
 804ba50:	0005883a 	mov	r2,zero
 804ba54:	00cffc34 	movhi	r3,16368
 804ba58:	843fffc4 	addi	r16,r16,-1
 804ba5c:	000d883a 	mov	r6,zero
 804ba60:	01d00934 	movhi	r7,16420
 804ba64:	1009883a 	mov	r4,r2
 804ba68:	180b883a 	mov	r5,r3
 804ba6c:	80440440 	call	8044044 <__muldf3>
 804ba70:	803ff91e 	bne	r16,zero,804ba58 <__alt_data_end+0xfffe39b8>
 804ba74:	dfc00117 	ldw	ra,4(sp)
 804ba78:	dc000017 	ldw	r16,0(sp)
 804ba7c:	dec00204 	addi	sp,sp,8
 804ba80:	f800283a 	ret
 804ba84:	202090fa 	slli	r16,r4,3
 804ba88:	00820174 	movhi	r2,2053
 804ba8c:	10919a04 	addi	r2,r2,18024
 804ba90:	1421883a 	add	r16,r2,r16
 804ba94:	80800017 	ldw	r2,0(r16)
 804ba98:	80c00117 	ldw	r3,4(r16)
 804ba9c:	dfc00117 	ldw	ra,4(sp)
 804baa0:	dc000017 	ldw	r16,0(sp)
 804baa4:	dec00204 	addi	sp,sp,8
 804baa8:	f800283a 	ret

0804baac <__copybits>:
 804baac:	297fffc4 	addi	r5,r5,-1
 804bab0:	280fd17a 	srai	r7,r5,5
 804bab4:	30c00417 	ldw	r3,16(r6)
 804bab8:	30800504 	addi	r2,r6,20
 804babc:	39c00044 	addi	r7,r7,1
 804bac0:	18c7883a 	add	r3,r3,r3
 804bac4:	39cf883a 	add	r7,r7,r7
 804bac8:	18c7883a 	add	r3,r3,r3
 804bacc:	39cf883a 	add	r7,r7,r7
 804bad0:	10c7883a 	add	r3,r2,r3
 804bad4:	21cf883a 	add	r7,r4,r7
 804bad8:	10c00d2e 	bgeu	r2,r3,804bb10 <__copybits+0x64>
 804badc:	200b883a 	mov	r5,r4
 804bae0:	12000017 	ldw	r8,0(r2)
 804bae4:	29400104 	addi	r5,r5,4
 804bae8:	10800104 	addi	r2,r2,4
 804baec:	2a3fff15 	stw	r8,-4(r5)
 804baf0:	10fffb36 	bltu	r2,r3,804bae0 <__alt_data_end+0xfffe3a40>
 804baf4:	1985c83a 	sub	r2,r3,r6
 804baf8:	10bffac4 	addi	r2,r2,-21
 804bafc:	1004d0ba 	srli	r2,r2,2
 804bb00:	10800044 	addi	r2,r2,1
 804bb04:	1085883a 	add	r2,r2,r2
 804bb08:	1085883a 	add	r2,r2,r2
 804bb0c:	2089883a 	add	r4,r4,r2
 804bb10:	21c0032e 	bgeu	r4,r7,804bb20 <__copybits+0x74>
 804bb14:	20000015 	stw	zero,0(r4)
 804bb18:	21000104 	addi	r4,r4,4
 804bb1c:	21fffd36 	bltu	r4,r7,804bb14 <__alt_data_end+0xfffe3a74>
 804bb20:	f800283a 	ret

0804bb24 <__any_on>:
 804bb24:	20c00417 	ldw	r3,16(r4)
 804bb28:	2805d17a 	srai	r2,r5,5
 804bb2c:	21000504 	addi	r4,r4,20
 804bb30:	18800d0e 	bge	r3,r2,804bb68 <__any_on+0x44>
 804bb34:	18c7883a 	add	r3,r3,r3
 804bb38:	18c7883a 	add	r3,r3,r3
 804bb3c:	20c7883a 	add	r3,r4,r3
 804bb40:	20c0192e 	bgeu	r4,r3,804bba8 <__any_on+0x84>
 804bb44:	18bfff17 	ldw	r2,-4(r3)
 804bb48:	18ffff04 	addi	r3,r3,-4
 804bb4c:	1000041e 	bne	r2,zero,804bb60 <__any_on+0x3c>
 804bb50:	20c0142e 	bgeu	r4,r3,804bba4 <__any_on+0x80>
 804bb54:	18ffff04 	addi	r3,r3,-4
 804bb58:	19400017 	ldw	r5,0(r3)
 804bb5c:	283ffc26 	beq	r5,zero,804bb50 <__alt_data_end+0xfffe3ab0>
 804bb60:	00800044 	movi	r2,1
 804bb64:	f800283a 	ret
 804bb68:	10c00a0e 	bge	r2,r3,804bb94 <__any_on+0x70>
 804bb6c:	1085883a 	add	r2,r2,r2
 804bb70:	1085883a 	add	r2,r2,r2
 804bb74:	294007cc 	andi	r5,r5,31
 804bb78:	2087883a 	add	r3,r4,r2
 804bb7c:	283ff026 	beq	r5,zero,804bb40 <__alt_data_end+0xfffe3aa0>
 804bb80:	19800017 	ldw	r6,0(r3)
 804bb84:	3144d83a 	srl	r2,r6,r5
 804bb88:	114a983a 	sll	r5,r2,r5
 804bb8c:	317ff41e 	bne	r6,r5,804bb60 <__alt_data_end+0xfffe3ac0>
 804bb90:	003feb06 	br	804bb40 <__alt_data_end+0xfffe3aa0>
 804bb94:	1085883a 	add	r2,r2,r2
 804bb98:	1085883a 	add	r2,r2,r2
 804bb9c:	2087883a 	add	r3,r4,r2
 804bba0:	003fe706 	br	804bb40 <__alt_data_end+0xfffe3aa0>
 804bba4:	f800283a 	ret
 804bba8:	0005883a 	mov	r2,zero
 804bbac:	f800283a 	ret

0804bbb0 <_realloc_r>:
 804bbb0:	defff604 	addi	sp,sp,-40
 804bbb4:	dc800215 	stw	r18,8(sp)
 804bbb8:	dfc00915 	stw	ra,36(sp)
 804bbbc:	df000815 	stw	fp,32(sp)
 804bbc0:	ddc00715 	stw	r23,28(sp)
 804bbc4:	dd800615 	stw	r22,24(sp)
 804bbc8:	dd400515 	stw	r21,20(sp)
 804bbcc:	dd000415 	stw	r20,16(sp)
 804bbd0:	dcc00315 	stw	r19,12(sp)
 804bbd4:	dc400115 	stw	r17,4(sp)
 804bbd8:	dc000015 	stw	r16,0(sp)
 804bbdc:	3025883a 	mov	r18,r6
 804bbe0:	2800b726 	beq	r5,zero,804bec0 <_realloc_r+0x310>
 804bbe4:	282b883a 	mov	r21,r5
 804bbe8:	2029883a 	mov	r20,r4
 804bbec:	80508400 	call	8050840 <__malloc_lock>
 804bbf0:	a8bfff17 	ldw	r2,-4(r21)
 804bbf4:	043fff04 	movi	r16,-4
 804bbf8:	90c002c4 	addi	r3,r18,11
 804bbfc:	01000584 	movi	r4,22
 804bc00:	acfffe04 	addi	r19,r21,-8
 804bc04:	1420703a 	and	r16,r2,r16
 804bc08:	20c0332e 	bgeu	r4,r3,804bcd8 <_realloc_r+0x128>
 804bc0c:	047ffe04 	movi	r17,-8
 804bc10:	1c62703a 	and	r17,r3,r17
 804bc14:	8807883a 	mov	r3,r17
 804bc18:	88005816 	blt	r17,zero,804bd7c <_realloc_r+0x1cc>
 804bc1c:	8c805736 	bltu	r17,r18,804bd7c <_realloc_r+0x1cc>
 804bc20:	80c0300e 	bge	r16,r3,804bce4 <_realloc_r+0x134>
 804bc24:	07020174 	movhi	fp,2053
 804bc28:	e7133004 	addi	fp,fp,19648
 804bc2c:	e1c00217 	ldw	r7,8(fp)
 804bc30:	9c09883a 	add	r4,r19,r16
 804bc34:	22000117 	ldw	r8,4(r4)
 804bc38:	21c06326 	beq	r4,r7,804bdc8 <_realloc_r+0x218>
 804bc3c:	017fff84 	movi	r5,-2
 804bc40:	414a703a 	and	r5,r8,r5
 804bc44:	214b883a 	add	r5,r4,r5
 804bc48:	29800117 	ldw	r6,4(r5)
 804bc4c:	3180004c 	andi	r6,r6,1
 804bc50:	30003f26 	beq	r6,zero,804bd50 <_realloc_r+0x1a0>
 804bc54:	1080004c 	andi	r2,r2,1
 804bc58:	10008326 	beq	r2,zero,804be68 <_realloc_r+0x2b8>
 804bc5c:	900b883a 	mov	r5,r18
 804bc60:	a009883a 	mov	r4,r20
 804bc64:	804a0ac0 	call	804a0ac <_malloc_r>
 804bc68:	1025883a 	mov	r18,r2
 804bc6c:	10011e26 	beq	r2,zero,804c0e8 <_realloc_r+0x538>
 804bc70:	a93fff17 	ldw	r4,-4(r21)
 804bc74:	10fffe04 	addi	r3,r2,-8
 804bc78:	00bfff84 	movi	r2,-2
 804bc7c:	2084703a 	and	r2,r4,r2
 804bc80:	9885883a 	add	r2,r19,r2
 804bc84:	1880ee26 	beq	r3,r2,804c040 <_realloc_r+0x490>
 804bc88:	81bfff04 	addi	r6,r16,-4
 804bc8c:	00800904 	movi	r2,36
 804bc90:	1180b836 	bltu	r2,r6,804bf74 <_realloc_r+0x3c4>
 804bc94:	00c004c4 	movi	r3,19
 804bc98:	19809636 	bltu	r3,r6,804bef4 <_realloc_r+0x344>
 804bc9c:	9005883a 	mov	r2,r18
 804bca0:	a807883a 	mov	r3,r21
 804bca4:	19000017 	ldw	r4,0(r3)
 804bca8:	11000015 	stw	r4,0(r2)
 804bcac:	19000117 	ldw	r4,4(r3)
 804bcb0:	11000115 	stw	r4,4(r2)
 804bcb4:	18c00217 	ldw	r3,8(r3)
 804bcb8:	10c00215 	stw	r3,8(r2)
 804bcbc:	a80b883a 	mov	r5,r21
 804bcc0:	a009883a 	mov	r4,r20
 804bcc4:	804e1180 	call	804e118 <_free_r>
 804bcc8:	a009883a 	mov	r4,r20
 804bccc:	80508640 	call	8050864 <__malloc_unlock>
 804bcd0:	9005883a 	mov	r2,r18
 804bcd4:	00001206 	br	804bd20 <_realloc_r+0x170>
 804bcd8:	00c00404 	movi	r3,16
 804bcdc:	1823883a 	mov	r17,r3
 804bce0:	003fce06 	br	804bc1c <__alt_data_end+0xfffe3b7c>
 804bce4:	a825883a 	mov	r18,r21
 804bce8:	8445c83a 	sub	r2,r16,r17
 804bcec:	00c003c4 	movi	r3,15
 804bcf0:	18802636 	bltu	r3,r2,804bd8c <_realloc_r+0x1dc>
 804bcf4:	99800117 	ldw	r6,4(r19)
 804bcf8:	9c07883a 	add	r3,r19,r16
 804bcfc:	3180004c 	andi	r6,r6,1
 804bd00:	3420b03a 	or	r16,r6,r16
 804bd04:	9c000115 	stw	r16,4(r19)
 804bd08:	18800117 	ldw	r2,4(r3)
 804bd0c:	10800054 	ori	r2,r2,1
 804bd10:	18800115 	stw	r2,4(r3)
 804bd14:	a009883a 	mov	r4,r20
 804bd18:	80508640 	call	8050864 <__malloc_unlock>
 804bd1c:	9005883a 	mov	r2,r18
 804bd20:	dfc00917 	ldw	ra,36(sp)
 804bd24:	df000817 	ldw	fp,32(sp)
 804bd28:	ddc00717 	ldw	r23,28(sp)
 804bd2c:	dd800617 	ldw	r22,24(sp)
 804bd30:	dd400517 	ldw	r21,20(sp)
 804bd34:	dd000417 	ldw	r20,16(sp)
 804bd38:	dcc00317 	ldw	r19,12(sp)
 804bd3c:	dc800217 	ldw	r18,8(sp)
 804bd40:	dc400117 	ldw	r17,4(sp)
 804bd44:	dc000017 	ldw	r16,0(sp)
 804bd48:	dec00a04 	addi	sp,sp,40
 804bd4c:	f800283a 	ret
 804bd50:	017fff04 	movi	r5,-4
 804bd54:	414a703a 	and	r5,r8,r5
 804bd58:	814d883a 	add	r6,r16,r5
 804bd5c:	30c01f16 	blt	r6,r3,804bddc <_realloc_r+0x22c>
 804bd60:	20800317 	ldw	r2,12(r4)
 804bd64:	20c00217 	ldw	r3,8(r4)
 804bd68:	a825883a 	mov	r18,r21
 804bd6c:	3021883a 	mov	r16,r6
 804bd70:	18800315 	stw	r2,12(r3)
 804bd74:	10c00215 	stw	r3,8(r2)
 804bd78:	003fdb06 	br	804bce8 <__alt_data_end+0xfffe3c48>
 804bd7c:	00800304 	movi	r2,12
 804bd80:	a0800015 	stw	r2,0(r20)
 804bd84:	0005883a 	mov	r2,zero
 804bd88:	003fe506 	br	804bd20 <__alt_data_end+0xfffe3c80>
 804bd8c:	98c00117 	ldw	r3,4(r19)
 804bd90:	9c4b883a 	add	r5,r19,r17
 804bd94:	11000054 	ori	r4,r2,1
 804bd98:	18c0004c 	andi	r3,r3,1
 804bd9c:	1c62b03a 	or	r17,r3,r17
 804bda0:	9c400115 	stw	r17,4(r19)
 804bda4:	29000115 	stw	r4,4(r5)
 804bda8:	2885883a 	add	r2,r5,r2
 804bdac:	10c00117 	ldw	r3,4(r2)
 804bdb0:	29400204 	addi	r5,r5,8
 804bdb4:	a009883a 	mov	r4,r20
 804bdb8:	18c00054 	ori	r3,r3,1
 804bdbc:	10c00115 	stw	r3,4(r2)
 804bdc0:	804e1180 	call	804e118 <_free_r>
 804bdc4:	003fd306 	br	804bd14 <__alt_data_end+0xfffe3c74>
 804bdc8:	017fff04 	movi	r5,-4
 804bdcc:	414a703a 	and	r5,r8,r5
 804bdd0:	89800404 	addi	r6,r17,16
 804bdd4:	8151883a 	add	r8,r16,r5
 804bdd8:	4180590e 	bge	r8,r6,804bf40 <_realloc_r+0x390>
 804bddc:	1080004c 	andi	r2,r2,1
 804bde0:	103f9e1e 	bne	r2,zero,804bc5c <__alt_data_end+0xfffe3bbc>
 804bde4:	adbffe17 	ldw	r22,-8(r21)
 804bde8:	00bfff04 	movi	r2,-4
 804bdec:	9dadc83a 	sub	r22,r19,r22
 804bdf0:	b1800117 	ldw	r6,4(r22)
 804bdf4:	3084703a 	and	r2,r6,r2
 804bdf8:	20002026 	beq	r4,zero,804be7c <_realloc_r+0x2cc>
 804bdfc:	80af883a 	add	r23,r16,r2
 804be00:	b96f883a 	add	r23,r23,r5
 804be04:	21c05f26 	beq	r4,r7,804bf84 <_realloc_r+0x3d4>
 804be08:	b8c01c16 	blt	r23,r3,804be7c <_realloc_r+0x2cc>
 804be0c:	20800317 	ldw	r2,12(r4)
 804be10:	20c00217 	ldw	r3,8(r4)
 804be14:	81bfff04 	addi	r6,r16,-4
 804be18:	01000904 	movi	r4,36
 804be1c:	18800315 	stw	r2,12(r3)
 804be20:	10c00215 	stw	r3,8(r2)
 804be24:	b0c00217 	ldw	r3,8(r22)
 804be28:	b0800317 	ldw	r2,12(r22)
 804be2c:	b4800204 	addi	r18,r22,8
 804be30:	18800315 	stw	r2,12(r3)
 804be34:	10c00215 	stw	r3,8(r2)
 804be38:	21801b36 	bltu	r4,r6,804bea8 <_realloc_r+0x2f8>
 804be3c:	008004c4 	movi	r2,19
 804be40:	1180352e 	bgeu	r2,r6,804bf18 <_realloc_r+0x368>
 804be44:	a8800017 	ldw	r2,0(r21)
 804be48:	b0800215 	stw	r2,8(r22)
 804be4c:	a8800117 	ldw	r2,4(r21)
 804be50:	b0800315 	stw	r2,12(r22)
 804be54:	008006c4 	movi	r2,27
 804be58:	11807f36 	bltu	r2,r6,804c058 <_realloc_r+0x4a8>
 804be5c:	b0800404 	addi	r2,r22,16
 804be60:	ad400204 	addi	r21,r21,8
 804be64:	00002d06 	br	804bf1c <_realloc_r+0x36c>
 804be68:	adbffe17 	ldw	r22,-8(r21)
 804be6c:	00bfff04 	movi	r2,-4
 804be70:	9dadc83a 	sub	r22,r19,r22
 804be74:	b1000117 	ldw	r4,4(r22)
 804be78:	2084703a 	and	r2,r4,r2
 804be7c:	b03f7726 	beq	r22,zero,804bc5c <__alt_data_end+0xfffe3bbc>
 804be80:	80af883a 	add	r23,r16,r2
 804be84:	b8ff7516 	blt	r23,r3,804bc5c <__alt_data_end+0xfffe3bbc>
 804be88:	b0800317 	ldw	r2,12(r22)
 804be8c:	b0c00217 	ldw	r3,8(r22)
 804be90:	81bfff04 	addi	r6,r16,-4
 804be94:	01000904 	movi	r4,36
 804be98:	18800315 	stw	r2,12(r3)
 804be9c:	10c00215 	stw	r3,8(r2)
 804bea0:	b4800204 	addi	r18,r22,8
 804bea4:	21bfe52e 	bgeu	r4,r6,804be3c <__alt_data_end+0xfffe3d9c>
 804bea8:	a80b883a 	mov	r5,r21
 804beac:	9009883a 	mov	r4,r18
 804beb0:	804a99c0 	call	804a99c <memmove>
 804beb4:	b821883a 	mov	r16,r23
 804beb8:	b027883a 	mov	r19,r22
 804bebc:	003f8a06 	br	804bce8 <__alt_data_end+0xfffe3c48>
 804bec0:	300b883a 	mov	r5,r6
 804bec4:	dfc00917 	ldw	ra,36(sp)
 804bec8:	df000817 	ldw	fp,32(sp)
 804becc:	ddc00717 	ldw	r23,28(sp)
 804bed0:	dd800617 	ldw	r22,24(sp)
 804bed4:	dd400517 	ldw	r21,20(sp)
 804bed8:	dd000417 	ldw	r20,16(sp)
 804bedc:	dcc00317 	ldw	r19,12(sp)
 804bee0:	dc800217 	ldw	r18,8(sp)
 804bee4:	dc400117 	ldw	r17,4(sp)
 804bee8:	dc000017 	ldw	r16,0(sp)
 804beec:	dec00a04 	addi	sp,sp,40
 804bef0:	804a0ac1 	jmpi	804a0ac <_malloc_r>
 804bef4:	a8c00017 	ldw	r3,0(r21)
 804bef8:	90c00015 	stw	r3,0(r18)
 804befc:	a8c00117 	ldw	r3,4(r21)
 804bf00:	90c00115 	stw	r3,4(r18)
 804bf04:	00c006c4 	movi	r3,27
 804bf08:	19804536 	bltu	r3,r6,804c020 <_realloc_r+0x470>
 804bf0c:	90800204 	addi	r2,r18,8
 804bf10:	a8c00204 	addi	r3,r21,8
 804bf14:	003f6306 	br	804bca4 <__alt_data_end+0xfffe3c04>
 804bf18:	9005883a 	mov	r2,r18
 804bf1c:	a8c00017 	ldw	r3,0(r21)
 804bf20:	b821883a 	mov	r16,r23
 804bf24:	b027883a 	mov	r19,r22
 804bf28:	10c00015 	stw	r3,0(r2)
 804bf2c:	a8c00117 	ldw	r3,4(r21)
 804bf30:	10c00115 	stw	r3,4(r2)
 804bf34:	a8c00217 	ldw	r3,8(r21)
 804bf38:	10c00215 	stw	r3,8(r2)
 804bf3c:	003f6a06 	br	804bce8 <__alt_data_end+0xfffe3c48>
 804bf40:	9c67883a 	add	r19,r19,r17
 804bf44:	4445c83a 	sub	r2,r8,r17
 804bf48:	e4c00215 	stw	r19,8(fp)
 804bf4c:	10800054 	ori	r2,r2,1
 804bf50:	98800115 	stw	r2,4(r19)
 804bf54:	a8bfff17 	ldw	r2,-4(r21)
 804bf58:	a009883a 	mov	r4,r20
 804bf5c:	1080004c 	andi	r2,r2,1
 804bf60:	1462b03a 	or	r17,r2,r17
 804bf64:	ac7fff15 	stw	r17,-4(r21)
 804bf68:	80508640 	call	8050864 <__malloc_unlock>
 804bf6c:	a805883a 	mov	r2,r21
 804bf70:	003f6b06 	br	804bd20 <__alt_data_end+0xfffe3c80>
 804bf74:	a80b883a 	mov	r5,r21
 804bf78:	9009883a 	mov	r4,r18
 804bf7c:	804a99c0 	call	804a99c <memmove>
 804bf80:	003f4e06 	br	804bcbc <__alt_data_end+0xfffe3c1c>
 804bf84:	89000404 	addi	r4,r17,16
 804bf88:	b93fbc16 	blt	r23,r4,804be7c <__alt_data_end+0xfffe3ddc>
 804bf8c:	b0800317 	ldw	r2,12(r22)
 804bf90:	b0c00217 	ldw	r3,8(r22)
 804bf94:	81bfff04 	addi	r6,r16,-4
 804bf98:	01000904 	movi	r4,36
 804bf9c:	18800315 	stw	r2,12(r3)
 804bfa0:	10c00215 	stw	r3,8(r2)
 804bfa4:	b4800204 	addi	r18,r22,8
 804bfa8:	21804336 	bltu	r4,r6,804c0b8 <_realloc_r+0x508>
 804bfac:	008004c4 	movi	r2,19
 804bfb0:	11803f2e 	bgeu	r2,r6,804c0b0 <_realloc_r+0x500>
 804bfb4:	a8800017 	ldw	r2,0(r21)
 804bfb8:	b0800215 	stw	r2,8(r22)
 804bfbc:	a8800117 	ldw	r2,4(r21)
 804bfc0:	b0800315 	stw	r2,12(r22)
 804bfc4:	008006c4 	movi	r2,27
 804bfc8:	11803f36 	bltu	r2,r6,804c0c8 <_realloc_r+0x518>
 804bfcc:	b0800404 	addi	r2,r22,16
 804bfd0:	ad400204 	addi	r21,r21,8
 804bfd4:	a8c00017 	ldw	r3,0(r21)
 804bfd8:	10c00015 	stw	r3,0(r2)
 804bfdc:	a8c00117 	ldw	r3,4(r21)
 804bfe0:	10c00115 	stw	r3,4(r2)
 804bfe4:	a8c00217 	ldw	r3,8(r21)
 804bfe8:	10c00215 	stw	r3,8(r2)
 804bfec:	b447883a 	add	r3,r22,r17
 804bff0:	bc45c83a 	sub	r2,r23,r17
 804bff4:	e0c00215 	stw	r3,8(fp)
 804bff8:	10800054 	ori	r2,r2,1
 804bffc:	18800115 	stw	r2,4(r3)
 804c000:	b0800117 	ldw	r2,4(r22)
 804c004:	a009883a 	mov	r4,r20
 804c008:	1080004c 	andi	r2,r2,1
 804c00c:	1462b03a 	or	r17,r2,r17
 804c010:	b4400115 	stw	r17,4(r22)
 804c014:	80508640 	call	8050864 <__malloc_unlock>
 804c018:	9005883a 	mov	r2,r18
 804c01c:	003f4006 	br	804bd20 <__alt_data_end+0xfffe3c80>
 804c020:	a8c00217 	ldw	r3,8(r21)
 804c024:	90c00215 	stw	r3,8(r18)
 804c028:	a8c00317 	ldw	r3,12(r21)
 804c02c:	90c00315 	stw	r3,12(r18)
 804c030:	30801126 	beq	r6,r2,804c078 <_realloc_r+0x4c8>
 804c034:	90800404 	addi	r2,r18,16
 804c038:	a8c00404 	addi	r3,r21,16
 804c03c:	003f1906 	br	804bca4 <__alt_data_end+0xfffe3c04>
 804c040:	90ffff17 	ldw	r3,-4(r18)
 804c044:	00bfff04 	movi	r2,-4
 804c048:	a825883a 	mov	r18,r21
 804c04c:	1884703a 	and	r2,r3,r2
 804c050:	80a1883a 	add	r16,r16,r2
 804c054:	003f2406 	br	804bce8 <__alt_data_end+0xfffe3c48>
 804c058:	a8800217 	ldw	r2,8(r21)
 804c05c:	b0800415 	stw	r2,16(r22)
 804c060:	a8800317 	ldw	r2,12(r21)
 804c064:	b0800515 	stw	r2,20(r22)
 804c068:	31000a26 	beq	r6,r4,804c094 <_realloc_r+0x4e4>
 804c06c:	b0800604 	addi	r2,r22,24
 804c070:	ad400404 	addi	r21,r21,16
 804c074:	003fa906 	br	804bf1c <__alt_data_end+0xfffe3e7c>
 804c078:	a9000417 	ldw	r4,16(r21)
 804c07c:	90800604 	addi	r2,r18,24
 804c080:	a8c00604 	addi	r3,r21,24
 804c084:	91000415 	stw	r4,16(r18)
 804c088:	a9000517 	ldw	r4,20(r21)
 804c08c:	91000515 	stw	r4,20(r18)
 804c090:	003f0406 	br	804bca4 <__alt_data_end+0xfffe3c04>
 804c094:	a8c00417 	ldw	r3,16(r21)
 804c098:	ad400604 	addi	r21,r21,24
 804c09c:	b0800804 	addi	r2,r22,32
 804c0a0:	b0c00615 	stw	r3,24(r22)
 804c0a4:	a8ffff17 	ldw	r3,-4(r21)
 804c0a8:	b0c00715 	stw	r3,28(r22)
 804c0ac:	003f9b06 	br	804bf1c <__alt_data_end+0xfffe3e7c>
 804c0b0:	9005883a 	mov	r2,r18
 804c0b4:	003fc706 	br	804bfd4 <__alt_data_end+0xfffe3f34>
 804c0b8:	a80b883a 	mov	r5,r21
 804c0bc:	9009883a 	mov	r4,r18
 804c0c0:	804a99c0 	call	804a99c <memmove>
 804c0c4:	003fc906 	br	804bfec <__alt_data_end+0xfffe3f4c>
 804c0c8:	a8800217 	ldw	r2,8(r21)
 804c0cc:	b0800415 	stw	r2,16(r22)
 804c0d0:	a8800317 	ldw	r2,12(r21)
 804c0d4:	b0800515 	stw	r2,20(r22)
 804c0d8:	31000726 	beq	r6,r4,804c0f8 <_realloc_r+0x548>
 804c0dc:	b0800604 	addi	r2,r22,24
 804c0e0:	ad400404 	addi	r21,r21,16
 804c0e4:	003fbb06 	br	804bfd4 <__alt_data_end+0xfffe3f34>
 804c0e8:	a009883a 	mov	r4,r20
 804c0ec:	80508640 	call	8050864 <__malloc_unlock>
 804c0f0:	0005883a 	mov	r2,zero
 804c0f4:	003f0a06 	br	804bd20 <__alt_data_end+0xfffe3c80>
 804c0f8:	a8c00417 	ldw	r3,16(r21)
 804c0fc:	ad400604 	addi	r21,r21,24
 804c100:	b0800804 	addi	r2,r22,32
 804c104:	b0c00615 	stw	r3,24(r22)
 804c108:	a8ffff17 	ldw	r3,-4(r21)
 804c10c:	b0c00715 	stw	r3,28(r22)
 804c110:	003fb006 	br	804bfd4 <__alt_data_end+0xfffe3f34>

0804c114 <__fpclassifyd>:
 804c114:	00a00034 	movhi	r2,32768
 804c118:	10bfffc4 	addi	r2,r2,-1
 804c11c:	2884703a 	and	r2,r5,r2
 804c120:	10000726 	beq	r2,zero,804c140 <__fpclassifyd+0x2c>
 804c124:	00fffc34 	movhi	r3,65520
 804c128:	019ff834 	movhi	r6,32736
 804c12c:	28c7883a 	add	r3,r5,r3
 804c130:	31bfffc4 	addi	r6,r6,-1
 804c134:	30c00536 	bltu	r6,r3,804c14c <__fpclassifyd+0x38>
 804c138:	00800104 	movi	r2,4
 804c13c:	f800283a 	ret
 804c140:	2000021e 	bne	r4,zero,804c14c <__fpclassifyd+0x38>
 804c144:	00800084 	movi	r2,2
 804c148:	f800283a 	ret
 804c14c:	00dffc34 	movhi	r3,32752
 804c150:	019ff834 	movhi	r6,32736
 804c154:	28cb883a 	add	r5,r5,r3
 804c158:	31bfffc4 	addi	r6,r6,-1
 804c15c:	317ff62e 	bgeu	r6,r5,804c138 <__alt_data_end+0xfffe4098>
 804c160:	01400434 	movhi	r5,16
 804c164:	297fffc4 	addi	r5,r5,-1
 804c168:	28800236 	bltu	r5,r2,804c174 <__fpclassifyd+0x60>
 804c16c:	008000c4 	movi	r2,3
 804c170:	f800283a 	ret
 804c174:	10c00226 	beq	r2,r3,804c180 <__fpclassifyd+0x6c>
 804c178:	0005883a 	mov	r2,zero
 804c17c:	f800283a 	ret
 804c180:	2005003a 	cmpeq	r2,r4,zero
 804c184:	f800283a 	ret

0804c188 <_sbrk_r>:
 804c188:	defffd04 	addi	sp,sp,-12
 804c18c:	dc000015 	stw	r16,0(sp)
 804c190:	04020174 	movhi	r16,2053
 804c194:	dc400115 	stw	r17,4(sp)
 804c198:	841ff904 	addi	r16,r16,32740
 804c19c:	2023883a 	mov	r17,r4
 804c1a0:	2809883a 	mov	r4,r5
 804c1a4:	dfc00215 	stw	ra,8(sp)
 804c1a8:	80000015 	stw	zero,0(r16)
 804c1ac:	8050a4c0 	call	8050a4c <sbrk>
 804c1b0:	00ffffc4 	movi	r3,-1
 804c1b4:	10c00526 	beq	r2,r3,804c1cc <_sbrk_r+0x44>
 804c1b8:	dfc00217 	ldw	ra,8(sp)
 804c1bc:	dc400117 	ldw	r17,4(sp)
 804c1c0:	dc000017 	ldw	r16,0(sp)
 804c1c4:	dec00304 	addi	sp,sp,12
 804c1c8:	f800283a 	ret
 804c1cc:	80c00017 	ldw	r3,0(r16)
 804c1d0:	183ff926 	beq	r3,zero,804c1b8 <__alt_data_end+0xfffe4118>
 804c1d4:	88c00015 	stw	r3,0(r17)
 804c1d8:	003ff706 	br	804c1b8 <__alt_data_end+0xfffe4118>

0804c1dc <__sread>:
 804c1dc:	defffe04 	addi	sp,sp,-8
 804c1e0:	dc000015 	stw	r16,0(sp)
 804c1e4:	2821883a 	mov	r16,r5
 804c1e8:	2940038f 	ldh	r5,14(r5)
 804c1ec:	dfc00115 	stw	ra,4(sp)
 804c1f0:	804e6440 	call	804e644 <_read_r>
 804c1f4:	10000716 	blt	r2,zero,804c214 <__sread+0x38>
 804c1f8:	80c01417 	ldw	r3,80(r16)
 804c1fc:	1887883a 	add	r3,r3,r2
 804c200:	80c01415 	stw	r3,80(r16)
 804c204:	dfc00117 	ldw	ra,4(sp)
 804c208:	dc000017 	ldw	r16,0(sp)
 804c20c:	dec00204 	addi	sp,sp,8
 804c210:	f800283a 	ret
 804c214:	80c0030b 	ldhu	r3,12(r16)
 804c218:	18fbffcc 	andi	r3,r3,61439
 804c21c:	80c0030d 	sth	r3,12(r16)
 804c220:	dfc00117 	ldw	ra,4(sp)
 804c224:	dc000017 	ldw	r16,0(sp)
 804c228:	dec00204 	addi	sp,sp,8
 804c22c:	f800283a 	ret

0804c230 <__seofread>:
 804c230:	0005883a 	mov	r2,zero
 804c234:	f800283a 	ret

0804c238 <__swrite>:
 804c238:	2880030b 	ldhu	r2,12(r5)
 804c23c:	defffb04 	addi	sp,sp,-20
 804c240:	dcc00315 	stw	r19,12(sp)
 804c244:	dc800215 	stw	r18,8(sp)
 804c248:	dc400115 	stw	r17,4(sp)
 804c24c:	dc000015 	stw	r16,0(sp)
 804c250:	dfc00415 	stw	ra,16(sp)
 804c254:	10c0400c 	andi	r3,r2,256
 804c258:	2821883a 	mov	r16,r5
 804c25c:	2023883a 	mov	r17,r4
 804c260:	3025883a 	mov	r18,r6
 804c264:	3827883a 	mov	r19,r7
 804c268:	18000526 	beq	r3,zero,804c280 <__swrite+0x48>
 804c26c:	2940038f 	ldh	r5,14(r5)
 804c270:	01c00084 	movi	r7,2
 804c274:	000d883a 	mov	r6,zero
 804c278:	804e4280 	call	804e428 <_lseek_r>
 804c27c:	8080030b 	ldhu	r2,12(r16)
 804c280:	8140038f 	ldh	r5,14(r16)
 804c284:	10bbffcc 	andi	r2,r2,61439
 804c288:	980f883a 	mov	r7,r19
 804c28c:	900d883a 	mov	r6,r18
 804c290:	8809883a 	mov	r4,r17
 804c294:	8080030d 	sth	r2,12(r16)
 804c298:	dfc00417 	ldw	ra,16(sp)
 804c29c:	dcc00317 	ldw	r19,12(sp)
 804c2a0:	dc800217 	ldw	r18,8(sp)
 804c2a4:	dc400117 	ldw	r17,4(sp)
 804c2a8:	dc000017 	ldw	r16,0(sp)
 804c2ac:	dec00504 	addi	sp,sp,20
 804c2b0:	804d9641 	jmpi	804d964 <_write_r>

0804c2b4 <__sseek>:
 804c2b4:	defffe04 	addi	sp,sp,-8
 804c2b8:	dc000015 	stw	r16,0(sp)
 804c2bc:	2821883a 	mov	r16,r5
 804c2c0:	2940038f 	ldh	r5,14(r5)
 804c2c4:	dfc00115 	stw	ra,4(sp)
 804c2c8:	804e4280 	call	804e428 <_lseek_r>
 804c2cc:	00ffffc4 	movi	r3,-1
 804c2d0:	10c00826 	beq	r2,r3,804c2f4 <__sseek+0x40>
 804c2d4:	80c0030b 	ldhu	r3,12(r16)
 804c2d8:	80801415 	stw	r2,80(r16)
 804c2dc:	18c40014 	ori	r3,r3,4096
 804c2e0:	80c0030d 	sth	r3,12(r16)
 804c2e4:	dfc00117 	ldw	ra,4(sp)
 804c2e8:	dc000017 	ldw	r16,0(sp)
 804c2ec:	dec00204 	addi	sp,sp,8
 804c2f0:	f800283a 	ret
 804c2f4:	80c0030b 	ldhu	r3,12(r16)
 804c2f8:	18fbffcc 	andi	r3,r3,61439
 804c2fc:	80c0030d 	sth	r3,12(r16)
 804c300:	dfc00117 	ldw	ra,4(sp)
 804c304:	dc000017 	ldw	r16,0(sp)
 804c308:	dec00204 	addi	sp,sp,8
 804c30c:	f800283a 	ret

0804c310 <__sclose>:
 804c310:	2940038f 	ldh	r5,14(r5)
 804c314:	804db181 	jmpi	804db18 <_close_r>

0804c318 <strcmp>:
 804c318:	2144b03a 	or	r2,r4,r5
 804c31c:	108000cc 	andi	r2,r2,3
 804c320:	1000171e 	bne	r2,zero,804c380 <strcmp+0x68>
 804c324:	20800017 	ldw	r2,0(r4)
 804c328:	28c00017 	ldw	r3,0(r5)
 804c32c:	10c0141e 	bne	r2,r3,804c380 <strcmp+0x68>
 804c330:	027fbff4 	movhi	r9,65279
 804c334:	4a7fbfc4 	addi	r9,r9,-257
 804c338:	0086303a 	nor	r3,zero,r2
 804c33c:	02202074 	movhi	r8,32897
 804c340:	1245883a 	add	r2,r2,r9
 804c344:	42202004 	addi	r8,r8,-32640
 804c348:	10c4703a 	and	r2,r2,r3
 804c34c:	1204703a 	and	r2,r2,r8
 804c350:	10000226 	beq	r2,zero,804c35c <strcmp+0x44>
 804c354:	00002306 	br	804c3e4 <strcmp+0xcc>
 804c358:	1000221e 	bne	r2,zero,804c3e4 <strcmp+0xcc>
 804c35c:	21000104 	addi	r4,r4,4
 804c360:	20c00017 	ldw	r3,0(r4)
 804c364:	29400104 	addi	r5,r5,4
 804c368:	29800017 	ldw	r6,0(r5)
 804c36c:	1a4f883a 	add	r7,r3,r9
 804c370:	00c4303a 	nor	r2,zero,r3
 804c374:	3884703a 	and	r2,r7,r2
 804c378:	1204703a 	and	r2,r2,r8
 804c37c:	19bff626 	beq	r3,r6,804c358 <__alt_data_end+0xfffe42b8>
 804c380:	20800003 	ldbu	r2,0(r4)
 804c384:	10c03fcc 	andi	r3,r2,255
 804c388:	18c0201c 	xori	r3,r3,128
 804c38c:	18ffe004 	addi	r3,r3,-128
 804c390:	18000c26 	beq	r3,zero,804c3c4 <strcmp+0xac>
 804c394:	29800007 	ldb	r6,0(r5)
 804c398:	19800326 	beq	r3,r6,804c3a8 <strcmp+0x90>
 804c39c:	00001306 	br	804c3ec <strcmp+0xd4>
 804c3a0:	29800007 	ldb	r6,0(r5)
 804c3a4:	11800b1e 	bne	r2,r6,804c3d4 <strcmp+0xbc>
 804c3a8:	21000044 	addi	r4,r4,1
 804c3ac:	20c00003 	ldbu	r3,0(r4)
 804c3b0:	29400044 	addi	r5,r5,1
 804c3b4:	18803fcc 	andi	r2,r3,255
 804c3b8:	1080201c 	xori	r2,r2,128
 804c3bc:	10bfe004 	addi	r2,r2,-128
 804c3c0:	103ff71e 	bne	r2,zero,804c3a0 <__alt_data_end+0xfffe4300>
 804c3c4:	0007883a 	mov	r3,zero
 804c3c8:	28800003 	ldbu	r2,0(r5)
 804c3cc:	1885c83a 	sub	r2,r3,r2
 804c3d0:	f800283a 	ret
 804c3d4:	28800003 	ldbu	r2,0(r5)
 804c3d8:	18c03fcc 	andi	r3,r3,255
 804c3dc:	1885c83a 	sub	r2,r3,r2
 804c3e0:	f800283a 	ret
 804c3e4:	0005883a 	mov	r2,zero
 804c3e8:	f800283a 	ret
 804c3ec:	10c03fcc 	andi	r3,r2,255
 804c3f0:	003ff506 	br	804c3c8 <__alt_data_end+0xfffe4328>

0804c3f4 <__ssprint_r>:
 804c3f4:	30800217 	ldw	r2,8(r6)
 804c3f8:	defff604 	addi	sp,sp,-40
 804c3fc:	dc800215 	stw	r18,8(sp)
 804c400:	dfc00915 	stw	ra,36(sp)
 804c404:	df000815 	stw	fp,32(sp)
 804c408:	ddc00715 	stw	r23,28(sp)
 804c40c:	dd800615 	stw	r22,24(sp)
 804c410:	dd400515 	stw	r21,20(sp)
 804c414:	dd000415 	stw	r20,16(sp)
 804c418:	dcc00315 	stw	r19,12(sp)
 804c41c:	dc400115 	stw	r17,4(sp)
 804c420:	dc000015 	stw	r16,0(sp)
 804c424:	3025883a 	mov	r18,r6
 804c428:	10005826 	beq	r2,zero,804c58c <__ssprint_r+0x198>
 804c42c:	2027883a 	mov	r19,r4
 804c430:	35c00017 	ldw	r23,0(r6)
 804c434:	29000017 	ldw	r4,0(r5)
 804c438:	28800217 	ldw	r2,8(r5)
 804c43c:	2823883a 	mov	r17,r5
 804c440:	0039883a 	mov	fp,zero
 804c444:	0021883a 	mov	r16,zero
 804c448:	80003926 	beq	r16,zero,804c530 <__ssprint_r+0x13c>
 804c44c:	102b883a 	mov	r21,r2
 804c450:	102d883a 	mov	r22,r2
 804c454:	80803a36 	bltu	r16,r2,804c540 <__ssprint_r+0x14c>
 804c458:	88c0030b 	ldhu	r3,12(r17)
 804c45c:	1881200c 	andi	r2,r3,1152
 804c460:	10002626 	beq	r2,zero,804c4fc <__ssprint_r+0x108>
 804c464:	88800517 	ldw	r2,20(r17)
 804c468:	89400417 	ldw	r5,16(r17)
 804c46c:	81800044 	addi	r6,r16,1
 804c470:	108f883a 	add	r7,r2,r2
 804c474:	3885883a 	add	r2,r7,r2
 804c478:	100ed7fa 	srli	r7,r2,31
 804c47c:	216dc83a 	sub	r22,r4,r5
 804c480:	3589883a 	add	r4,r6,r22
 804c484:	3885883a 	add	r2,r7,r2
 804c488:	102bd07a 	srai	r21,r2,1
 804c48c:	a80d883a 	mov	r6,r21
 804c490:	a900022e 	bgeu	r21,r4,804c49c <__ssprint_r+0xa8>
 804c494:	202b883a 	mov	r21,r4
 804c498:	200d883a 	mov	r6,r4
 804c49c:	18c1000c 	andi	r3,r3,1024
 804c4a0:	18002a26 	beq	r3,zero,804c54c <__ssprint_r+0x158>
 804c4a4:	300b883a 	mov	r5,r6
 804c4a8:	9809883a 	mov	r4,r19
 804c4ac:	804a0ac0 	call	804a0ac <_malloc_r>
 804c4b0:	1029883a 	mov	r20,r2
 804c4b4:	10002c26 	beq	r2,zero,804c568 <__ssprint_r+0x174>
 804c4b8:	89400417 	ldw	r5,16(r17)
 804c4bc:	b00d883a 	mov	r6,r22
 804c4c0:	1009883a 	mov	r4,r2
 804c4c4:	80455480 	call	8045548 <memcpy>
 804c4c8:	8880030b 	ldhu	r2,12(r17)
 804c4cc:	00fedfc4 	movi	r3,-1153
 804c4d0:	10c4703a 	and	r2,r2,r3
 804c4d4:	10802014 	ori	r2,r2,128
 804c4d8:	8880030d 	sth	r2,12(r17)
 804c4dc:	a589883a 	add	r4,r20,r22
 804c4e0:	adadc83a 	sub	r22,r21,r22
 804c4e4:	8d400515 	stw	r21,20(r17)
 804c4e8:	8d800215 	stw	r22,8(r17)
 804c4ec:	8d000415 	stw	r20,16(r17)
 804c4f0:	89000015 	stw	r4,0(r17)
 804c4f4:	802b883a 	mov	r21,r16
 804c4f8:	802d883a 	mov	r22,r16
 804c4fc:	b00d883a 	mov	r6,r22
 804c500:	e00b883a 	mov	r5,fp
 804c504:	804a99c0 	call	804a99c <memmove>
 804c508:	88800217 	ldw	r2,8(r17)
 804c50c:	89000017 	ldw	r4,0(r17)
 804c510:	90c00217 	ldw	r3,8(r18)
 804c514:	1545c83a 	sub	r2,r2,r21
 804c518:	2589883a 	add	r4,r4,r22
 804c51c:	88800215 	stw	r2,8(r17)
 804c520:	89000015 	stw	r4,0(r17)
 804c524:	1c21c83a 	sub	r16,r3,r16
 804c528:	94000215 	stw	r16,8(r18)
 804c52c:	80001726 	beq	r16,zero,804c58c <__ssprint_r+0x198>
 804c530:	bf000017 	ldw	fp,0(r23)
 804c534:	bc000117 	ldw	r16,4(r23)
 804c538:	bdc00204 	addi	r23,r23,8
 804c53c:	003fc206 	br	804c448 <__alt_data_end+0xfffe43a8>
 804c540:	802b883a 	mov	r21,r16
 804c544:	802d883a 	mov	r22,r16
 804c548:	003fec06 	br	804c4fc <__alt_data_end+0xfffe445c>
 804c54c:	9809883a 	mov	r4,r19
 804c550:	804bbb00 	call	804bbb0 <_realloc_r>
 804c554:	1029883a 	mov	r20,r2
 804c558:	103fe01e 	bne	r2,zero,804c4dc <__alt_data_end+0xfffe443c>
 804c55c:	89400417 	ldw	r5,16(r17)
 804c560:	9809883a 	mov	r4,r19
 804c564:	804e1180 	call	804e118 <_free_r>
 804c568:	88c0030b 	ldhu	r3,12(r17)
 804c56c:	00800304 	movi	r2,12
 804c570:	98800015 	stw	r2,0(r19)
 804c574:	18c01014 	ori	r3,r3,64
 804c578:	88c0030d 	sth	r3,12(r17)
 804c57c:	00bfffc4 	movi	r2,-1
 804c580:	90000215 	stw	zero,8(r18)
 804c584:	90000115 	stw	zero,4(r18)
 804c588:	00000206 	br	804c594 <__ssprint_r+0x1a0>
 804c58c:	90000115 	stw	zero,4(r18)
 804c590:	0005883a 	mov	r2,zero
 804c594:	dfc00917 	ldw	ra,36(sp)
 804c598:	df000817 	ldw	fp,32(sp)
 804c59c:	ddc00717 	ldw	r23,28(sp)
 804c5a0:	dd800617 	ldw	r22,24(sp)
 804c5a4:	dd400517 	ldw	r21,20(sp)
 804c5a8:	dd000417 	ldw	r20,16(sp)
 804c5ac:	dcc00317 	ldw	r19,12(sp)
 804c5b0:	dc800217 	ldw	r18,8(sp)
 804c5b4:	dc400117 	ldw	r17,4(sp)
 804c5b8:	dc000017 	ldw	r16,0(sp)
 804c5bc:	dec00a04 	addi	sp,sp,40
 804c5c0:	f800283a 	ret

0804c5c4 <___svfiprintf_internal_r>:
 804c5c4:	2880030b 	ldhu	r2,12(r5)
 804c5c8:	deffc804 	addi	sp,sp,-224
 804c5cc:	dcc03115 	stw	r19,196(sp)
 804c5d0:	dfc03715 	stw	ra,220(sp)
 804c5d4:	df003615 	stw	fp,216(sp)
 804c5d8:	ddc03515 	stw	r23,212(sp)
 804c5dc:	dd803415 	stw	r22,208(sp)
 804c5e0:	dd403315 	stw	r21,204(sp)
 804c5e4:	dd003215 	stw	r20,200(sp)
 804c5e8:	dc803015 	stw	r18,192(sp)
 804c5ec:	dc402f15 	stw	r17,188(sp)
 804c5f0:	dc002e15 	stw	r16,184(sp)
 804c5f4:	d9402315 	stw	r5,140(sp)
 804c5f8:	d9002715 	stw	r4,156(sp)
 804c5fc:	1080200c 	andi	r2,r2,128
 804c600:	d9c02415 	stw	r7,144(sp)
 804c604:	3027883a 	mov	r19,r6
 804c608:	10000226 	beq	r2,zero,804c614 <___svfiprintf_internal_r+0x50>
 804c60c:	28800417 	ldw	r2,16(r5)
 804c610:	10046d26 	beq	r2,zero,804d7c8 <___svfiprintf_internal_r+0x1204>
 804c614:	d8801a04 	addi	r2,sp,104
 804c618:	d8c019c4 	addi	r3,sp,103
 804c61c:	05820174 	movhi	r22,2053
 804c620:	10c9c83a 	sub	r4,r2,r3
 804c624:	b591cc04 	addi	r22,r22,18224
 804c628:	d8801e15 	stw	r2,120(sp)
 804c62c:	d8c01f15 	stw	r3,124(sp)
 804c630:	dec01a15 	stw	sp,104(sp)
 804c634:	d8001c15 	stw	zero,112(sp)
 804c638:	d8001b15 	stw	zero,108(sp)
 804c63c:	d811883a 	mov	r8,sp
 804c640:	d8002915 	stw	zero,164(sp)
 804c644:	d8002615 	stw	zero,152(sp)
 804c648:	d9002c15 	stw	r4,176(sp)
 804c64c:	98800007 	ldb	r2,0(r19)
 804c650:	10031426 	beq	r2,zero,804d2a4 <___svfiprintf_internal_r+0xce0>
 804c654:	00c00944 	movi	r3,37
 804c658:	9825883a 	mov	r18,r19
 804c65c:	10c0021e 	bne	r2,r3,804c668 <___svfiprintf_internal_r+0xa4>
 804c660:	00001406 	br	804c6b4 <___svfiprintf_internal_r+0xf0>
 804c664:	10c00326 	beq	r2,r3,804c674 <___svfiprintf_internal_r+0xb0>
 804c668:	94800044 	addi	r18,r18,1
 804c66c:	90800007 	ldb	r2,0(r18)
 804c670:	103ffc1e 	bne	r2,zero,804c664 <__alt_data_end+0xfffe45c4>
 804c674:	94e1c83a 	sub	r16,r18,r19
 804c678:	80000e26 	beq	r16,zero,804c6b4 <___svfiprintf_internal_r+0xf0>
 804c67c:	d8c01c17 	ldw	r3,112(sp)
 804c680:	d8801b17 	ldw	r2,108(sp)
 804c684:	44c00015 	stw	r19,0(r8)
 804c688:	1c07883a 	add	r3,r3,r16
 804c68c:	10800044 	addi	r2,r2,1
 804c690:	d8c01c15 	stw	r3,112(sp)
 804c694:	44000115 	stw	r16,4(r8)
 804c698:	d8801b15 	stw	r2,108(sp)
 804c69c:	00c001c4 	movi	r3,7
 804c6a0:	18835c16 	blt	r3,r2,804d414 <___svfiprintf_internal_r+0xe50>
 804c6a4:	42000204 	addi	r8,r8,8
 804c6a8:	d9402617 	ldw	r5,152(sp)
 804c6ac:	2c0b883a 	add	r5,r5,r16
 804c6b0:	d9402615 	stw	r5,152(sp)
 804c6b4:	90800007 	ldb	r2,0(r18)
 804c6b8:	1002fc26 	beq	r2,zero,804d2ac <___svfiprintf_internal_r+0xce8>
 804c6bc:	0023883a 	mov	r17,zero
 804c6c0:	00bfffc4 	movi	r2,-1
 804c6c4:	0021883a 	mov	r16,zero
 804c6c8:	94c00044 	addi	r19,r18,1
 804c6cc:	90c00047 	ldb	r3,1(r18)
 804c6d0:	dc402105 	stb	r17,132(sp)
 804c6d4:	d8001d85 	stb	zero,118(sp)
 804c6d8:	002b883a 	mov	r21,zero
 804c6dc:	d8802015 	stw	r2,128(sp)
 804c6e0:	d8002515 	stw	zero,148(sp)
 804c6e4:	04801604 	movi	r18,88
 804c6e8:	05000244 	movi	r20,9
 804c6ec:	402f883a 	mov	r23,r8
 804c6f0:	8023883a 	mov	r17,r16
 804c6f4:	9cc00044 	addi	r19,r19,1
 804c6f8:	18bff804 	addi	r2,r3,-32
 804c6fc:	9081fb36 	bltu	r18,r2,804ceec <___svfiprintf_internal_r+0x928>
 804c700:	100490ba 	slli	r2,r2,2
 804c704:	01020174 	movhi	r4,2053
 804c708:	2131c604 	addi	r4,r4,-14568
 804c70c:	1105883a 	add	r2,r2,r4
 804c710:	10800017 	ldw	r2,0(r2)
 804c714:	1000683a 	jmp	r2
 804c718:	0804c918 	cmpnei	zero,at,4900
 804c71c:	0804ceec 	andhi	zero,at,4923
 804c720:	0804ceec 	andhi	zero,at,4923
 804c724:	0804c90c 	andi	zero,at,4900
 804c728:	0804ceec 	andhi	zero,at,4923
 804c72c:	0804ceec 	andhi	zero,at,4923
 804c730:	0804ceec 	andhi	zero,at,4923
 804c734:	0804ceec 	andhi	zero,at,4923
 804c738:	0804ceec 	andhi	zero,at,4923
 804c73c:	0804ceec 	andhi	zero,at,4923
 804c740:	0804c87c 	xorhi	zero,at,4897
 804c744:	0804ca78 	rdprs	zero,at,4905
 804c748:	0804ceec 	andhi	zero,at,4923
 804c74c:	0804c8a4 	muli	zero,at,4898
 804c750:	0804cf28 	cmpgeui	zero,at,4924
 804c754:	0804ceec 	andhi	zero,at,4923
 804c758:	0804cf1c 	xori	zero,at,4924
 804c75c:	0804ceb0 	cmpltui	zero,at,4922
 804c760:	0804ceb0 	cmpltui	zero,at,4922
 804c764:	0804ceb0 	cmpltui	zero,at,4922
 804c768:	0804ceb0 	cmpltui	zero,at,4922
 804c76c:	0804ceb0 	cmpltui	zero,at,4922
 804c770:	0804ceb0 	cmpltui	zero,at,4922
 804c774:	0804ceb0 	cmpltui	zero,at,4922
 804c778:	0804ceb0 	cmpltui	zero,at,4922
 804c77c:	0804ceb0 	cmpltui	zero,at,4922
 804c780:	0804ceec 	andhi	zero,at,4923
 804c784:	0804ceec 	andhi	zero,at,4923
 804c788:	0804ceec 	andhi	zero,at,4923
 804c78c:	0804ceec 	andhi	zero,at,4923
 804c790:	0804ceec 	andhi	zero,at,4923
 804c794:	0804ceec 	andhi	zero,at,4923
 804c798:	0804ceec 	andhi	zero,at,4923
 804c79c:	0804ceec 	andhi	zero,at,4923
 804c7a0:	0804ceec 	andhi	zero,at,4923
 804c7a4:	0804ceec 	andhi	zero,at,4923
 804c7a8:	0804ce34 	orhi	zero,at,4920
 804c7ac:	0804ceec 	andhi	zero,at,4923
 804c7b0:	0804ceec 	andhi	zero,at,4923
 804c7b4:	0804ceec 	andhi	zero,at,4923
 804c7b8:	0804ceec 	andhi	zero,at,4923
 804c7bc:	0804ceec 	andhi	zero,at,4923
 804c7c0:	0804ceec 	andhi	zero,at,4923
 804c7c4:	0804ceec 	andhi	zero,at,4923
 804c7c8:	0804ceec 	andhi	zero,at,4923
 804c7cc:	0804ceec 	andhi	zero,at,4923
 804c7d0:	0804ceec 	andhi	zero,at,4923
 804c7d4:	0804cfe4 	muli	zero,at,4927
 804c7d8:	0804ceec 	andhi	zero,at,4923
 804c7dc:	0804ceec 	andhi	zero,at,4923
 804c7e0:	0804ceec 	andhi	zero,at,4923
 804c7e4:	0804ceec 	andhi	zero,at,4923
 804c7e8:	0804ceec 	andhi	zero,at,4923
 804c7ec:	0804cf70 	cmpltui	zero,at,4925
 804c7f0:	0804ceec 	andhi	zero,at,4923
 804c7f4:	0804ceec 	andhi	zero,at,4923
 804c7f8:	0804cc70 	cmpltui	zero,at,4913
 804c7fc:	0804ceec 	andhi	zero,at,4923
 804c800:	0804ceec 	andhi	zero,at,4923
 804c804:	0804ceec 	andhi	zero,at,4923
 804c808:	0804ceec 	andhi	zero,at,4923
 804c80c:	0804ceec 	andhi	zero,at,4923
 804c810:	0804ceec 	andhi	zero,at,4923
 804c814:	0804ceec 	andhi	zero,at,4923
 804c818:	0804ceec 	andhi	zero,at,4923
 804c81c:	0804ceec 	andhi	zero,at,4923
 804c820:	0804ceec 	andhi	zero,at,4923
 804c824:	0804cb3c 	xorhi	zero,at,4908
 804c828:	0804cd20 	cmpeqi	zero,at,4916
 804c82c:	0804ceec 	andhi	zero,at,4923
 804c830:	0804ceec 	andhi	zero,at,4923
 804c834:	0804ceec 	andhi	zero,at,4923
 804c838:	0804cd14 	ori	zero,at,4916
 804c83c:	0804cd20 	cmpeqi	zero,at,4916
 804c840:	0804ceec 	andhi	zero,at,4923
 804c844:	0804ceec 	andhi	zero,at,4923
 804c848:	0804cd00 	call	804cd0 <__alt_mem_new_sdram_controller_0-0x37fb330>
 804c84c:	0804ceec 	andhi	zero,at,4923
 804c850:	0804ccc0 	call	804ccc <__alt_mem_new_sdram_controller_0-0x37fb334>
 804c854:	0804ca8c 	andi	zero,at,4906
 804c858:	0804c8b0 	cmpltui	zero,at,4898
 804c85c:	0804ce28 	cmpgeui	zero,at,4920
 804c860:	0804ceec 	andhi	zero,at,4923
 804c864:	0804cdd4 	ori	zero,at,4919
 804c868:	0804ceec 	andhi	zero,at,4923
 804c86c:	0804c9f0 	cmpltui	zero,at,4903
 804c870:	0804ceec 	andhi	zero,at,4923
 804c874:	0804ceec 	andhi	zero,at,4923
 804c878:	0804c93c 	xorhi	zero,at,4900
 804c87c:	d9002417 	ldw	r4,144(sp)
 804c880:	d9402417 	ldw	r5,144(sp)
 804c884:	21000017 	ldw	r4,0(r4)
 804c888:	28800104 	addi	r2,r5,4
 804c88c:	d9002515 	stw	r4,148(sp)
 804c890:	20032b0e 	bge	r4,zero,804d540 <___svfiprintf_internal_r+0xf7c>
 804c894:	d8c02517 	ldw	r3,148(sp)
 804c898:	d8802415 	stw	r2,144(sp)
 804c89c:	00c7c83a 	sub	r3,zero,r3
 804c8a0:	d8c02515 	stw	r3,148(sp)
 804c8a4:	8c400114 	ori	r17,r17,4
 804c8a8:	98c00007 	ldb	r3,0(r19)
 804c8ac:	003f9106 	br	804c6f4 <__alt_data_end+0xfffe4654>
 804c8b0:	00800c04 	movi	r2,48
 804c8b4:	d9402417 	ldw	r5,144(sp)
 804c8b8:	d9002017 	ldw	r4,128(sp)
 804c8bc:	d8801d05 	stb	r2,116(sp)
 804c8c0:	00801e04 	movi	r2,120
 804c8c4:	d8801d45 	stb	r2,117(sp)
 804c8c8:	d8001d85 	stb	zero,118(sp)
 804c8cc:	b811883a 	mov	r8,r23
 804c8d0:	28c00104 	addi	r3,r5,4
 804c8d4:	2c800017 	ldw	r18,0(r5)
 804c8d8:	0029883a 	mov	r20,zero
 804c8dc:	88800094 	ori	r2,r17,2
 804c8e0:	20036316 	blt	r4,zero,804d670 <___svfiprintf_internal_r+0x10ac>
 804c8e4:	00bfdfc4 	movi	r2,-129
 804c8e8:	88a0703a 	and	r16,r17,r2
 804c8ec:	d8c02415 	stw	r3,144(sp)
 804c8f0:	84000094 	ori	r16,r16,2
 804c8f4:	90031c26 	beq	r18,zero,804d568 <___svfiprintf_internal_r+0xfa4>
 804c8f8:	01420174 	movhi	r5,2053
 804c8fc:	29516b04 	addi	r5,r5,17836
 804c900:	002b883a 	mov	r21,zero
 804c904:	d9402915 	stw	r5,164(sp)
 804c908:	00002906 	br	804c9b0 <___svfiprintf_internal_r+0x3ec>
 804c90c:	8c400054 	ori	r17,r17,1
 804c910:	98c00007 	ldb	r3,0(r19)
 804c914:	003f7706 	br	804c6f4 <__alt_data_end+0xfffe4654>
 804c918:	a8803fcc 	andi	r2,r21,255
 804c91c:	1080201c 	xori	r2,r2,128
 804c920:	10bfe004 	addi	r2,r2,-128
 804c924:	10032a1e 	bne	r2,zero,804d5d0 <___svfiprintf_internal_r+0x100c>
 804c928:	00c00044 	movi	r3,1
 804c92c:	d8c02105 	stb	r3,132(sp)
 804c930:	05400804 	movi	r21,32
 804c934:	98c00007 	ldb	r3,0(r19)
 804c938:	003f6e06 	br	804c6f4 <__alt_data_end+0xfffe4654>
 804c93c:	8821883a 	mov	r16,r17
 804c940:	dc402103 	ldbu	r17,132(sp)
 804c944:	b811883a 	mov	r8,r23
 804c948:	8c403fcc 	andi	r17,r17,255
 804c94c:	8803f01e 	bne	r17,zero,804d910 <___svfiprintf_internal_r+0x134c>
 804c950:	00820174 	movhi	r2,2053
 804c954:	10916b04 	addi	r2,r2,17836
 804c958:	d8802915 	stw	r2,164(sp)
 804c95c:	8080080c 	andi	r2,r16,32
 804c960:	1000cd26 	beq	r2,zero,804cc98 <___svfiprintf_internal_r+0x6d4>
 804c964:	d9002417 	ldw	r4,144(sp)
 804c968:	24800017 	ldw	r18,0(r4)
 804c96c:	25000117 	ldw	r20,4(r4)
 804c970:	21000204 	addi	r4,r4,8
 804c974:	d9002415 	stw	r4,144(sp)
 804c978:	8080004c 	andi	r2,r16,1
 804c97c:	1002c726 	beq	r2,zero,804d49c <___svfiprintf_internal_r+0xed8>
 804c980:	9504b03a 	or	r2,r18,r20
 804c984:	1003061e 	bne	r2,zero,804d5a0 <___svfiprintf_internal_r+0xfdc>
 804c988:	d9002017 	ldw	r4,128(sp)
 804c98c:	d8001d85 	stb	zero,118(sp)
 804c990:	20033e16 	blt	r4,zero,804d68c <___svfiprintf_internal_r+0x10c8>
 804c994:	00bfdfc4 	movi	r2,-129
 804c998:	80a0703a 	and	r16,r16,r2
 804c99c:	d9402017 	ldw	r5,128(sp)
 804c9a0:	002b883a 	mov	r21,zero
 804c9a4:	28002826 	beq	r5,zero,804ca48 <___svfiprintf_internal_r+0x484>
 804c9a8:	0025883a 	mov	r18,zero
 804c9ac:	0029883a 	mov	r20,zero
 804c9b0:	d9002917 	ldw	r4,164(sp)
 804c9b4:	dc401a04 	addi	r17,sp,104
 804c9b8:	908003cc 	andi	r2,r18,15
 804c9bc:	a006973a 	slli	r3,r20,28
 804c9c0:	2085883a 	add	r2,r4,r2
 804c9c4:	9024d13a 	srli	r18,r18,4
 804c9c8:	10800003 	ldbu	r2,0(r2)
 804c9cc:	a028d13a 	srli	r20,r20,4
 804c9d0:	8c7fffc4 	addi	r17,r17,-1
 804c9d4:	1ca4b03a 	or	r18,r3,r18
 804c9d8:	88800005 	stb	r2,0(r17)
 804c9dc:	9504b03a 	or	r2,r18,r20
 804c9e0:	103ff51e 	bne	r2,zero,804c9b8 <__alt_data_end+0xfffe4918>
 804c9e4:	d8801e17 	ldw	r2,120(sp)
 804c9e8:	1469c83a 	sub	r20,r2,r17
 804c9ec:	00001906 	br	804ca54 <___svfiprintf_internal_r+0x490>
 804c9f0:	8821883a 	mov	r16,r17
 804c9f4:	dc402103 	ldbu	r17,132(sp)
 804c9f8:	b811883a 	mov	r8,r23
 804c9fc:	8c403fcc 	andi	r17,r17,255
 804ca00:	8803d01e 	bne	r17,zero,804d944 <___svfiprintf_internal_r+0x1380>
 804ca04:	8080080c 	andi	r2,r16,32
 804ca08:	10016126 	beq	r2,zero,804cf90 <___svfiprintf_internal_r+0x9cc>
 804ca0c:	d9002417 	ldw	r4,144(sp)
 804ca10:	d9402017 	ldw	r5,128(sp)
 804ca14:	d8001d85 	stb	zero,118(sp)
 804ca18:	20c00204 	addi	r3,r4,8
 804ca1c:	24800017 	ldw	r18,0(r4)
 804ca20:	25000117 	ldw	r20,4(r4)
 804ca24:	28030f16 	blt	r5,zero,804d664 <___svfiprintf_internal_r+0x10a0>
 804ca28:	013fdfc4 	movi	r4,-129
 804ca2c:	9504b03a 	or	r2,r18,r20
 804ca30:	d8c02415 	stw	r3,144(sp)
 804ca34:	8120703a 	and	r16,r16,r4
 804ca38:	002b883a 	mov	r21,zero
 804ca3c:	1000cd1e 	bne	r2,zero,804cd74 <___svfiprintf_internal_r+0x7b0>
 804ca40:	d8c02017 	ldw	r3,128(sp)
 804ca44:	1803141e 	bne	r3,zero,804d698 <___svfiprintf_internal_r+0x10d4>
 804ca48:	d8002015 	stw	zero,128(sp)
 804ca4c:	0029883a 	mov	r20,zero
 804ca50:	dc401a04 	addi	r17,sp,104
 804ca54:	dc802017 	ldw	r18,128(sp)
 804ca58:	9500010e 	bge	r18,r20,804ca60 <___svfiprintf_internal_r+0x49c>
 804ca5c:	a025883a 	mov	r18,r20
 804ca60:	ad403fcc 	andi	r21,r21,255
 804ca64:	ad40201c 	xori	r21,r21,128
 804ca68:	ad7fe004 	addi	r21,r21,-128
 804ca6c:	a8003f26 	beq	r21,zero,804cb6c <___svfiprintf_internal_r+0x5a8>
 804ca70:	94800044 	addi	r18,r18,1
 804ca74:	00003d06 	br	804cb6c <___svfiprintf_internal_r+0x5a8>
 804ca78:	00c00044 	movi	r3,1
 804ca7c:	d8c02105 	stb	r3,132(sp)
 804ca80:	05400ac4 	movi	r21,43
 804ca84:	98c00007 	ldb	r3,0(r19)
 804ca88:	003f1a06 	br	804c6f4 <__alt_data_end+0xfffe4654>
 804ca8c:	8821883a 	mov	r16,r17
 804ca90:	dc402103 	ldbu	r17,132(sp)
 804ca94:	b811883a 	mov	r8,r23
 804ca98:	8c403fcc 	andi	r17,r17,255
 804ca9c:	8803a71e 	bne	r17,zero,804d93c <___svfiprintf_internal_r+0x1378>
 804caa0:	8080080c 	andi	r2,r16,32
 804caa4:	10015726 	beq	r2,zero,804d004 <___svfiprintf_internal_r+0xa40>
 804caa8:	d8c02417 	ldw	r3,144(sp)
 804caac:	d9002017 	ldw	r4,128(sp)
 804cab0:	d8001d85 	stb	zero,118(sp)
 804cab4:	18800204 	addi	r2,r3,8
 804cab8:	1c800017 	ldw	r18,0(r3)
 804cabc:	1d000117 	ldw	r20,4(r3)
 804cac0:	2002db16 	blt	r4,zero,804d630 <___svfiprintf_internal_r+0x106c>
 804cac4:	013fdfc4 	movi	r4,-129
 804cac8:	9506b03a 	or	r3,r18,r20
 804cacc:	d8802415 	stw	r2,144(sp)
 804cad0:	8120703a 	and	r16,r16,r4
 804cad4:	18015826 	beq	r3,zero,804d038 <___svfiprintf_internal_r+0xa74>
 804cad8:	002b883a 	mov	r21,zero
 804cadc:	dc401a04 	addi	r17,sp,104
 804cae0:	9006d0fa 	srli	r3,r18,3
 804cae4:	a008977a 	slli	r4,r20,29
 804cae8:	a028d0fa 	srli	r20,r20,3
 804caec:	948001cc 	andi	r18,r18,7
 804caf0:	90800c04 	addi	r2,r18,48
 804caf4:	8c7fffc4 	addi	r17,r17,-1
 804caf8:	20e4b03a 	or	r18,r4,r3
 804cafc:	88800005 	stb	r2,0(r17)
 804cb00:	9506b03a 	or	r3,r18,r20
 804cb04:	183ff61e 	bne	r3,zero,804cae0 <__alt_data_end+0xfffe4a40>
 804cb08:	80c0004c 	andi	r3,r16,1
 804cb0c:	18028926 	beq	r3,zero,804d534 <___svfiprintf_internal_r+0xf70>
 804cb10:	10803fcc 	andi	r2,r2,255
 804cb14:	1080201c 	xori	r2,r2,128
 804cb18:	10bfe004 	addi	r2,r2,-128
 804cb1c:	00c00c04 	movi	r3,48
 804cb20:	10ffb026 	beq	r2,r3,804c9e4 <__alt_data_end+0xfffe4944>
 804cb24:	88ffffc5 	stb	r3,-1(r17)
 804cb28:	d8c01e17 	ldw	r3,120(sp)
 804cb2c:	88bfffc4 	addi	r2,r17,-1
 804cb30:	1023883a 	mov	r17,r2
 804cb34:	18a9c83a 	sub	r20,r3,r2
 804cb38:	003fc606 	br	804ca54 <__alt_data_end+0xfffe49b4>
 804cb3c:	d8c02417 	ldw	r3,144(sp)
 804cb40:	04800044 	movi	r18,1
 804cb44:	8821883a 	mov	r16,r17
 804cb48:	18800017 	ldw	r2,0(r3)
 804cb4c:	18c00104 	addi	r3,r3,4
 804cb50:	b811883a 	mov	r8,r23
 804cb54:	d8001d85 	stb	zero,118(sp)
 804cb58:	d8801005 	stb	r2,64(sp)
 804cb5c:	d8c02415 	stw	r3,144(sp)
 804cb60:	9029883a 	mov	r20,r18
 804cb64:	dc401004 	addi	r17,sp,64
 804cb68:	d8002015 	stw	zero,128(sp)
 804cb6c:	80c0008c 	andi	r3,r16,2
 804cb70:	d8c02115 	stw	r3,132(sp)
 804cb74:	18000126 	beq	r3,zero,804cb7c <___svfiprintf_internal_r+0x5b8>
 804cb78:	94800084 	addi	r18,r18,2
 804cb7c:	80c0210c 	andi	r3,r16,132
 804cb80:	d8c02215 	stw	r3,136(sp)
 804cb84:	1801321e 	bne	r3,zero,804d050 <___svfiprintf_internal_r+0xa8c>
 804cb88:	d9002517 	ldw	r4,148(sp)
 804cb8c:	24b9c83a 	sub	fp,r4,r18
 804cb90:	07012f0e 	bge	zero,fp,804d050 <___svfiprintf_internal_r+0xa8c>
 804cb94:	02400404 	movi	r9,16
 804cb98:	d8c01c17 	ldw	r3,112(sp)
 804cb9c:	d8801b17 	ldw	r2,108(sp)
 804cba0:	4f03250e 	bge	r9,fp,804d838 <___svfiprintf_internal_r+0x1274>
 804cba4:	01020174 	movhi	r4,2053
 804cba8:	2111d004 	addi	r4,r4,18240
 804cbac:	dc002a15 	stw	r16,168(sp)
 804cbb0:	dc402b15 	stw	r17,172(sp)
 804cbb4:	d9002815 	stw	r4,160(sp)
 804cbb8:	e023883a 	mov	r17,fp
 804cbbc:	482f883a 	mov	r23,r9
 804cbc0:	9839883a 	mov	fp,r19
 804cbc4:	054001c4 	movi	r21,7
 804cbc8:	9027883a 	mov	r19,r18
 804cbcc:	dc002717 	ldw	r16,156(sp)
 804cbd0:	dc802317 	ldw	r18,140(sp)
 804cbd4:	00000306 	br	804cbe4 <___svfiprintf_internal_r+0x620>
 804cbd8:	8c7ffc04 	addi	r17,r17,-16
 804cbdc:	42000204 	addi	r8,r8,8
 804cbe0:	bc40130e 	bge	r23,r17,804cc30 <___svfiprintf_internal_r+0x66c>
 804cbe4:	01420174 	movhi	r5,2053
 804cbe8:	18c00404 	addi	r3,r3,16
 804cbec:	10800044 	addi	r2,r2,1
 804cbf0:	2951d004 	addi	r5,r5,18240
 804cbf4:	41400015 	stw	r5,0(r8)
 804cbf8:	45c00115 	stw	r23,4(r8)
 804cbfc:	d8c01c15 	stw	r3,112(sp)
 804cc00:	d8801b15 	stw	r2,108(sp)
 804cc04:	a8bff40e 	bge	r21,r2,804cbd8 <__alt_data_end+0xfffe4b38>
 804cc08:	d9801a04 	addi	r6,sp,104
 804cc0c:	900b883a 	mov	r5,r18
 804cc10:	8009883a 	mov	r4,r16
 804cc14:	804c3f40 	call	804c3f4 <__ssprint_r>
 804cc18:	1001aa1e 	bne	r2,zero,804d2c4 <___svfiprintf_internal_r+0xd00>
 804cc1c:	8c7ffc04 	addi	r17,r17,-16
 804cc20:	d8c01c17 	ldw	r3,112(sp)
 804cc24:	d8801b17 	ldw	r2,108(sp)
 804cc28:	d811883a 	mov	r8,sp
 804cc2c:	bc7fed16 	blt	r23,r17,804cbe4 <__alt_data_end+0xfffe4b44>
 804cc30:	9825883a 	mov	r18,r19
 804cc34:	dc002a17 	ldw	r16,168(sp)
 804cc38:	e027883a 	mov	r19,fp
 804cc3c:	8839883a 	mov	fp,r17
 804cc40:	dc402b17 	ldw	r17,172(sp)
 804cc44:	d9002817 	ldw	r4,160(sp)
 804cc48:	e0c7883a 	add	r3,fp,r3
 804cc4c:	10800044 	addi	r2,r2,1
 804cc50:	41000015 	stw	r4,0(r8)
 804cc54:	47000115 	stw	fp,4(r8)
 804cc58:	d8c01c15 	stw	r3,112(sp)
 804cc5c:	d8801b15 	stw	r2,108(sp)
 804cc60:	010001c4 	movi	r4,7
 804cc64:	20821616 	blt	r4,r2,804d4c0 <___svfiprintf_internal_r+0xefc>
 804cc68:	42000204 	addi	r8,r8,8
 804cc6c:	0000fa06 	br	804d058 <___svfiprintf_internal_r+0xa94>
 804cc70:	8821883a 	mov	r16,r17
 804cc74:	dc402103 	ldbu	r17,132(sp)
 804cc78:	b811883a 	mov	r8,r23
 804cc7c:	8c403fcc 	andi	r17,r17,255
 804cc80:	8803361e 	bne	r17,zero,804d95c <___svfiprintf_internal_r+0x1398>
 804cc84:	01420174 	movhi	r5,2053
 804cc88:	29516604 	addi	r5,r5,17816
 804cc8c:	d9402915 	stw	r5,164(sp)
 804cc90:	8080080c 	andi	r2,r16,32
 804cc94:	103f331e 	bne	r2,zero,804c964 <__alt_data_end+0xfffe48c4>
 804cc98:	8080040c 	andi	r2,r16,16
 804cc9c:	1002551e 	bne	r2,zero,804d5f4 <___svfiprintf_internal_r+0x1030>
 804cca0:	8080100c 	andi	r2,r16,64
 804cca4:	1002a626 	beq	r2,zero,804d740 <___svfiprintf_internal_r+0x117c>
 804cca8:	d8802417 	ldw	r2,144(sp)
 804ccac:	0029883a 	mov	r20,zero
 804ccb0:	1480000b 	ldhu	r18,0(r2)
 804ccb4:	10800104 	addi	r2,r2,4
 804ccb8:	d8802415 	stw	r2,144(sp)
 804ccbc:	003f2e06 	br	804c978 <__alt_data_end+0xfffe48d8>
 804ccc0:	8821883a 	mov	r16,r17
 804ccc4:	dc402103 	ldbu	r17,132(sp)
 804ccc8:	b811883a 	mov	r8,r23
 804cccc:	8c403fcc 	andi	r17,r17,255
 804ccd0:	88030b1e 	bne	r17,zero,804d900 <___svfiprintf_internal_r+0x133c>
 804ccd4:	8080080c 	andi	r2,r16,32
 804ccd8:	1002271e 	bne	r2,zero,804d578 <___svfiprintf_internal_r+0xfb4>
 804ccdc:	8080040c 	andi	r2,r16,16
 804cce0:	10028e26 	beq	r2,zero,804d71c <___svfiprintf_internal_r+0x1158>
 804cce4:	d8c02417 	ldw	r3,144(sp)
 804cce8:	d9002617 	ldw	r4,152(sp)
 804ccec:	18800017 	ldw	r2,0(r3)
 804ccf0:	18c00104 	addi	r3,r3,4
 804ccf4:	d8c02415 	stw	r3,144(sp)
 804ccf8:	11000015 	stw	r4,0(r2)
 804ccfc:	003e5306 	br	804c64c <__alt_data_end+0xfffe45ac>
 804cd00:	98c00007 	ldb	r3,0(r19)
 804cd04:	01401b04 	movi	r5,108
 804cd08:	19424f26 	beq	r3,r5,804d648 <___svfiprintf_internal_r+0x1084>
 804cd0c:	8c400414 	ori	r17,r17,16
 804cd10:	003e7806 	br	804c6f4 <__alt_data_end+0xfffe4654>
 804cd14:	8c401014 	ori	r17,r17,64
 804cd18:	98c00007 	ldb	r3,0(r19)
 804cd1c:	003e7506 	br	804c6f4 <__alt_data_end+0xfffe4654>
 804cd20:	8821883a 	mov	r16,r17
 804cd24:	dc402103 	ldbu	r17,132(sp)
 804cd28:	b811883a 	mov	r8,r23
 804cd2c:	8c403fcc 	andi	r17,r17,255
 804cd30:	8802fe1e 	bne	r17,zero,804d92c <___svfiprintf_internal_r+0x1368>
 804cd34:	8080080c 	andi	r2,r16,32
 804cd38:	10004626 	beq	r2,zero,804ce54 <___svfiprintf_internal_r+0x890>
 804cd3c:	d9002417 	ldw	r4,144(sp)
 804cd40:	20800117 	ldw	r2,4(r4)
 804cd44:	24800017 	ldw	r18,0(r4)
 804cd48:	21000204 	addi	r4,r4,8
 804cd4c:	d9002415 	stw	r4,144(sp)
 804cd50:	1029883a 	mov	r20,r2
 804cd54:	10004a16 	blt	r2,zero,804ce80 <___svfiprintf_internal_r+0x8bc>
 804cd58:	d9002017 	ldw	r4,128(sp)
 804cd5c:	dd401d83 	ldbu	r21,118(sp)
 804cd60:	2001eb16 	blt	r4,zero,804d510 <___svfiprintf_internal_r+0xf4c>
 804cd64:	00ffdfc4 	movi	r3,-129
 804cd68:	9504b03a 	or	r2,r18,r20
 804cd6c:	80e0703a 	and	r16,r16,r3
 804cd70:	103f3326 	beq	r2,zero,804ca40 <__alt_data_end+0xfffe49a0>
 804cd74:	a0009426 	beq	r20,zero,804cfc8 <___svfiprintf_internal_r+0xa04>
 804cd78:	dc401a04 	addi	r17,sp,104
 804cd7c:	402f883a 	mov	r23,r8
 804cd80:	9009883a 	mov	r4,r18
 804cd84:	a00b883a 	mov	r5,r20
 804cd88:	01800284 	movi	r6,10
 804cd8c:	000f883a 	mov	r7,zero
 804cd90:	804ee5c0 	call	804ee5c <__umoddi3>
 804cd94:	10800c04 	addi	r2,r2,48
 804cd98:	8c7fffc4 	addi	r17,r17,-1
 804cd9c:	9009883a 	mov	r4,r18
 804cda0:	a00b883a 	mov	r5,r20
 804cda4:	88800005 	stb	r2,0(r17)
 804cda8:	01800284 	movi	r6,10
 804cdac:	000f883a 	mov	r7,zero
 804cdb0:	804e8600 	call	804e860 <__udivdi3>
 804cdb4:	1025883a 	mov	r18,r2
 804cdb8:	10c4b03a 	or	r2,r2,r3
 804cdbc:	1829883a 	mov	r20,r3
 804cdc0:	103fef1e 	bne	r2,zero,804cd80 <__alt_data_end+0xfffe4ce0>
 804cdc4:	d9001e17 	ldw	r4,120(sp)
 804cdc8:	b811883a 	mov	r8,r23
 804cdcc:	2469c83a 	sub	r20,r4,r17
 804cdd0:	003f2006 	br	804ca54 <__alt_data_end+0xfffe49b4>
 804cdd4:	d8802417 	ldw	r2,144(sp)
 804cdd8:	8821883a 	mov	r16,r17
 804cddc:	d8001d85 	stb	zero,118(sp)
 804cde0:	14400017 	ldw	r17,0(r2)
 804cde4:	b811883a 	mov	r8,r23
 804cde8:	15c00104 	addi	r23,r2,4
 804cdec:	88026c26 	beq	r17,zero,804d7a0 <___svfiprintf_internal_r+0x11dc>
 804cdf0:	d8c02017 	ldw	r3,128(sp)
 804cdf4:	18025f16 	blt	r3,zero,804d774 <___svfiprintf_internal_r+0x11b0>
 804cdf8:	180d883a 	mov	r6,r3
 804cdfc:	000b883a 	mov	r5,zero
 804ce00:	8809883a 	mov	r4,r17
 804ce04:	da002d15 	stw	r8,180(sp)
 804ce08:	804a8b80 	call	804a8b8 <memchr>
 804ce0c:	da002d17 	ldw	r8,180(sp)
 804ce10:	1002a526 	beq	r2,zero,804d8a8 <___svfiprintf_internal_r+0x12e4>
 804ce14:	1469c83a 	sub	r20,r2,r17
 804ce18:	dd401d83 	ldbu	r21,118(sp)
 804ce1c:	ddc02415 	stw	r23,144(sp)
 804ce20:	d8002015 	stw	zero,128(sp)
 804ce24:	003f0b06 	br	804ca54 <__alt_data_end+0xfffe49b4>
 804ce28:	8c400814 	ori	r17,r17,32
 804ce2c:	98c00007 	ldb	r3,0(r19)
 804ce30:	003e3006 	br	804c6f4 <__alt_data_end+0xfffe4654>
 804ce34:	8821883a 	mov	r16,r17
 804ce38:	dc402103 	ldbu	r17,132(sp)
 804ce3c:	b811883a 	mov	r8,r23
 804ce40:	8c403fcc 	andi	r17,r17,255
 804ce44:	8802b01e 	bne	r17,zero,804d908 <___svfiprintf_internal_r+0x1344>
 804ce48:	84000414 	ori	r16,r16,16
 804ce4c:	8080080c 	andi	r2,r16,32
 804ce50:	103fba1e 	bne	r2,zero,804cd3c <__alt_data_end+0xfffe4c9c>
 804ce54:	8080040c 	andi	r2,r16,16
 804ce58:	1001df1e 	bne	r2,zero,804d5d8 <___svfiprintf_internal_r+0x1014>
 804ce5c:	8080100c 	andi	r2,r16,64
 804ce60:	10023d26 	beq	r2,zero,804d758 <___svfiprintf_internal_r+0x1194>
 804ce64:	d8802417 	ldw	r2,144(sp)
 804ce68:	1480000f 	ldh	r18,0(r2)
 804ce6c:	10800104 	addi	r2,r2,4
 804ce70:	d8802415 	stw	r2,144(sp)
 804ce74:	9029d7fa 	srai	r20,r18,31
 804ce78:	a005883a 	mov	r2,r20
 804ce7c:	103fb60e 	bge	r2,zero,804cd58 <__alt_data_end+0xfffe4cb8>
 804ce80:	d9402017 	ldw	r5,128(sp)
 804ce84:	04a5c83a 	sub	r18,zero,r18
 804ce88:	05400b44 	movi	r21,45
 804ce8c:	9004c03a 	cmpne	r2,r18,zero
 804ce90:	0529c83a 	sub	r20,zero,r20
 804ce94:	dd401d85 	stb	r21,118(sp)
 804ce98:	a0a9c83a 	sub	r20,r20,r2
 804ce9c:	28026c16 	blt	r5,zero,804d850 <___svfiprintf_internal_r+0x128c>
 804cea0:	00bfdfc4 	movi	r2,-129
 804cea4:	80a0703a 	and	r16,r16,r2
 804cea8:	a03fb31e 	bne	r20,zero,804cd78 <__alt_data_end+0xfffe4cd8>
 804ceac:	00004606 	br	804cfc8 <___svfiprintf_internal_r+0xa04>
 804ceb0:	9839883a 	mov	fp,r19
 804ceb4:	d8002515 	stw	zero,148(sp)
 804ceb8:	1c3ff404 	addi	r16,r3,-48
 804cebc:	0009883a 	mov	r4,zero
 804cec0:	01400284 	movi	r5,10
 804cec4:	8042dac0 	call	8042dac <__mulsi3>
 804cec8:	e0c00007 	ldb	r3,0(fp)
 804cecc:	8089883a 	add	r4,r16,r2
 804ced0:	9cc00044 	addi	r19,r19,1
 804ced4:	1c3ff404 	addi	r16,r3,-48
 804ced8:	9839883a 	mov	fp,r19
 804cedc:	a43ff82e 	bgeu	r20,r16,804cec0 <__alt_data_end+0xfffe4e20>
 804cee0:	d9002515 	stw	r4,148(sp)
 804cee4:	18bff804 	addi	r2,r3,-32
 804cee8:	90be052e 	bgeu	r18,r2,804c700 <__alt_data_end+0xfffe4660>
 804ceec:	8821883a 	mov	r16,r17
 804cef0:	dc402103 	ldbu	r17,132(sp)
 804cef4:	b811883a 	mov	r8,r23
 804cef8:	8c403fcc 	andi	r17,r17,255
 804cefc:	88028d1e 	bne	r17,zero,804d934 <___svfiprintf_internal_r+0x1370>
 804cf00:	1800ea26 	beq	r3,zero,804d2ac <___svfiprintf_internal_r+0xce8>
 804cf04:	04800044 	movi	r18,1
 804cf08:	d8c01005 	stb	r3,64(sp)
 804cf0c:	d8001d85 	stb	zero,118(sp)
 804cf10:	9029883a 	mov	r20,r18
 804cf14:	dc401004 	addi	r17,sp,64
 804cf18:	003f1306 	br	804cb68 <__alt_data_end+0xfffe4ac8>
 804cf1c:	8c402014 	ori	r17,r17,128
 804cf20:	98c00007 	ldb	r3,0(r19)
 804cf24:	003df306 	br	804c6f4 <__alt_data_end+0xfffe4654>
 804cf28:	98c00007 	ldb	r3,0(r19)
 804cf2c:	01000a84 	movi	r4,42
 804cf30:	9f000044 	addi	fp,r19,1
 804cf34:	19026326 	beq	r3,r4,804d8c4 <___svfiprintf_internal_r+0x1300>
 804cf38:	1c3ff404 	addi	r16,r3,-48
 804cf3c:	0009883a 	mov	r4,zero
 804cf40:	a4025636 	bltu	r20,r16,804d89c <___svfiprintf_internal_r+0x12d8>
 804cf44:	01400284 	movi	r5,10
 804cf48:	8042dac0 	call	8042dac <__mulsi3>
 804cf4c:	e0c00007 	ldb	r3,0(fp)
 804cf50:	1409883a 	add	r4,r2,r16
 804cf54:	e4c00044 	addi	r19,fp,1
 804cf58:	1c3ff404 	addi	r16,r3,-48
 804cf5c:	9839883a 	mov	fp,r19
 804cf60:	a43ff82e 	bgeu	r20,r16,804cf44 <__alt_data_end+0xfffe4ea4>
 804cf64:	20020c16 	blt	r4,zero,804d798 <___svfiprintf_internal_r+0x11d4>
 804cf68:	d9002015 	stw	r4,128(sp)
 804cf6c:	003de206 	br	804c6f8 <__alt_data_end+0xfffe4658>
 804cf70:	8821883a 	mov	r16,r17
 804cf74:	dc402103 	ldbu	r17,132(sp)
 804cf78:	b811883a 	mov	r8,r23
 804cf7c:	8c403fcc 	andi	r17,r17,255
 804cf80:	8802721e 	bne	r17,zero,804d94c <___svfiprintf_internal_r+0x1388>
 804cf84:	84000414 	ori	r16,r16,16
 804cf88:	8080080c 	andi	r2,r16,32
 804cf8c:	103e9f1e 	bne	r2,zero,804ca0c <__alt_data_end+0xfffe496c>
 804cf90:	8080040c 	andi	r2,r16,16
 804cf94:	10015326 	beq	r2,zero,804d4e4 <___svfiprintf_internal_r+0xf20>
 804cf98:	d8c02417 	ldw	r3,144(sp)
 804cf9c:	d9002017 	ldw	r4,128(sp)
 804cfa0:	d8001d85 	stb	zero,118(sp)
 804cfa4:	18800104 	addi	r2,r3,4
 804cfa8:	1c800017 	ldw	r18,0(r3)
 804cfac:	0029883a 	mov	r20,zero
 804cfb0:	20015516 	blt	r4,zero,804d508 <___svfiprintf_internal_r+0xf44>
 804cfb4:	00ffdfc4 	movi	r3,-129
 804cfb8:	d8802415 	stw	r2,144(sp)
 804cfbc:	80e0703a 	and	r16,r16,r3
 804cfc0:	002b883a 	mov	r21,zero
 804cfc4:	903e9e26 	beq	r18,zero,804ca40 <__alt_data_end+0xfffe49a0>
 804cfc8:	00800244 	movi	r2,9
 804cfcc:	14bf6a36 	bltu	r2,r18,804cd78 <__alt_data_end+0xfffe4cd8>
 804cfd0:	94800c04 	addi	r18,r18,48
 804cfd4:	dc8019c5 	stb	r18,103(sp)
 804cfd8:	dd002c17 	ldw	r20,176(sp)
 804cfdc:	dc4019c4 	addi	r17,sp,103
 804cfe0:	003e9c06 	br	804ca54 <__alt_data_end+0xfffe49b4>
 804cfe4:	8821883a 	mov	r16,r17
 804cfe8:	dc402103 	ldbu	r17,132(sp)
 804cfec:	b811883a 	mov	r8,r23
 804cff0:	8c403fcc 	andi	r17,r17,255
 804cff4:	8802571e 	bne	r17,zero,804d954 <___svfiprintf_internal_r+0x1390>
 804cff8:	84000414 	ori	r16,r16,16
 804cffc:	8080080c 	andi	r2,r16,32
 804d000:	103ea91e 	bne	r2,zero,804caa8 <__alt_data_end+0xfffe4a08>
 804d004:	8080040c 	andi	r2,r16,16
 804d008:	10018026 	beq	r2,zero,804d60c <___svfiprintf_internal_r+0x1048>
 804d00c:	d9402417 	ldw	r5,144(sp)
 804d010:	d8c02017 	ldw	r3,128(sp)
 804d014:	d8001d85 	stb	zero,118(sp)
 804d018:	28800104 	addi	r2,r5,4
 804d01c:	2c800017 	ldw	r18,0(r5)
 804d020:	0029883a 	mov	r20,zero
 804d024:	18018216 	blt	r3,zero,804d630 <___svfiprintf_internal_r+0x106c>
 804d028:	00ffdfc4 	movi	r3,-129
 804d02c:	d8802415 	stw	r2,144(sp)
 804d030:	80e0703a 	and	r16,r16,r3
 804d034:	903ea81e 	bne	r18,zero,804cad8 <__alt_data_end+0xfffe4a38>
 804d038:	d8802017 	ldw	r2,128(sp)
 804d03c:	002b883a 	mov	r21,zero
 804d040:	1001f226 	beq	r2,zero,804d80c <___svfiprintf_internal_r+0x1248>
 804d044:	0025883a 	mov	r18,zero
 804d048:	0029883a 	mov	r20,zero
 804d04c:	003ea306 	br	804cadc <__alt_data_end+0xfffe4a3c>
 804d050:	d8c01c17 	ldw	r3,112(sp)
 804d054:	d8801b17 	ldw	r2,108(sp)
 804d058:	d9001d87 	ldb	r4,118(sp)
 804d05c:	20000b26 	beq	r4,zero,804d08c <___svfiprintf_internal_r+0xac8>
 804d060:	d9001d84 	addi	r4,sp,118
 804d064:	18c00044 	addi	r3,r3,1
 804d068:	10800044 	addi	r2,r2,1
 804d06c:	41000015 	stw	r4,0(r8)
 804d070:	01000044 	movi	r4,1
 804d074:	41000115 	stw	r4,4(r8)
 804d078:	d8c01c15 	stw	r3,112(sp)
 804d07c:	d8801b15 	stw	r2,108(sp)
 804d080:	010001c4 	movi	r4,7
 804d084:	2080f316 	blt	r4,r2,804d454 <___svfiprintf_internal_r+0xe90>
 804d088:	42000204 	addi	r8,r8,8
 804d08c:	d9402117 	ldw	r5,132(sp)
 804d090:	28000b26 	beq	r5,zero,804d0c0 <___svfiprintf_internal_r+0xafc>
 804d094:	d9001d04 	addi	r4,sp,116
 804d098:	18c00084 	addi	r3,r3,2
 804d09c:	10800044 	addi	r2,r2,1
 804d0a0:	41000015 	stw	r4,0(r8)
 804d0a4:	01000084 	movi	r4,2
 804d0a8:	41000115 	stw	r4,4(r8)
 804d0ac:	d8c01c15 	stw	r3,112(sp)
 804d0b0:	d8801b15 	stw	r2,108(sp)
 804d0b4:	010001c4 	movi	r4,7
 804d0b8:	2080ef16 	blt	r4,r2,804d478 <___svfiprintf_internal_r+0xeb4>
 804d0bc:	42000204 	addi	r8,r8,8
 804d0c0:	d9402217 	ldw	r5,136(sp)
 804d0c4:	01002004 	movi	r4,128
 804d0c8:	29008f26 	beq	r5,r4,804d308 <___svfiprintf_internal_r+0xd44>
 804d0cc:	d9002017 	ldw	r4,128(sp)
 804d0d0:	252fc83a 	sub	r23,r4,r20
 804d0d4:	05c0310e 	bge	zero,r23,804d19c <___svfiprintf_internal_r+0xbd8>
 804d0d8:	07000404 	movi	fp,16
 804d0dc:	e5c17d0e 	bge	fp,r23,804d6d4 <___svfiprintf_internal_r+0x1110>
 804d0e0:	01020174 	movhi	r4,2053
 804d0e4:	2111cc04 	addi	r4,r4,18224
 804d0e8:	dc002015 	stw	r16,128(sp)
 804d0ec:	dc402215 	stw	r17,136(sp)
 804d0f0:	d9002115 	stw	r4,132(sp)
 804d0f4:	b823883a 	mov	r17,r23
 804d0f8:	054001c4 	movi	r21,7
 804d0fc:	982f883a 	mov	r23,r19
 804d100:	dc002717 	ldw	r16,156(sp)
 804d104:	9027883a 	mov	r19,r18
 804d108:	dc802317 	ldw	r18,140(sp)
 804d10c:	00000306 	br	804d11c <___svfiprintf_internal_r+0xb58>
 804d110:	8c7ffc04 	addi	r17,r17,-16
 804d114:	42000204 	addi	r8,r8,8
 804d118:	e440110e 	bge	fp,r17,804d160 <___svfiprintf_internal_r+0xb9c>
 804d11c:	18c00404 	addi	r3,r3,16
 804d120:	10800044 	addi	r2,r2,1
 804d124:	45800015 	stw	r22,0(r8)
 804d128:	47000115 	stw	fp,4(r8)
 804d12c:	d8c01c15 	stw	r3,112(sp)
 804d130:	d8801b15 	stw	r2,108(sp)
 804d134:	a8bff60e 	bge	r21,r2,804d110 <__alt_data_end+0xfffe5070>
 804d138:	d9801a04 	addi	r6,sp,104
 804d13c:	900b883a 	mov	r5,r18
 804d140:	8009883a 	mov	r4,r16
 804d144:	804c3f40 	call	804c3f4 <__ssprint_r>
 804d148:	10005e1e 	bne	r2,zero,804d2c4 <___svfiprintf_internal_r+0xd00>
 804d14c:	8c7ffc04 	addi	r17,r17,-16
 804d150:	d8c01c17 	ldw	r3,112(sp)
 804d154:	d8801b17 	ldw	r2,108(sp)
 804d158:	d811883a 	mov	r8,sp
 804d15c:	e47fef16 	blt	fp,r17,804d11c <__alt_data_end+0xfffe507c>
 804d160:	9825883a 	mov	r18,r19
 804d164:	dc002017 	ldw	r16,128(sp)
 804d168:	b827883a 	mov	r19,r23
 804d16c:	882f883a 	mov	r23,r17
 804d170:	dc402217 	ldw	r17,136(sp)
 804d174:	d9402117 	ldw	r5,132(sp)
 804d178:	1dc7883a 	add	r3,r3,r23
 804d17c:	10800044 	addi	r2,r2,1
 804d180:	41400015 	stw	r5,0(r8)
 804d184:	45c00115 	stw	r23,4(r8)
 804d188:	d8c01c15 	stw	r3,112(sp)
 804d18c:	d8801b15 	stw	r2,108(sp)
 804d190:	010001c4 	movi	r4,7
 804d194:	2080a616 	blt	r4,r2,804d430 <___svfiprintf_internal_r+0xe6c>
 804d198:	42000204 	addi	r8,r8,8
 804d19c:	a0c7883a 	add	r3,r20,r3
 804d1a0:	10800044 	addi	r2,r2,1
 804d1a4:	44400015 	stw	r17,0(r8)
 804d1a8:	45000115 	stw	r20,4(r8)
 804d1ac:	d8c01c15 	stw	r3,112(sp)
 804d1b0:	d8801b15 	stw	r2,108(sp)
 804d1b4:	010001c4 	movi	r4,7
 804d1b8:	20808816 	blt	r4,r2,804d3dc <___svfiprintf_internal_r+0xe18>
 804d1bc:	42000204 	addi	r8,r8,8
 804d1c0:	8400010c 	andi	r16,r16,4
 804d1c4:	80002c26 	beq	r16,zero,804d278 <___svfiprintf_internal_r+0xcb4>
 804d1c8:	d8802517 	ldw	r2,148(sp)
 804d1cc:	14a1c83a 	sub	r16,r2,r18
 804d1d0:	0400290e 	bge	zero,r16,804d278 <___svfiprintf_internal_r+0xcb4>
 804d1d4:	04400404 	movi	r17,16
 804d1d8:	d8801b17 	ldw	r2,108(sp)
 804d1dc:	8c01a70e 	bge	r17,r16,804d87c <___svfiprintf_internal_r+0x12b8>
 804d1e0:	01420174 	movhi	r5,2053
 804d1e4:	2951d004 	addi	r5,r5,18240
 804d1e8:	d9402815 	stw	r5,160(sp)
 804d1ec:	050001c4 	movi	r20,7
 804d1f0:	dd402717 	ldw	r21,156(sp)
 804d1f4:	ddc02317 	ldw	r23,140(sp)
 804d1f8:	00000306 	br	804d208 <___svfiprintf_internal_r+0xc44>
 804d1fc:	843ffc04 	addi	r16,r16,-16
 804d200:	42000204 	addi	r8,r8,8
 804d204:	8c00130e 	bge	r17,r16,804d254 <___svfiprintf_internal_r+0xc90>
 804d208:	01020174 	movhi	r4,2053
 804d20c:	18c00404 	addi	r3,r3,16
 804d210:	10800044 	addi	r2,r2,1
 804d214:	2111d004 	addi	r4,r4,18240
 804d218:	41000015 	stw	r4,0(r8)
 804d21c:	44400115 	stw	r17,4(r8)
 804d220:	d8c01c15 	stw	r3,112(sp)
 804d224:	d8801b15 	stw	r2,108(sp)
 804d228:	a0bff40e 	bge	r20,r2,804d1fc <__alt_data_end+0xfffe515c>
 804d22c:	d9801a04 	addi	r6,sp,104
 804d230:	b80b883a 	mov	r5,r23
 804d234:	a809883a 	mov	r4,r21
 804d238:	804c3f40 	call	804c3f4 <__ssprint_r>
 804d23c:	1000211e 	bne	r2,zero,804d2c4 <___svfiprintf_internal_r+0xd00>
 804d240:	843ffc04 	addi	r16,r16,-16
 804d244:	d8c01c17 	ldw	r3,112(sp)
 804d248:	d8801b17 	ldw	r2,108(sp)
 804d24c:	d811883a 	mov	r8,sp
 804d250:	8c3fed16 	blt	r17,r16,804d208 <__alt_data_end+0xfffe5168>
 804d254:	d9402817 	ldw	r5,160(sp)
 804d258:	1c07883a 	add	r3,r3,r16
 804d25c:	10800044 	addi	r2,r2,1
 804d260:	41400015 	stw	r5,0(r8)
 804d264:	44000115 	stw	r16,4(r8)
 804d268:	d8c01c15 	stw	r3,112(sp)
 804d26c:	d8801b15 	stw	r2,108(sp)
 804d270:	010001c4 	movi	r4,7
 804d274:	2080b516 	blt	r4,r2,804d54c <___svfiprintf_internal_r+0xf88>
 804d278:	d8802517 	ldw	r2,148(sp)
 804d27c:	1480010e 	bge	r2,r18,804d284 <___svfiprintf_internal_r+0xcc0>
 804d280:	9005883a 	mov	r2,r18
 804d284:	d9002617 	ldw	r4,152(sp)
 804d288:	2089883a 	add	r4,r4,r2
 804d28c:	d9002615 	stw	r4,152(sp)
 804d290:	18005a1e 	bne	r3,zero,804d3fc <___svfiprintf_internal_r+0xe38>
 804d294:	98800007 	ldb	r2,0(r19)
 804d298:	d8001b15 	stw	zero,108(sp)
 804d29c:	d811883a 	mov	r8,sp
 804d2a0:	103cec1e 	bne	r2,zero,804c654 <__alt_data_end+0xfffe45b4>
 804d2a4:	9825883a 	mov	r18,r19
 804d2a8:	003d0206 	br	804c6b4 <__alt_data_end+0xfffe4614>
 804d2ac:	d8801c17 	ldw	r2,112(sp)
 804d2b0:	10000426 	beq	r2,zero,804d2c4 <___svfiprintf_internal_r+0xd00>
 804d2b4:	d9402317 	ldw	r5,140(sp)
 804d2b8:	d9002717 	ldw	r4,156(sp)
 804d2bc:	d9801a04 	addi	r6,sp,104
 804d2c0:	804c3f40 	call	804c3f4 <__ssprint_r>
 804d2c4:	d9402317 	ldw	r5,140(sp)
 804d2c8:	d8802617 	ldw	r2,152(sp)
 804d2cc:	28c0030b 	ldhu	r3,12(r5)
 804d2d0:	18c0100c 	andi	r3,r3,64
 804d2d4:	18015c1e 	bne	r3,zero,804d848 <___svfiprintf_internal_r+0x1284>
 804d2d8:	dfc03717 	ldw	ra,220(sp)
 804d2dc:	df003617 	ldw	fp,216(sp)
 804d2e0:	ddc03517 	ldw	r23,212(sp)
 804d2e4:	dd803417 	ldw	r22,208(sp)
 804d2e8:	dd403317 	ldw	r21,204(sp)
 804d2ec:	dd003217 	ldw	r20,200(sp)
 804d2f0:	dcc03117 	ldw	r19,196(sp)
 804d2f4:	dc803017 	ldw	r18,192(sp)
 804d2f8:	dc402f17 	ldw	r17,188(sp)
 804d2fc:	dc002e17 	ldw	r16,184(sp)
 804d300:	dec03804 	addi	sp,sp,224
 804d304:	f800283a 	ret
 804d308:	d9002517 	ldw	r4,148(sp)
 804d30c:	24afc83a 	sub	r23,r4,r18
 804d310:	05ff6e0e 	bge	zero,r23,804d0cc <__alt_data_end+0xfffe502c>
 804d314:	07000404 	movi	fp,16
 804d318:	e5c15c0e 	bge	fp,r23,804d88c <___svfiprintf_internal_r+0x12c8>
 804d31c:	01020174 	movhi	r4,2053
 804d320:	2111cc04 	addi	r4,r4,18224
 804d324:	dc002215 	stw	r16,136(sp)
 804d328:	dc402815 	stw	r17,160(sp)
 804d32c:	d9002115 	stw	r4,132(sp)
 804d330:	b823883a 	mov	r17,r23
 804d334:	054001c4 	movi	r21,7
 804d338:	982f883a 	mov	r23,r19
 804d33c:	dc002717 	ldw	r16,156(sp)
 804d340:	9027883a 	mov	r19,r18
 804d344:	dc802317 	ldw	r18,140(sp)
 804d348:	00000306 	br	804d358 <___svfiprintf_internal_r+0xd94>
 804d34c:	8c7ffc04 	addi	r17,r17,-16
 804d350:	42000204 	addi	r8,r8,8
 804d354:	e440110e 	bge	fp,r17,804d39c <___svfiprintf_internal_r+0xdd8>
 804d358:	18c00404 	addi	r3,r3,16
 804d35c:	10800044 	addi	r2,r2,1
 804d360:	45800015 	stw	r22,0(r8)
 804d364:	47000115 	stw	fp,4(r8)
 804d368:	d8c01c15 	stw	r3,112(sp)
 804d36c:	d8801b15 	stw	r2,108(sp)
 804d370:	a8bff60e 	bge	r21,r2,804d34c <__alt_data_end+0xfffe52ac>
 804d374:	d9801a04 	addi	r6,sp,104
 804d378:	900b883a 	mov	r5,r18
 804d37c:	8009883a 	mov	r4,r16
 804d380:	804c3f40 	call	804c3f4 <__ssprint_r>
 804d384:	103fcf1e 	bne	r2,zero,804d2c4 <__alt_data_end+0xfffe5224>
 804d388:	8c7ffc04 	addi	r17,r17,-16
 804d38c:	d8c01c17 	ldw	r3,112(sp)
 804d390:	d8801b17 	ldw	r2,108(sp)
 804d394:	d811883a 	mov	r8,sp
 804d398:	e47fef16 	blt	fp,r17,804d358 <__alt_data_end+0xfffe52b8>
 804d39c:	9825883a 	mov	r18,r19
 804d3a0:	dc002217 	ldw	r16,136(sp)
 804d3a4:	b827883a 	mov	r19,r23
 804d3a8:	882f883a 	mov	r23,r17
 804d3ac:	dc402817 	ldw	r17,160(sp)
 804d3b0:	d9402117 	ldw	r5,132(sp)
 804d3b4:	1dc7883a 	add	r3,r3,r23
 804d3b8:	10800044 	addi	r2,r2,1
 804d3bc:	41400015 	stw	r5,0(r8)
 804d3c0:	45c00115 	stw	r23,4(r8)
 804d3c4:	d8c01c15 	stw	r3,112(sp)
 804d3c8:	d8801b15 	stw	r2,108(sp)
 804d3cc:	010001c4 	movi	r4,7
 804d3d0:	2080b716 	blt	r4,r2,804d6b0 <___svfiprintf_internal_r+0x10ec>
 804d3d4:	42000204 	addi	r8,r8,8
 804d3d8:	003f3c06 	br	804d0cc <__alt_data_end+0xfffe502c>
 804d3dc:	d9402317 	ldw	r5,140(sp)
 804d3e0:	d9002717 	ldw	r4,156(sp)
 804d3e4:	d9801a04 	addi	r6,sp,104
 804d3e8:	804c3f40 	call	804c3f4 <__ssprint_r>
 804d3ec:	103fb51e 	bne	r2,zero,804d2c4 <__alt_data_end+0xfffe5224>
 804d3f0:	d8c01c17 	ldw	r3,112(sp)
 804d3f4:	d811883a 	mov	r8,sp
 804d3f8:	003f7106 	br	804d1c0 <__alt_data_end+0xfffe5120>
 804d3fc:	d9402317 	ldw	r5,140(sp)
 804d400:	d9002717 	ldw	r4,156(sp)
 804d404:	d9801a04 	addi	r6,sp,104
 804d408:	804c3f40 	call	804c3f4 <__ssprint_r>
 804d40c:	103fa126 	beq	r2,zero,804d294 <__alt_data_end+0xfffe51f4>
 804d410:	003fac06 	br	804d2c4 <__alt_data_end+0xfffe5224>
 804d414:	d9402317 	ldw	r5,140(sp)
 804d418:	d9002717 	ldw	r4,156(sp)
 804d41c:	d9801a04 	addi	r6,sp,104
 804d420:	804c3f40 	call	804c3f4 <__ssprint_r>
 804d424:	103fa71e 	bne	r2,zero,804d2c4 <__alt_data_end+0xfffe5224>
 804d428:	d811883a 	mov	r8,sp
 804d42c:	003c9e06 	br	804c6a8 <__alt_data_end+0xfffe4608>
 804d430:	d9402317 	ldw	r5,140(sp)
 804d434:	d9002717 	ldw	r4,156(sp)
 804d438:	d9801a04 	addi	r6,sp,104
 804d43c:	804c3f40 	call	804c3f4 <__ssprint_r>
 804d440:	103fa01e 	bne	r2,zero,804d2c4 <__alt_data_end+0xfffe5224>
 804d444:	d8c01c17 	ldw	r3,112(sp)
 804d448:	d8801b17 	ldw	r2,108(sp)
 804d44c:	d811883a 	mov	r8,sp
 804d450:	003f5206 	br	804d19c <__alt_data_end+0xfffe50fc>
 804d454:	d9402317 	ldw	r5,140(sp)
 804d458:	d9002717 	ldw	r4,156(sp)
 804d45c:	d9801a04 	addi	r6,sp,104
 804d460:	804c3f40 	call	804c3f4 <__ssprint_r>
 804d464:	103f971e 	bne	r2,zero,804d2c4 <__alt_data_end+0xfffe5224>
 804d468:	d8c01c17 	ldw	r3,112(sp)
 804d46c:	d8801b17 	ldw	r2,108(sp)
 804d470:	d811883a 	mov	r8,sp
 804d474:	003f0506 	br	804d08c <__alt_data_end+0xfffe4fec>
 804d478:	d9402317 	ldw	r5,140(sp)
 804d47c:	d9002717 	ldw	r4,156(sp)
 804d480:	d9801a04 	addi	r6,sp,104
 804d484:	804c3f40 	call	804c3f4 <__ssprint_r>
 804d488:	103f8e1e 	bne	r2,zero,804d2c4 <__alt_data_end+0xfffe5224>
 804d48c:	d8c01c17 	ldw	r3,112(sp)
 804d490:	d8801b17 	ldw	r2,108(sp)
 804d494:	d811883a 	mov	r8,sp
 804d498:	003f0906 	br	804d0c0 <__alt_data_end+0xfffe5020>
 804d49c:	d9402017 	ldw	r5,128(sp)
 804d4a0:	d8001d85 	stb	zero,118(sp)
 804d4a4:	28007716 	blt	r5,zero,804d684 <___svfiprintf_internal_r+0x10c0>
 804d4a8:	00ffdfc4 	movi	r3,-129
 804d4ac:	9504b03a 	or	r2,r18,r20
 804d4b0:	80e0703a 	and	r16,r16,r3
 804d4b4:	103d3926 	beq	r2,zero,804c99c <__alt_data_end+0xfffe48fc>
 804d4b8:	002b883a 	mov	r21,zero
 804d4bc:	003d3c06 	br	804c9b0 <__alt_data_end+0xfffe4910>
 804d4c0:	d9402317 	ldw	r5,140(sp)
 804d4c4:	d9002717 	ldw	r4,156(sp)
 804d4c8:	d9801a04 	addi	r6,sp,104
 804d4cc:	804c3f40 	call	804c3f4 <__ssprint_r>
 804d4d0:	103f7c1e 	bne	r2,zero,804d2c4 <__alt_data_end+0xfffe5224>
 804d4d4:	d8c01c17 	ldw	r3,112(sp)
 804d4d8:	d8801b17 	ldw	r2,108(sp)
 804d4dc:	d811883a 	mov	r8,sp
 804d4e0:	003edd06 	br	804d058 <__alt_data_end+0xfffe4fb8>
 804d4e4:	8080100c 	andi	r2,r16,64
 804d4e8:	d8001d85 	stb	zero,118(sp)
 804d4ec:	10008426 	beq	r2,zero,804d700 <___svfiprintf_internal_r+0x113c>
 804d4f0:	d9402417 	ldw	r5,144(sp)
 804d4f4:	d8c02017 	ldw	r3,128(sp)
 804d4f8:	0029883a 	mov	r20,zero
 804d4fc:	28800104 	addi	r2,r5,4
 804d500:	2c80000b 	ldhu	r18,0(r5)
 804d504:	183eab0e 	bge	r3,zero,804cfb4 <__alt_data_end+0xfffe4f14>
 804d508:	d8802415 	stw	r2,144(sp)
 804d50c:	002b883a 	mov	r21,zero
 804d510:	9504b03a 	or	r2,r18,r20
 804d514:	103e171e 	bne	r2,zero,804cd74 <__alt_data_end+0xfffe4cd4>
 804d518:	00800044 	movi	r2,1
 804d51c:	10803fcc 	andi	r2,r2,255
 804d520:	00c00044 	movi	r3,1
 804d524:	10c05c26 	beq	r2,r3,804d698 <___svfiprintf_internal_r+0x10d4>
 804d528:	00c00084 	movi	r3,2
 804d52c:	10fd1e26 	beq	r2,r3,804c9a8 <__alt_data_end+0xfffe4908>
 804d530:	003ec406 	br	804d044 <__alt_data_end+0xfffe4fa4>
 804d534:	d9401e17 	ldw	r5,120(sp)
 804d538:	2c69c83a 	sub	r20,r5,r17
 804d53c:	003d4506 	br	804ca54 <__alt_data_end+0xfffe49b4>
 804d540:	d8802415 	stw	r2,144(sp)
 804d544:	98c00007 	ldb	r3,0(r19)
 804d548:	003c6a06 	br	804c6f4 <__alt_data_end+0xfffe4654>
 804d54c:	d9402317 	ldw	r5,140(sp)
 804d550:	d9002717 	ldw	r4,156(sp)
 804d554:	d9801a04 	addi	r6,sp,104
 804d558:	804c3f40 	call	804c3f4 <__ssprint_r>
 804d55c:	103f591e 	bne	r2,zero,804d2c4 <__alt_data_end+0xfffe5224>
 804d560:	d8c01c17 	ldw	r3,112(sp)
 804d564:	003f4406 	br	804d278 <__alt_data_end+0xfffe51d8>
 804d568:	01420174 	movhi	r5,2053
 804d56c:	29516b04 	addi	r5,r5,17836
 804d570:	d9402915 	stw	r5,164(sp)
 804d574:	003d0906 	br	804c99c <__alt_data_end+0xfffe48fc>
 804d578:	d8c02417 	ldw	r3,144(sp)
 804d57c:	d9002617 	ldw	r4,152(sp)
 804d580:	d9402417 	ldw	r5,144(sp)
 804d584:	18800017 	ldw	r2,0(r3)
 804d588:	2007d7fa 	srai	r3,r4,31
 804d58c:	29400104 	addi	r5,r5,4
 804d590:	d9402415 	stw	r5,144(sp)
 804d594:	11000015 	stw	r4,0(r2)
 804d598:	10c00115 	stw	r3,4(r2)
 804d59c:	003c2b06 	br	804c64c <__alt_data_end+0xfffe45ac>
 804d5a0:	d8c01d45 	stb	r3,117(sp)
 804d5a4:	d8c02017 	ldw	r3,128(sp)
 804d5a8:	00800c04 	movi	r2,48
 804d5ac:	d8801d05 	stb	r2,116(sp)
 804d5b0:	d8001d85 	stb	zero,118(sp)
 804d5b4:	80800094 	ori	r2,r16,2
 804d5b8:	1800ac16 	blt	r3,zero,804d86c <___svfiprintf_internal_r+0x12a8>
 804d5bc:	00bfdfc4 	movi	r2,-129
 804d5c0:	80a0703a 	and	r16,r16,r2
 804d5c4:	84000094 	ori	r16,r16,2
 804d5c8:	002b883a 	mov	r21,zero
 804d5cc:	003cf806 	br	804c9b0 <__alt_data_end+0xfffe4910>
 804d5d0:	98c00007 	ldb	r3,0(r19)
 804d5d4:	003c4706 	br	804c6f4 <__alt_data_end+0xfffe4654>
 804d5d8:	d9402417 	ldw	r5,144(sp)
 804d5dc:	2c800017 	ldw	r18,0(r5)
 804d5e0:	29400104 	addi	r5,r5,4
 804d5e4:	d9402415 	stw	r5,144(sp)
 804d5e8:	9029d7fa 	srai	r20,r18,31
 804d5ec:	a005883a 	mov	r2,r20
 804d5f0:	003dd806 	br	804cd54 <__alt_data_end+0xfffe4cb4>
 804d5f4:	d9402417 	ldw	r5,144(sp)
 804d5f8:	0029883a 	mov	r20,zero
 804d5fc:	2c800017 	ldw	r18,0(r5)
 804d600:	29400104 	addi	r5,r5,4
 804d604:	d9402415 	stw	r5,144(sp)
 804d608:	003cdb06 	br	804c978 <__alt_data_end+0xfffe48d8>
 804d60c:	8080100c 	andi	r2,r16,64
 804d610:	d8001d85 	stb	zero,118(sp)
 804d614:	10003326 	beq	r2,zero,804d6e4 <___svfiprintf_internal_r+0x1120>
 804d618:	d9002417 	ldw	r4,144(sp)
 804d61c:	d9402017 	ldw	r5,128(sp)
 804d620:	0029883a 	mov	r20,zero
 804d624:	20800104 	addi	r2,r4,4
 804d628:	2480000b 	ldhu	r18,0(r4)
 804d62c:	283e7e0e 	bge	r5,zero,804d028 <__alt_data_end+0xfffe4f88>
 804d630:	9506b03a 	or	r3,r18,r20
 804d634:	d8802415 	stw	r2,144(sp)
 804d638:	183d271e 	bne	r3,zero,804cad8 <__alt_data_end+0xfffe4a38>
 804d63c:	002b883a 	mov	r21,zero
 804d640:	0005883a 	mov	r2,zero
 804d644:	003fb506 	br	804d51c <__alt_data_end+0xfffe547c>
 804d648:	98c00043 	ldbu	r3,1(r19)
 804d64c:	8c400814 	ori	r17,r17,32
 804d650:	9cc00044 	addi	r19,r19,1
 804d654:	18c03fcc 	andi	r3,r3,255
 804d658:	18c0201c 	xori	r3,r3,128
 804d65c:	18ffe004 	addi	r3,r3,-128
 804d660:	003c2406 	br	804c6f4 <__alt_data_end+0xfffe4654>
 804d664:	d8c02415 	stw	r3,144(sp)
 804d668:	002b883a 	mov	r21,zero
 804d66c:	003fa806 	br	804d510 <__alt_data_end+0xfffe5470>
 804d670:	01020174 	movhi	r4,2053
 804d674:	21116b04 	addi	r4,r4,17836
 804d678:	d9002915 	stw	r4,164(sp)
 804d67c:	d8c02415 	stw	r3,144(sp)
 804d680:	1021883a 	mov	r16,r2
 804d684:	9504b03a 	or	r2,r18,r20
 804d688:	103f8b1e 	bne	r2,zero,804d4b8 <__alt_data_end+0xfffe5418>
 804d68c:	002b883a 	mov	r21,zero
 804d690:	00800084 	movi	r2,2
 804d694:	003fa106 	br	804d51c <__alt_data_end+0xfffe547c>
 804d698:	0025883a 	mov	r18,zero
 804d69c:	94800c04 	addi	r18,r18,48
 804d6a0:	dc8019c5 	stb	r18,103(sp)
 804d6a4:	dd002c17 	ldw	r20,176(sp)
 804d6a8:	dc4019c4 	addi	r17,sp,103
 804d6ac:	003ce906 	br	804ca54 <__alt_data_end+0xfffe49b4>
 804d6b0:	d9402317 	ldw	r5,140(sp)
 804d6b4:	d9002717 	ldw	r4,156(sp)
 804d6b8:	d9801a04 	addi	r6,sp,104
 804d6bc:	804c3f40 	call	804c3f4 <__ssprint_r>
 804d6c0:	103f001e 	bne	r2,zero,804d2c4 <__alt_data_end+0xfffe5224>
 804d6c4:	d8c01c17 	ldw	r3,112(sp)
 804d6c8:	d8801b17 	ldw	r2,108(sp)
 804d6cc:	d811883a 	mov	r8,sp
 804d6d0:	003e7e06 	br	804d0cc <__alt_data_end+0xfffe502c>
 804d6d4:	01420174 	movhi	r5,2053
 804d6d8:	2951cc04 	addi	r5,r5,18224
 804d6dc:	d9402115 	stw	r5,132(sp)
 804d6e0:	003ea406 	br	804d174 <__alt_data_end+0xfffe50d4>
 804d6e4:	d8c02417 	ldw	r3,144(sp)
 804d6e8:	d9002017 	ldw	r4,128(sp)
 804d6ec:	0029883a 	mov	r20,zero
 804d6f0:	18800104 	addi	r2,r3,4
 804d6f4:	1c800017 	ldw	r18,0(r3)
 804d6f8:	203e4b0e 	bge	r4,zero,804d028 <__alt_data_end+0xfffe4f88>
 804d6fc:	003fcc06 	br	804d630 <__alt_data_end+0xfffe5590>
 804d700:	d9002417 	ldw	r4,144(sp)
 804d704:	d9402017 	ldw	r5,128(sp)
 804d708:	0029883a 	mov	r20,zero
 804d70c:	20800104 	addi	r2,r4,4
 804d710:	24800017 	ldw	r18,0(r4)
 804d714:	283e270e 	bge	r5,zero,804cfb4 <__alt_data_end+0xfffe4f14>
 804d718:	003f7b06 	br	804d508 <__alt_data_end+0xfffe5468>
 804d71c:	8400100c 	andi	r16,r16,64
 804d720:	80003326 	beq	r16,zero,804d7f0 <___svfiprintf_internal_r+0x122c>
 804d724:	d9402417 	ldw	r5,144(sp)
 804d728:	d8c02617 	ldw	r3,152(sp)
 804d72c:	28800017 	ldw	r2,0(r5)
 804d730:	29400104 	addi	r5,r5,4
 804d734:	d9402415 	stw	r5,144(sp)
 804d738:	10c0000d 	sth	r3,0(r2)
 804d73c:	003bc306 	br	804c64c <__alt_data_end+0xfffe45ac>
 804d740:	d9002417 	ldw	r4,144(sp)
 804d744:	0029883a 	mov	r20,zero
 804d748:	24800017 	ldw	r18,0(r4)
 804d74c:	21000104 	addi	r4,r4,4
 804d750:	d9002415 	stw	r4,144(sp)
 804d754:	003c8806 	br	804c978 <__alt_data_end+0xfffe48d8>
 804d758:	d8c02417 	ldw	r3,144(sp)
 804d75c:	1c800017 	ldw	r18,0(r3)
 804d760:	18c00104 	addi	r3,r3,4
 804d764:	d8c02415 	stw	r3,144(sp)
 804d768:	9029d7fa 	srai	r20,r18,31
 804d76c:	a005883a 	mov	r2,r20
 804d770:	003d7806 	br	804cd54 <__alt_data_end+0xfffe4cb4>
 804d774:	8809883a 	mov	r4,r17
 804d778:	da002d15 	stw	r8,180(sp)
 804d77c:	80459cc0 	call	80459cc <strlen>
 804d780:	1029883a 	mov	r20,r2
 804d784:	dd401d83 	ldbu	r21,118(sp)
 804d788:	ddc02415 	stw	r23,144(sp)
 804d78c:	d8002015 	stw	zero,128(sp)
 804d790:	da002d17 	ldw	r8,180(sp)
 804d794:	003caf06 	br	804ca54 <__alt_data_end+0xfffe49b4>
 804d798:	013fffc4 	movi	r4,-1
 804d79c:	003df206 	br	804cf68 <__alt_data_end+0xfffe4ec8>
 804d7a0:	dd002017 	ldw	r20,128(sp)
 804d7a4:	00800184 	movi	r2,6
 804d7a8:	1500012e 	bgeu	r2,r20,804d7b0 <___svfiprintf_internal_r+0x11ec>
 804d7ac:	1029883a 	mov	r20,r2
 804d7b0:	a025883a 	mov	r18,r20
 804d7b4:	a0004116 	blt	r20,zero,804d8bc <___svfiprintf_internal_r+0x12f8>
 804d7b8:	04420174 	movhi	r17,2053
 804d7bc:	ddc02415 	stw	r23,144(sp)
 804d7c0:	8c517004 	addi	r17,r17,17856
 804d7c4:	003ce806 	br	804cb68 <__alt_data_end+0xfffe4ac8>
 804d7c8:	04001004 	movi	r16,64
 804d7cc:	800b883a 	mov	r5,r16
 804d7d0:	804a0ac0 	call	804a0ac <_malloc_r>
 804d7d4:	d8c02317 	ldw	r3,140(sp)
 804d7d8:	18800015 	stw	r2,0(r3)
 804d7dc:	18800415 	stw	r2,16(r3)
 804d7e0:	10004d26 	beq	r2,zero,804d918 <___svfiprintf_internal_r+0x1354>
 804d7e4:	d9402317 	ldw	r5,140(sp)
 804d7e8:	2c000515 	stw	r16,20(r5)
 804d7ec:	003b8906 	br	804c614 <__alt_data_end+0xfffe4574>
 804d7f0:	d9002417 	ldw	r4,144(sp)
 804d7f4:	d9402617 	ldw	r5,152(sp)
 804d7f8:	20800017 	ldw	r2,0(r4)
 804d7fc:	21000104 	addi	r4,r4,4
 804d800:	d9002415 	stw	r4,144(sp)
 804d804:	11400015 	stw	r5,0(r2)
 804d808:	003b9006 	br	804c64c <__alt_data_end+0xfffe45ac>
 804d80c:	8080004c 	andi	r2,r16,1
 804d810:	002b883a 	mov	r21,zero
 804d814:	10000526 	beq	r2,zero,804d82c <___svfiprintf_internal_r+0x1268>
 804d818:	00800c04 	movi	r2,48
 804d81c:	d88019c5 	stb	r2,103(sp)
 804d820:	dd002c17 	ldw	r20,176(sp)
 804d824:	dc4019c4 	addi	r17,sp,103
 804d828:	003c8a06 	br	804ca54 <__alt_data_end+0xfffe49b4>
 804d82c:	0029883a 	mov	r20,zero
 804d830:	dc401a04 	addi	r17,sp,104
 804d834:	003c8706 	br	804ca54 <__alt_data_end+0xfffe49b4>
 804d838:	01420174 	movhi	r5,2053
 804d83c:	2951d004 	addi	r5,r5,18240
 804d840:	d9402815 	stw	r5,160(sp)
 804d844:	003cff06 	br	804cc44 <__alt_data_end+0xfffe4ba4>
 804d848:	00bfffc4 	movi	r2,-1
 804d84c:	003ea206 	br	804d2d8 <__alt_data_end+0xfffe5238>
 804d850:	00800044 	movi	r2,1
 804d854:	10803fcc 	andi	r2,r2,255
 804d858:	00c00044 	movi	r3,1
 804d85c:	10fd4526 	beq	r2,r3,804cd74 <__alt_data_end+0xfffe4cd4>
 804d860:	00c00084 	movi	r3,2
 804d864:	10fc5226 	beq	r2,r3,804c9b0 <__alt_data_end+0xfffe4910>
 804d868:	003c9c06 	br	804cadc <__alt_data_end+0xfffe4a3c>
 804d86c:	1021883a 	mov	r16,r2
 804d870:	002b883a 	mov	r21,zero
 804d874:	00800084 	movi	r2,2
 804d878:	003ff606 	br	804d854 <__alt_data_end+0xfffe57b4>
 804d87c:	01020174 	movhi	r4,2053
 804d880:	2111d004 	addi	r4,r4,18240
 804d884:	d9002815 	stw	r4,160(sp)
 804d888:	003e7206 	br	804d254 <__alt_data_end+0xfffe51b4>
 804d88c:	01420174 	movhi	r5,2053
 804d890:	2951cc04 	addi	r5,r5,18224
 804d894:	d9402115 	stw	r5,132(sp)
 804d898:	003ec506 	br	804d3b0 <__alt_data_end+0xfffe5310>
 804d89c:	e027883a 	mov	r19,fp
 804d8a0:	d8002015 	stw	zero,128(sp)
 804d8a4:	003b9406 	br	804c6f8 <__alt_data_end+0xfffe4658>
 804d8a8:	dd002017 	ldw	r20,128(sp)
 804d8ac:	dd401d83 	ldbu	r21,118(sp)
 804d8b0:	ddc02415 	stw	r23,144(sp)
 804d8b4:	d8002015 	stw	zero,128(sp)
 804d8b8:	003c6606 	br	804ca54 <__alt_data_end+0xfffe49b4>
 804d8bc:	0025883a 	mov	r18,zero
 804d8c0:	003fbd06 	br	804d7b8 <__alt_data_end+0xfffe5718>
 804d8c4:	d9402417 	ldw	r5,144(sp)
 804d8c8:	d8c02417 	ldw	r3,144(sp)
 804d8cc:	29400017 	ldw	r5,0(r5)
 804d8d0:	19000104 	addi	r4,r3,4
 804d8d4:	d9002415 	stw	r4,144(sp)
 804d8d8:	d9402015 	stw	r5,128(sp)
 804d8dc:	98c00043 	ldbu	r3,1(r19)
 804d8e0:	e027883a 	mov	r19,fp
 804d8e4:	283f5b0e 	bge	r5,zero,804d654 <__alt_data_end+0xfffe55b4>
 804d8e8:	18c03fcc 	andi	r3,r3,255
 804d8ec:	013fffc4 	movi	r4,-1
 804d8f0:	18c0201c 	xori	r3,r3,128
 804d8f4:	d9002015 	stw	r4,128(sp)
 804d8f8:	18ffe004 	addi	r3,r3,-128
 804d8fc:	003b7d06 	br	804c6f4 <__alt_data_end+0xfffe4654>
 804d900:	dd401d85 	stb	r21,118(sp)
 804d904:	003cf306 	br	804ccd4 <__alt_data_end+0xfffe4c34>
 804d908:	dd401d85 	stb	r21,118(sp)
 804d90c:	003d4e06 	br	804ce48 <__alt_data_end+0xfffe4da8>
 804d910:	dd401d85 	stb	r21,118(sp)
 804d914:	003c0e06 	br	804c950 <__alt_data_end+0xfffe48b0>
 804d918:	d9002717 	ldw	r4,156(sp)
 804d91c:	00800304 	movi	r2,12
 804d920:	20800015 	stw	r2,0(r4)
 804d924:	00bfffc4 	movi	r2,-1
 804d928:	003e6b06 	br	804d2d8 <__alt_data_end+0xfffe5238>
 804d92c:	dd401d85 	stb	r21,118(sp)
 804d930:	003d0006 	br	804cd34 <__alt_data_end+0xfffe4c94>
 804d934:	dd401d85 	stb	r21,118(sp)
 804d938:	003d7106 	br	804cf00 <__alt_data_end+0xfffe4e60>
 804d93c:	dd401d85 	stb	r21,118(sp)
 804d940:	003c5706 	br	804caa0 <__alt_data_end+0xfffe4a00>
 804d944:	dd401d85 	stb	r21,118(sp)
 804d948:	003c2e06 	br	804ca04 <__alt_data_end+0xfffe4964>
 804d94c:	dd401d85 	stb	r21,118(sp)
 804d950:	003d8c06 	br	804cf84 <__alt_data_end+0xfffe4ee4>
 804d954:	dd401d85 	stb	r21,118(sp)
 804d958:	003da706 	br	804cff8 <__alt_data_end+0xfffe4f58>
 804d95c:	dd401d85 	stb	r21,118(sp)
 804d960:	003cc806 	br	804cc84 <__alt_data_end+0xfffe4be4>

0804d964 <_write_r>:
 804d964:	defffd04 	addi	sp,sp,-12
 804d968:	2805883a 	mov	r2,r5
 804d96c:	dc000015 	stw	r16,0(sp)
 804d970:	04020174 	movhi	r16,2053
 804d974:	dc400115 	stw	r17,4(sp)
 804d978:	300b883a 	mov	r5,r6
 804d97c:	841ff904 	addi	r16,r16,32740
 804d980:	2023883a 	mov	r17,r4
 804d984:	380d883a 	mov	r6,r7
 804d988:	1009883a 	mov	r4,r2
 804d98c:	dfc00215 	stw	ra,8(sp)
 804d990:	80000015 	stw	zero,0(r16)
 804d994:	8050d0c0 	call	8050d0c <write>
 804d998:	00ffffc4 	movi	r3,-1
 804d99c:	10c00526 	beq	r2,r3,804d9b4 <_write_r+0x50>
 804d9a0:	dfc00217 	ldw	ra,8(sp)
 804d9a4:	dc400117 	ldw	r17,4(sp)
 804d9a8:	dc000017 	ldw	r16,0(sp)
 804d9ac:	dec00304 	addi	sp,sp,12
 804d9b0:	f800283a 	ret
 804d9b4:	80c00017 	ldw	r3,0(r16)
 804d9b8:	183ff926 	beq	r3,zero,804d9a0 <__alt_data_end+0xfffe5900>
 804d9bc:	88c00015 	stw	r3,0(r17)
 804d9c0:	003ff706 	br	804d9a0 <__alt_data_end+0xfffe5900>

0804d9c4 <__swsetup_r>:
 804d9c4:	00820174 	movhi	r2,2053
 804d9c8:	defffd04 	addi	sp,sp,-12
 804d9cc:	1098ed04 	addi	r2,r2,25524
 804d9d0:	dc400115 	stw	r17,4(sp)
 804d9d4:	2023883a 	mov	r17,r4
 804d9d8:	11000017 	ldw	r4,0(r2)
 804d9dc:	dc000015 	stw	r16,0(sp)
 804d9e0:	dfc00215 	stw	ra,8(sp)
 804d9e4:	2821883a 	mov	r16,r5
 804d9e8:	20000226 	beq	r4,zero,804d9f4 <__swsetup_r+0x30>
 804d9ec:	20800e17 	ldw	r2,56(r4)
 804d9f0:	10003126 	beq	r2,zero,804dab8 <__swsetup_r+0xf4>
 804d9f4:	8080030b 	ldhu	r2,12(r16)
 804d9f8:	10c0020c 	andi	r3,r2,8
 804d9fc:	1009883a 	mov	r4,r2
 804da00:	18000f26 	beq	r3,zero,804da40 <__swsetup_r+0x7c>
 804da04:	80c00417 	ldw	r3,16(r16)
 804da08:	18001526 	beq	r3,zero,804da60 <__swsetup_r+0x9c>
 804da0c:	1100004c 	andi	r4,r2,1
 804da10:	20001c1e 	bne	r4,zero,804da84 <__swsetup_r+0xc0>
 804da14:	1080008c 	andi	r2,r2,2
 804da18:	1000291e 	bne	r2,zero,804dac0 <__swsetup_r+0xfc>
 804da1c:	80800517 	ldw	r2,20(r16)
 804da20:	80800215 	stw	r2,8(r16)
 804da24:	18001c26 	beq	r3,zero,804da98 <__swsetup_r+0xd4>
 804da28:	0005883a 	mov	r2,zero
 804da2c:	dfc00217 	ldw	ra,8(sp)
 804da30:	dc400117 	ldw	r17,4(sp)
 804da34:	dc000017 	ldw	r16,0(sp)
 804da38:	dec00304 	addi	sp,sp,12
 804da3c:	f800283a 	ret
 804da40:	2080040c 	andi	r2,r4,16
 804da44:	10002e26 	beq	r2,zero,804db00 <__swsetup_r+0x13c>
 804da48:	2080010c 	andi	r2,r4,4
 804da4c:	10001e1e 	bne	r2,zero,804dac8 <__swsetup_r+0x104>
 804da50:	80c00417 	ldw	r3,16(r16)
 804da54:	20800214 	ori	r2,r4,8
 804da58:	8080030d 	sth	r2,12(r16)
 804da5c:	183feb1e 	bne	r3,zero,804da0c <__alt_data_end+0xfffe596c>
 804da60:	1100a00c 	andi	r4,r2,640
 804da64:	01408004 	movi	r5,512
 804da68:	217fe826 	beq	r4,r5,804da0c <__alt_data_end+0xfffe596c>
 804da6c:	800b883a 	mov	r5,r16
 804da70:	8809883a 	mov	r4,r17
 804da74:	804e4880 	call	804e488 <__smakebuf_r>
 804da78:	8080030b 	ldhu	r2,12(r16)
 804da7c:	80c00417 	ldw	r3,16(r16)
 804da80:	003fe206 	br	804da0c <__alt_data_end+0xfffe596c>
 804da84:	80800517 	ldw	r2,20(r16)
 804da88:	80000215 	stw	zero,8(r16)
 804da8c:	0085c83a 	sub	r2,zero,r2
 804da90:	80800615 	stw	r2,24(r16)
 804da94:	183fe41e 	bne	r3,zero,804da28 <__alt_data_end+0xfffe5988>
 804da98:	80c0030b 	ldhu	r3,12(r16)
 804da9c:	0005883a 	mov	r2,zero
 804daa0:	1900200c 	andi	r4,r3,128
 804daa4:	203fe126 	beq	r4,zero,804da2c <__alt_data_end+0xfffe598c>
 804daa8:	18c01014 	ori	r3,r3,64
 804daac:	80c0030d 	sth	r3,12(r16)
 804dab0:	00bfffc4 	movi	r2,-1
 804dab4:	003fdd06 	br	804da2c <__alt_data_end+0xfffe598c>
 804dab8:	80499300 	call	8049930 <__sinit>
 804dabc:	003fcd06 	br	804d9f4 <__alt_data_end+0xfffe5954>
 804dac0:	0005883a 	mov	r2,zero
 804dac4:	003fd606 	br	804da20 <__alt_data_end+0xfffe5980>
 804dac8:	81400c17 	ldw	r5,48(r16)
 804dacc:	28000626 	beq	r5,zero,804dae8 <__swsetup_r+0x124>
 804dad0:	80801004 	addi	r2,r16,64
 804dad4:	28800326 	beq	r5,r2,804dae4 <__swsetup_r+0x120>
 804dad8:	8809883a 	mov	r4,r17
 804dadc:	804e1180 	call	804e118 <_free_r>
 804dae0:	8100030b 	ldhu	r4,12(r16)
 804dae4:	80000c15 	stw	zero,48(r16)
 804dae8:	80c00417 	ldw	r3,16(r16)
 804daec:	00bff6c4 	movi	r2,-37
 804daf0:	1108703a 	and	r4,r2,r4
 804daf4:	80000115 	stw	zero,4(r16)
 804daf8:	80c00015 	stw	r3,0(r16)
 804dafc:	003fd506 	br	804da54 <__alt_data_end+0xfffe59b4>
 804db00:	00800244 	movi	r2,9
 804db04:	88800015 	stw	r2,0(r17)
 804db08:	20801014 	ori	r2,r4,64
 804db0c:	8080030d 	sth	r2,12(r16)
 804db10:	00bfffc4 	movi	r2,-1
 804db14:	003fc506 	br	804da2c <__alt_data_end+0xfffe598c>

0804db18 <_close_r>:
 804db18:	defffd04 	addi	sp,sp,-12
 804db1c:	dc000015 	stw	r16,0(sp)
 804db20:	04020174 	movhi	r16,2053
 804db24:	dc400115 	stw	r17,4(sp)
 804db28:	841ff904 	addi	r16,r16,32740
 804db2c:	2023883a 	mov	r17,r4
 804db30:	2809883a 	mov	r4,r5
 804db34:	dfc00215 	stw	ra,8(sp)
 804db38:	80000015 	stw	zero,0(r16)
 804db3c:	80500400 	call	8050040 <close>
 804db40:	00ffffc4 	movi	r3,-1
 804db44:	10c00526 	beq	r2,r3,804db5c <_close_r+0x44>
 804db48:	dfc00217 	ldw	ra,8(sp)
 804db4c:	dc400117 	ldw	r17,4(sp)
 804db50:	dc000017 	ldw	r16,0(sp)
 804db54:	dec00304 	addi	sp,sp,12
 804db58:	f800283a 	ret
 804db5c:	80c00017 	ldw	r3,0(r16)
 804db60:	183ff926 	beq	r3,zero,804db48 <__alt_data_end+0xfffe5aa8>
 804db64:	88c00015 	stw	r3,0(r17)
 804db68:	003ff706 	br	804db48 <__alt_data_end+0xfffe5aa8>

0804db6c <_calloc_r>:
 804db6c:	defffe04 	addi	sp,sp,-8
 804db70:	2805883a 	mov	r2,r5
 804db74:	dc000015 	stw	r16,0(sp)
 804db78:	300b883a 	mov	r5,r6
 804db7c:	2021883a 	mov	r16,r4
 804db80:	1009883a 	mov	r4,r2
 804db84:	dfc00115 	stw	ra,4(sp)
 804db88:	8042dac0 	call	8042dac <__mulsi3>
 804db8c:	100b883a 	mov	r5,r2
 804db90:	8009883a 	mov	r4,r16
 804db94:	804a0ac0 	call	804a0ac <_malloc_r>
 804db98:	10002926 	beq	r2,zero,804dc40 <_calloc_r+0xd4>
 804db9c:	11bfff17 	ldw	r6,-4(r2)
 804dba0:	1021883a 	mov	r16,r2
 804dba4:	00bfff04 	movi	r2,-4
 804dba8:	308c703a 	and	r6,r6,r2
 804dbac:	00c00904 	movi	r3,36
 804dbb0:	308d883a 	add	r6,r6,r2
 804dbb4:	19801636 	bltu	r3,r6,804dc10 <_calloc_r+0xa4>
 804dbb8:	008004c4 	movi	r2,19
 804dbbc:	11800b2e 	bgeu	r2,r6,804dbec <_calloc_r+0x80>
 804dbc0:	80000015 	stw	zero,0(r16)
 804dbc4:	80000115 	stw	zero,4(r16)
 804dbc8:	008006c4 	movi	r2,27
 804dbcc:	11801a2e 	bgeu	r2,r6,804dc38 <_calloc_r+0xcc>
 804dbd0:	80000215 	stw	zero,8(r16)
 804dbd4:	80000315 	stw	zero,12(r16)
 804dbd8:	30c0151e 	bne	r6,r3,804dc30 <_calloc_r+0xc4>
 804dbdc:	80000415 	stw	zero,16(r16)
 804dbe0:	80800604 	addi	r2,r16,24
 804dbe4:	80000515 	stw	zero,20(r16)
 804dbe8:	00000106 	br	804dbf0 <_calloc_r+0x84>
 804dbec:	8005883a 	mov	r2,r16
 804dbf0:	10000015 	stw	zero,0(r2)
 804dbf4:	10000115 	stw	zero,4(r2)
 804dbf8:	10000215 	stw	zero,8(r2)
 804dbfc:	8005883a 	mov	r2,r16
 804dc00:	dfc00117 	ldw	ra,4(sp)
 804dc04:	dc000017 	ldw	r16,0(sp)
 804dc08:	dec00204 	addi	sp,sp,8
 804dc0c:	f800283a 	ret
 804dc10:	000b883a 	mov	r5,zero
 804dc14:	8009883a 	mov	r4,r16
 804dc18:	80456900 	call	8045690 <memset>
 804dc1c:	8005883a 	mov	r2,r16
 804dc20:	dfc00117 	ldw	ra,4(sp)
 804dc24:	dc000017 	ldw	r16,0(sp)
 804dc28:	dec00204 	addi	sp,sp,8
 804dc2c:	f800283a 	ret
 804dc30:	80800404 	addi	r2,r16,16
 804dc34:	003fee06 	br	804dbf0 <__alt_data_end+0xfffe5b50>
 804dc38:	80800204 	addi	r2,r16,8
 804dc3c:	003fec06 	br	804dbf0 <__alt_data_end+0xfffe5b50>
 804dc40:	0005883a 	mov	r2,zero
 804dc44:	003fee06 	br	804dc00 <__alt_data_end+0xfffe5b60>

0804dc48 <_fclose_r>:
 804dc48:	28003926 	beq	r5,zero,804dd30 <_fclose_r+0xe8>
 804dc4c:	defffc04 	addi	sp,sp,-16
 804dc50:	dc400115 	stw	r17,4(sp)
 804dc54:	dc000015 	stw	r16,0(sp)
 804dc58:	dfc00315 	stw	ra,12(sp)
 804dc5c:	dc800215 	stw	r18,8(sp)
 804dc60:	2023883a 	mov	r17,r4
 804dc64:	2821883a 	mov	r16,r5
 804dc68:	20000226 	beq	r4,zero,804dc74 <_fclose_r+0x2c>
 804dc6c:	20800e17 	ldw	r2,56(r4)
 804dc70:	10002726 	beq	r2,zero,804dd10 <_fclose_r+0xc8>
 804dc74:	8080030f 	ldh	r2,12(r16)
 804dc78:	1000071e 	bne	r2,zero,804dc98 <_fclose_r+0x50>
 804dc7c:	0005883a 	mov	r2,zero
 804dc80:	dfc00317 	ldw	ra,12(sp)
 804dc84:	dc800217 	ldw	r18,8(sp)
 804dc88:	dc400117 	ldw	r17,4(sp)
 804dc8c:	dc000017 	ldw	r16,0(sp)
 804dc90:	dec00404 	addi	sp,sp,16
 804dc94:	f800283a 	ret
 804dc98:	800b883a 	mov	r5,r16
 804dc9c:	8809883a 	mov	r4,r17
 804dca0:	804dd4c0 	call	804dd4c <__sflush_r>
 804dca4:	1025883a 	mov	r18,r2
 804dca8:	80800b17 	ldw	r2,44(r16)
 804dcac:	10000426 	beq	r2,zero,804dcc0 <_fclose_r+0x78>
 804dcb0:	81400717 	ldw	r5,28(r16)
 804dcb4:	8809883a 	mov	r4,r17
 804dcb8:	103ee83a 	callr	r2
 804dcbc:	10001616 	blt	r2,zero,804dd18 <_fclose_r+0xd0>
 804dcc0:	8080030b 	ldhu	r2,12(r16)
 804dcc4:	1080200c 	andi	r2,r2,128
 804dcc8:	1000151e 	bne	r2,zero,804dd20 <_fclose_r+0xd8>
 804dccc:	81400c17 	ldw	r5,48(r16)
 804dcd0:	28000526 	beq	r5,zero,804dce8 <_fclose_r+0xa0>
 804dcd4:	80801004 	addi	r2,r16,64
 804dcd8:	28800226 	beq	r5,r2,804dce4 <_fclose_r+0x9c>
 804dcdc:	8809883a 	mov	r4,r17
 804dce0:	804e1180 	call	804e118 <_free_r>
 804dce4:	80000c15 	stw	zero,48(r16)
 804dce8:	81401117 	ldw	r5,68(r16)
 804dcec:	28000326 	beq	r5,zero,804dcfc <_fclose_r+0xb4>
 804dcf0:	8809883a 	mov	r4,r17
 804dcf4:	804e1180 	call	804e118 <_free_r>
 804dcf8:	80001115 	stw	zero,68(r16)
 804dcfc:	80499400 	call	8049940 <__sfp_lock_acquire>
 804dd00:	8000030d 	sth	zero,12(r16)
 804dd04:	80499440 	call	8049944 <__sfp_lock_release>
 804dd08:	9005883a 	mov	r2,r18
 804dd0c:	003fdc06 	br	804dc80 <__alt_data_end+0xfffe5be0>
 804dd10:	80499300 	call	8049930 <__sinit>
 804dd14:	003fd706 	br	804dc74 <__alt_data_end+0xfffe5bd4>
 804dd18:	04bfffc4 	movi	r18,-1
 804dd1c:	003fe806 	br	804dcc0 <__alt_data_end+0xfffe5c20>
 804dd20:	81400417 	ldw	r5,16(r16)
 804dd24:	8809883a 	mov	r4,r17
 804dd28:	804e1180 	call	804e118 <_free_r>
 804dd2c:	003fe706 	br	804dccc <__alt_data_end+0xfffe5c2c>
 804dd30:	0005883a 	mov	r2,zero
 804dd34:	f800283a 	ret

0804dd38 <fclose>:
 804dd38:	00820174 	movhi	r2,2053
 804dd3c:	1098ed04 	addi	r2,r2,25524
 804dd40:	200b883a 	mov	r5,r4
 804dd44:	11000017 	ldw	r4,0(r2)
 804dd48:	804dc481 	jmpi	804dc48 <_fclose_r>

0804dd4c <__sflush_r>:
 804dd4c:	2880030b 	ldhu	r2,12(r5)
 804dd50:	defffb04 	addi	sp,sp,-20
 804dd54:	dcc00315 	stw	r19,12(sp)
 804dd58:	dc400115 	stw	r17,4(sp)
 804dd5c:	dfc00415 	stw	ra,16(sp)
 804dd60:	dc800215 	stw	r18,8(sp)
 804dd64:	dc000015 	stw	r16,0(sp)
 804dd68:	10c0020c 	andi	r3,r2,8
 804dd6c:	2823883a 	mov	r17,r5
 804dd70:	2027883a 	mov	r19,r4
 804dd74:	1800311e 	bne	r3,zero,804de3c <__sflush_r+0xf0>
 804dd78:	28c00117 	ldw	r3,4(r5)
 804dd7c:	10820014 	ori	r2,r2,2048
 804dd80:	2880030d 	sth	r2,12(r5)
 804dd84:	00c04b0e 	bge	zero,r3,804deb4 <__sflush_r+0x168>
 804dd88:	8a000a17 	ldw	r8,40(r17)
 804dd8c:	40002326 	beq	r8,zero,804de1c <__sflush_r+0xd0>
 804dd90:	9c000017 	ldw	r16,0(r19)
 804dd94:	10c4000c 	andi	r3,r2,4096
 804dd98:	98000015 	stw	zero,0(r19)
 804dd9c:	18004826 	beq	r3,zero,804dec0 <__sflush_r+0x174>
 804dda0:	89801417 	ldw	r6,80(r17)
 804dda4:	10c0010c 	andi	r3,r2,4
 804dda8:	18000626 	beq	r3,zero,804ddc4 <__sflush_r+0x78>
 804ddac:	88c00117 	ldw	r3,4(r17)
 804ddb0:	88800c17 	ldw	r2,48(r17)
 804ddb4:	30cdc83a 	sub	r6,r6,r3
 804ddb8:	10000226 	beq	r2,zero,804ddc4 <__sflush_r+0x78>
 804ddbc:	88800f17 	ldw	r2,60(r17)
 804ddc0:	308dc83a 	sub	r6,r6,r2
 804ddc4:	89400717 	ldw	r5,28(r17)
 804ddc8:	000f883a 	mov	r7,zero
 804ddcc:	9809883a 	mov	r4,r19
 804ddd0:	403ee83a 	callr	r8
 804ddd4:	00ffffc4 	movi	r3,-1
 804ddd8:	10c04426 	beq	r2,r3,804deec <__sflush_r+0x1a0>
 804dddc:	88c0030b 	ldhu	r3,12(r17)
 804dde0:	89000417 	ldw	r4,16(r17)
 804dde4:	88000115 	stw	zero,4(r17)
 804dde8:	197dffcc 	andi	r5,r3,63487
 804ddec:	8940030d 	sth	r5,12(r17)
 804ddf0:	89000015 	stw	r4,0(r17)
 804ddf4:	18c4000c 	andi	r3,r3,4096
 804ddf8:	18002c1e 	bne	r3,zero,804deac <__sflush_r+0x160>
 804ddfc:	89400c17 	ldw	r5,48(r17)
 804de00:	9c000015 	stw	r16,0(r19)
 804de04:	28000526 	beq	r5,zero,804de1c <__sflush_r+0xd0>
 804de08:	88801004 	addi	r2,r17,64
 804de0c:	28800226 	beq	r5,r2,804de18 <__sflush_r+0xcc>
 804de10:	9809883a 	mov	r4,r19
 804de14:	804e1180 	call	804e118 <_free_r>
 804de18:	88000c15 	stw	zero,48(r17)
 804de1c:	0005883a 	mov	r2,zero
 804de20:	dfc00417 	ldw	ra,16(sp)
 804de24:	dcc00317 	ldw	r19,12(sp)
 804de28:	dc800217 	ldw	r18,8(sp)
 804de2c:	dc400117 	ldw	r17,4(sp)
 804de30:	dc000017 	ldw	r16,0(sp)
 804de34:	dec00504 	addi	sp,sp,20
 804de38:	f800283a 	ret
 804de3c:	2c800417 	ldw	r18,16(r5)
 804de40:	903ff626 	beq	r18,zero,804de1c <__alt_data_end+0xfffe5d7c>
 804de44:	2c000017 	ldw	r16,0(r5)
 804de48:	108000cc 	andi	r2,r2,3
 804de4c:	2c800015 	stw	r18,0(r5)
 804de50:	84a1c83a 	sub	r16,r16,r18
 804de54:	1000131e 	bne	r2,zero,804dea4 <__sflush_r+0x158>
 804de58:	28800517 	ldw	r2,20(r5)
 804de5c:	88800215 	stw	r2,8(r17)
 804de60:	04000316 	blt	zero,r16,804de70 <__sflush_r+0x124>
 804de64:	003fed06 	br	804de1c <__alt_data_end+0xfffe5d7c>
 804de68:	90a5883a 	add	r18,r18,r2
 804de6c:	043feb0e 	bge	zero,r16,804de1c <__alt_data_end+0xfffe5d7c>
 804de70:	88800917 	ldw	r2,36(r17)
 804de74:	89400717 	ldw	r5,28(r17)
 804de78:	800f883a 	mov	r7,r16
 804de7c:	900d883a 	mov	r6,r18
 804de80:	9809883a 	mov	r4,r19
 804de84:	103ee83a 	callr	r2
 804de88:	80a1c83a 	sub	r16,r16,r2
 804de8c:	00bff616 	blt	zero,r2,804de68 <__alt_data_end+0xfffe5dc8>
 804de90:	88c0030b 	ldhu	r3,12(r17)
 804de94:	00bfffc4 	movi	r2,-1
 804de98:	18c01014 	ori	r3,r3,64
 804de9c:	88c0030d 	sth	r3,12(r17)
 804dea0:	003fdf06 	br	804de20 <__alt_data_end+0xfffe5d80>
 804dea4:	0005883a 	mov	r2,zero
 804dea8:	003fec06 	br	804de5c <__alt_data_end+0xfffe5dbc>
 804deac:	88801415 	stw	r2,80(r17)
 804deb0:	003fd206 	br	804ddfc <__alt_data_end+0xfffe5d5c>
 804deb4:	28c00f17 	ldw	r3,60(r5)
 804deb8:	00ffb316 	blt	zero,r3,804dd88 <__alt_data_end+0xfffe5ce8>
 804debc:	003fd706 	br	804de1c <__alt_data_end+0xfffe5d7c>
 804dec0:	89400717 	ldw	r5,28(r17)
 804dec4:	000d883a 	mov	r6,zero
 804dec8:	01c00044 	movi	r7,1
 804decc:	9809883a 	mov	r4,r19
 804ded0:	403ee83a 	callr	r8
 804ded4:	100d883a 	mov	r6,r2
 804ded8:	00bfffc4 	movi	r2,-1
 804dedc:	30801426 	beq	r6,r2,804df30 <__sflush_r+0x1e4>
 804dee0:	8880030b 	ldhu	r2,12(r17)
 804dee4:	8a000a17 	ldw	r8,40(r17)
 804dee8:	003fae06 	br	804dda4 <__alt_data_end+0xfffe5d04>
 804deec:	98c00017 	ldw	r3,0(r19)
 804def0:	183fba26 	beq	r3,zero,804dddc <__alt_data_end+0xfffe5d3c>
 804def4:	01000744 	movi	r4,29
 804def8:	19000626 	beq	r3,r4,804df14 <__sflush_r+0x1c8>
 804defc:	01000584 	movi	r4,22
 804df00:	19000426 	beq	r3,r4,804df14 <__sflush_r+0x1c8>
 804df04:	88c0030b 	ldhu	r3,12(r17)
 804df08:	18c01014 	ori	r3,r3,64
 804df0c:	88c0030d 	sth	r3,12(r17)
 804df10:	003fc306 	br	804de20 <__alt_data_end+0xfffe5d80>
 804df14:	8880030b 	ldhu	r2,12(r17)
 804df18:	88c00417 	ldw	r3,16(r17)
 804df1c:	88000115 	stw	zero,4(r17)
 804df20:	10bdffcc 	andi	r2,r2,63487
 804df24:	8880030d 	sth	r2,12(r17)
 804df28:	88c00015 	stw	r3,0(r17)
 804df2c:	003fb306 	br	804ddfc <__alt_data_end+0xfffe5d5c>
 804df30:	98800017 	ldw	r2,0(r19)
 804df34:	103fea26 	beq	r2,zero,804dee0 <__alt_data_end+0xfffe5e40>
 804df38:	00c00744 	movi	r3,29
 804df3c:	10c00226 	beq	r2,r3,804df48 <__sflush_r+0x1fc>
 804df40:	00c00584 	movi	r3,22
 804df44:	10c0031e 	bne	r2,r3,804df54 <__sflush_r+0x208>
 804df48:	9c000015 	stw	r16,0(r19)
 804df4c:	0005883a 	mov	r2,zero
 804df50:	003fb306 	br	804de20 <__alt_data_end+0xfffe5d80>
 804df54:	88c0030b 	ldhu	r3,12(r17)
 804df58:	3005883a 	mov	r2,r6
 804df5c:	18c01014 	ori	r3,r3,64
 804df60:	88c0030d 	sth	r3,12(r17)
 804df64:	003fae06 	br	804de20 <__alt_data_end+0xfffe5d80>

0804df68 <_fflush_r>:
 804df68:	defffd04 	addi	sp,sp,-12
 804df6c:	dc000115 	stw	r16,4(sp)
 804df70:	dfc00215 	stw	ra,8(sp)
 804df74:	2021883a 	mov	r16,r4
 804df78:	20000226 	beq	r4,zero,804df84 <_fflush_r+0x1c>
 804df7c:	20800e17 	ldw	r2,56(r4)
 804df80:	10000c26 	beq	r2,zero,804dfb4 <_fflush_r+0x4c>
 804df84:	2880030f 	ldh	r2,12(r5)
 804df88:	1000051e 	bne	r2,zero,804dfa0 <_fflush_r+0x38>
 804df8c:	0005883a 	mov	r2,zero
 804df90:	dfc00217 	ldw	ra,8(sp)
 804df94:	dc000117 	ldw	r16,4(sp)
 804df98:	dec00304 	addi	sp,sp,12
 804df9c:	f800283a 	ret
 804dfa0:	8009883a 	mov	r4,r16
 804dfa4:	dfc00217 	ldw	ra,8(sp)
 804dfa8:	dc000117 	ldw	r16,4(sp)
 804dfac:	dec00304 	addi	sp,sp,12
 804dfb0:	804dd4c1 	jmpi	804dd4c <__sflush_r>
 804dfb4:	d9400015 	stw	r5,0(sp)
 804dfb8:	80499300 	call	8049930 <__sinit>
 804dfbc:	d9400017 	ldw	r5,0(sp)
 804dfc0:	003ff006 	br	804df84 <__alt_data_end+0xfffe5ee4>

0804dfc4 <fflush>:
 804dfc4:	20000526 	beq	r4,zero,804dfdc <fflush+0x18>
 804dfc8:	00820174 	movhi	r2,2053
 804dfcc:	1098ed04 	addi	r2,r2,25524
 804dfd0:	200b883a 	mov	r5,r4
 804dfd4:	11000017 	ldw	r4,0(r2)
 804dfd8:	804df681 	jmpi	804df68 <_fflush_r>
 804dfdc:	00820174 	movhi	r2,2053
 804dfe0:	1098ec04 	addi	r2,r2,25520
 804dfe4:	11000017 	ldw	r4,0(r2)
 804dfe8:	01420174 	movhi	r5,2053
 804dfec:	2977da04 	addi	r5,r5,-8344
 804dff0:	8049f0c1 	jmpi	8049f0c <_fwalk_reent>

0804dff4 <_malloc_trim_r>:
 804dff4:	defffb04 	addi	sp,sp,-20
 804dff8:	dcc00315 	stw	r19,12(sp)
 804dffc:	04c20174 	movhi	r19,2053
 804e000:	dc800215 	stw	r18,8(sp)
 804e004:	dc400115 	stw	r17,4(sp)
 804e008:	dc000015 	stw	r16,0(sp)
 804e00c:	dfc00415 	stw	ra,16(sp)
 804e010:	2821883a 	mov	r16,r5
 804e014:	9cd33004 	addi	r19,r19,19648
 804e018:	2025883a 	mov	r18,r4
 804e01c:	80508400 	call	8050840 <__malloc_lock>
 804e020:	98800217 	ldw	r2,8(r19)
 804e024:	14400117 	ldw	r17,4(r2)
 804e028:	00bfff04 	movi	r2,-4
 804e02c:	88a2703a 	and	r17,r17,r2
 804e030:	8c21c83a 	sub	r16,r17,r16
 804e034:	8403fbc4 	addi	r16,r16,4079
 804e038:	8020d33a 	srli	r16,r16,12
 804e03c:	0083ffc4 	movi	r2,4095
 804e040:	843fffc4 	addi	r16,r16,-1
 804e044:	8020933a 	slli	r16,r16,12
 804e048:	1400060e 	bge	r2,r16,804e064 <_malloc_trim_r+0x70>
 804e04c:	000b883a 	mov	r5,zero
 804e050:	9009883a 	mov	r4,r18
 804e054:	804c1880 	call	804c188 <_sbrk_r>
 804e058:	98c00217 	ldw	r3,8(r19)
 804e05c:	1c47883a 	add	r3,r3,r17
 804e060:	10c00a26 	beq	r2,r3,804e08c <_malloc_trim_r+0x98>
 804e064:	9009883a 	mov	r4,r18
 804e068:	80508640 	call	8050864 <__malloc_unlock>
 804e06c:	0005883a 	mov	r2,zero
 804e070:	dfc00417 	ldw	ra,16(sp)
 804e074:	dcc00317 	ldw	r19,12(sp)
 804e078:	dc800217 	ldw	r18,8(sp)
 804e07c:	dc400117 	ldw	r17,4(sp)
 804e080:	dc000017 	ldw	r16,0(sp)
 804e084:	dec00504 	addi	sp,sp,20
 804e088:	f800283a 	ret
 804e08c:	040bc83a 	sub	r5,zero,r16
 804e090:	9009883a 	mov	r4,r18
 804e094:	804c1880 	call	804c188 <_sbrk_r>
 804e098:	00ffffc4 	movi	r3,-1
 804e09c:	10c00d26 	beq	r2,r3,804e0d4 <_malloc_trim_r+0xe0>
 804e0a0:	00c201b4 	movhi	r3,2054
 804e0a4:	18e00704 	addi	r3,r3,-32740
 804e0a8:	18800017 	ldw	r2,0(r3)
 804e0ac:	99000217 	ldw	r4,8(r19)
 804e0b0:	8c23c83a 	sub	r17,r17,r16
 804e0b4:	8c400054 	ori	r17,r17,1
 804e0b8:	1421c83a 	sub	r16,r2,r16
 804e0bc:	24400115 	stw	r17,4(r4)
 804e0c0:	9009883a 	mov	r4,r18
 804e0c4:	1c000015 	stw	r16,0(r3)
 804e0c8:	80508640 	call	8050864 <__malloc_unlock>
 804e0cc:	00800044 	movi	r2,1
 804e0d0:	003fe706 	br	804e070 <__alt_data_end+0xfffe5fd0>
 804e0d4:	000b883a 	mov	r5,zero
 804e0d8:	9009883a 	mov	r4,r18
 804e0dc:	804c1880 	call	804c188 <_sbrk_r>
 804e0e0:	99000217 	ldw	r4,8(r19)
 804e0e4:	014003c4 	movi	r5,15
 804e0e8:	1107c83a 	sub	r3,r2,r4
 804e0ec:	28ffdd0e 	bge	r5,r3,804e064 <__alt_data_end+0xfffe5fc4>
 804e0f0:	01420174 	movhi	r5,2053
 804e0f4:	2958ef04 	addi	r5,r5,25532
 804e0f8:	29400017 	ldw	r5,0(r5)
 804e0fc:	18c00054 	ori	r3,r3,1
 804e100:	20c00115 	stw	r3,4(r4)
 804e104:	00c201b4 	movhi	r3,2054
 804e108:	1145c83a 	sub	r2,r2,r5
 804e10c:	18e00704 	addi	r3,r3,-32740
 804e110:	18800015 	stw	r2,0(r3)
 804e114:	003fd306 	br	804e064 <__alt_data_end+0xfffe5fc4>

0804e118 <_free_r>:
 804e118:	28004126 	beq	r5,zero,804e220 <_free_r+0x108>
 804e11c:	defffd04 	addi	sp,sp,-12
 804e120:	dc400115 	stw	r17,4(sp)
 804e124:	dc000015 	stw	r16,0(sp)
 804e128:	2023883a 	mov	r17,r4
 804e12c:	2821883a 	mov	r16,r5
 804e130:	dfc00215 	stw	ra,8(sp)
 804e134:	80508400 	call	8050840 <__malloc_lock>
 804e138:	81ffff17 	ldw	r7,-4(r16)
 804e13c:	00bfff84 	movi	r2,-2
 804e140:	01020174 	movhi	r4,2053
 804e144:	81bffe04 	addi	r6,r16,-8
 804e148:	3884703a 	and	r2,r7,r2
 804e14c:	21133004 	addi	r4,r4,19648
 804e150:	308b883a 	add	r5,r6,r2
 804e154:	2a400117 	ldw	r9,4(r5)
 804e158:	22000217 	ldw	r8,8(r4)
 804e15c:	00ffff04 	movi	r3,-4
 804e160:	48c6703a 	and	r3,r9,r3
 804e164:	2a005726 	beq	r5,r8,804e2c4 <_free_r+0x1ac>
 804e168:	28c00115 	stw	r3,4(r5)
 804e16c:	39c0004c 	andi	r7,r7,1
 804e170:	3800091e 	bne	r7,zero,804e198 <_free_r+0x80>
 804e174:	823ffe17 	ldw	r8,-8(r16)
 804e178:	22400204 	addi	r9,r4,8
 804e17c:	320dc83a 	sub	r6,r6,r8
 804e180:	31c00217 	ldw	r7,8(r6)
 804e184:	1205883a 	add	r2,r2,r8
 804e188:	3a406526 	beq	r7,r9,804e320 <_free_r+0x208>
 804e18c:	32000317 	ldw	r8,12(r6)
 804e190:	3a000315 	stw	r8,12(r7)
 804e194:	41c00215 	stw	r7,8(r8)
 804e198:	28cf883a 	add	r7,r5,r3
 804e19c:	39c00117 	ldw	r7,4(r7)
 804e1a0:	39c0004c 	andi	r7,r7,1
 804e1a4:	38003a26 	beq	r7,zero,804e290 <_free_r+0x178>
 804e1a8:	10c00054 	ori	r3,r2,1
 804e1ac:	30c00115 	stw	r3,4(r6)
 804e1b0:	3087883a 	add	r3,r6,r2
 804e1b4:	18800015 	stw	r2,0(r3)
 804e1b8:	00c07fc4 	movi	r3,511
 804e1bc:	18801936 	bltu	r3,r2,804e224 <_free_r+0x10c>
 804e1c0:	1004d0fa 	srli	r2,r2,3
 804e1c4:	01c00044 	movi	r7,1
 804e1c8:	21400117 	ldw	r5,4(r4)
 804e1cc:	10c00044 	addi	r3,r2,1
 804e1d0:	18c7883a 	add	r3,r3,r3
 804e1d4:	1005d0ba 	srai	r2,r2,2
 804e1d8:	18c7883a 	add	r3,r3,r3
 804e1dc:	18c7883a 	add	r3,r3,r3
 804e1e0:	1907883a 	add	r3,r3,r4
 804e1e4:	3884983a 	sll	r2,r7,r2
 804e1e8:	19c00017 	ldw	r7,0(r3)
 804e1ec:	1a3ffe04 	addi	r8,r3,-8
 804e1f0:	1144b03a 	or	r2,r2,r5
 804e1f4:	32000315 	stw	r8,12(r6)
 804e1f8:	31c00215 	stw	r7,8(r6)
 804e1fc:	20800115 	stw	r2,4(r4)
 804e200:	19800015 	stw	r6,0(r3)
 804e204:	39800315 	stw	r6,12(r7)
 804e208:	8809883a 	mov	r4,r17
 804e20c:	dfc00217 	ldw	ra,8(sp)
 804e210:	dc400117 	ldw	r17,4(sp)
 804e214:	dc000017 	ldw	r16,0(sp)
 804e218:	dec00304 	addi	sp,sp,12
 804e21c:	80508641 	jmpi	8050864 <__malloc_unlock>
 804e220:	f800283a 	ret
 804e224:	100ad27a 	srli	r5,r2,9
 804e228:	00c00104 	movi	r3,4
 804e22c:	19404a36 	bltu	r3,r5,804e358 <_free_r+0x240>
 804e230:	100ad1ba 	srli	r5,r2,6
 804e234:	28c00e44 	addi	r3,r5,57
 804e238:	18c7883a 	add	r3,r3,r3
 804e23c:	29400e04 	addi	r5,r5,56
 804e240:	18c7883a 	add	r3,r3,r3
 804e244:	18c7883a 	add	r3,r3,r3
 804e248:	1909883a 	add	r4,r3,r4
 804e24c:	20c00017 	ldw	r3,0(r4)
 804e250:	01c20174 	movhi	r7,2053
 804e254:	213ffe04 	addi	r4,r4,-8
 804e258:	39d33004 	addi	r7,r7,19648
 804e25c:	20c04426 	beq	r4,r3,804e370 <_free_r+0x258>
 804e260:	01ffff04 	movi	r7,-4
 804e264:	19400117 	ldw	r5,4(r3)
 804e268:	29ca703a 	and	r5,r5,r7
 804e26c:	1140022e 	bgeu	r2,r5,804e278 <_free_r+0x160>
 804e270:	18c00217 	ldw	r3,8(r3)
 804e274:	20fffb1e 	bne	r4,r3,804e264 <__alt_data_end+0xfffe61c4>
 804e278:	19000317 	ldw	r4,12(r3)
 804e27c:	31000315 	stw	r4,12(r6)
 804e280:	30c00215 	stw	r3,8(r6)
 804e284:	21800215 	stw	r6,8(r4)
 804e288:	19800315 	stw	r6,12(r3)
 804e28c:	003fde06 	br	804e208 <__alt_data_end+0xfffe6168>
 804e290:	29c00217 	ldw	r7,8(r5)
 804e294:	10c5883a 	add	r2,r2,r3
 804e298:	00c20174 	movhi	r3,2053
 804e29c:	18d33204 	addi	r3,r3,19656
 804e2a0:	38c03b26 	beq	r7,r3,804e390 <_free_r+0x278>
 804e2a4:	2a000317 	ldw	r8,12(r5)
 804e2a8:	11400054 	ori	r5,r2,1
 804e2ac:	3087883a 	add	r3,r6,r2
 804e2b0:	3a000315 	stw	r8,12(r7)
 804e2b4:	41c00215 	stw	r7,8(r8)
 804e2b8:	31400115 	stw	r5,4(r6)
 804e2bc:	18800015 	stw	r2,0(r3)
 804e2c0:	003fbd06 	br	804e1b8 <__alt_data_end+0xfffe6118>
 804e2c4:	39c0004c 	andi	r7,r7,1
 804e2c8:	10c5883a 	add	r2,r2,r3
 804e2cc:	3800071e 	bne	r7,zero,804e2ec <_free_r+0x1d4>
 804e2d0:	81fffe17 	ldw	r7,-8(r16)
 804e2d4:	31cdc83a 	sub	r6,r6,r7
 804e2d8:	30c00317 	ldw	r3,12(r6)
 804e2dc:	31400217 	ldw	r5,8(r6)
 804e2e0:	11c5883a 	add	r2,r2,r7
 804e2e4:	28c00315 	stw	r3,12(r5)
 804e2e8:	19400215 	stw	r5,8(r3)
 804e2ec:	10c00054 	ori	r3,r2,1
 804e2f0:	30c00115 	stw	r3,4(r6)
 804e2f4:	00c20174 	movhi	r3,2053
 804e2f8:	18d8f004 	addi	r3,r3,25536
 804e2fc:	18c00017 	ldw	r3,0(r3)
 804e300:	21800215 	stw	r6,8(r4)
 804e304:	10ffc036 	bltu	r2,r3,804e208 <__alt_data_end+0xfffe6168>
 804e308:	00820174 	movhi	r2,2053
 804e30c:	109ff804 	addi	r2,r2,32736
 804e310:	11400017 	ldw	r5,0(r2)
 804e314:	8809883a 	mov	r4,r17
 804e318:	804dff40 	call	804dff4 <_malloc_trim_r>
 804e31c:	003fba06 	br	804e208 <__alt_data_end+0xfffe6168>
 804e320:	28c9883a 	add	r4,r5,r3
 804e324:	21000117 	ldw	r4,4(r4)
 804e328:	2100004c 	andi	r4,r4,1
 804e32c:	2000391e 	bne	r4,zero,804e414 <_free_r+0x2fc>
 804e330:	29c00217 	ldw	r7,8(r5)
 804e334:	29000317 	ldw	r4,12(r5)
 804e338:	1885883a 	add	r2,r3,r2
 804e33c:	10c00054 	ori	r3,r2,1
 804e340:	39000315 	stw	r4,12(r7)
 804e344:	21c00215 	stw	r7,8(r4)
 804e348:	30c00115 	stw	r3,4(r6)
 804e34c:	308d883a 	add	r6,r6,r2
 804e350:	30800015 	stw	r2,0(r6)
 804e354:	003fac06 	br	804e208 <__alt_data_end+0xfffe6168>
 804e358:	00c00504 	movi	r3,20
 804e35c:	19401536 	bltu	r3,r5,804e3b4 <_free_r+0x29c>
 804e360:	28c01704 	addi	r3,r5,92
 804e364:	18c7883a 	add	r3,r3,r3
 804e368:	294016c4 	addi	r5,r5,91
 804e36c:	003fb406 	br	804e240 <__alt_data_end+0xfffe61a0>
 804e370:	280bd0ba 	srai	r5,r5,2
 804e374:	00c00044 	movi	r3,1
 804e378:	38800117 	ldw	r2,4(r7)
 804e37c:	194a983a 	sll	r5,r3,r5
 804e380:	2007883a 	mov	r3,r4
 804e384:	2884b03a 	or	r2,r5,r2
 804e388:	38800115 	stw	r2,4(r7)
 804e38c:	003fbb06 	br	804e27c <__alt_data_end+0xfffe61dc>
 804e390:	21800515 	stw	r6,20(r4)
 804e394:	21800415 	stw	r6,16(r4)
 804e398:	10c00054 	ori	r3,r2,1
 804e39c:	31c00315 	stw	r7,12(r6)
 804e3a0:	31c00215 	stw	r7,8(r6)
 804e3a4:	30c00115 	stw	r3,4(r6)
 804e3a8:	308d883a 	add	r6,r6,r2
 804e3ac:	30800015 	stw	r2,0(r6)
 804e3b0:	003f9506 	br	804e208 <__alt_data_end+0xfffe6168>
 804e3b4:	00c01504 	movi	r3,84
 804e3b8:	19400536 	bltu	r3,r5,804e3d0 <_free_r+0x2b8>
 804e3bc:	100ad33a 	srli	r5,r2,12
 804e3c0:	28c01bc4 	addi	r3,r5,111
 804e3c4:	18c7883a 	add	r3,r3,r3
 804e3c8:	29401b84 	addi	r5,r5,110
 804e3cc:	003f9c06 	br	804e240 <__alt_data_end+0xfffe61a0>
 804e3d0:	00c05504 	movi	r3,340
 804e3d4:	19400536 	bltu	r3,r5,804e3ec <_free_r+0x2d4>
 804e3d8:	100ad3fa 	srli	r5,r2,15
 804e3dc:	28c01e04 	addi	r3,r5,120
 804e3e0:	18c7883a 	add	r3,r3,r3
 804e3e4:	29401dc4 	addi	r5,r5,119
 804e3e8:	003f9506 	br	804e240 <__alt_data_end+0xfffe61a0>
 804e3ec:	00c15504 	movi	r3,1364
 804e3f0:	19400536 	bltu	r3,r5,804e408 <_free_r+0x2f0>
 804e3f4:	100ad4ba 	srli	r5,r2,18
 804e3f8:	28c01f44 	addi	r3,r5,125
 804e3fc:	18c7883a 	add	r3,r3,r3
 804e400:	29401f04 	addi	r5,r5,124
 804e404:	003f8e06 	br	804e240 <__alt_data_end+0xfffe61a0>
 804e408:	00c03f84 	movi	r3,254
 804e40c:	01401f84 	movi	r5,126
 804e410:	003f8b06 	br	804e240 <__alt_data_end+0xfffe61a0>
 804e414:	10c00054 	ori	r3,r2,1
 804e418:	30c00115 	stw	r3,4(r6)
 804e41c:	308d883a 	add	r6,r6,r2
 804e420:	30800015 	stw	r2,0(r6)
 804e424:	003f7806 	br	804e208 <__alt_data_end+0xfffe6168>

0804e428 <_lseek_r>:
 804e428:	defffd04 	addi	sp,sp,-12
 804e42c:	2805883a 	mov	r2,r5
 804e430:	dc000015 	stw	r16,0(sp)
 804e434:	04020174 	movhi	r16,2053
 804e438:	dc400115 	stw	r17,4(sp)
 804e43c:	300b883a 	mov	r5,r6
 804e440:	841ff904 	addi	r16,r16,32740
 804e444:	2023883a 	mov	r17,r4
 804e448:	380d883a 	mov	r6,r7
 804e44c:	1009883a 	mov	r4,r2
 804e450:	dfc00215 	stw	ra,8(sp)
 804e454:	80000015 	stw	zero,0(r16)
 804e458:	80506e80 	call	80506e8 <lseek>
 804e45c:	00ffffc4 	movi	r3,-1
 804e460:	10c00526 	beq	r2,r3,804e478 <_lseek_r+0x50>
 804e464:	dfc00217 	ldw	ra,8(sp)
 804e468:	dc400117 	ldw	r17,4(sp)
 804e46c:	dc000017 	ldw	r16,0(sp)
 804e470:	dec00304 	addi	sp,sp,12
 804e474:	f800283a 	ret
 804e478:	80c00017 	ldw	r3,0(r16)
 804e47c:	183ff926 	beq	r3,zero,804e464 <__alt_data_end+0xfffe63c4>
 804e480:	88c00015 	stw	r3,0(r17)
 804e484:	003ff706 	br	804e464 <__alt_data_end+0xfffe63c4>

0804e488 <__smakebuf_r>:
 804e488:	2880030b 	ldhu	r2,12(r5)
 804e48c:	10c0008c 	andi	r3,r2,2
 804e490:	1800411e 	bne	r3,zero,804e598 <__smakebuf_r+0x110>
 804e494:	deffec04 	addi	sp,sp,-80
 804e498:	dc000f15 	stw	r16,60(sp)
 804e49c:	2821883a 	mov	r16,r5
 804e4a0:	2940038f 	ldh	r5,14(r5)
 804e4a4:	dc401015 	stw	r17,64(sp)
 804e4a8:	dfc01315 	stw	ra,76(sp)
 804e4ac:	dcc01215 	stw	r19,72(sp)
 804e4b0:	dc801115 	stw	r18,68(sp)
 804e4b4:	2023883a 	mov	r17,r4
 804e4b8:	28001c16 	blt	r5,zero,804e52c <__smakebuf_r+0xa4>
 804e4bc:	d80d883a 	mov	r6,sp
 804e4c0:	804e6a40 	call	804e6a4 <_fstat_r>
 804e4c4:	10001816 	blt	r2,zero,804e528 <__smakebuf_r+0xa0>
 804e4c8:	d8800117 	ldw	r2,4(sp)
 804e4cc:	00e00014 	movui	r3,32768
 804e4d0:	10bc000c 	andi	r2,r2,61440
 804e4d4:	14c80020 	cmpeqi	r19,r2,8192
 804e4d8:	10c03726 	beq	r2,r3,804e5b8 <__smakebuf_r+0x130>
 804e4dc:	80c0030b 	ldhu	r3,12(r16)
 804e4e0:	18c20014 	ori	r3,r3,2048
 804e4e4:	80c0030d 	sth	r3,12(r16)
 804e4e8:	00c80004 	movi	r3,8192
 804e4ec:	10c0521e 	bne	r2,r3,804e638 <__smakebuf_r+0x1b0>
 804e4f0:	8140038f 	ldh	r5,14(r16)
 804e4f4:	8809883a 	mov	r4,r17
 804e4f8:	804e7000 	call	804e700 <_isatty_r>
 804e4fc:	10004c26 	beq	r2,zero,804e630 <__smakebuf_r+0x1a8>
 804e500:	8080030b 	ldhu	r2,12(r16)
 804e504:	80c010c4 	addi	r3,r16,67
 804e508:	80c00015 	stw	r3,0(r16)
 804e50c:	10800054 	ori	r2,r2,1
 804e510:	8080030d 	sth	r2,12(r16)
 804e514:	00800044 	movi	r2,1
 804e518:	80c00415 	stw	r3,16(r16)
 804e51c:	80800515 	stw	r2,20(r16)
 804e520:	04810004 	movi	r18,1024
 804e524:	00000706 	br	804e544 <__smakebuf_r+0xbc>
 804e528:	8080030b 	ldhu	r2,12(r16)
 804e52c:	10c0200c 	andi	r3,r2,128
 804e530:	18001f1e 	bne	r3,zero,804e5b0 <__smakebuf_r+0x128>
 804e534:	04810004 	movi	r18,1024
 804e538:	10820014 	ori	r2,r2,2048
 804e53c:	8080030d 	sth	r2,12(r16)
 804e540:	0027883a 	mov	r19,zero
 804e544:	900b883a 	mov	r5,r18
 804e548:	8809883a 	mov	r4,r17
 804e54c:	804a0ac0 	call	804a0ac <_malloc_r>
 804e550:	10002c26 	beq	r2,zero,804e604 <__smakebuf_r+0x17c>
 804e554:	80c0030b 	ldhu	r3,12(r16)
 804e558:	01020174 	movhi	r4,2053
 804e55c:	21257604 	addi	r4,r4,-27176
 804e560:	89000f15 	stw	r4,60(r17)
 804e564:	18c02014 	ori	r3,r3,128
 804e568:	80c0030d 	sth	r3,12(r16)
 804e56c:	80800015 	stw	r2,0(r16)
 804e570:	80800415 	stw	r2,16(r16)
 804e574:	84800515 	stw	r18,20(r16)
 804e578:	98001a1e 	bne	r19,zero,804e5e4 <__smakebuf_r+0x15c>
 804e57c:	dfc01317 	ldw	ra,76(sp)
 804e580:	dcc01217 	ldw	r19,72(sp)
 804e584:	dc801117 	ldw	r18,68(sp)
 804e588:	dc401017 	ldw	r17,64(sp)
 804e58c:	dc000f17 	ldw	r16,60(sp)
 804e590:	dec01404 	addi	sp,sp,80
 804e594:	f800283a 	ret
 804e598:	288010c4 	addi	r2,r5,67
 804e59c:	28800015 	stw	r2,0(r5)
 804e5a0:	28800415 	stw	r2,16(r5)
 804e5a4:	00800044 	movi	r2,1
 804e5a8:	28800515 	stw	r2,20(r5)
 804e5ac:	f800283a 	ret
 804e5b0:	04801004 	movi	r18,64
 804e5b4:	003fe006 	br	804e538 <__alt_data_end+0xfffe6498>
 804e5b8:	81000a17 	ldw	r4,40(r16)
 804e5bc:	00c20174 	movhi	r3,2053
 804e5c0:	18f0ad04 	addi	r3,r3,-15692
 804e5c4:	20ffc51e 	bne	r4,r3,804e4dc <__alt_data_end+0xfffe643c>
 804e5c8:	8080030b 	ldhu	r2,12(r16)
 804e5cc:	04810004 	movi	r18,1024
 804e5d0:	84801315 	stw	r18,76(r16)
 804e5d4:	1484b03a 	or	r2,r2,r18
 804e5d8:	8080030d 	sth	r2,12(r16)
 804e5dc:	0027883a 	mov	r19,zero
 804e5e0:	003fd806 	br	804e544 <__alt_data_end+0xfffe64a4>
 804e5e4:	8140038f 	ldh	r5,14(r16)
 804e5e8:	8809883a 	mov	r4,r17
 804e5ec:	804e7000 	call	804e700 <_isatty_r>
 804e5f0:	103fe226 	beq	r2,zero,804e57c <__alt_data_end+0xfffe64dc>
 804e5f4:	8080030b 	ldhu	r2,12(r16)
 804e5f8:	10800054 	ori	r2,r2,1
 804e5fc:	8080030d 	sth	r2,12(r16)
 804e600:	003fde06 	br	804e57c <__alt_data_end+0xfffe64dc>
 804e604:	8080030b 	ldhu	r2,12(r16)
 804e608:	10c0800c 	andi	r3,r2,512
 804e60c:	183fdb1e 	bne	r3,zero,804e57c <__alt_data_end+0xfffe64dc>
 804e610:	10800094 	ori	r2,r2,2
 804e614:	80c010c4 	addi	r3,r16,67
 804e618:	8080030d 	sth	r2,12(r16)
 804e61c:	00800044 	movi	r2,1
 804e620:	80c00015 	stw	r3,0(r16)
 804e624:	80c00415 	stw	r3,16(r16)
 804e628:	80800515 	stw	r2,20(r16)
 804e62c:	003fd306 	br	804e57c <__alt_data_end+0xfffe64dc>
 804e630:	04810004 	movi	r18,1024
 804e634:	003fc306 	br	804e544 <__alt_data_end+0xfffe64a4>
 804e638:	0027883a 	mov	r19,zero
 804e63c:	04810004 	movi	r18,1024
 804e640:	003fc006 	br	804e544 <__alt_data_end+0xfffe64a4>

0804e644 <_read_r>:
 804e644:	defffd04 	addi	sp,sp,-12
 804e648:	2805883a 	mov	r2,r5
 804e64c:	dc000015 	stw	r16,0(sp)
 804e650:	04020174 	movhi	r16,2053
 804e654:	dc400115 	stw	r17,4(sp)
 804e658:	300b883a 	mov	r5,r6
 804e65c:	841ff904 	addi	r16,r16,32740
 804e660:	2023883a 	mov	r17,r4
 804e664:	380d883a 	mov	r6,r7
 804e668:	1009883a 	mov	r4,r2
 804e66c:	dfc00215 	stw	ra,8(sp)
 804e670:	80000015 	stw	zero,0(r16)
 804e674:	80508c40 	call	80508c4 <read>
 804e678:	00ffffc4 	movi	r3,-1
 804e67c:	10c00526 	beq	r2,r3,804e694 <_read_r+0x50>
 804e680:	dfc00217 	ldw	ra,8(sp)
 804e684:	dc400117 	ldw	r17,4(sp)
 804e688:	dc000017 	ldw	r16,0(sp)
 804e68c:	dec00304 	addi	sp,sp,12
 804e690:	f800283a 	ret
 804e694:	80c00017 	ldw	r3,0(r16)
 804e698:	183ff926 	beq	r3,zero,804e680 <__alt_data_end+0xfffe65e0>
 804e69c:	88c00015 	stw	r3,0(r17)
 804e6a0:	003ff706 	br	804e680 <__alt_data_end+0xfffe65e0>

0804e6a4 <_fstat_r>:
 804e6a4:	defffd04 	addi	sp,sp,-12
 804e6a8:	2805883a 	mov	r2,r5
 804e6ac:	dc000015 	stw	r16,0(sp)
 804e6b0:	04020174 	movhi	r16,2053
 804e6b4:	dc400115 	stw	r17,4(sp)
 804e6b8:	841ff904 	addi	r16,r16,32740
 804e6bc:	2023883a 	mov	r17,r4
 804e6c0:	300b883a 	mov	r5,r6
 804e6c4:	1009883a 	mov	r4,r2
 804e6c8:	dfc00215 	stw	ra,8(sp)
 804e6cc:	80000015 	stw	zero,0(r16)
 804e6d0:	80501800 	call	8050180 <fstat>
 804e6d4:	00ffffc4 	movi	r3,-1
 804e6d8:	10c00526 	beq	r2,r3,804e6f0 <_fstat_r+0x4c>
 804e6dc:	dfc00217 	ldw	ra,8(sp)
 804e6e0:	dc400117 	ldw	r17,4(sp)
 804e6e4:	dc000017 	ldw	r16,0(sp)
 804e6e8:	dec00304 	addi	sp,sp,12
 804e6ec:	f800283a 	ret
 804e6f0:	80c00017 	ldw	r3,0(r16)
 804e6f4:	183ff926 	beq	r3,zero,804e6dc <__alt_data_end+0xfffe663c>
 804e6f8:	88c00015 	stw	r3,0(r17)
 804e6fc:	003ff706 	br	804e6dc <__alt_data_end+0xfffe663c>

0804e700 <_isatty_r>:
 804e700:	defffd04 	addi	sp,sp,-12
 804e704:	dc000015 	stw	r16,0(sp)
 804e708:	04020174 	movhi	r16,2053
 804e70c:	dc400115 	stw	r17,4(sp)
 804e710:	841ff904 	addi	r16,r16,32740
 804e714:	2023883a 	mov	r17,r4
 804e718:	2809883a 	mov	r4,r5
 804e71c:	dfc00215 	stw	ra,8(sp)
 804e720:	80000015 	stw	zero,0(r16)
 804e724:	80505140 	call	8050514 <isatty>
 804e728:	00ffffc4 	movi	r3,-1
 804e72c:	10c00526 	beq	r2,r3,804e744 <_isatty_r+0x44>
 804e730:	dfc00217 	ldw	ra,8(sp)
 804e734:	dc400117 	ldw	r17,4(sp)
 804e738:	dc000017 	ldw	r16,0(sp)
 804e73c:	dec00304 	addi	sp,sp,12
 804e740:	f800283a 	ret
 804e744:	80c00017 	ldw	r3,0(r16)
 804e748:	183ff926 	beq	r3,zero,804e730 <__alt_data_end+0xfffe6690>
 804e74c:	88c00015 	stw	r3,0(r17)
 804e750:	003ff706 	br	804e730 <__alt_data_end+0xfffe6690>

0804e754 <__muldi3>:
 804e754:	defff604 	addi	sp,sp,-40
 804e758:	dd800615 	stw	r22,24(sp)
 804e75c:	dd400515 	stw	r21,20(sp)
 804e760:	dc400115 	stw	r17,4(sp)
 804e764:	357fffcc 	andi	r21,r6,65535
 804e768:	2022d43a 	srli	r17,r4,16
 804e76c:	25bfffcc 	andi	r22,r4,65535
 804e770:	dcc00315 	stw	r19,12(sp)
 804e774:	dc800215 	stw	r18,8(sp)
 804e778:	2027883a 	mov	r19,r4
 804e77c:	2825883a 	mov	r18,r5
 804e780:	b009883a 	mov	r4,r22
 804e784:	a80b883a 	mov	r5,r21
 804e788:	dfc00915 	stw	ra,36(sp)
 804e78c:	df000815 	stw	fp,32(sp)
 804e790:	ddc00715 	stw	r23,28(sp)
 804e794:	3839883a 	mov	fp,r7
 804e798:	302ed43a 	srli	r23,r6,16
 804e79c:	dd000415 	stw	r20,16(sp)
 804e7a0:	dc000015 	stw	r16,0(sp)
 804e7a4:	3029883a 	mov	r20,r6
 804e7a8:	8042dac0 	call	8042dac <__mulsi3>
 804e7ac:	a80b883a 	mov	r5,r21
 804e7b0:	8809883a 	mov	r4,r17
 804e7b4:	1021883a 	mov	r16,r2
 804e7b8:	8042dac0 	call	8042dac <__mulsi3>
 804e7bc:	8809883a 	mov	r4,r17
 804e7c0:	b80b883a 	mov	r5,r23
 804e7c4:	102b883a 	mov	r21,r2
 804e7c8:	8042dac0 	call	8042dac <__mulsi3>
 804e7cc:	b80b883a 	mov	r5,r23
 804e7d0:	b009883a 	mov	r4,r22
 804e7d4:	1023883a 	mov	r17,r2
 804e7d8:	8042dac0 	call	8042dac <__mulsi3>
 804e7dc:	8006d43a 	srli	r3,r16,16
 804e7e0:	1545883a 	add	r2,r2,r21
 804e7e4:	1885883a 	add	r2,r3,r2
 804e7e8:	1540022e 	bgeu	r2,r21,804e7f4 <__muldi3+0xa0>
 804e7ec:	00c00074 	movhi	r3,1
 804e7f0:	88e3883a 	add	r17,r17,r3
 804e7f4:	1006d43a 	srli	r3,r2,16
 804e7f8:	1004943a 	slli	r2,r2,16
 804e7fc:	e00b883a 	mov	r5,fp
 804e800:	9809883a 	mov	r4,r19
 804e804:	843fffcc 	andi	r16,r16,65535
 804e808:	1c63883a 	add	r17,r3,r17
 804e80c:	1421883a 	add	r16,r2,r16
 804e810:	8042dac0 	call	8042dac <__mulsi3>
 804e814:	900b883a 	mov	r5,r18
 804e818:	a009883a 	mov	r4,r20
 804e81c:	1027883a 	mov	r19,r2
 804e820:	8042dac0 	call	8042dac <__mulsi3>
 804e824:	9885883a 	add	r2,r19,r2
 804e828:	1447883a 	add	r3,r2,r17
 804e82c:	8005883a 	mov	r2,r16
 804e830:	dfc00917 	ldw	ra,36(sp)
 804e834:	df000817 	ldw	fp,32(sp)
 804e838:	ddc00717 	ldw	r23,28(sp)
 804e83c:	dd800617 	ldw	r22,24(sp)
 804e840:	dd400517 	ldw	r21,20(sp)
 804e844:	dd000417 	ldw	r20,16(sp)
 804e848:	dcc00317 	ldw	r19,12(sp)
 804e84c:	dc800217 	ldw	r18,8(sp)
 804e850:	dc400117 	ldw	r17,4(sp)
 804e854:	dc000017 	ldw	r16,0(sp)
 804e858:	dec00a04 	addi	sp,sp,40
 804e85c:	f800283a 	ret

0804e860 <__udivdi3>:
 804e860:	defff404 	addi	sp,sp,-48
 804e864:	dcc00515 	stw	r19,20(sp)
 804e868:	dc000215 	stw	r16,8(sp)
 804e86c:	dfc00b15 	stw	ra,44(sp)
 804e870:	df000a15 	stw	fp,40(sp)
 804e874:	ddc00915 	stw	r23,36(sp)
 804e878:	dd800815 	stw	r22,32(sp)
 804e87c:	dd400715 	stw	r21,28(sp)
 804e880:	dd000615 	stw	r20,24(sp)
 804e884:	dc800415 	stw	r18,16(sp)
 804e888:	dc400315 	stw	r17,12(sp)
 804e88c:	2027883a 	mov	r19,r4
 804e890:	2821883a 	mov	r16,r5
 804e894:	3800461e 	bne	r7,zero,804e9b0 <__udivdi3+0x150>
 804e898:	3023883a 	mov	r17,r6
 804e89c:	2025883a 	mov	r18,r4
 804e8a0:	2980572e 	bgeu	r5,r6,804ea00 <__udivdi3+0x1a0>
 804e8a4:	00bfffd4 	movui	r2,65535
 804e8a8:	282d883a 	mov	r22,r5
 804e8ac:	1180b236 	bltu	r2,r6,804eb78 <__udivdi3+0x318>
 804e8b0:	00803fc4 	movi	r2,255
 804e8b4:	1185803a 	cmpltu	r2,r2,r6
 804e8b8:	100490fa 	slli	r2,r2,3
 804e8bc:	3086d83a 	srl	r3,r6,r2
 804e8c0:	01020174 	movhi	r4,2053
 804e8c4:	21112084 	addi	r4,r4,17538
 804e8c8:	20c7883a 	add	r3,r4,r3
 804e8cc:	18c00003 	ldbu	r3,0(r3)
 804e8d0:	1885883a 	add	r2,r3,r2
 804e8d4:	00c00804 	movi	r3,32
 804e8d8:	1887c83a 	sub	r3,r3,r2
 804e8dc:	18000526 	beq	r3,zero,804e8f4 <__udivdi3+0x94>
 804e8e0:	80e0983a 	sll	r16,r16,r3
 804e8e4:	9884d83a 	srl	r2,r19,r2
 804e8e8:	30e2983a 	sll	r17,r6,r3
 804e8ec:	98e4983a 	sll	r18,r19,r3
 804e8f0:	142cb03a 	or	r22,r2,r16
 804e8f4:	882ad43a 	srli	r21,r17,16
 804e8f8:	b009883a 	mov	r4,r22
 804e8fc:	8d3fffcc 	andi	r20,r17,65535
 804e900:	a80b883a 	mov	r5,r21
 804e904:	8042d540 	call	8042d54 <__umodsi3>
 804e908:	b009883a 	mov	r4,r22
 804e90c:	a80b883a 	mov	r5,r21
 804e910:	1027883a 	mov	r19,r2
 804e914:	8042cf00 	call	8042cf0 <__udivsi3>
 804e918:	100b883a 	mov	r5,r2
 804e91c:	a009883a 	mov	r4,r20
 804e920:	102d883a 	mov	r22,r2
 804e924:	8042dac0 	call	8042dac <__mulsi3>
 804e928:	9826943a 	slli	r19,r19,16
 804e92c:	9006d43a 	srli	r3,r18,16
 804e930:	1cc6b03a 	or	r3,r3,r19
 804e934:	1880052e 	bgeu	r3,r2,804e94c <__udivdi3+0xec>
 804e938:	1c47883a 	add	r3,r3,r17
 804e93c:	b13fffc4 	addi	r4,r22,-1
 804e940:	1c400136 	bltu	r3,r17,804e948 <__udivdi3+0xe8>
 804e944:	18814236 	bltu	r3,r2,804ee50 <__udivdi3+0x5f0>
 804e948:	202d883a 	mov	r22,r4
 804e94c:	18a1c83a 	sub	r16,r3,r2
 804e950:	8009883a 	mov	r4,r16
 804e954:	a80b883a 	mov	r5,r21
 804e958:	8042d540 	call	8042d54 <__umodsi3>
 804e95c:	1027883a 	mov	r19,r2
 804e960:	8009883a 	mov	r4,r16
 804e964:	a80b883a 	mov	r5,r21
 804e968:	9826943a 	slli	r19,r19,16
 804e96c:	8042cf00 	call	8042cf0 <__udivsi3>
 804e970:	100b883a 	mov	r5,r2
 804e974:	a009883a 	mov	r4,r20
 804e978:	94bfffcc 	andi	r18,r18,65535
 804e97c:	1021883a 	mov	r16,r2
 804e980:	94e4b03a 	or	r18,r18,r19
 804e984:	8042dac0 	call	8042dac <__mulsi3>
 804e988:	9080052e 	bgeu	r18,r2,804e9a0 <__udivdi3+0x140>
 804e98c:	8ca5883a 	add	r18,r17,r18
 804e990:	80ffffc4 	addi	r3,r16,-1
 804e994:	94410c36 	bltu	r18,r17,804edc8 <__udivdi3+0x568>
 804e998:	90810b2e 	bgeu	r18,r2,804edc8 <__udivdi3+0x568>
 804e99c:	843fff84 	addi	r16,r16,-2
 804e9a0:	b004943a 	slli	r2,r22,16
 804e9a4:	0007883a 	mov	r3,zero
 804e9a8:	1404b03a 	or	r2,r2,r16
 804e9ac:	00005e06 	br	804eb28 <__udivdi3+0x2c8>
 804e9b0:	29c05b36 	bltu	r5,r7,804eb20 <__udivdi3+0x2c0>
 804e9b4:	00bfffd4 	movui	r2,65535
 804e9b8:	11c0672e 	bgeu	r2,r7,804eb58 <__udivdi3+0x2f8>
 804e9bc:	00804034 	movhi	r2,256
 804e9c0:	10bfffc4 	addi	r2,r2,-1
 804e9c4:	11c10a36 	bltu	r2,r7,804edf0 <__udivdi3+0x590>
 804e9c8:	00800404 	movi	r2,16
 804e9cc:	3886d83a 	srl	r3,r7,r2
 804e9d0:	01020174 	movhi	r4,2053
 804e9d4:	21112084 	addi	r4,r4,17538
 804e9d8:	20c7883a 	add	r3,r4,r3
 804e9dc:	18c00003 	ldbu	r3,0(r3)
 804e9e0:	05c00804 	movi	r23,32
 804e9e4:	1885883a 	add	r2,r3,r2
 804e9e8:	b8afc83a 	sub	r23,r23,r2
 804e9ec:	b800671e 	bne	r23,zero,804eb8c <__udivdi3+0x32c>
 804e9f0:	3c010536 	bltu	r7,r16,804ee08 <__udivdi3+0x5a8>
 804e9f4:	9985403a 	cmpgeu	r2,r19,r6
 804e9f8:	0007883a 	mov	r3,zero
 804e9fc:	00004a06 	br	804eb28 <__udivdi3+0x2c8>
 804ea00:	3000041e 	bne	r6,zero,804ea14 <__udivdi3+0x1b4>
 804ea04:	000b883a 	mov	r5,zero
 804ea08:	01000044 	movi	r4,1
 804ea0c:	8042cf00 	call	8042cf0 <__udivsi3>
 804ea10:	1023883a 	mov	r17,r2
 804ea14:	00bfffd4 	movui	r2,65535
 804ea18:	1440532e 	bgeu	r2,r17,804eb68 <__udivdi3+0x308>
 804ea1c:	00804034 	movhi	r2,256
 804ea20:	10bfffc4 	addi	r2,r2,-1
 804ea24:	1440f436 	bltu	r2,r17,804edf8 <__udivdi3+0x598>
 804ea28:	00800404 	movi	r2,16
 804ea2c:	8886d83a 	srl	r3,r17,r2
 804ea30:	01020174 	movhi	r4,2053
 804ea34:	21112084 	addi	r4,r4,17538
 804ea38:	20c7883a 	add	r3,r4,r3
 804ea3c:	18c00003 	ldbu	r3,0(r3)
 804ea40:	1885883a 	add	r2,r3,r2
 804ea44:	00c00804 	movi	r3,32
 804ea48:	1887c83a 	sub	r3,r3,r2
 804ea4c:	1800a51e 	bne	r3,zero,804ece4 <__udivdi3+0x484>
 804ea50:	882ad43a 	srli	r21,r17,16
 804ea54:	8461c83a 	sub	r16,r16,r17
 804ea58:	8d3fffcc 	andi	r20,r17,65535
 804ea5c:	00c00044 	movi	r3,1
 804ea60:	a80b883a 	mov	r5,r21
 804ea64:	8009883a 	mov	r4,r16
 804ea68:	d8c00115 	stw	r3,4(sp)
 804ea6c:	8042d540 	call	8042d54 <__umodsi3>
 804ea70:	a80b883a 	mov	r5,r21
 804ea74:	8009883a 	mov	r4,r16
 804ea78:	1027883a 	mov	r19,r2
 804ea7c:	8042cf00 	call	8042cf0 <__udivsi3>
 804ea80:	a00b883a 	mov	r5,r20
 804ea84:	1009883a 	mov	r4,r2
 804ea88:	102d883a 	mov	r22,r2
 804ea8c:	8042dac0 	call	8042dac <__mulsi3>
 804ea90:	9826943a 	slli	r19,r19,16
 804ea94:	900ed43a 	srli	r7,r18,16
 804ea98:	d8c00117 	ldw	r3,4(sp)
 804ea9c:	3cceb03a 	or	r7,r7,r19
 804eaa0:	3880052e 	bgeu	r7,r2,804eab8 <__udivdi3+0x258>
 804eaa4:	3c4f883a 	add	r7,r7,r17
 804eaa8:	b13fffc4 	addi	r4,r22,-1
 804eaac:	3c400136 	bltu	r7,r17,804eab4 <__udivdi3+0x254>
 804eab0:	3880e436 	bltu	r7,r2,804ee44 <__udivdi3+0x5e4>
 804eab4:	202d883a 	mov	r22,r4
 804eab8:	38a1c83a 	sub	r16,r7,r2
 804eabc:	8009883a 	mov	r4,r16
 804eac0:	a80b883a 	mov	r5,r21
 804eac4:	d8c00115 	stw	r3,4(sp)
 804eac8:	8042d540 	call	8042d54 <__umodsi3>
 804eacc:	1027883a 	mov	r19,r2
 804ead0:	8009883a 	mov	r4,r16
 804ead4:	a80b883a 	mov	r5,r21
 804ead8:	9826943a 	slli	r19,r19,16
 804eadc:	8042cf00 	call	8042cf0 <__udivsi3>
 804eae0:	a00b883a 	mov	r5,r20
 804eae4:	1009883a 	mov	r4,r2
 804eae8:	94bfffcc 	andi	r18,r18,65535
 804eaec:	1021883a 	mov	r16,r2
 804eaf0:	94e4b03a 	or	r18,r18,r19
 804eaf4:	8042dac0 	call	8042dac <__mulsi3>
 804eaf8:	d8c00117 	ldw	r3,4(sp)
 804eafc:	9080052e 	bgeu	r18,r2,804eb14 <__udivdi3+0x2b4>
 804eb00:	8ca5883a 	add	r18,r17,r18
 804eb04:	813fffc4 	addi	r4,r16,-1
 804eb08:	9440ad36 	bltu	r18,r17,804edc0 <__udivdi3+0x560>
 804eb0c:	9080ac2e 	bgeu	r18,r2,804edc0 <__udivdi3+0x560>
 804eb10:	843fff84 	addi	r16,r16,-2
 804eb14:	b004943a 	slli	r2,r22,16
 804eb18:	1404b03a 	or	r2,r2,r16
 804eb1c:	00000206 	br	804eb28 <__udivdi3+0x2c8>
 804eb20:	0007883a 	mov	r3,zero
 804eb24:	0005883a 	mov	r2,zero
 804eb28:	dfc00b17 	ldw	ra,44(sp)
 804eb2c:	df000a17 	ldw	fp,40(sp)
 804eb30:	ddc00917 	ldw	r23,36(sp)
 804eb34:	dd800817 	ldw	r22,32(sp)
 804eb38:	dd400717 	ldw	r21,28(sp)
 804eb3c:	dd000617 	ldw	r20,24(sp)
 804eb40:	dcc00517 	ldw	r19,20(sp)
 804eb44:	dc800417 	ldw	r18,16(sp)
 804eb48:	dc400317 	ldw	r17,12(sp)
 804eb4c:	dc000217 	ldw	r16,8(sp)
 804eb50:	dec00c04 	addi	sp,sp,48
 804eb54:	f800283a 	ret
 804eb58:	00803fc4 	movi	r2,255
 804eb5c:	11c5803a 	cmpltu	r2,r2,r7
 804eb60:	100490fa 	slli	r2,r2,3
 804eb64:	003f9906 	br	804e9cc <__alt_data_end+0xfffe692c>
 804eb68:	00803fc4 	movi	r2,255
 804eb6c:	1445803a 	cmpltu	r2,r2,r17
 804eb70:	100490fa 	slli	r2,r2,3
 804eb74:	003fad06 	br	804ea2c <__alt_data_end+0xfffe698c>
 804eb78:	00804034 	movhi	r2,256
 804eb7c:	10bfffc4 	addi	r2,r2,-1
 804eb80:	11809f36 	bltu	r2,r6,804ee00 <__udivdi3+0x5a0>
 804eb84:	00800404 	movi	r2,16
 804eb88:	003f4c06 	br	804e8bc <__alt_data_end+0xfffe681c>
 804eb8c:	3dce983a 	sll	r7,r7,r23
 804eb90:	30b8d83a 	srl	fp,r6,r2
 804eb94:	80a2d83a 	srl	r17,r16,r2
 804eb98:	35cc983a 	sll	r6,r6,r23
 804eb9c:	3f38b03a 	or	fp,r7,fp
 804eba0:	e024d43a 	srli	r18,fp,16
 804eba4:	9884d83a 	srl	r2,r19,r2
 804eba8:	85e0983a 	sll	r16,r16,r23
 804ebac:	8809883a 	mov	r4,r17
 804ebb0:	900b883a 	mov	r5,r18
 804ebb4:	d9800015 	stw	r6,0(sp)
 804ebb8:	1420b03a 	or	r16,r2,r16
 804ebbc:	8042d540 	call	8042d54 <__umodsi3>
 804ebc0:	900b883a 	mov	r5,r18
 804ebc4:	8809883a 	mov	r4,r17
 804ebc8:	1029883a 	mov	r20,r2
 804ebcc:	e5bfffcc 	andi	r22,fp,65535
 804ebd0:	8042cf00 	call	8042cf0 <__udivsi3>
 804ebd4:	100b883a 	mov	r5,r2
 804ebd8:	b009883a 	mov	r4,r22
 804ebdc:	102b883a 	mov	r21,r2
 804ebe0:	8042dac0 	call	8042dac <__mulsi3>
 804ebe4:	a028943a 	slli	r20,r20,16
 804ebe8:	8006d43a 	srli	r3,r16,16
 804ebec:	1d06b03a 	or	r3,r3,r20
 804ebf0:	1880042e 	bgeu	r3,r2,804ec04 <__udivdi3+0x3a4>
 804ebf4:	1f07883a 	add	r3,r3,fp
 804ebf8:	a93fffc4 	addi	r4,r21,-1
 804ebfc:	1f00892e 	bgeu	r3,fp,804ee24 <__udivdi3+0x5c4>
 804ec00:	202b883a 	mov	r21,r4
 804ec04:	18a3c83a 	sub	r17,r3,r2
 804ec08:	8809883a 	mov	r4,r17
 804ec0c:	900b883a 	mov	r5,r18
 804ec10:	8042d540 	call	8042d54 <__umodsi3>
 804ec14:	1029883a 	mov	r20,r2
 804ec18:	8809883a 	mov	r4,r17
 804ec1c:	900b883a 	mov	r5,r18
 804ec20:	a028943a 	slli	r20,r20,16
 804ec24:	8042cf00 	call	8042cf0 <__udivsi3>
 804ec28:	100b883a 	mov	r5,r2
 804ec2c:	b009883a 	mov	r4,r22
 804ec30:	843fffcc 	andi	r16,r16,65535
 804ec34:	1023883a 	mov	r17,r2
 804ec38:	8520b03a 	or	r16,r16,r20
 804ec3c:	8042dac0 	call	8042dac <__mulsi3>
 804ec40:	8080042e 	bgeu	r16,r2,804ec54 <__udivdi3+0x3f4>
 804ec44:	8721883a 	add	r16,r16,fp
 804ec48:	88ffffc4 	addi	r3,r17,-1
 804ec4c:	8700712e 	bgeu	r16,fp,804ee14 <__udivdi3+0x5b4>
 804ec50:	1823883a 	mov	r17,r3
 804ec54:	a80e943a 	slli	r7,r21,16
 804ec58:	d8c00017 	ldw	r3,0(sp)
 804ec5c:	80a1c83a 	sub	r16,r16,r2
 804ec60:	3c64b03a 	or	r18,r7,r17
 804ec64:	1d3fffcc 	andi	r20,r3,65535
 804ec68:	9022d43a 	srli	r17,r18,16
 804ec6c:	95bfffcc 	andi	r22,r18,65535
 804ec70:	a00b883a 	mov	r5,r20
 804ec74:	b009883a 	mov	r4,r22
 804ec78:	182ad43a 	srli	r21,r3,16
 804ec7c:	8042dac0 	call	8042dac <__mulsi3>
 804ec80:	a00b883a 	mov	r5,r20
 804ec84:	8809883a 	mov	r4,r17
 804ec88:	1039883a 	mov	fp,r2
 804ec8c:	8042dac0 	call	8042dac <__mulsi3>
 804ec90:	8809883a 	mov	r4,r17
 804ec94:	a80b883a 	mov	r5,r21
 804ec98:	1029883a 	mov	r20,r2
 804ec9c:	8042dac0 	call	8042dac <__mulsi3>
 804eca0:	a80b883a 	mov	r5,r21
 804eca4:	b009883a 	mov	r4,r22
 804eca8:	1023883a 	mov	r17,r2
 804ecac:	8042dac0 	call	8042dac <__mulsi3>
 804ecb0:	e006d43a 	srli	r3,fp,16
 804ecb4:	1505883a 	add	r2,r2,r20
 804ecb8:	1887883a 	add	r3,r3,r2
 804ecbc:	1d00022e 	bgeu	r3,r20,804ecc8 <__udivdi3+0x468>
 804ecc0:	00800074 	movhi	r2,1
 804ecc4:	88a3883a 	add	r17,r17,r2
 804ecc8:	1804d43a 	srli	r2,r3,16
 804eccc:	1463883a 	add	r17,r2,r17
 804ecd0:	84404436 	bltu	r16,r17,804ede4 <__udivdi3+0x584>
 804ecd4:	84403e26 	beq	r16,r17,804edd0 <__udivdi3+0x570>
 804ecd8:	9005883a 	mov	r2,r18
 804ecdc:	0007883a 	mov	r3,zero
 804ece0:	003f9106 	br	804eb28 <__alt_data_end+0xfffe6a88>
 804ece4:	88e2983a 	sll	r17,r17,r3
 804ece8:	80aed83a 	srl	r23,r16,r2
 804ecec:	80e0983a 	sll	r16,r16,r3
 804ecf0:	882ad43a 	srli	r21,r17,16
 804ecf4:	9884d83a 	srl	r2,r19,r2
 804ecf8:	b809883a 	mov	r4,r23
 804ecfc:	a80b883a 	mov	r5,r21
 804ed00:	98e4983a 	sll	r18,r19,r3
 804ed04:	142cb03a 	or	r22,r2,r16
 804ed08:	8042d540 	call	8042d54 <__umodsi3>
 804ed0c:	b809883a 	mov	r4,r23
 804ed10:	a80b883a 	mov	r5,r21
 804ed14:	1027883a 	mov	r19,r2
 804ed18:	8d3fffcc 	andi	r20,r17,65535
 804ed1c:	8042cf00 	call	8042cf0 <__udivsi3>
 804ed20:	a009883a 	mov	r4,r20
 804ed24:	100b883a 	mov	r5,r2
 804ed28:	102f883a 	mov	r23,r2
 804ed2c:	8042dac0 	call	8042dac <__mulsi3>
 804ed30:	9826943a 	slli	r19,r19,16
 804ed34:	b008d43a 	srli	r4,r22,16
 804ed38:	24c8b03a 	or	r4,r4,r19
 804ed3c:	2080062e 	bgeu	r4,r2,804ed58 <__udivdi3+0x4f8>
 804ed40:	2449883a 	add	r4,r4,r17
 804ed44:	b8ffffc4 	addi	r3,r23,-1
 804ed48:	24403c36 	bltu	r4,r17,804ee3c <__udivdi3+0x5dc>
 804ed4c:	20803b2e 	bgeu	r4,r2,804ee3c <__udivdi3+0x5dc>
 804ed50:	bdffff84 	addi	r23,r23,-2
 804ed54:	2449883a 	add	r4,r4,r17
 804ed58:	20a1c83a 	sub	r16,r4,r2
 804ed5c:	a80b883a 	mov	r5,r21
 804ed60:	8009883a 	mov	r4,r16
 804ed64:	8042d540 	call	8042d54 <__umodsi3>
 804ed68:	a80b883a 	mov	r5,r21
 804ed6c:	8009883a 	mov	r4,r16
 804ed70:	1027883a 	mov	r19,r2
 804ed74:	8042cf00 	call	8042cf0 <__udivsi3>
 804ed78:	a009883a 	mov	r4,r20
 804ed7c:	100b883a 	mov	r5,r2
 804ed80:	9826943a 	slli	r19,r19,16
 804ed84:	1039883a 	mov	fp,r2
 804ed88:	8042dac0 	call	8042dac <__mulsi3>
 804ed8c:	b13fffcc 	andi	r4,r22,65535
 804ed90:	24c8b03a 	or	r4,r4,r19
 804ed94:	2080062e 	bgeu	r4,r2,804edb0 <__udivdi3+0x550>
 804ed98:	2449883a 	add	r4,r4,r17
 804ed9c:	e0ffffc4 	addi	r3,fp,-1
 804eda0:	24402436 	bltu	r4,r17,804ee34 <__udivdi3+0x5d4>
 804eda4:	2080232e 	bgeu	r4,r2,804ee34 <__udivdi3+0x5d4>
 804eda8:	e73fff84 	addi	fp,fp,-2
 804edac:	2449883a 	add	r4,r4,r17
 804edb0:	b82e943a 	slli	r23,r23,16
 804edb4:	20a1c83a 	sub	r16,r4,r2
 804edb8:	bf06b03a 	or	r3,r23,fp
 804edbc:	003f2806 	br	804ea60 <__alt_data_end+0xfffe69c0>
 804edc0:	2021883a 	mov	r16,r4
 804edc4:	003f5306 	br	804eb14 <__alt_data_end+0xfffe6a74>
 804edc8:	1821883a 	mov	r16,r3
 804edcc:	003ef406 	br	804e9a0 <__alt_data_end+0xfffe6900>
 804edd0:	1806943a 	slli	r3,r3,16
 804edd4:	9de6983a 	sll	r19,r19,r23
 804edd8:	e73fffcc 	andi	fp,fp,65535
 804eddc:	1f07883a 	add	r3,r3,fp
 804ede0:	98ffbd2e 	bgeu	r19,r3,804ecd8 <__alt_data_end+0xfffe6c38>
 804ede4:	90bfffc4 	addi	r2,r18,-1
 804ede8:	0007883a 	mov	r3,zero
 804edec:	003f4e06 	br	804eb28 <__alt_data_end+0xfffe6a88>
 804edf0:	00800604 	movi	r2,24
 804edf4:	003ef506 	br	804e9cc <__alt_data_end+0xfffe692c>
 804edf8:	00800604 	movi	r2,24
 804edfc:	003f0b06 	br	804ea2c <__alt_data_end+0xfffe698c>
 804ee00:	00800604 	movi	r2,24
 804ee04:	003ead06 	br	804e8bc <__alt_data_end+0xfffe681c>
 804ee08:	0007883a 	mov	r3,zero
 804ee0c:	00800044 	movi	r2,1
 804ee10:	003f4506 	br	804eb28 <__alt_data_end+0xfffe6a88>
 804ee14:	80bf8e2e 	bgeu	r16,r2,804ec50 <__alt_data_end+0xfffe6bb0>
 804ee18:	8c7fff84 	addi	r17,r17,-2
 804ee1c:	8721883a 	add	r16,r16,fp
 804ee20:	003f8c06 	br	804ec54 <__alt_data_end+0xfffe6bb4>
 804ee24:	18bf762e 	bgeu	r3,r2,804ec00 <__alt_data_end+0xfffe6b60>
 804ee28:	ad7fff84 	addi	r21,r21,-2
 804ee2c:	1f07883a 	add	r3,r3,fp
 804ee30:	003f7406 	br	804ec04 <__alt_data_end+0xfffe6b64>
 804ee34:	1839883a 	mov	fp,r3
 804ee38:	003fdd06 	br	804edb0 <__alt_data_end+0xfffe6d10>
 804ee3c:	182f883a 	mov	r23,r3
 804ee40:	003fc506 	br	804ed58 <__alt_data_end+0xfffe6cb8>
 804ee44:	b5bfff84 	addi	r22,r22,-2
 804ee48:	3c4f883a 	add	r7,r7,r17
 804ee4c:	003f1a06 	br	804eab8 <__alt_data_end+0xfffe6a18>
 804ee50:	b5bfff84 	addi	r22,r22,-2
 804ee54:	1c47883a 	add	r3,r3,r17
 804ee58:	003ebc06 	br	804e94c <__alt_data_end+0xfffe68ac>

0804ee5c <__umoddi3>:
 804ee5c:	defff304 	addi	sp,sp,-52
 804ee60:	df000b15 	stw	fp,44(sp)
 804ee64:	dc400415 	stw	r17,16(sp)
 804ee68:	dc000315 	stw	r16,12(sp)
 804ee6c:	dfc00c15 	stw	ra,48(sp)
 804ee70:	ddc00a15 	stw	r23,40(sp)
 804ee74:	dd800915 	stw	r22,36(sp)
 804ee78:	dd400815 	stw	r21,32(sp)
 804ee7c:	dd000715 	stw	r20,28(sp)
 804ee80:	dcc00615 	stw	r19,24(sp)
 804ee84:	dc800515 	stw	r18,20(sp)
 804ee88:	2021883a 	mov	r16,r4
 804ee8c:	2823883a 	mov	r17,r5
 804ee90:	2839883a 	mov	fp,r5
 804ee94:	3800401e 	bne	r7,zero,804ef98 <__umoddi3+0x13c>
 804ee98:	3027883a 	mov	r19,r6
 804ee9c:	2029883a 	mov	r20,r4
 804eea0:	2980552e 	bgeu	r5,r6,804eff8 <__umoddi3+0x19c>
 804eea4:	00bfffd4 	movui	r2,65535
 804eea8:	1180a236 	bltu	r2,r6,804f134 <__umoddi3+0x2d8>
 804eeac:	01003fc4 	movi	r4,255
 804eeb0:	2189803a 	cmpltu	r4,r4,r6
 804eeb4:	200890fa 	slli	r4,r4,3
 804eeb8:	3104d83a 	srl	r2,r6,r4
 804eebc:	00c20174 	movhi	r3,2053
 804eec0:	18d12084 	addi	r3,r3,17538
 804eec4:	1885883a 	add	r2,r3,r2
 804eec8:	10c00003 	ldbu	r3,0(r2)
 804eecc:	00800804 	movi	r2,32
 804eed0:	1909883a 	add	r4,r3,r4
 804eed4:	1125c83a 	sub	r18,r2,r4
 804eed8:	90000526 	beq	r18,zero,804eef0 <__umoddi3+0x94>
 804eedc:	8ca2983a 	sll	r17,r17,r18
 804eee0:	8108d83a 	srl	r4,r16,r4
 804eee4:	34a6983a 	sll	r19,r6,r18
 804eee8:	84a8983a 	sll	r20,r16,r18
 804eeec:	2478b03a 	or	fp,r4,r17
 804eef0:	982cd43a 	srli	r22,r19,16
 804eef4:	e009883a 	mov	r4,fp
 804eef8:	9dffffcc 	andi	r23,r19,65535
 804eefc:	b00b883a 	mov	r5,r22
 804ef00:	8042d540 	call	8042d54 <__umodsi3>
 804ef04:	b00b883a 	mov	r5,r22
 804ef08:	e009883a 	mov	r4,fp
 804ef0c:	102b883a 	mov	r21,r2
 804ef10:	8042cf00 	call	8042cf0 <__udivsi3>
 804ef14:	100b883a 	mov	r5,r2
 804ef18:	b809883a 	mov	r4,r23
 804ef1c:	8042dac0 	call	8042dac <__mulsi3>
 804ef20:	a82a943a 	slli	r21,r21,16
 804ef24:	a006d43a 	srli	r3,r20,16
 804ef28:	1d46b03a 	or	r3,r3,r21
 804ef2c:	1880032e 	bgeu	r3,r2,804ef3c <__umoddi3+0xe0>
 804ef30:	1cc7883a 	add	r3,r3,r19
 804ef34:	1cc00136 	bltu	r3,r19,804ef3c <__umoddi3+0xe0>
 804ef38:	18813136 	bltu	r3,r2,804f400 <__umoddi3+0x5a4>
 804ef3c:	18a1c83a 	sub	r16,r3,r2
 804ef40:	b00b883a 	mov	r5,r22
 804ef44:	8009883a 	mov	r4,r16
 804ef48:	8042d540 	call	8042d54 <__umodsi3>
 804ef4c:	b00b883a 	mov	r5,r22
 804ef50:	8009883a 	mov	r4,r16
 804ef54:	1023883a 	mov	r17,r2
 804ef58:	8042cf00 	call	8042cf0 <__udivsi3>
 804ef5c:	100b883a 	mov	r5,r2
 804ef60:	b809883a 	mov	r4,r23
 804ef64:	8822943a 	slli	r17,r17,16
 804ef68:	8042dac0 	call	8042dac <__mulsi3>
 804ef6c:	a0ffffcc 	andi	r3,r20,65535
 804ef70:	1c46b03a 	or	r3,r3,r17
 804ef74:	1880042e 	bgeu	r3,r2,804ef88 <__umoddi3+0x12c>
 804ef78:	1cc7883a 	add	r3,r3,r19
 804ef7c:	1cc00236 	bltu	r3,r19,804ef88 <__umoddi3+0x12c>
 804ef80:	1880012e 	bgeu	r3,r2,804ef88 <__umoddi3+0x12c>
 804ef84:	1cc7883a 	add	r3,r3,r19
 804ef88:	1885c83a 	sub	r2,r3,r2
 804ef8c:	1484d83a 	srl	r2,r2,r18
 804ef90:	0007883a 	mov	r3,zero
 804ef94:	00005306 	br	804f0e4 <__umoddi3+0x288>
 804ef98:	29c05036 	bltu	r5,r7,804f0dc <__umoddi3+0x280>
 804ef9c:	00bfffd4 	movui	r2,65535
 804efa0:	11c05c2e 	bgeu	r2,r7,804f114 <__umoddi3+0x2b8>
 804efa4:	00804034 	movhi	r2,256
 804efa8:	10bfffc4 	addi	r2,r2,-1
 804efac:	11c10636 	bltu	r2,r7,804f3c8 <__umoddi3+0x56c>
 804efb0:	01000404 	movi	r4,16
 804efb4:	3904d83a 	srl	r2,r7,r4
 804efb8:	00c20174 	movhi	r3,2053
 804efbc:	18d12084 	addi	r3,r3,17538
 804efc0:	1885883a 	add	r2,r3,r2
 804efc4:	14c00003 	ldbu	r19,0(r2)
 804efc8:	00c00804 	movi	r3,32
 804efcc:	9927883a 	add	r19,r19,r4
 804efd0:	1ce9c83a 	sub	r20,r3,r19
 804efd4:	a0005c1e 	bne	r20,zero,804f148 <__umoddi3+0x2ec>
 804efd8:	3c400136 	bltu	r7,r17,804efe0 <__umoddi3+0x184>
 804efdc:	81810a36 	bltu	r16,r6,804f408 <__umoddi3+0x5ac>
 804efe0:	8185c83a 	sub	r2,r16,r6
 804efe4:	89e3c83a 	sub	r17,r17,r7
 804efe8:	8089803a 	cmpltu	r4,r16,r2
 804efec:	8939c83a 	sub	fp,r17,r4
 804eff0:	e007883a 	mov	r3,fp
 804eff4:	00003b06 	br	804f0e4 <__umoddi3+0x288>
 804eff8:	3000041e 	bne	r6,zero,804f00c <__umoddi3+0x1b0>
 804effc:	000b883a 	mov	r5,zero
 804f000:	01000044 	movi	r4,1
 804f004:	8042cf00 	call	8042cf0 <__udivsi3>
 804f008:	1027883a 	mov	r19,r2
 804f00c:	00bfffd4 	movui	r2,65535
 804f010:	14c0442e 	bgeu	r2,r19,804f124 <__umoddi3+0x2c8>
 804f014:	00804034 	movhi	r2,256
 804f018:	10bfffc4 	addi	r2,r2,-1
 804f01c:	14c0ec36 	bltu	r2,r19,804f3d0 <__umoddi3+0x574>
 804f020:	00800404 	movi	r2,16
 804f024:	9886d83a 	srl	r3,r19,r2
 804f028:	01020174 	movhi	r4,2053
 804f02c:	21112084 	addi	r4,r4,17538
 804f030:	20c7883a 	add	r3,r4,r3
 804f034:	18c00003 	ldbu	r3,0(r3)
 804f038:	1887883a 	add	r3,r3,r2
 804f03c:	00800804 	movi	r2,32
 804f040:	10e5c83a 	sub	r18,r2,r3
 804f044:	9000ab1e 	bne	r18,zero,804f2f4 <__umoddi3+0x498>
 804f048:	982cd43a 	srli	r22,r19,16
 804f04c:	8ce3c83a 	sub	r17,r17,r19
 804f050:	9dffffcc 	andi	r23,r19,65535
 804f054:	b00b883a 	mov	r5,r22
 804f058:	8809883a 	mov	r4,r17
 804f05c:	8042d540 	call	8042d54 <__umodsi3>
 804f060:	b00b883a 	mov	r5,r22
 804f064:	8809883a 	mov	r4,r17
 804f068:	102b883a 	mov	r21,r2
 804f06c:	8042cf00 	call	8042cf0 <__udivsi3>
 804f070:	b80b883a 	mov	r5,r23
 804f074:	1009883a 	mov	r4,r2
 804f078:	8042dac0 	call	8042dac <__mulsi3>
 804f07c:	a82a943a 	slli	r21,r21,16
 804f080:	a006d43a 	srli	r3,r20,16
 804f084:	1d46b03a 	or	r3,r3,r21
 804f088:	1880042e 	bgeu	r3,r2,804f09c <__umoddi3+0x240>
 804f08c:	1cc7883a 	add	r3,r3,r19
 804f090:	1cc00236 	bltu	r3,r19,804f09c <__umoddi3+0x240>
 804f094:	1880012e 	bgeu	r3,r2,804f09c <__umoddi3+0x240>
 804f098:	1cc7883a 	add	r3,r3,r19
 804f09c:	18a1c83a 	sub	r16,r3,r2
 804f0a0:	b00b883a 	mov	r5,r22
 804f0a4:	8009883a 	mov	r4,r16
 804f0a8:	8042d540 	call	8042d54 <__umodsi3>
 804f0ac:	1023883a 	mov	r17,r2
 804f0b0:	b00b883a 	mov	r5,r22
 804f0b4:	8009883a 	mov	r4,r16
 804f0b8:	8042cf00 	call	8042cf0 <__udivsi3>
 804f0bc:	8822943a 	slli	r17,r17,16
 804f0c0:	b80b883a 	mov	r5,r23
 804f0c4:	1009883a 	mov	r4,r2
 804f0c8:	8042dac0 	call	8042dac <__mulsi3>
 804f0cc:	a53fffcc 	andi	r20,r20,65535
 804f0d0:	a446b03a 	or	r3,r20,r17
 804f0d4:	18bfac2e 	bgeu	r3,r2,804ef88 <__alt_data_end+0xfffe6ee8>
 804f0d8:	003fa706 	br	804ef78 <__alt_data_end+0xfffe6ed8>
 804f0dc:	2005883a 	mov	r2,r4
 804f0e0:	2807883a 	mov	r3,r5
 804f0e4:	dfc00c17 	ldw	ra,48(sp)
 804f0e8:	df000b17 	ldw	fp,44(sp)
 804f0ec:	ddc00a17 	ldw	r23,40(sp)
 804f0f0:	dd800917 	ldw	r22,36(sp)
 804f0f4:	dd400817 	ldw	r21,32(sp)
 804f0f8:	dd000717 	ldw	r20,28(sp)
 804f0fc:	dcc00617 	ldw	r19,24(sp)
 804f100:	dc800517 	ldw	r18,20(sp)
 804f104:	dc400417 	ldw	r17,16(sp)
 804f108:	dc000317 	ldw	r16,12(sp)
 804f10c:	dec00d04 	addi	sp,sp,52
 804f110:	f800283a 	ret
 804f114:	04c03fc4 	movi	r19,255
 804f118:	99c9803a 	cmpltu	r4,r19,r7
 804f11c:	200890fa 	slli	r4,r4,3
 804f120:	003fa406 	br	804efb4 <__alt_data_end+0xfffe6f14>
 804f124:	00803fc4 	movi	r2,255
 804f128:	14c5803a 	cmpltu	r2,r2,r19
 804f12c:	100490fa 	slli	r2,r2,3
 804f130:	003fbc06 	br	804f024 <__alt_data_end+0xfffe6f84>
 804f134:	00804034 	movhi	r2,256
 804f138:	10bfffc4 	addi	r2,r2,-1
 804f13c:	1180a636 	bltu	r2,r6,804f3d8 <__umoddi3+0x57c>
 804f140:	01000404 	movi	r4,16
 804f144:	003f5c06 	br	804eeb8 <__alt_data_end+0xfffe6e18>
 804f148:	3d0e983a 	sll	r7,r7,r20
 804f14c:	34ead83a 	srl	r21,r6,r19
 804f150:	8cc6d83a 	srl	r3,r17,r19
 804f154:	8d10983a 	sll	r8,r17,r20
 804f158:	3d6ab03a 	or	r21,r7,r21
 804f15c:	a82cd43a 	srli	r22,r21,16
 804f160:	84e2d83a 	srl	r17,r16,r19
 804f164:	1809883a 	mov	r4,r3
 804f168:	b00b883a 	mov	r5,r22
 804f16c:	8a22b03a 	or	r17,r17,r8
 804f170:	3524983a 	sll	r18,r6,r20
 804f174:	dc400015 	stw	r17,0(sp)
 804f178:	d8c00115 	stw	r3,4(sp)
 804f17c:	8042d540 	call	8042d54 <__umodsi3>
 804f180:	d8c00117 	ldw	r3,4(sp)
 804f184:	b00b883a 	mov	r5,r22
 804f188:	1039883a 	mov	fp,r2
 804f18c:	1809883a 	mov	r4,r3
 804f190:	8042cf00 	call	8042cf0 <__udivsi3>
 804f194:	adffffcc 	andi	r23,r21,65535
 804f198:	100b883a 	mov	r5,r2
 804f19c:	b809883a 	mov	r4,r23
 804f1a0:	1023883a 	mov	r17,r2
 804f1a4:	8042dac0 	call	8042dac <__mulsi3>
 804f1a8:	d9400017 	ldw	r5,0(sp)
 804f1ac:	e008943a 	slli	r4,fp,16
 804f1b0:	8520983a 	sll	r16,r16,r20
 804f1b4:	2806d43a 	srli	r3,r5,16
 804f1b8:	1906b03a 	or	r3,r3,r4
 804f1bc:	1880042e 	bgeu	r3,r2,804f1d0 <__umoddi3+0x374>
 804f1c0:	1d47883a 	add	r3,r3,r21
 804f1c4:	893fffc4 	addi	r4,r17,-1
 804f1c8:	1d40892e 	bgeu	r3,r21,804f3f0 <__umoddi3+0x594>
 804f1cc:	2023883a 	mov	r17,r4
 804f1d0:	18b9c83a 	sub	fp,r3,r2
 804f1d4:	b00b883a 	mov	r5,r22
 804f1d8:	e009883a 	mov	r4,fp
 804f1dc:	8042d540 	call	8042d54 <__umodsi3>
 804f1e0:	b00b883a 	mov	r5,r22
 804f1e4:	e009883a 	mov	r4,fp
 804f1e8:	d8800215 	stw	r2,8(sp)
 804f1ec:	8042cf00 	call	8042cf0 <__udivsi3>
 804f1f0:	100b883a 	mov	r5,r2
 804f1f4:	b809883a 	mov	r4,r23
 804f1f8:	102d883a 	mov	r22,r2
 804f1fc:	8042dac0 	call	8042dac <__mulsi3>
 804f200:	d9800217 	ldw	r6,8(sp)
 804f204:	d8c00017 	ldw	r3,0(sp)
 804f208:	300c943a 	slli	r6,r6,16
 804f20c:	1a3fffcc 	andi	r8,r3,65535
 804f210:	4190b03a 	or	r8,r8,r6
 804f214:	4080042e 	bgeu	r8,r2,804f228 <__umoddi3+0x3cc>
 804f218:	4551883a 	add	r8,r8,r21
 804f21c:	b0ffffc4 	addi	r3,r22,-1
 804f220:	45406f2e 	bgeu	r8,r21,804f3e0 <__umoddi3+0x584>
 804f224:	182d883a 	mov	r22,r3
 804f228:	880e943a 	slli	r7,r17,16
 804f22c:	9006d43a 	srli	r3,r18,16
 804f230:	91bfffcc 	andi	r6,r18,65535
 804f234:	3dacb03a 	or	r22,r7,r22
 804f238:	b02ed43a 	srli	r23,r22,16
 804f23c:	b5bfffcc 	andi	r22,r22,65535
 804f240:	300b883a 	mov	r5,r6
 804f244:	b009883a 	mov	r4,r22
 804f248:	40a3c83a 	sub	r17,r8,r2
 804f24c:	d8c00115 	stw	r3,4(sp)
 804f250:	d9800215 	stw	r6,8(sp)
 804f254:	8042dac0 	call	8042dac <__mulsi3>
 804f258:	d9800217 	ldw	r6,8(sp)
 804f25c:	b809883a 	mov	r4,r23
 804f260:	1039883a 	mov	fp,r2
 804f264:	300b883a 	mov	r5,r6
 804f268:	8042dac0 	call	8042dac <__mulsi3>
 804f26c:	d8c00117 	ldw	r3,4(sp)
 804f270:	b809883a 	mov	r4,r23
 804f274:	d8800215 	stw	r2,8(sp)
 804f278:	180b883a 	mov	r5,r3
 804f27c:	8042dac0 	call	8042dac <__mulsi3>
 804f280:	d8c00117 	ldw	r3,4(sp)
 804f284:	b009883a 	mov	r4,r22
 804f288:	102f883a 	mov	r23,r2
 804f28c:	180b883a 	mov	r5,r3
 804f290:	8042dac0 	call	8042dac <__mulsi3>
 804f294:	d9800217 	ldw	r6,8(sp)
 804f298:	e006d43a 	srli	r3,fp,16
 804f29c:	1185883a 	add	r2,r2,r6
 804f2a0:	1885883a 	add	r2,r3,r2
 804f2a4:	1180022e 	bgeu	r2,r6,804f2b0 <__umoddi3+0x454>
 804f2a8:	00c00074 	movhi	r3,1
 804f2ac:	b8ef883a 	add	r23,r23,r3
 804f2b0:	1006d43a 	srli	r3,r2,16
 804f2b4:	1004943a 	slli	r2,r2,16
 804f2b8:	e73fffcc 	andi	fp,fp,65535
 804f2bc:	1dc7883a 	add	r3,r3,r23
 804f2c0:	1739883a 	add	fp,r2,fp
 804f2c4:	88c03a36 	bltu	r17,r3,804f3b0 <__umoddi3+0x554>
 804f2c8:	88c05126 	beq	r17,r3,804f410 <__umoddi3+0x5b4>
 804f2cc:	88c9c83a 	sub	r4,r17,r3
 804f2d0:	e00f883a 	mov	r7,fp
 804f2d4:	81cfc83a 	sub	r7,r16,r7
 804f2d8:	81c7803a 	cmpltu	r3,r16,r7
 804f2dc:	20c7c83a 	sub	r3,r4,r3
 804f2e0:	1cc4983a 	sll	r2,r3,r19
 804f2e4:	3d0ed83a 	srl	r7,r7,r20
 804f2e8:	1d06d83a 	srl	r3,r3,r20
 804f2ec:	11c4b03a 	or	r2,r2,r7
 804f2f0:	003f7c06 	br	804f0e4 <__alt_data_end+0xfffe7044>
 804f2f4:	9ca6983a 	sll	r19,r19,r18
 804f2f8:	88f8d83a 	srl	fp,r17,r3
 804f2fc:	80c4d83a 	srl	r2,r16,r3
 804f300:	982cd43a 	srli	r22,r19,16
 804f304:	8ca2983a 	sll	r17,r17,r18
 804f308:	e009883a 	mov	r4,fp
 804f30c:	b00b883a 	mov	r5,r22
 804f310:	146ab03a 	or	r21,r2,r17
 804f314:	8042d540 	call	8042d54 <__umodsi3>
 804f318:	b00b883a 	mov	r5,r22
 804f31c:	e009883a 	mov	r4,fp
 804f320:	1029883a 	mov	r20,r2
 804f324:	9dffffcc 	andi	r23,r19,65535
 804f328:	8042cf00 	call	8042cf0 <__udivsi3>
 804f32c:	b809883a 	mov	r4,r23
 804f330:	100b883a 	mov	r5,r2
 804f334:	8042dac0 	call	8042dac <__mulsi3>
 804f338:	a008943a 	slli	r4,r20,16
 804f33c:	a806d43a 	srli	r3,r21,16
 804f340:	84a8983a 	sll	r20,r16,r18
 804f344:	1906b03a 	or	r3,r3,r4
 804f348:	1880042e 	bgeu	r3,r2,804f35c <__umoddi3+0x500>
 804f34c:	1cc7883a 	add	r3,r3,r19
 804f350:	1cc00236 	bltu	r3,r19,804f35c <__umoddi3+0x500>
 804f354:	1880012e 	bgeu	r3,r2,804f35c <__umoddi3+0x500>
 804f358:	1cc7883a 	add	r3,r3,r19
 804f35c:	18a3c83a 	sub	r17,r3,r2
 804f360:	b00b883a 	mov	r5,r22
 804f364:	8809883a 	mov	r4,r17
 804f368:	8042d540 	call	8042d54 <__umodsi3>
 804f36c:	b00b883a 	mov	r5,r22
 804f370:	8809883a 	mov	r4,r17
 804f374:	1021883a 	mov	r16,r2
 804f378:	8042cf00 	call	8042cf0 <__udivsi3>
 804f37c:	100b883a 	mov	r5,r2
 804f380:	b809883a 	mov	r4,r23
 804f384:	8020943a 	slli	r16,r16,16
 804f388:	8042dac0 	call	8042dac <__mulsi3>
 804f38c:	a8ffffcc 	andi	r3,r21,65535
 804f390:	1c06b03a 	or	r3,r3,r16
 804f394:	1880042e 	bgeu	r3,r2,804f3a8 <__umoddi3+0x54c>
 804f398:	1cc7883a 	add	r3,r3,r19
 804f39c:	1cc00236 	bltu	r3,r19,804f3a8 <__umoddi3+0x54c>
 804f3a0:	1880012e 	bgeu	r3,r2,804f3a8 <__umoddi3+0x54c>
 804f3a4:	1cc7883a 	add	r3,r3,r19
 804f3a8:	18a3c83a 	sub	r17,r3,r2
 804f3ac:	003f2906 	br	804f054 <__alt_data_end+0xfffe6fb4>
 804f3b0:	e48fc83a 	sub	r7,fp,r18
 804f3b4:	1d49c83a 	sub	r4,r3,r21
 804f3b8:	e1f9803a 	cmpltu	fp,fp,r7
 804f3bc:	2739c83a 	sub	fp,r4,fp
 804f3c0:	8f09c83a 	sub	r4,r17,fp
 804f3c4:	003fc306 	br	804f2d4 <__alt_data_end+0xfffe7234>
 804f3c8:	01000604 	movi	r4,24
 804f3cc:	003ef906 	br	804efb4 <__alt_data_end+0xfffe6f14>
 804f3d0:	00800604 	movi	r2,24
 804f3d4:	003f1306 	br	804f024 <__alt_data_end+0xfffe6f84>
 804f3d8:	01000604 	movi	r4,24
 804f3dc:	003eb606 	br	804eeb8 <__alt_data_end+0xfffe6e18>
 804f3e0:	40bf902e 	bgeu	r8,r2,804f224 <__alt_data_end+0xfffe7184>
 804f3e4:	b5bfff84 	addi	r22,r22,-2
 804f3e8:	4551883a 	add	r8,r8,r21
 804f3ec:	003f8e06 	br	804f228 <__alt_data_end+0xfffe7188>
 804f3f0:	18bf762e 	bgeu	r3,r2,804f1cc <__alt_data_end+0xfffe712c>
 804f3f4:	8c7fff84 	addi	r17,r17,-2
 804f3f8:	1d47883a 	add	r3,r3,r21
 804f3fc:	003f7406 	br	804f1d0 <__alt_data_end+0xfffe7130>
 804f400:	1cc7883a 	add	r3,r3,r19
 804f404:	003ecd06 	br	804ef3c <__alt_data_end+0xfffe6e9c>
 804f408:	8005883a 	mov	r2,r16
 804f40c:	003ef806 	br	804eff0 <__alt_data_end+0xfffe6f50>
 804f410:	873fe736 	bltu	r16,fp,804f3b0 <__alt_data_end+0xfffe7310>
 804f414:	e00f883a 	mov	r7,fp
 804f418:	0009883a 	mov	r4,zero
 804f41c:	003fad06 	br	804f2d4 <__alt_data_end+0xfffe7234>

0804f420 <__adddf3>:
 804f420:	02c00434 	movhi	r11,16
 804f424:	5affffc4 	addi	r11,r11,-1
 804f428:	2806d7fa 	srli	r3,r5,31
 804f42c:	2ad4703a 	and	r10,r5,r11
 804f430:	3ad2703a 	and	r9,r7,r11
 804f434:	3804d53a 	srli	r2,r7,20
 804f438:	3018d77a 	srli	r12,r6,29
 804f43c:	280ad53a 	srli	r5,r5,20
 804f440:	501490fa 	slli	r10,r10,3
 804f444:	2010d77a 	srli	r8,r4,29
 804f448:	481290fa 	slli	r9,r9,3
 804f44c:	380ed7fa 	srli	r7,r7,31
 804f450:	defffb04 	addi	sp,sp,-20
 804f454:	dc800215 	stw	r18,8(sp)
 804f458:	dc400115 	stw	r17,4(sp)
 804f45c:	dc000015 	stw	r16,0(sp)
 804f460:	dfc00415 	stw	ra,16(sp)
 804f464:	dcc00315 	stw	r19,12(sp)
 804f468:	1c803fcc 	andi	r18,r3,255
 804f46c:	2c01ffcc 	andi	r16,r5,2047
 804f470:	5210b03a 	or	r8,r10,r8
 804f474:	202290fa 	slli	r17,r4,3
 804f478:	1081ffcc 	andi	r2,r2,2047
 804f47c:	4b12b03a 	or	r9,r9,r12
 804f480:	300c90fa 	slli	r6,r6,3
 804f484:	91c07526 	beq	r18,r7,804f65c <__adddf3+0x23c>
 804f488:	8087c83a 	sub	r3,r16,r2
 804f48c:	00c0ab0e 	bge	zero,r3,804f73c <__adddf3+0x31c>
 804f490:	10002a1e 	bne	r2,zero,804f53c <__adddf3+0x11c>
 804f494:	4984b03a 	or	r2,r9,r6
 804f498:	1000961e 	bne	r2,zero,804f6f4 <__adddf3+0x2d4>
 804f49c:	888001cc 	andi	r2,r17,7
 804f4a0:	10000726 	beq	r2,zero,804f4c0 <__adddf3+0xa0>
 804f4a4:	888003cc 	andi	r2,r17,15
 804f4a8:	00c00104 	movi	r3,4
 804f4ac:	10c00426 	beq	r2,r3,804f4c0 <__adddf3+0xa0>
 804f4b0:	88c7883a 	add	r3,r17,r3
 804f4b4:	1c63803a 	cmpltu	r17,r3,r17
 804f4b8:	4451883a 	add	r8,r8,r17
 804f4bc:	1823883a 	mov	r17,r3
 804f4c0:	4080202c 	andhi	r2,r8,128
 804f4c4:	10005926 	beq	r2,zero,804f62c <__adddf3+0x20c>
 804f4c8:	84000044 	addi	r16,r16,1
 804f4cc:	0081ffc4 	movi	r2,2047
 804f4d0:	8080ba26 	beq	r16,r2,804f7bc <__adddf3+0x39c>
 804f4d4:	00bfe034 	movhi	r2,65408
 804f4d8:	10bfffc4 	addi	r2,r2,-1
 804f4dc:	4090703a 	and	r8,r8,r2
 804f4e0:	4004977a 	slli	r2,r8,29
 804f4e4:	4010927a 	slli	r8,r8,9
 804f4e8:	8822d0fa 	srli	r17,r17,3
 804f4ec:	8401ffcc 	andi	r16,r16,2047
 804f4f0:	4010d33a 	srli	r8,r8,12
 804f4f4:	9007883a 	mov	r3,r18
 804f4f8:	1444b03a 	or	r2,r2,r17
 804f4fc:	8401ffcc 	andi	r16,r16,2047
 804f500:	8020953a 	slli	r16,r16,20
 804f504:	18c03fcc 	andi	r3,r3,255
 804f508:	01000434 	movhi	r4,16
 804f50c:	213fffc4 	addi	r4,r4,-1
 804f510:	180697fa 	slli	r3,r3,31
 804f514:	4110703a 	and	r8,r8,r4
 804f518:	4410b03a 	or	r8,r8,r16
 804f51c:	40c6b03a 	or	r3,r8,r3
 804f520:	dfc00417 	ldw	ra,16(sp)
 804f524:	dcc00317 	ldw	r19,12(sp)
 804f528:	dc800217 	ldw	r18,8(sp)
 804f52c:	dc400117 	ldw	r17,4(sp)
 804f530:	dc000017 	ldw	r16,0(sp)
 804f534:	dec00504 	addi	sp,sp,20
 804f538:	f800283a 	ret
 804f53c:	0081ffc4 	movi	r2,2047
 804f540:	80bfd626 	beq	r16,r2,804f49c <__alt_data_end+0xfffe73fc>
 804f544:	4a402034 	orhi	r9,r9,128
 804f548:	00800e04 	movi	r2,56
 804f54c:	10c09f16 	blt	r2,r3,804f7cc <__adddf3+0x3ac>
 804f550:	008007c4 	movi	r2,31
 804f554:	10c0c216 	blt	r2,r3,804f860 <__adddf3+0x440>
 804f558:	00800804 	movi	r2,32
 804f55c:	10c5c83a 	sub	r2,r2,r3
 804f560:	488a983a 	sll	r5,r9,r2
 804f564:	30c8d83a 	srl	r4,r6,r3
 804f568:	3084983a 	sll	r2,r6,r2
 804f56c:	48c6d83a 	srl	r3,r9,r3
 804f570:	290cb03a 	or	r6,r5,r4
 804f574:	1004c03a 	cmpne	r2,r2,zero
 804f578:	308cb03a 	or	r6,r6,r2
 804f57c:	898dc83a 	sub	r6,r17,r6
 804f580:	89a3803a 	cmpltu	r17,r17,r6
 804f584:	40d1c83a 	sub	r8,r8,r3
 804f588:	4451c83a 	sub	r8,r8,r17
 804f58c:	3023883a 	mov	r17,r6
 804f590:	4080202c 	andhi	r2,r8,128
 804f594:	10002326 	beq	r2,zero,804f624 <__adddf3+0x204>
 804f598:	04c02034 	movhi	r19,128
 804f59c:	9cffffc4 	addi	r19,r19,-1
 804f5a0:	44e6703a 	and	r19,r8,r19
 804f5a4:	98007626 	beq	r19,zero,804f780 <__adddf3+0x360>
 804f5a8:	9809883a 	mov	r4,r19
 804f5ac:	80454e40 	call	80454e4 <__clzsi2>
 804f5b0:	10fffe04 	addi	r3,r2,-8
 804f5b4:	010007c4 	movi	r4,31
 804f5b8:	20c07716 	blt	r4,r3,804f798 <__adddf3+0x378>
 804f5bc:	00800804 	movi	r2,32
 804f5c0:	10c5c83a 	sub	r2,r2,r3
 804f5c4:	8884d83a 	srl	r2,r17,r2
 804f5c8:	98d0983a 	sll	r8,r19,r3
 804f5cc:	88e2983a 	sll	r17,r17,r3
 804f5d0:	1204b03a 	or	r2,r2,r8
 804f5d4:	1c007416 	blt	r3,r16,804f7a8 <__adddf3+0x388>
 804f5d8:	1c21c83a 	sub	r16,r3,r16
 804f5dc:	82000044 	addi	r8,r16,1
 804f5e0:	00c007c4 	movi	r3,31
 804f5e4:	1a009116 	blt	r3,r8,804f82c <__adddf3+0x40c>
 804f5e8:	00c00804 	movi	r3,32
 804f5ec:	1a07c83a 	sub	r3,r3,r8
 804f5f0:	8a08d83a 	srl	r4,r17,r8
 804f5f4:	88e2983a 	sll	r17,r17,r3
 804f5f8:	10c6983a 	sll	r3,r2,r3
 804f5fc:	1210d83a 	srl	r8,r2,r8
 804f600:	8804c03a 	cmpne	r2,r17,zero
 804f604:	1906b03a 	or	r3,r3,r4
 804f608:	18a2b03a 	or	r17,r3,r2
 804f60c:	0021883a 	mov	r16,zero
 804f610:	003fa206 	br	804f49c <__alt_data_end+0xfffe73fc>
 804f614:	1890b03a 	or	r8,r3,r2
 804f618:	40017d26 	beq	r8,zero,804fc10 <__adddf3+0x7f0>
 804f61c:	1011883a 	mov	r8,r2
 804f620:	1823883a 	mov	r17,r3
 804f624:	888001cc 	andi	r2,r17,7
 804f628:	103f9e1e 	bne	r2,zero,804f4a4 <__alt_data_end+0xfffe7404>
 804f62c:	4004977a 	slli	r2,r8,29
 804f630:	8822d0fa 	srli	r17,r17,3
 804f634:	4010d0fa 	srli	r8,r8,3
 804f638:	9007883a 	mov	r3,r18
 804f63c:	1444b03a 	or	r2,r2,r17
 804f640:	0101ffc4 	movi	r4,2047
 804f644:	81002426 	beq	r16,r4,804f6d8 <__adddf3+0x2b8>
 804f648:	8120703a 	and	r16,r16,r4
 804f64c:	01000434 	movhi	r4,16
 804f650:	213fffc4 	addi	r4,r4,-1
 804f654:	4110703a 	and	r8,r8,r4
 804f658:	003fa806 	br	804f4fc <__alt_data_end+0xfffe745c>
 804f65c:	8089c83a 	sub	r4,r16,r2
 804f660:	01005e0e 	bge	zero,r4,804f7dc <__adddf3+0x3bc>
 804f664:	10002b26 	beq	r2,zero,804f714 <__adddf3+0x2f4>
 804f668:	0081ffc4 	movi	r2,2047
 804f66c:	80bf8b26 	beq	r16,r2,804f49c <__alt_data_end+0xfffe73fc>
 804f670:	4a402034 	orhi	r9,r9,128
 804f674:	00800e04 	movi	r2,56
 804f678:	1100a40e 	bge	r2,r4,804f90c <__adddf3+0x4ec>
 804f67c:	498cb03a 	or	r6,r9,r6
 804f680:	300ac03a 	cmpne	r5,r6,zero
 804f684:	0013883a 	mov	r9,zero
 804f688:	2c4b883a 	add	r5,r5,r17
 804f68c:	2c63803a 	cmpltu	r17,r5,r17
 804f690:	4a11883a 	add	r8,r9,r8
 804f694:	8a11883a 	add	r8,r17,r8
 804f698:	2823883a 	mov	r17,r5
 804f69c:	4080202c 	andhi	r2,r8,128
 804f6a0:	103fe026 	beq	r2,zero,804f624 <__alt_data_end+0xfffe7584>
 804f6a4:	84000044 	addi	r16,r16,1
 804f6a8:	0081ffc4 	movi	r2,2047
 804f6ac:	8080d226 	beq	r16,r2,804f9f8 <__adddf3+0x5d8>
 804f6b0:	00bfe034 	movhi	r2,65408
 804f6b4:	10bfffc4 	addi	r2,r2,-1
 804f6b8:	4090703a 	and	r8,r8,r2
 804f6bc:	880ad07a 	srli	r5,r17,1
 804f6c0:	400897fa 	slli	r4,r8,31
 804f6c4:	88c0004c 	andi	r3,r17,1
 804f6c8:	28e2b03a 	or	r17,r5,r3
 804f6cc:	4010d07a 	srli	r8,r8,1
 804f6d0:	2462b03a 	or	r17,r4,r17
 804f6d4:	003f7106 	br	804f49c <__alt_data_end+0xfffe73fc>
 804f6d8:	4088b03a 	or	r4,r8,r2
 804f6dc:	20014526 	beq	r4,zero,804fbf4 <__adddf3+0x7d4>
 804f6e0:	01000434 	movhi	r4,16
 804f6e4:	42000234 	orhi	r8,r8,8
 804f6e8:	213fffc4 	addi	r4,r4,-1
 804f6ec:	4110703a 	and	r8,r8,r4
 804f6f0:	003f8206 	br	804f4fc <__alt_data_end+0xfffe745c>
 804f6f4:	18ffffc4 	addi	r3,r3,-1
 804f6f8:	1800491e 	bne	r3,zero,804f820 <__adddf3+0x400>
 804f6fc:	898bc83a 	sub	r5,r17,r6
 804f700:	8963803a 	cmpltu	r17,r17,r5
 804f704:	4251c83a 	sub	r8,r8,r9
 804f708:	4451c83a 	sub	r8,r8,r17
 804f70c:	2823883a 	mov	r17,r5
 804f710:	003f9f06 	br	804f590 <__alt_data_end+0xfffe74f0>
 804f714:	4984b03a 	or	r2,r9,r6
 804f718:	103f6026 	beq	r2,zero,804f49c <__alt_data_end+0xfffe73fc>
 804f71c:	213fffc4 	addi	r4,r4,-1
 804f720:	2000931e 	bne	r4,zero,804f970 <__adddf3+0x550>
 804f724:	898d883a 	add	r6,r17,r6
 804f728:	3463803a 	cmpltu	r17,r6,r17
 804f72c:	4251883a 	add	r8,r8,r9
 804f730:	8a11883a 	add	r8,r17,r8
 804f734:	3023883a 	mov	r17,r6
 804f738:	003fd806 	br	804f69c <__alt_data_end+0xfffe75fc>
 804f73c:	1800541e 	bne	r3,zero,804f890 <__adddf3+0x470>
 804f740:	80800044 	addi	r2,r16,1
 804f744:	1081ffcc 	andi	r2,r2,2047
 804f748:	00c00044 	movi	r3,1
 804f74c:	1880a00e 	bge	r3,r2,804f9d0 <__adddf3+0x5b0>
 804f750:	8989c83a 	sub	r4,r17,r6
 804f754:	8905803a 	cmpltu	r2,r17,r4
 804f758:	4267c83a 	sub	r19,r8,r9
 804f75c:	98a7c83a 	sub	r19,r19,r2
 804f760:	9880202c 	andhi	r2,r19,128
 804f764:	10006326 	beq	r2,zero,804f8f4 <__adddf3+0x4d4>
 804f768:	3463c83a 	sub	r17,r6,r17
 804f76c:	4a07c83a 	sub	r3,r9,r8
 804f770:	344d803a 	cmpltu	r6,r6,r17
 804f774:	19a7c83a 	sub	r19,r3,r6
 804f778:	3825883a 	mov	r18,r7
 804f77c:	983f8a1e 	bne	r19,zero,804f5a8 <__alt_data_end+0xfffe7508>
 804f780:	8809883a 	mov	r4,r17
 804f784:	80454e40 	call	80454e4 <__clzsi2>
 804f788:	10800804 	addi	r2,r2,32
 804f78c:	10fffe04 	addi	r3,r2,-8
 804f790:	010007c4 	movi	r4,31
 804f794:	20ff890e 	bge	r4,r3,804f5bc <__alt_data_end+0xfffe751c>
 804f798:	10bff604 	addi	r2,r2,-40
 804f79c:	8884983a 	sll	r2,r17,r2
 804f7a0:	0023883a 	mov	r17,zero
 804f7a4:	1c3f8c0e 	bge	r3,r16,804f5d8 <__alt_data_end+0xfffe7538>
 804f7a8:	023fe034 	movhi	r8,65408
 804f7ac:	423fffc4 	addi	r8,r8,-1
 804f7b0:	80e1c83a 	sub	r16,r16,r3
 804f7b4:	1210703a 	and	r8,r2,r8
 804f7b8:	003f3806 	br	804f49c <__alt_data_end+0xfffe73fc>
 804f7bc:	9007883a 	mov	r3,r18
 804f7c0:	0011883a 	mov	r8,zero
 804f7c4:	0005883a 	mov	r2,zero
 804f7c8:	003f4c06 	br	804f4fc <__alt_data_end+0xfffe745c>
 804f7cc:	498cb03a 	or	r6,r9,r6
 804f7d0:	300cc03a 	cmpne	r6,r6,zero
 804f7d4:	0007883a 	mov	r3,zero
 804f7d8:	003f6806 	br	804f57c <__alt_data_end+0xfffe74dc>
 804f7dc:	20009c1e 	bne	r4,zero,804fa50 <__adddf3+0x630>
 804f7e0:	80800044 	addi	r2,r16,1
 804f7e4:	1141ffcc 	andi	r5,r2,2047
 804f7e8:	01000044 	movi	r4,1
 804f7ec:	2140670e 	bge	r4,r5,804f98c <__adddf3+0x56c>
 804f7f0:	0101ffc4 	movi	r4,2047
 804f7f4:	11007f26 	beq	r2,r4,804f9f4 <__adddf3+0x5d4>
 804f7f8:	898d883a 	add	r6,r17,r6
 804f7fc:	4247883a 	add	r3,r8,r9
 804f800:	3451803a 	cmpltu	r8,r6,r17
 804f804:	40d1883a 	add	r8,r8,r3
 804f808:	402297fa 	slli	r17,r8,31
 804f80c:	300cd07a 	srli	r6,r6,1
 804f810:	4010d07a 	srli	r8,r8,1
 804f814:	1021883a 	mov	r16,r2
 804f818:	89a2b03a 	or	r17,r17,r6
 804f81c:	003f1f06 	br	804f49c <__alt_data_end+0xfffe73fc>
 804f820:	0081ffc4 	movi	r2,2047
 804f824:	80bf481e 	bne	r16,r2,804f548 <__alt_data_end+0xfffe74a8>
 804f828:	003f1c06 	br	804f49c <__alt_data_end+0xfffe73fc>
 804f82c:	843ff844 	addi	r16,r16,-31
 804f830:	01000804 	movi	r4,32
 804f834:	1406d83a 	srl	r3,r2,r16
 804f838:	41005026 	beq	r8,r4,804f97c <__adddf3+0x55c>
 804f83c:	01001004 	movi	r4,64
 804f840:	2211c83a 	sub	r8,r4,r8
 804f844:	1204983a 	sll	r2,r2,r8
 804f848:	88a2b03a 	or	r17,r17,r2
 804f84c:	8822c03a 	cmpne	r17,r17,zero
 804f850:	1c62b03a 	or	r17,r3,r17
 804f854:	0011883a 	mov	r8,zero
 804f858:	0021883a 	mov	r16,zero
 804f85c:	003f7106 	br	804f624 <__alt_data_end+0xfffe7584>
 804f860:	193ff804 	addi	r4,r3,-32
 804f864:	00800804 	movi	r2,32
 804f868:	4908d83a 	srl	r4,r9,r4
 804f86c:	18804526 	beq	r3,r2,804f984 <__adddf3+0x564>
 804f870:	00801004 	movi	r2,64
 804f874:	10c5c83a 	sub	r2,r2,r3
 804f878:	4886983a 	sll	r3,r9,r2
 804f87c:	198cb03a 	or	r6,r3,r6
 804f880:	300cc03a 	cmpne	r6,r6,zero
 804f884:	218cb03a 	or	r6,r4,r6
 804f888:	0007883a 	mov	r3,zero
 804f88c:	003f3b06 	br	804f57c <__alt_data_end+0xfffe74dc>
 804f890:	80002a26 	beq	r16,zero,804f93c <__adddf3+0x51c>
 804f894:	0101ffc4 	movi	r4,2047
 804f898:	11006826 	beq	r2,r4,804fa3c <__adddf3+0x61c>
 804f89c:	00c7c83a 	sub	r3,zero,r3
 804f8a0:	42002034 	orhi	r8,r8,128
 804f8a4:	01000e04 	movi	r4,56
 804f8a8:	20c07c16 	blt	r4,r3,804fa9c <__adddf3+0x67c>
 804f8ac:	010007c4 	movi	r4,31
 804f8b0:	20c0da16 	blt	r4,r3,804fc1c <__adddf3+0x7fc>
 804f8b4:	01000804 	movi	r4,32
 804f8b8:	20c9c83a 	sub	r4,r4,r3
 804f8bc:	4114983a 	sll	r10,r8,r4
 804f8c0:	88cad83a 	srl	r5,r17,r3
 804f8c4:	8908983a 	sll	r4,r17,r4
 804f8c8:	40c6d83a 	srl	r3,r8,r3
 804f8cc:	5162b03a 	or	r17,r10,r5
 804f8d0:	2008c03a 	cmpne	r4,r4,zero
 804f8d4:	8922b03a 	or	r17,r17,r4
 804f8d8:	3463c83a 	sub	r17,r6,r17
 804f8dc:	48c7c83a 	sub	r3,r9,r3
 804f8e0:	344d803a 	cmpltu	r6,r6,r17
 804f8e4:	1991c83a 	sub	r8,r3,r6
 804f8e8:	1021883a 	mov	r16,r2
 804f8ec:	3825883a 	mov	r18,r7
 804f8f0:	003f2706 	br	804f590 <__alt_data_end+0xfffe74f0>
 804f8f4:	24d0b03a 	or	r8,r4,r19
 804f8f8:	40001b1e 	bne	r8,zero,804f968 <__adddf3+0x548>
 804f8fc:	0005883a 	mov	r2,zero
 804f900:	0007883a 	mov	r3,zero
 804f904:	0021883a 	mov	r16,zero
 804f908:	003f4d06 	br	804f640 <__alt_data_end+0xfffe75a0>
 804f90c:	008007c4 	movi	r2,31
 804f910:	11003c16 	blt	r2,r4,804fa04 <__adddf3+0x5e4>
 804f914:	00800804 	movi	r2,32
 804f918:	1105c83a 	sub	r2,r2,r4
 804f91c:	488e983a 	sll	r7,r9,r2
 804f920:	310ad83a 	srl	r5,r6,r4
 804f924:	3084983a 	sll	r2,r6,r2
 804f928:	4912d83a 	srl	r9,r9,r4
 804f92c:	394ab03a 	or	r5,r7,r5
 804f930:	1004c03a 	cmpne	r2,r2,zero
 804f934:	288ab03a 	or	r5,r5,r2
 804f938:	003f5306 	br	804f688 <__alt_data_end+0xfffe75e8>
 804f93c:	4448b03a 	or	r4,r8,r17
 804f940:	20003e26 	beq	r4,zero,804fa3c <__adddf3+0x61c>
 804f944:	00c6303a 	nor	r3,zero,r3
 804f948:	18003a1e 	bne	r3,zero,804fa34 <__adddf3+0x614>
 804f94c:	3463c83a 	sub	r17,r6,r17
 804f950:	4a07c83a 	sub	r3,r9,r8
 804f954:	344d803a 	cmpltu	r6,r6,r17
 804f958:	1991c83a 	sub	r8,r3,r6
 804f95c:	1021883a 	mov	r16,r2
 804f960:	3825883a 	mov	r18,r7
 804f964:	003f0a06 	br	804f590 <__alt_data_end+0xfffe74f0>
 804f968:	2023883a 	mov	r17,r4
 804f96c:	003f0d06 	br	804f5a4 <__alt_data_end+0xfffe7504>
 804f970:	0081ffc4 	movi	r2,2047
 804f974:	80bf3f1e 	bne	r16,r2,804f674 <__alt_data_end+0xfffe75d4>
 804f978:	003ec806 	br	804f49c <__alt_data_end+0xfffe73fc>
 804f97c:	0005883a 	mov	r2,zero
 804f980:	003fb106 	br	804f848 <__alt_data_end+0xfffe77a8>
 804f984:	0007883a 	mov	r3,zero
 804f988:	003fbc06 	br	804f87c <__alt_data_end+0xfffe77dc>
 804f98c:	4444b03a 	or	r2,r8,r17
 804f990:	8000871e 	bne	r16,zero,804fbb0 <__adddf3+0x790>
 804f994:	1000ba26 	beq	r2,zero,804fc80 <__adddf3+0x860>
 804f998:	4984b03a 	or	r2,r9,r6
 804f99c:	103ebf26 	beq	r2,zero,804f49c <__alt_data_end+0xfffe73fc>
 804f9a0:	8985883a 	add	r2,r17,r6
 804f9a4:	4247883a 	add	r3,r8,r9
 804f9a8:	1451803a 	cmpltu	r8,r2,r17
 804f9ac:	40d1883a 	add	r8,r8,r3
 804f9b0:	40c0202c 	andhi	r3,r8,128
 804f9b4:	1023883a 	mov	r17,r2
 804f9b8:	183f1a26 	beq	r3,zero,804f624 <__alt_data_end+0xfffe7584>
 804f9bc:	00bfe034 	movhi	r2,65408
 804f9c0:	10bfffc4 	addi	r2,r2,-1
 804f9c4:	2021883a 	mov	r16,r4
 804f9c8:	4090703a 	and	r8,r8,r2
 804f9cc:	003eb306 	br	804f49c <__alt_data_end+0xfffe73fc>
 804f9d0:	4444b03a 	or	r2,r8,r17
 804f9d4:	8000291e 	bne	r16,zero,804fa7c <__adddf3+0x65c>
 804f9d8:	10004b1e 	bne	r2,zero,804fb08 <__adddf3+0x6e8>
 804f9dc:	4990b03a 	or	r8,r9,r6
 804f9e0:	40008b26 	beq	r8,zero,804fc10 <__adddf3+0x7f0>
 804f9e4:	4811883a 	mov	r8,r9
 804f9e8:	3023883a 	mov	r17,r6
 804f9ec:	3825883a 	mov	r18,r7
 804f9f0:	003eaa06 	br	804f49c <__alt_data_end+0xfffe73fc>
 804f9f4:	1021883a 	mov	r16,r2
 804f9f8:	0011883a 	mov	r8,zero
 804f9fc:	0005883a 	mov	r2,zero
 804fa00:	003f0f06 	br	804f640 <__alt_data_end+0xfffe75a0>
 804fa04:	217ff804 	addi	r5,r4,-32
 804fa08:	00800804 	movi	r2,32
 804fa0c:	494ad83a 	srl	r5,r9,r5
 804fa10:	20807d26 	beq	r4,r2,804fc08 <__adddf3+0x7e8>
 804fa14:	00801004 	movi	r2,64
 804fa18:	1109c83a 	sub	r4,r2,r4
 804fa1c:	4912983a 	sll	r9,r9,r4
 804fa20:	498cb03a 	or	r6,r9,r6
 804fa24:	300cc03a 	cmpne	r6,r6,zero
 804fa28:	298ab03a 	or	r5,r5,r6
 804fa2c:	0013883a 	mov	r9,zero
 804fa30:	003f1506 	br	804f688 <__alt_data_end+0xfffe75e8>
 804fa34:	0101ffc4 	movi	r4,2047
 804fa38:	113f9a1e 	bne	r2,r4,804f8a4 <__alt_data_end+0xfffe7804>
 804fa3c:	4811883a 	mov	r8,r9
 804fa40:	3023883a 	mov	r17,r6
 804fa44:	1021883a 	mov	r16,r2
 804fa48:	3825883a 	mov	r18,r7
 804fa4c:	003e9306 	br	804f49c <__alt_data_end+0xfffe73fc>
 804fa50:	8000161e 	bne	r16,zero,804faac <__adddf3+0x68c>
 804fa54:	444ab03a 	or	r5,r8,r17
 804fa58:	28005126 	beq	r5,zero,804fba0 <__adddf3+0x780>
 804fa5c:	0108303a 	nor	r4,zero,r4
 804fa60:	20004d1e 	bne	r4,zero,804fb98 <__adddf3+0x778>
 804fa64:	89a3883a 	add	r17,r17,r6
 804fa68:	4253883a 	add	r9,r8,r9
 804fa6c:	898d803a 	cmpltu	r6,r17,r6
 804fa70:	3251883a 	add	r8,r6,r9
 804fa74:	1021883a 	mov	r16,r2
 804fa78:	003f0806 	br	804f69c <__alt_data_end+0xfffe75fc>
 804fa7c:	1000301e 	bne	r2,zero,804fb40 <__adddf3+0x720>
 804fa80:	4984b03a 	or	r2,r9,r6
 804fa84:	10007126 	beq	r2,zero,804fc4c <__adddf3+0x82c>
 804fa88:	4811883a 	mov	r8,r9
 804fa8c:	3023883a 	mov	r17,r6
 804fa90:	3825883a 	mov	r18,r7
 804fa94:	0401ffc4 	movi	r16,2047
 804fa98:	003e8006 	br	804f49c <__alt_data_end+0xfffe73fc>
 804fa9c:	4462b03a 	or	r17,r8,r17
 804faa0:	8822c03a 	cmpne	r17,r17,zero
 804faa4:	0007883a 	mov	r3,zero
 804faa8:	003f8b06 	br	804f8d8 <__alt_data_end+0xfffe7838>
 804faac:	0141ffc4 	movi	r5,2047
 804fab0:	11403b26 	beq	r2,r5,804fba0 <__adddf3+0x780>
 804fab4:	0109c83a 	sub	r4,zero,r4
 804fab8:	42002034 	orhi	r8,r8,128
 804fabc:	01400e04 	movi	r5,56
 804fac0:	29006716 	blt	r5,r4,804fc60 <__adddf3+0x840>
 804fac4:	014007c4 	movi	r5,31
 804fac8:	29007016 	blt	r5,r4,804fc8c <__adddf3+0x86c>
 804facc:	01400804 	movi	r5,32
 804fad0:	290bc83a 	sub	r5,r5,r4
 804fad4:	4154983a 	sll	r10,r8,r5
 804fad8:	890ed83a 	srl	r7,r17,r4
 804fadc:	894a983a 	sll	r5,r17,r5
 804fae0:	4108d83a 	srl	r4,r8,r4
 804fae4:	51e2b03a 	or	r17,r10,r7
 804fae8:	280ac03a 	cmpne	r5,r5,zero
 804faec:	8962b03a 	or	r17,r17,r5
 804faf0:	89a3883a 	add	r17,r17,r6
 804faf4:	2253883a 	add	r9,r4,r9
 804faf8:	898d803a 	cmpltu	r6,r17,r6
 804fafc:	3251883a 	add	r8,r6,r9
 804fb00:	1021883a 	mov	r16,r2
 804fb04:	003ee506 	br	804f69c <__alt_data_end+0xfffe75fc>
 804fb08:	4984b03a 	or	r2,r9,r6
 804fb0c:	103e6326 	beq	r2,zero,804f49c <__alt_data_end+0xfffe73fc>
 804fb10:	8987c83a 	sub	r3,r17,r6
 804fb14:	88c9803a 	cmpltu	r4,r17,r3
 804fb18:	4245c83a 	sub	r2,r8,r9
 804fb1c:	1105c83a 	sub	r2,r2,r4
 804fb20:	1100202c 	andhi	r4,r2,128
 804fb24:	203ebb26 	beq	r4,zero,804f614 <__alt_data_end+0xfffe7574>
 804fb28:	3463c83a 	sub	r17,r6,r17
 804fb2c:	4a07c83a 	sub	r3,r9,r8
 804fb30:	344d803a 	cmpltu	r6,r6,r17
 804fb34:	1991c83a 	sub	r8,r3,r6
 804fb38:	3825883a 	mov	r18,r7
 804fb3c:	003e5706 	br	804f49c <__alt_data_end+0xfffe73fc>
 804fb40:	4984b03a 	or	r2,r9,r6
 804fb44:	10002e26 	beq	r2,zero,804fc00 <__adddf3+0x7e0>
 804fb48:	4004d0fa 	srli	r2,r8,3
 804fb4c:	8822d0fa 	srli	r17,r17,3
 804fb50:	4010977a 	slli	r8,r8,29
 804fb54:	10c0022c 	andhi	r3,r2,8
 804fb58:	4462b03a 	or	r17,r8,r17
 804fb5c:	18000826 	beq	r3,zero,804fb80 <__adddf3+0x760>
 804fb60:	4808d0fa 	srli	r4,r9,3
 804fb64:	20c0022c 	andhi	r3,r4,8
 804fb68:	1800051e 	bne	r3,zero,804fb80 <__adddf3+0x760>
 804fb6c:	300cd0fa 	srli	r6,r6,3
 804fb70:	4806977a 	slli	r3,r9,29
 804fb74:	2005883a 	mov	r2,r4
 804fb78:	3825883a 	mov	r18,r7
 804fb7c:	19a2b03a 	or	r17,r3,r6
 804fb80:	8810d77a 	srli	r8,r17,29
 804fb84:	100490fa 	slli	r2,r2,3
 804fb88:	882290fa 	slli	r17,r17,3
 804fb8c:	0401ffc4 	movi	r16,2047
 804fb90:	4090b03a 	or	r8,r8,r2
 804fb94:	003e4106 	br	804f49c <__alt_data_end+0xfffe73fc>
 804fb98:	0141ffc4 	movi	r5,2047
 804fb9c:	117fc71e 	bne	r2,r5,804fabc <__alt_data_end+0xfffe7a1c>
 804fba0:	4811883a 	mov	r8,r9
 804fba4:	3023883a 	mov	r17,r6
 804fba8:	1021883a 	mov	r16,r2
 804fbac:	003e3b06 	br	804f49c <__alt_data_end+0xfffe73fc>
 804fbb0:	10002f26 	beq	r2,zero,804fc70 <__adddf3+0x850>
 804fbb4:	4984b03a 	or	r2,r9,r6
 804fbb8:	10001126 	beq	r2,zero,804fc00 <__adddf3+0x7e0>
 804fbbc:	4004d0fa 	srli	r2,r8,3
 804fbc0:	8822d0fa 	srli	r17,r17,3
 804fbc4:	4010977a 	slli	r8,r8,29
 804fbc8:	10c0022c 	andhi	r3,r2,8
 804fbcc:	4462b03a 	or	r17,r8,r17
 804fbd0:	183feb26 	beq	r3,zero,804fb80 <__alt_data_end+0xfffe7ae0>
 804fbd4:	4808d0fa 	srli	r4,r9,3
 804fbd8:	20c0022c 	andhi	r3,r4,8
 804fbdc:	183fe81e 	bne	r3,zero,804fb80 <__alt_data_end+0xfffe7ae0>
 804fbe0:	300cd0fa 	srli	r6,r6,3
 804fbe4:	4806977a 	slli	r3,r9,29
 804fbe8:	2005883a 	mov	r2,r4
 804fbec:	19a2b03a 	or	r17,r3,r6
 804fbf0:	003fe306 	br	804fb80 <__alt_data_end+0xfffe7ae0>
 804fbf4:	0011883a 	mov	r8,zero
 804fbf8:	0005883a 	mov	r2,zero
 804fbfc:	003e3f06 	br	804f4fc <__alt_data_end+0xfffe745c>
 804fc00:	0401ffc4 	movi	r16,2047
 804fc04:	003e2506 	br	804f49c <__alt_data_end+0xfffe73fc>
 804fc08:	0013883a 	mov	r9,zero
 804fc0c:	003f8406 	br	804fa20 <__alt_data_end+0xfffe7980>
 804fc10:	0005883a 	mov	r2,zero
 804fc14:	0007883a 	mov	r3,zero
 804fc18:	003e8906 	br	804f640 <__alt_data_end+0xfffe75a0>
 804fc1c:	197ff804 	addi	r5,r3,-32
 804fc20:	01000804 	movi	r4,32
 804fc24:	414ad83a 	srl	r5,r8,r5
 804fc28:	19002426 	beq	r3,r4,804fcbc <__adddf3+0x89c>
 804fc2c:	01001004 	movi	r4,64
 804fc30:	20c7c83a 	sub	r3,r4,r3
 804fc34:	40c6983a 	sll	r3,r8,r3
 804fc38:	1c46b03a 	or	r3,r3,r17
 804fc3c:	1806c03a 	cmpne	r3,r3,zero
 804fc40:	28e2b03a 	or	r17,r5,r3
 804fc44:	0007883a 	mov	r3,zero
 804fc48:	003f2306 	br	804f8d8 <__alt_data_end+0xfffe7838>
 804fc4c:	0007883a 	mov	r3,zero
 804fc50:	5811883a 	mov	r8,r11
 804fc54:	00bfffc4 	movi	r2,-1
 804fc58:	0401ffc4 	movi	r16,2047
 804fc5c:	003e7806 	br	804f640 <__alt_data_end+0xfffe75a0>
 804fc60:	4462b03a 	or	r17,r8,r17
 804fc64:	8822c03a 	cmpne	r17,r17,zero
 804fc68:	0009883a 	mov	r4,zero
 804fc6c:	003fa006 	br	804faf0 <__alt_data_end+0xfffe7a50>
 804fc70:	4811883a 	mov	r8,r9
 804fc74:	3023883a 	mov	r17,r6
 804fc78:	0401ffc4 	movi	r16,2047
 804fc7c:	003e0706 	br	804f49c <__alt_data_end+0xfffe73fc>
 804fc80:	4811883a 	mov	r8,r9
 804fc84:	3023883a 	mov	r17,r6
 804fc88:	003e0406 	br	804f49c <__alt_data_end+0xfffe73fc>
 804fc8c:	21fff804 	addi	r7,r4,-32
 804fc90:	01400804 	movi	r5,32
 804fc94:	41ced83a 	srl	r7,r8,r7
 804fc98:	21400a26 	beq	r4,r5,804fcc4 <__adddf3+0x8a4>
 804fc9c:	01401004 	movi	r5,64
 804fca0:	2909c83a 	sub	r4,r5,r4
 804fca4:	4108983a 	sll	r4,r8,r4
 804fca8:	2448b03a 	or	r4,r4,r17
 804fcac:	2008c03a 	cmpne	r4,r4,zero
 804fcb0:	3922b03a 	or	r17,r7,r4
 804fcb4:	0009883a 	mov	r4,zero
 804fcb8:	003f8d06 	br	804faf0 <__alt_data_end+0xfffe7a50>
 804fcbc:	0007883a 	mov	r3,zero
 804fcc0:	003fdd06 	br	804fc38 <__alt_data_end+0xfffe7b98>
 804fcc4:	0009883a 	mov	r4,zero
 804fcc8:	003ff706 	br	804fca8 <__alt_data_end+0xfffe7c08>

0804fccc <__eqdf2>:
 804fccc:	2804d53a 	srli	r2,r5,20
 804fcd0:	3806d53a 	srli	r3,r7,20
 804fcd4:	02000434 	movhi	r8,16
 804fcd8:	423fffc4 	addi	r8,r8,-1
 804fcdc:	1081ffcc 	andi	r2,r2,2047
 804fce0:	0281ffc4 	movi	r10,2047
 804fce4:	2a12703a 	and	r9,r5,r8
 804fce8:	18c1ffcc 	andi	r3,r3,2047
 804fcec:	3a10703a 	and	r8,r7,r8
 804fcf0:	280ad7fa 	srli	r5,r5,31
 804fcf4:	380ed7fa 	srli	r7,r7,31
 804fcf8:	12801026 	beq	r2,r10,804fd3c <__eqdf2+0x70>
 804fcfc:	0281ffc4 	movi	r10,2047
 804fd00:	1a800a26 	beq	r3,r10,804fd2c <__eqdf2+0x60>
 804fd04:	10c00226 	beq	r2,r3,804fd10 <__eqdf2+0x44>
 804fd08:	00800044 	movi	r2,1
 804fd0c:	f800283a 	ret
 804fd10:	4a3ffd1e 	bne	r9,r8,804fd08 <__alt_data_end+0xfffe7c68>
 804fd14:	21bffc1e 	bne	r4,r6,804fd08 <__alt_data_end+0xfffe7c68>
 804fd18:	29c00c26 	beq	r5,r7,804fd4c <__eqdf2+0x80>
 804fd1c:	103ffa1e 	bne	r2,zero,804fd08 <__alt_data_end+0xfffe7c68>
 804fd20:	2244b03a 	or	r2,r4,r9
 804fd24:	1004c03a 	cmpne	r2,r2,zero
 804fd28:	f800283a 	ret
 804fd2c:	3214b03a 	or	r10,r6,r8
 804fd30:	503ff426 	beq	r10,zero,804fd04 <__alt_data_end+0xfffe7c64>
 804fd34:	00800044 	movi	r2,1
 804fd38:	f800283a 	ret
 804fd3c:	2254b03a 	or	r10,r4,r9
 804fd40:	503fee26 	beq	r10,zero,804fcfc <__alt_data_end+0xfffe7c5c>
 804fd44:	00800044 	movi	r2,1
 804fd48:	f800283a 	ret
 804fd4c:	0005883a 	mov	r2,zero
 804fd50:	f800283a 	ret

0804fd54 <__floatsidf>:
 804fd54:	defffd04 	addi	sp,sp,-12
 804fd58:	dfc00215 	stw	ra,8(sp)
 804fd5c:	dc400115 	stw	r17,4(sp)
 804fd60:	dc000015 	stw	r16,0(sp)
 804fd64:	20002b26 	beq	r4,zero,804fe14 <__floatsidf+0xc0>
 804fd68:	2023883a 	mov	r17,r4
 804fd6c:	2020d7fa 	srli	r16,r4,31
 804fd70:	20002d16 	blt	r4,zero,804fe28 <__floatsidf+0xd4>
 804fd74:	8809883a 	mov	r4,r17
 804fd78:	80454e40 	call	80454e4 <__clzsi2>
 804fd7c:	01410784 	movi	r5,1054
 804fd80:	288bc83a 	sub	r5,r5,r2
 804fd84:	01010cc4 	movi	r4,1075
 804fd88:	2149c83a 	sub	r4,r4,r5
 804fd8c:	00c007c4 	movi	r3,31
 804fd90:	1900160e 	bge	r3,r4,804fdec <__floatsidf+0x98>
 804fd94:	00c104c4 	movi	r3,1043
 804fd98:	1947c83a 	sub	r3,r3,r5
 804fd9c:	88c6983a 	sll	r3,r17,r3
 804fda0:	00800434 	movhi	r2,16
 804fda4:	10bfffc4 	addi	r2,r2,-1
 804fda8:	1886703a 	and	r3,r3,r2
 804fdac:	2941ffcc 	andi	r5,r5,2047
 804fdb0:	800d883a 	mov	r6,r16
 804fdb4:	0005883a 	mov	r2,zero
 804fdb8:	280a953a 	slli	r5,r5,20
 804fdbc:	31803fcc 	andi	r6,r6,255
 804fdc0:	01000434 	movhi	r4,16
 804fdc4:	300c97fa 	slli	r6,r6,31
 804fdc8:	213fffc4 	addi	r4,r4,-1
 804fdcc:	1906703a 	and	r3,r3,r4
 804fdd0:	1946b03a 	or	r3,r3,r5
 804fdd4:	1986b03a 	or	r3,r3,r6
 804fdd8:	dfc00217 	ldw	ra,8(sp)
 804fddc:	dc400117 	ldw	r17,4(sp)
 804fde0:	dc000017 	ldw	r16,0(sp)
 804fde4:	dec00304 	addi	sp,sp,12
 804fde8:	f800283a 	ret
 804fdec:	00c002c4 	movi	r3,11
 804fdf0:	1887c83a 	sub	r3,r3,r2
 804fdf4:	88c6d83a 	srl	r3,r17,r3
 804fdf8:	8904983a 	sll	r2,r17,r4
 804fdfc:	01000434 	movhi	r4,16
 804fe00:	213fffc4 	addi	r4,r4,-1
 804fe04:	2941ffcc 	andi	r5,r5,2047
 804fe08:	1906703a 	and	r3,r3,r4
 804fe0c:	800d883a 	mov	r6,r16
 804fe10:	003fe906 	br	804fdb8 <__alt_data_end+0xfffe7d18>
 804fe14:	000d883a 	mov	r6,zero
 804fe18:	000b883a 	mov	r5,zero
 804fe1c:	0007883a 	mov	r3,zero
 804fe20:	0005883a 	mov	r2,zero
 804fe24:	003fe406 	br	804fdb8 <__alt_data_end+0xfffe7d18>
 804fe28:	0123c83a 	sub	r17,zero,r4
 804fe2c:	003fd106 	br	804fd74 <__alt_data_end+0xfffe7cd4>

0804fe30 <__floatunsidf>:
 804fe30:	defffe04 	addi	sp,sp,-8
 804fe34:	dc000015 	stw	r16,0(sp)
 804fe38:	dfc00115 	stw	ra,4(sp)
 804fe3c:	2021883a 	mov	r16,r4
 804fe40:	20002226 	beq	r4,zero,804fecc <__floatunsidf+0x9c>
 804fe44:	80454e40 	call	80454e4 <__clzsi2>
 804fe48:	01010784 	movi	r4,1054
 804fe4c:	2089c83a 	sub	r4,r4,r2
 804fe50:	01810cc4 	movi	r6,1075
 804fe54:	310dc83a 	sub	r6,r6,r4
 804fe58:	00c007c4 	movi	r3,31
 804fe5c:	1980120e 	bge	r3,r6,804fea8 <__floatunsidf+0x78>
 804fe60:	00c104c4 	movi	r3,1043
 804fe64:	1907c83a 	sub	r3,r3,r4
 804fe68:	80ca983a 	sll	r5,r16,r3
 804fe6c:	00800434 	movhi	r2,16
 804fe70:	10bfffc4 	addi	r2,r2,-1
 804fe74:	2101ffcc 	andi	r4,r4,2047
 804fe78:	0021883a 	mov	r16,zero
 804fe7c:	288a703a 	and	r5,r5,r2
 804fe80:	2008953a 	slli	r4,r4,20
 804fe84:	00c00434 	movhi	r3,16
 804fe88:	18ffffc4 	addi	r3,r3,-1
 804fe8c:	28c6703a 	and	r3,r5,r3
 804fe90:	8005883a 	mov	r2,r16
 804fe94:	1906b03a 	or	r3,r3,r4
 804fe98:	dfc00117 	ldw	ra,4(sp)
 804fe9c:	dc000017 	ldw	r16,0(sp)
 804fea0:	dec00204 	addi	sp,sp,8
 804fea4:	f800283a 	ret
 804fea8:	00c002c4 	movi	r3,11
 804feac:	188bc83a 	sub	r5,r3,r2
 804feb0:	814ad83a 	srl	r5,r16,r5
 804feb4:	00c00434 	movhi	r3,16
 804feb8:	18ffffc4 	addi	r3,r3,-1
 804febc:	81a0983a 	sll	r16,r16,r6
 804fec0:	2101ffcc 	andi	r4,r4,2047
 804fec4:	28ca703a 	and	r5,r5,r3
 804fec8:	003fed06 	br	804fe80 <__alt_data_end+0xfffe7de0>
 804fecc:	0009883a 	mov	r4,zero
 804fed0:	000b883a 	mov	r5,zero
 804fed4:	003fea06 	br	804fe80 <__alt_data_end+0xfffe7de0>

0804fed8 <alt_alarm_start>:
 */ 

int alt_alarm_start (alt_alarm* alarm, alt_u32 nticks,
                     alt_u32 (*callback) (void* context),
                     void* context)
{
 804fed8:	defff504 	addi	sp,sp,-44
 804fedc:	df000a15 	stw	fp,40(sp)
 804fee0:	df000a04 	addi	fp,sp,40
 804fee4:	e13ffc15 	stw	r4,-16(fp)
 804fee8:	e17ffd15 	stw	r5,-12(fp)
 804feec:	e1bffe15 	stw	r6,-8(fp)
 804fef0:	e1ffff15 	stw	r7,-4(fp)
  alt_irq_context irq_context;
  alt_u32 current_nticks = 0;
 804fef4:	e03ff615 	stw	zero,-40(fp)
 * Obtain the system clock rate in ticks/s. 
 */

static ALT_INLINE alt_u32 ALT_ALWAYS_INLINE alt_ticks_per_second (void)
{
  return _alt_tick_rate;
 804fef8:	d0a71417 	ldw	r2,-25520(gp)
  
  if (alt_ticks_per_second ())
 804fefc:	10003c26 	beq	r2,zero,804fff0 <alt_alarm_start+0x118>
  {
    if (alarm)
 804ff00:	e0bffc17 	ldw	r2,-16(fp)
 804ff04:	10003826 	beq	r2,zero,804ffe8 <alt_alarm_start+0x110>
    {
      alarm->callback = callback;
 804ff08:	e0bffc17 	ldw	r2,-16(fp)
 804ff0c:	e0fffe17 	ldw	r3,-8(fp)
 804ff10:	10c00315 	stw	r3,12(r2)
      alarm->context  = context;
 804ff14:	e0bffc17 	ldw	r2,-16(fp)
 804ff18:	e0ffff17 	ldw	r3,-4(fp)
 804ff1c:	10c00515 	stw	r3,20(r2)
static ALT_INLINE alt_irq_context ALT_ALWAYS_INLINE 
       alt_irq_disable_all (void)
{
  alt_irq_context context;

  NIOS2_READ_STATUS (context);
 804ff20:	0005303a 	rdctl	r2,status
 804ff24:	e0bff915 	stw	r2,-28(fp)

  NIOS2_WRITE_STATUS (context & ~NIOS2_STATUS_PIE_MSK);
 804ff28:	e0fff917 	ldw	r3,-28(fp)
 804ff2c:	00bfff84 	movi	r2,-2
 804ff30:	1884703a 	and	r2,r3,r2
 804ff34:	1001703a 	wrctl	status,r2
  
  return context;
 804ff38:	e0bff917 	ldw	r2,-28(fp)
 
      irq_context = alt_irq_disable_all ();
 804ff3c:	e0bff815 	stw	r2,-32(fp)
 * alt_nticks() returns the elapsed number of system clock ticks since reset.
 */

static ALT_INLINE alt_u32 ALT_ALWAYS_INLINE alt_nticks (void)
{
  return _alt_nticks;
 804ff40:	d0a71517 	ldw	r2,-25516(gp)
      
      current_nticks = alt_nticks();
 804ff44:	e0bff615 	stw	r2,-40(fp)
      
      alarm->time = nticks + current_nticks + 1; 
 804ff48:	e0fffd17 	ldw	r3,-12(fp)
 804ff4c:	e0bff617 	ldw	r2,-40(fp)
 804ff50:	1885883a 	add	r2,r3,r2
 804ff54:	10c00044 	addi	r3,r2,1
 804ff58:	e0bffc17 	ldw	r2,-16(fp)
 804ff5c:	10c00215 	stw	r3,8(r2)
      /* 
       * If the desired alarm time causes a roll-over, set the rollover
       * flag. This will prevent the subsequent tick event from causing
       * an alarm too early.
       */
      if(alarm->time < current_nticks)
 804ff60:	e0bffc17 	ldw	r2,-16(fp)
 804ff64:	10c00217 	ldw	r3,8(r2)
 804ff68:	e0bff617 	ldw	r2,-40(fp)
 804ff6c:	1880042e 	bgeu	r3,r2,804ff80 <alt_alarm_start+0xa8>
      {
        alarm->rollover = 1;
 804ff70:	e0bffc17 	ldw	r2,-16(fp)
 804ff74:	00c00044 	movi	r3,1
 804ff78:	10c00405 	stb	r3,16(r2)
 804ff7c:	00000206 	br	804ff88 <alt_alarm_start+0xb0>
      }
      else
      {
        alarm->rollover = 0;
 804ff80:	e0bffc17 	ldw	r2,-16(fp)
 804ff84:	10000405 	stb	zero,16(r2)
      }
    
      alt_llist_insert (&alt_alarm_list, &alarm->llist);
 804ff88:	e0bffc17 	ldw	r2,-16(fp)
 804ff8c:	d0e00f04 	addi	r3,gp,-32708
 804ff90:	e0fffa15 	stw	r3,-24(fp)
 804ff94:	e0bffb15 	stw	r2,-20(fp)
 */

static ALT_INLINE void ALT_ALWAYS_INLINE alt_llist_insert(alt_llist* list, 
                alt_llist* entry)
{
  entry->previous = list;
 804ff98:	e0bffb17 	ldw	r2,-20(fp)
 804ff9c:	e0fffa17 	ldw	r3,-24(fp)
 804ffa0:	10c00115 	stw	r3,4(r2)
  entry->next     = list->next;
 804ffa4:	e0bffa17 	ldw	r2,-24(fp)
 804ffa8:	10c00017 	ldw	r3,0(r2)
 804ffac:	e0bffb17 	ldw	r2,-20(fp)
 804ffb0:	10c00015 	stw	r3,0(r2)

  list->next->previous = entry;
 804ffb4:	e0bffa17 	ldw	r2,-24(fp)
 804ffb8:	10800017 	ldw	r2,0(r2)
 804ffbc:	e0fffb17 	ldw	r3,-20(fp)
 804ffc0:	10c00115 	stw	r3,4(r2)
  list->next           = entry;
 804ffc4:	e0bffa17 	ldw	r2,-24(fp)
 804ffc8:	e0fffb17 	ldw	r3,-20(fp)
 804ffcc:	10c00015 	stw	r3,0(r2)
 804ffd0:	e0bff817 	ldw	r2,-32(fp)
 804ffd4:	e0bff715 	stw	r2,-36(fp)
  status &= ~NIOS2_STATUS_PIE_MSK;
  status |= (context & NIOS2_STATUS_PIE_MSK);
  
  NIOS2_WRITE_STATUS (status);
#else
  NIOS2_WRITE_STATUS (context);
 804ffd8:	e0bff717 	ldw	r2,-36(fp)
 804ffdc:	1001703a 	wrctl	status,r2
      alt_irq_enable_all (irq_context);

      return 0;
 804ffe0:	0005883a 	mov	r2,zero
 804ffe4:	00000306 	br	804fff4 <alt_alarm_start+0x11c>
    }
    else
    {
      return -EINVAL;
 804ffe8:	00bffa84 	movi	r2,-22
 804ffec:	00000106 	br	804fff4 <alt_alarm_start+0x11c>
    }
  }
  else
  {
    return -ENOTSUP;
 804fff0:	00bfde84 	movi	r2,-134
  }
}
 804fff4:	e037883a 	mov	sp,fp
 804fff8:	df000017 	ldw	fp,0(sp)
 804fffc:	dec00104 	addi	sp,sp,4
 8050000:	f800283a 	ret

08050004 <alt_get_errno>:
#undef errno

extern int errno;

static ALT_INLINE int* alt_get_errno(void)
{
 8050004:	defffe04 	addi	sp,sp,-8
 8050008:	dfc00115 	stw	ra,4(sp)
 805000c:	df000015 	stw	fp,0(sp)
 8050010:	d839883a 	mov	fp,sp
  return ((alt_errno) ? alt_errno() : &errno);
 8050014:	d0a00c17 	ldw	r2,-32720(gp)
 8050018:	10000326 	beq	r2,zero,8050028 <alt_get_errno+0x24>
 805001c:	d0a00c17 	ldw	r2,-32720(gp)
 8050020:	103ee83a 	callr	r2
 8050024:	00000106 	br	805002c <alt_get_errno+0x28>
 8050028:	d0a70f04 	addi	r2,gp,-25540
}
 805002c:	e037883a 	mov	sp,fp
 8050030:	dfc00117 	ldw	ra,4(sp)
 8050034:	df000017 	ldw	fp,0(sp)
 8050038:	dec00204 	addi	sp,sp,8
 805003c:	f800283a 	ret

08050040 <close>:
 *
 * ALT_CLOSE is mapped onto the close() system call in alt_syscall.h
 */
 
int ALT_CLOSE (int fildes)
{
 8050040:	defffb04 	addi	sp,sp,-20
 8050044:	dfc00415 	stw	ra,16(sp)
 8050048:	df000315 	stw	fp,12(sp)
 805004c:	df000304 	addi	fp,sp,12
 8050050:	e13fff15 	stw	r4,-4(fp)
   * A common error case is that when the file descriptor was created, the call
   * to open() failed resulting in a negative file descriptor. This is trapped
   * below so that we don't try and process an invalid file descriptor.
   */

  fd = (fildes < 0) ? NULL : &alt_fd_list[fildes];
 8050054:	e0bfff17 	ldw	r2,-4(fp)
 8050058:	10000816 	blt	r2,zero,805007c <close+0x3c>
 805005c:	01400304 	movi	r5,12
 8050060:	e13fff17 	ldw	r4,-4(fp)
 8050064:	8042dac0 	call	8042dac <__mulsi3>
 8050068:	1007883a 	mov	r3,r2
 805006c:	00820174 	movhi	r2,2053
 8050070:	10943c04 	addi	r2,r2,20720
 8050074:	1885883a 	add	r2,r3,r2
 8050078:	00000106 	br	8050080 <close+0x40>
 805007c:	0005883a 	mov	r2,zero
 8050080:	e0bffd15 	stw	r2,-12(fp)

  if (fd)
 8050084:	e0bffd17 	ldw	r2,-12(fp)
 8050088:	10001926 	beq	r2,zero,80500f0 <close+0xb0>
    /*
     * If the associated file system/device has a close function, call it so 
     * that any necessary cleanup code can run.
     */

    rval = (fd->dev->close) ? fd->dev->close(fd) : 0;
 805008c:	e0bffd17 	ldw	r2,-12(fp)
 8050090:	10800017 	ldw	r2,0(r2)
 8050094:	10800417 	ldw	r2,16(r2)
 8050098:	10000626 	beq	r2,zero,80500b4 <close+0x74>
 805009c:	e0bffd17 	ldw	r2,-12(fp)
 80500a0:	10800017 	ldw	r2,0(r2)
 80500a4:	10800417 	ldw	r2,16(r2)
 80500a8:	e13ffd17 	ldw	r4,-12(fp)
 80500ac:	103ee83a 	callr	r2
 80500b0:	00000106 	br	80500b8 <close+0x78>
 80500b4:	0005883a 	mov	r2,zero
 80500b8:	e0bffe15 	stw	r2,-8(fp)

    /* Free the file descriptor structure and return. */

    alt_release_fd (fildes);
 80500bc:	e13fff17 	ldw	r4,-4(fp)
 80500c0:	80509c80 	call	80509c8 <alt_release_fd>
    if (rval < 0)
 80500c4:	e0bffe17 	ldw	r2,-8(fp)
 80500c8:	1000070e 	bge	r2,zero,80500e8 <close+0xa8>
    {
      ALT_ERRNO = -rval;
 80500cc:	80500040 	call	8050004 <alt_get_errno>
 80500d0:	1007883a 	mov	r3,r2
 80500d4:	e0bffe17 	ldw	r2,-8(fp)
 80500d8:	0085c83a 	sub	r2,zero,r2
 80500dc:	18800015 	stw	r2,0(r3)
      return -1;
 80500e0:	00bfffc4 	movi	r2,-1
 80500e4:	00000706 	br	8050104 <close+0xc4>
    }
    return 0;
 80500e8:	0005883a 	mov	r2,zero
 80500ec:	00000506 	br	8050104 <close+0xc4>
  }
  else
  {
    ALT_ERRNO = EBADFD;
 80500f0:	80500040 	call	8050004 <alt_get_errno>
 80500f4:	1007883a 	mov	r3,r2
 80500f8:	00801444 	movi	r2,81
 80500fc:	18800015 	stw	r2,0(r3)
    return -1;
 8050100:	00bfffc4 	movi	r2,-1
  }
}
 8050104:	e037883a 	mov	sp,fp
 8050108:	dfc00117 	ldw	ra,4(sp)
 805010c:	df000017 	ldw	fp,0(sp)
 8050110:	dec00204 	addi	sp,sp,8
 8050114:	f800283a 	ret

08050118 <alt_dev_null_write>:
 * by the alt_dev_null device. It simple discards all data passed to it, and
 * indicates that the data has been successfully transmitted.
 */

static int alt_dev_null_write (alt_fd* fd, const char* ptr, int len)
{
 8050118:	defffc04 	addi	sp,sp,-16
 805011c:	df000315 	stw	fp,12(sp)
 8050120:	df000304 	addi	fp,sp,12
 8050124:	e13ffd15 	stw	r4,-12(fp)
 8050128:	e17ffe15 	stw	r5,-8(fp)
 805012c:	e1bfff15 	stw	r6,-4(fp)
  return len;
 8050130:	e0bfff17 	ldw	r2,-4(fp)
}
 8050134:	e037883a 	mov	sp,fp
 8050138:	df000017 	ldw	fp,0(sp)
 805013c:	dec00104 	addi	sp,sp,4
 8050140:	f800283a 	ret

08050144 <alt_get_errno>:
#undef errno

extern int errno;

static ALT_INLINE int* alt_get_errno(void)
{
 8050144:	defffe04 	addi	sp,sp,-8
 8050148:	dfc00115 	stw	ra,4(sp)
 805014c:	df000015 	stw	fp,0(sp)
 8050150:	d839883a 	mov	fp,sp
  return ((alt_errno) ? alt_errno() : &errno);
 8050154:	d0a00c17 	ldw	r2,-32720(gp)
 8050158:	10000326 	beq	r2,zero,8050168 <alt_get_errno+0x24>
 805015c:	d0a00c17 	ldw	r2,-32720(gp)
 8050160:	103ee83a 	callr	r2
 8050164:	00000106 	br	805016c <alt_get_errno+0x28>
 8050168:	d0a70f04 	addi	r2,gp,-25540
}
 805016c:	e037883a 	mov	sp,fp
 8050170:	dfc00117 	ldw	ra,4(sp)
 8050174:	df000017 	ldw	fp,0(sp)
 8050178:	dec00204 	addi	sp,sp,8
 805017c:	f800283a 	ret

08050180 <fstat>:
}

#else /* !ALT_USE_DIRECT_DRIVERS */

int ALT_FSTAT (int file, struct stat *st)
{
 8050180:	defffb04 	addi	sp,sp,-20
 8050184:	dfc00415 	stw	ra,16(sp)
 8050188:	df000315 	stw	fp,12(sp)
 805018c:	df000304 	addi	fp,sp,12
 8050190:	e13ffe15 	stw	r4,-8(fp)
 8050194:	e17fff15 	stw	r5,-4(fp)
   * A common error case is that when the file descriptor was created, the call
   * to open() failed resulting in a negative file descriptor. This is trapped
   * below so that we don't try and process an invalid file descriptor.
   */

  fd = (file < 0) ? NULL : &alt_fd_list[file];
 8050198:	e0bffe17 	ldw	r2,-8(fp)
 805019c:	10000816 	blt	r2,zero,80501c0 <fstat+0x40>
 80501a0:	01400304 	movi	r5,12
 80501a4:	e13ffe17 	ldw	r4,-8(fp)
 80501a8:	8042dac0 	call	8042dac <__mulsi3>
 80501ac:	1007883a 	mov	r3,r2
 80501b0:	00820174 	movhi	r2,2053
 80501b4:	10943c04 	addi	r2,r2,20720
 80501b8:	1885883a 	add	r2,r3,r2
 80501bc:	00000106 	br	80501c4 <fstat+0x44>
 80501c0:	0005883a 	mov	r2,zero
 80501c4:	e0bffd15 	stw	r2,-12(fp)
  
  if (fd)
 80501c8:	e0bffd17 	ldw	r2,-12(fp)
 80501cc:	10001026 	beq	r2,zero,8050210 <fstat+0x90>
  {
    /* Call the drivers fstat() function to fill out the "st" structure. */

    if (fd->dev->fstat)
 80501d0:	e0bffd17 	ldw	r2,-12(fp)
 80501d4:	10800017 	ldw	r2,0(r2)
 80501d8:	10800817 	ldw	r2,32(r2)
 80501dc:	10000726 	beq	r2,zero,80501fc <fstat+0x7c>
    {
      return fd->dev->fstat(fd, st);
 80501e0:	e0bffd17 	ldw	r2,-12(fp)
 80501e4:	10800017 	ldw	r2,0(r2)
 80501e8:	10800817 	ldw	r2,32(r2)
 80501ec:	e17fff17 	ldw	r5,-4(fp)
 80501f0:	e13ffd17 	ldw	r4,-12(fp)
 80501f4:	103ee83a 	callr	r2
 80501f8:	00000a06 	br	8050224 <fstat+0xa4>
     * device.
     */
 
    else
    {
      st->st_mode = _IFCHR;
 80501fc:	e0bfff17 	ldw	r2,-4(fp)
 8050200:	00c80004 	movi	r3,8192
 8050204:	10c00115 	stw	r3,4(r2)
      return 0;
 8050208:	0005883a 	mov	r2,zero
 805020c:	00000506 	br	8050224 <fstat+0xa4>
    }
  }
  else
  {
    ALT_ERRNO = EBADFD;
 8050210:	80501440 	call	8050144 <alt_get_errno>
 8050214:	1007883a 	mov	r3,r2
 8050218:	00801444 	movi	r2,81
 805021c:	18800015 	stw	r2,0(r3)
    return -1;
 8050220:	00bfffc4 	movi	r2,-1
  }
}
 8050224:	e037883a 	mov	sp,fp
 8050228:	dfc00117 	ldw	ra,4(sp)
 805022c:	df000017 	ldw	fp,0(sp)
 8050230:	dec00204 	addi	sp,sp,8
 8050234:	f800283a 	ret

08050238 <alt_ic_isr_register>:
  * @param irq              IRQ number
  * @return                 0 if successful, else error (-1)
  */
int alt_ic_isr_register(alt_u32 ic_id, alt_u32 irq, alt_isr_func isr, 
  void *isr_context, void *flags)
{
 8050238:	defff904 	addi	sp,sp,-28
 805023c:	dfc00615 	stw	ra,24(sp)
 8050240:	df000515 	stw	fp,20(sp)
 8050244:	df000504 	addi	fp,sp,20
 8050248:	e13ffc15 	stw	r4,-16(fp)
 805024c:	e17ffd15 	stw	r5,-12(fp)
 8050250:	e1bffe15 	stw	r6,-8(fp)
 8050254:	e1ffff15 	stw	r7,-4(fp)
    return alt_iic_isr_register(ic_id, irq, isr, isr_context, flags);
 8050258:	e0800217 	ldw	r2,8(fp)
 805025c:	d8800015 	stw	r2,0(sp)
 8050260:	e1ffff17 	ldw	r7,-4(fp)
 8050264:	e1bffe17 	ldw	r6,-8(fp)
 8050268:	e17ffd17 	ldw	r5,-12(fp)
 805026c:	e13ffc17 	ldw	r4,-16(fp)
 8050270:	80503e80 	call	80503e8 <alt_iic_isr_register>
}  
 8050274:	e037883a 	mov	sp,fp
 8050278:	dfc00117 	ldw	ra,4(sp)
 805027c:	df000017 	ldw	fp,0(sp)
 8050280:	dec00204 	addi	sp,sp,8
 8050284:	f800283a 	ret

08050288 <alt_ic_irq_enable>:
  * @param ic_id            Ignored.
  * @param irq              IRQ number
  * @return                 0 if successful, else error (-1)
  */
int alt_ic_irq_enable (alt_u32 ic_id, alt_u32 irq)
{
 8050288:	defff904 	addi	sp,sp,-28
 805028c:	df000615 	stw	fp,24(sp)
 8050290:	df000604 	addi	fp,sp,24
 8050294:	e13ffe15 	stw	r4,-8(fp)
 8050298:	e17fff15 	stw	r5,-4(fp)
 805029c:	e0bfff17 	ldw	r2,-4(fp)
 80502a0:	e0bffa15 	stw	r2,-24(fp)
static ALT_INLINE alt_irq_context ALT_ALWAYS_INLINE 
       alt_irq_disable_all (void)
{
  alt_irq_context context;

  NIOS2_READ_STATUS (context);
 80502a4:	0005303a 	rdctl	r2,status
 80502a8:	e0bffb15 	stw	r2,-20(fp)

  NIOS2_WRITE_STATUS (context & ~NIOS2_STATUS_PIE_MSK);
 80502ac:	e0fffb17 	ldw	r3,-20(fp)
 80502b0:	00bfff84 	movi	r2,-2
 80502b4:	1884703a 	and	r2,r3,r2
 80502b8:	1001703a 	wrctl	status,r2
  
  return context;
 80502bc:	e0bffb17 	ldw	r2,-20(fp)
static ALT_INLINE int ALT_ALWAYS_INLINE alt_irq_enable (alt_u32 id)
{
  alt_irq_context  status;
  extern volatile alt_u32 alt_irq_active;

  status = alt_irq_disable_all ();
 80502c0:	e0bffc15 	stw	r2,-16(fp)

  alt_irq_active |= (1 << id);
 80502c4:	00c00044 	movi	r3,1
 80502c8:	e0bffa17 	ldw	r2,-24(fp)
 80502cc:	1884983a 	sll	r2,r3,r2
 80502d0:	1007883a 	mov	r3,r2
 80502d4:	d0a71017 	ldw	r2,-25536(gp)
 80502d8:	1884b03a 	or	r2,r3,r2
 80502dc:	d0a71015 	stw	r2,-25536(gp)
  NIOS2_WRITE_IENABLE (alt_irq_active);
 80502e0:	d0a71017 	ldw	r2,-25536(gp)
 80502e4:	100170fa 	wrctl	ienable,r2
 80502e8:	e0bffc17 	ldw	r2,-16(fp)
 80502ec:	e0bffd15 	stw	r2,-12(fp)
  status &= ~NIOS2_STATUS_PIE_MSK;
  status |= (context & NIOS2_STATUS_PIE_MSK);
  
  NIOS2_WRITE_STATUS (status);
#else
  NIOS2_WRITE_STATUS (context);
 80502f0:	e0bffd17 	ldw	r2,-12(fp)
 80502f4:	1001703a 	wrctl	status,r2

  alt_irq_enable_all(status);

  return 0;
 80502f8:	0005883a 	mov	r2,zero
    return alt_irq_enable(irq);
 80502fc:	0001883a 	nop
}
 8050300:	e037883a 	mov	sp,fp
 8050304:	df000017 	ldw	fp,0(sp)
 8050308:	dec00104 	addi	sp,sp,4
 805030c:	f800283a 	ret

08050310 <alt_ic_irq_disable>:
  * @param ic_id            Ignored.
  * @param irq              IRQ number
  * @return                 0 if successful, else error (-1)
  */
int alt_ic_irq_disable(alt_u32 ic_id, alt_u32 irq)
{
 8050310:	defff904 	addi	sp,sp,-28
 8050314:	df000615 	stw	fp,24(sp)
 8050318:	df000604 	addi	fp,sp,24
 805031c:	e13ffe15 	stw	r4,-8(fp)
 8050320:	e17fff15 	stw	r5,-4(fp)
 8050324:	e0bfff17 	ldw	r2,-4(fp)
 8050328:	e0bffa15 	stw	r2,-24(fp)
static ALT_INLINE alt_irq_context ALT_ALWAYS_INLINE 
       alt_irq_disable_all (void)
{
  alt_irq_context context;

  NIOS2_READ_STATUS (context);
 805032c:	0005303a 	rdctl	r2,status
 8050330:	e0bffb15 	stw	r2,-20(fp)

  NIOS2_WRITE_STATUS (context & ~NIOS2_STATUS_PIE_MSK);
 8050334:	e0fffb17 	ldw	r3,-20(fp)
 8050338:	00bfff84 	movi	r2,-2
 805033c:	1884703a 	and	r2,r3,r2
 8050340:	1001703a 	wrctl	status,r2
  
  return context;
 8050344:	e0bffb17 	ldw	r2,-20(fp)
static ALT_INLINE int ALT_ALWAYS_INLINE alt_irq_disable (alt_u32 id)
{
  alt_irq_context  status;
  extern volatile alt_u32 alt_irq_active;

  status = alt_irq_disable_all ();
 8050348:	e0bffc15 	stw	r2,-16(fp)

  alt_irq_active &= ~(1 << id);
 805034c:	00c00044 	movi	r3,1
 8050350:	e0bffa17 	ldw	r2,-24(fp)
 8050354:	1884983a 	sll	r2,r3,r2
 8050358:	0084303a 	nor	r2,zero,r2
 805035c:	1007883a 	mov	r3,r2
 8050360:	d0a71017 	ldw	r2,-25536(gp)
 8050364:	1884703a 	and	r2,r3,r2
 8050368:	d0a71015 	stw	r2,-25536(gp)
  NIOS2_WRITE_IENABLE (alt_irq_active);
 805036c:	d0a71017 	ldw	r2,-25536(gp)
 8050370:	100170fa 	wrctl	ienable,r2
 8050374:	e0bffc17 	ldw	r2,-16(fp)
 8050378:	e0bffd15 	stw	r2,-12(fp)
  status &= ~NIOS2_STATUS_PIE_MSK;
  status |= (context & NIOS2_STATUS_PIE_MSK);
  
  NIOS2_WRITE_STATUS (status);
#else
  NIOS2_WRITE_STATUS (context);
 805037c:	e0bffd17 	ldw	r2,-12(fp)
 8050380:	1001703a 	wrctl	status,r2

  alt_irq_enable_all(status);

  return 0;
 8050384:	0005883a 	mov	r2,zero
    return alt_irq_disable(irq);
 8050388:	0001883a 	nop
}
 805038c:	e037883a 	mov	sp,fp
 8050390:	df000017 	ldw	fp,0(sp)
 8050394:	dec00104 	addi	sp,sp,4
 8050398:	f800283a 	ret

0805039c <alt_ic_irq_enabled>:
  * @param irq              IRQ number
  * @return                 Zero if corresponding interrupt is disabled and
  *                         non-zero otherwise.
  */
alt_u32 alt_ic_irq_enabled(alt_u32 ic_id, alt_u32 irq)
{
 805039c:	defffc04 	addi	sp,sp,-16
 80503a0:	df000315 	stw	fp,12(sp)
 80503a4:	df000304 	addi	fp,sp,12
 80503a8:	e13ffe15 	stw	r4,-8(fp)
 80503ac:	e17fff15 	stw	r5,-4(fp)
    alt_u32 irq_enabled;

    NIOS2_READ_IENABLE(irq_enabled);
 80503b0:	000530fa 	rdctl	r2,ienable
 80503b4:	e0bffd15 	stw	r2,-12(fp)

    return (irq_enabled & (1 << irq)) ? 1: 0;
 80503b8:	00c00044 	movi	r3,1
 80503bc:	e0bfff17 	ldw	r2,-4(fp)
 80503c0:	1884983a 	sll	r2,r3,r2
 80503c4:	1007883a 	mov	r3,r2
 80503c8:	e0bffd17 	ldw	r2,-12(fp)
 80503cc:	1884703a 	and	r2,r3,r2
 80503d0:	1004c03a 	cmpne	r2,r2,zero
 80503d4:	10803fcc 	andi	r2,r2,255
}
 80503d8:	e037883a 	mov	sp,fp
 80503dc:	df000017 	ldw	fp,0(sp)
 80503e0:	dec00104 	addi	sp,sp,4
 80503e4:	f800283a 	ret

080503e8 <alt_iic_isr_register>:
  * @param flags            
  * @return                 0 if successful, else error (-1)
  */
int alt_iic_isr_register(alt_u32 ic_id, alt_u32 irq, alt_isr_func isr, 
  void *isr_context, void *flags)
{
 80503e8:	defff504 	addi	sp,sp,-44
 80503ec:	dfc00a15 	stw	ra,40(sp)
 80503f0:	df000915 	stw	fp,36(sp)
 80503f4:	df000904 	addi	fp,sp,36
 80503f8:	e13ffc15 	stw	r4,-16(fp)
 80503fc:	e17ffd15 	stw	r5,-12(fp)
 8050400:	e1bffe15 	stw	r6,-8(fp)
 8050404:	e1ffff15 	stw	r7,-4(fp)
  int rc = -EINVAL;  
 8050408:	00bffa84 	movi	r2,-22
 805040c:	e0bff715 	stw	r2,-36(fp)
  int id = irq;             /* IRQ interpreted as the interrupt ID. */
 8050410:	e0bffd17 	ldw	r2,-12(fp)
 8050414:	e0bff815 	stw	r2,-32(fp)
  alt_irq_context status;

  if (id < ALT_NIRQ)
 8050418:	e0bff817 	ldw	r2,-32(fp)
 805041c:	10800808 	cmpgei	r2,r2,32
 8050420:	1000271e 	bne	r2,zero,80504c0 <alt_iic_isr_register+0xd8>
static ALT_INLINE alt_irq_context ALT_ALWAYS_INLINE 
       alt_irq_disable_all (void)
{
  alt_irq_context context;

  NIOS2_READ_STATUS (context);
 8050424:	0005303a 	rdctl	r2,status
 8050428:	e0bffb15 	stw	r2,-20(fp)

  NIOS2_WRITE_STATUS (context & ~NIOS2_STATUS_PIE_MSK);
 805042c:	e0fffb17 	ldw	r3,-20(fp)
 8050430:	00bfff84 	movi	r2,-2
 8050434:	1884703a 	and	r2,r3,r2
 8050438:	1001703a 	wrctl	status,r2
  
  return context;
 805043c:	e0bffb17 	ldw	r2,-20(fp)
     * interrupts are disabled while the handler tables are updated to ensure
     * that an interrupt doesn't occur while the tables are in an inconsistant
     * state.
     */

    status = alt_irq_disable_all();
 8050440:	e0bffa15 	stw	r2,-24(fp)

    alt_irq[id].handler = isr;
 8050444:	008201b4 	movhi	r2,2054
 8050448:	10a01104 	addi	r2,r2,-32700
 805044c:	e0fff817 	ldw	r3,-32(fp)
 8050450:	180690fa 	slli	r3,r3,3
 8050454:	10c5883a 	add	r2,r2,r3
 8050458:	e0fffe17 	ldw	r3,-8(fp)
 805045c:	10c00015 	stw	r3,0(r2)
    alt_irq[id].context = isr_context;
 8050460:	008201b4 	movhi	r2,2054
 8050464:	10a01104 	addi	r2,r2,-32700
 8050468:	e0fff817 	ldw	r3,-32(fp)
 805046c:	180690fa 	slli	r3,r3,3
 8050470:	10c5883a 	add	r2,r2,r3
 8050474:	10800104 	addi	r2,r2,4
 8050478:	e0ffff17 	ldw	r3,-4(fp)
 805047c:	10c00015 	stw	r3,0(r2)

    rc = (isr) ? alt_ic_irq_enable(ic_id, id) : alt_ic_irq_disable(ic_id, id);
 8050480:	e0bffe17 	ldw	r2,-8(fp)
 8050484:	10000526 	beq	r2,zero,805049c <alt_iic_isr_register+0xb4>
 8050488:	e0bff817 	ldw	r2,-32(fp)
 805048c:	100b883a 	mov	r5,r2
 8050490:	e13ffc17 	ldw	r4,-16(fp)
 8050494:	80502880 	call	8050288 <alt_ic_irq_enable>
 8050498:	00000406 	br	80504ac <alt_iic_isr_register+0xc4>
 805049c:	e0bff817 	ldw	r2,-32(fp)
 80504a0:	100b883a 	mov	r5,r2
 80504a4:	e13ffc17 	ldw	r4,-16(fp)
 80504a8:	80503100 	call	8050310 <alt_ic_irq_disable>
 80504ac:	e0bff715 	stw	r2,-36(fp)
 80504b0:	e0bffa17 	ldw	r2,-24(fp)
 80504b4:	e0bff915 	stw	r2,-28(fp)
  status &= ~NIOS2_STATUS_PIE_MSK;
  status |= (context & NIOS2_STATUS_PIE_MSK);
  
  NIOS2_WRITE_STATUS (status);
#else
  NIOS2_WRITE_STATUS (context);
 80504b8:	e0bff917 	ldw	r2,-28(fp)
 80504bc:	1001703a 	wrctl	status,r2

    alt_irq_enable_all(status);
  }

  return rc; 
 80504c0:	e0bff717 	ldw	r2,-36(fp)
}
 80504c4:	e037883a 	mov	sp,fp
 80504c8:	dfc00117 	ldw	ra,4(sp)
 80504cc:	df000017 	ldw	fp,0(sp)
 80504d0:	dec00204 	addi	sp,sp,8
 80504d4:	f800283a 	ret

080504d8 <alt_get_errno>:
#undef errno

extern int errno;

static ALT_INLINE int* alt_get_errno(void)
{
 80504d8:	defffe04 	addi	sp,sp,-8
 80504dc:	dfc00115 	stw	ra,4(sp)
 80504e0:	df000015 	stw	fp,0(sp)
 80504e4:	d839883a 	mov	fp,sp
  return ((alt_errno) ? alt_errno() : &errno);
 80504e8:	d0a00c17 	ldw	r2,-32720(gp)
 80504ec:	10000326 	beq	r2,zero,80504fc <alt_get_errno+0x24>
 80504f0:	d0a00c17 	ldw	r2,-32720(gp)
 80504f4:	103ee83a 	callr	r2
 80504f8:	00000106 	br	8050500 <alt_get_errno+0x28>
 80504fc:	d0a70f04 	addi	r2,gp,-25540
}
 8050500:	e037883a 	mov	sp,fp
 8050504:	dfc00117 	ldw	ra,4(sp)
 8050508:	df000017 	ldw	fp,0(sp)
 805050c:	dec00204 	addi	sp,sp,8
 8050510:	f800283a 	ret

08050514 <isatty>:
 *
 * ALT_ISATTY is mapped onto the isatty() system call in alt_syscall.h
 */
 
int ALT_ISATTY (int file)
{
 8050514:	deffed04 	addi	sp,sp,-76
 8050518:	dfc01215 	stw	ra,72(sp)
 805051c:	df001115 	stw	fp,68(sp)
 8050520:	df001104 	addi	fp,sp,68
 8050524:	e13fff15 	stw	r4,-4(fp)
   * A common error case is that when the file descriptor was created, the call
   * to open() failed resulting in a negative file descriptor. This is trapped
   * below so that we don't try and process an invalid file descriptor.
   */

  fd = (file < 0) ? NULL : &alt_fd_list[file];
 8050528:	e0bfff17 	ldw	r2,-4(fp)
 805052c:	10000816 	blt	r2,zero,8050550 <isatty+0x3c>
 8050530:	01400304 	movi	r5,12
 8050534:	e13fff17 	ldw	r4,-4(fp)
 8050538:	8042dac0 	call	8042dac <__mulsi3>
 805053c:	1007883a 	mov	r3,r2
 8050540:	00820174 	movhi	r2,2053
 8050544:	10943c04 	addi	r2,r2,20720
 8050548:	1885883a 	add	r2,r3,r2
 805054c:	00000106 	br	8050554 <isatty+0x40>
 8050550:	0005883a 	mov	r2,zero
 8050554:	e0bfef15 	stw	r2,-68(fp)
  
  if (fd)
 8050558:	e0bfef17 	ldw	r2,-68(fp)
 805055c:	10000e26 	beq	r2,zero,8050598 <isatty+0x84>
    /*
     * If a device driver does not provide an fstat() function, then it is 
     * treated as a terminal device by default.
     */

    if (!fd->dev->fstat)
 8050560:	e0bfef17 	ldw	r2,-68(fp)
 8050564:	10800017 	ldw	r2,0(r2)
 8050568:	10800817 	ldw	r2,32(r2)
 805056c:	1000021e 	bne	r2,zero,8050578 <isatty+0x64>
    {
      return 1;
 8050570:	00800044 	movi	r2,1
 8050574:	00000d06 	br	80505ac <isatty+0x98>
     * this is called so that the device can identify itself.
     */ 

    else
    {
      fstat (file, &stat);
 8050578:	e0bff004 	addi	r2,fp,-64
 805057c:	100b883a 	mov	r5,r2
 8050580:	e13fff17 	ldw	r4,-4(fp)
 8050584:	80501800 	call	8050180 <fstat>
      return (stat.st_mode == _IFCHR) ? 1 : 0;
 8050588:	e0bff117 	ldw	r2,-60(fp)
 805058c:	10880020 	cmpeqi	r2,r2,8192
 8050590:	10803fcc 	andi	r2,r2,255
 8050594:	00000506 	br	80505ac <isatty+0x98>
    }
  }
  else
  {
    ALT_ERRNO = EBADFD;
 8050598:	80504d80 	call	80504d8 <alt_get_errno>
 805059c:	1007883a 	mov	r3,r2
 80505a0:	00801444 	movi	r2,81
 80505a4:	18800015 	stw	r2,0(r3)
    return 0;
 80505a8:	0005883a 	mov	r2,zero
  }
}
 80505ac:	e037883a 	mov	sp,fp
 80505b0:	dfc00117 	ldw	ra,4(sp)
 80505b4:	df000017 	ldw	fp,0(sp)
 80505b8:	dec00204 	addi	sp,sp,8
 80505bc:	f800283a 	ret

080505c0 <alt_load_section>:
 */

static void ALT_INLINE alt_load_section (alt_u32* from, 
                                         alt_u32* to, 
                                         alt_u32* end)
{
 80505c0:	defffc04 	addi	sp,sp,-16
 80505c4:	df000315 	stw	fp,12(sp)
 80505c8:	df000304 	addi	fp,sp,12
 80505cc:	e13ffd15 	stw	r4,-12(fp)
 80505d0:	e17ffe15 	stw	r5,-8(fp)
 80505d4:	e1bfff15 	stw	r6,-4(fp)
  if (to != from)
 80505d8:	e0fffe17 	ldw	r3,-8(fp)
 80505dc:	e0bffd17 	ldw	r2,-12(fp)
 80505e0:	18800c26 	beq	r3,r2,8050614 <alt_load_section+0x54>
  {
    while( to != end )
 80505e4:	00000806 	br	8050608 <alt_load_section+0x48>
    {
      *to++ = *from++;
 80505e8:	e0bffe17 	ldw	r2,-8(fp)
 80505ec:	10c00104 	addi	r3,r2,4
 80505f0:	e0fffe15 	stw	r3,-8(fp)
 80505f4:	e0fffd17 	ldw	r3,-12(fp)
 80505f8:	19000104 	addi	r4,r3,4
 80505fc:	e13ffd15 	stw	r4,-12(fp)
 8050600:	18c00017 	ldw	r3,0(r3)
 8050604:	10c00015 	stw	r3,0(r2)
                                         alt_u32* to, 
                                         alt_u32* end)
{
  if (to != from)
  {
    while( to != end )
 8050608:	e0fffe17 	ldw	r3,-8(fp)
 805060c:	e0bfff17 	ldw	r2,-4(fp)
 8050610:	18bff51e 	bne	r3,r2,80505e8 <__alt_data_end+0xfffe8548>
    {
      *to++ = *from++;
    }
  }
}
 8050614:	0001883a 	nop
 8050618:	e037883a 	mov	sp,fp
 805061c:	df000017 	ldw	fp,0(sp)
 8050620:	dec00104 	addi	sp,sp,4
 8050624:	f800283a 	ret

08050628 <alt_load>:
 * there is no bootloader, so this application is responsible for loading to
 * RAM any sections that are required.
 */  

void alt_load (void)
{
 8050628:	defffe04 	addi	sp,sp,-8
 805062c:	dfc00115 	stw	ra,4(sp)
 8050630:	df000015 	stw	fp,0(sp)
 8050634:	d839883a 	mov	fp,sp
  /* 
   * Copy the .rwdata section. 
   */

  alt_load_section (&__flash_rwdata_start, 
 8050638:	01820174 	movhi	r6,2053
 805063c:	3198fd04 	addi	r6,r6,25588
 8050640:	01420174 	movhi	r5,2053
 8050644:	29520904 	addi	r5,r5,18468
 8050648:	01020174 	movhi	r4,2053
 805064c:	2118fd04 	addi	r4,r4,25588
 8050650:	80505c00 	call	80505c0 <alt_load_section>

  /*
   * Copy the exception handler.
   */

  alt_load_section (&__flash_exceptions_start, 
 8050654:	01820134 	movhi	r6,2052
 8050658:	31808c04 	addi	r6,r6,560
 805065c:	01420134 	movhi	r5,2052
 8050660:	29400804 	addi	r5,r5,32
 8050664:	01020134 	movhi	r4,2052
 8050668:	21000804 	addi	r4,r4,32
 805066c:	80505c00 	call	80505c0 <alt_load_section>

  /*
   * Copy the .rodata section.
   */

  alt_load_section (&__flash_rodata_start, 
 8050670:	01820174 	movhi	r6,2053
 8050674:	31920904 	addi	r6,r6,18468
 8050678:	01420174 	movhi	r5,2053
 805067c:	29509c04 	addi	r5,r5,17008
 8050680:	01020174 	movhi	r4,2053
 8050684:	21109c04 	addi	r4,r4,17008
 8050688:	80505c00 	call	80505c0 <alt_load_section>
  
  /*
   * Now ensure that the caches are in synch.
   */
  
  alt_dcache_flush_all();
 805068c:	80535fc0 	call	80535fc <alt_dcache_flush_all>
  alt_icache_flush_all();
 8050690:	805384c0 	call	805384c <alt_icache_flush_all>
}
 8050694:	0001883a 	nop
 8050698:	e037883a 	mov	sp,fp
 805069c:	dfc00117 	ldw	ra,4(sp)
 80506a0:	df000017 	ldw	fp,0(sp)
 80506a4:	dec00204 	addi	sp,sp,8
 80506a8:	f800283a 	ret

080506ac <alt_get_errno>:
#undef errno

extern int errno;

static ALT_INLINE int* alt_get_errno(void)
{
 80506ac:	defffe04 	addi	sp,sp,-8
 80506b0:	dfc00115 	stw	ra,4(sp)
 80506b4:	df000015 	stw	fp,0(sp)
 80506b8:	d839883a 	mov	fp,sp
  return ((alt_errno) ? alt_errno() : &errno);
 80506bc:	d0a00c17 	ldw	r2,-32720(gp)
 80506c0:	10000326 	beq	r2,zero,80506d0 <alt_get_errno+0x24>
 80506c4:	d0a00c17 	ldw	r2,-32720(gp)
 80506c8:	103ee83a 	callr	r2
 80506cc:	00000106 	br	80506d4 <alt_get_errno+0x28>
 80506d0:	d0a70f04 	addi	r2,gp,-25540
}
 80506d4:	e037883a 	mov	sp,fp
 80506d8:	dfc00117 	ldw	ra,4(sp)
 80506dc:	df000017 	ldw	fp,0(sp)
 80506e0:	dec00204 	addi	sp,sp,8
 80506e4:	f800283a 	ret

080506e8 <lseek>:
 * ALT_LSEEK is mapped onto the lseek() system call in alt_syscall.h
 *
 */

off_t ALT_LSEEK (int file, off_t ptr, int dir)
{
 80506e8:	defff904 	addi	sp,sp,-28
 80506ec:	dfc00615 	stw	ra,24(sp)
 80506f0:	df000515 	stw	fp,20(sp)
 80506f4:	df000504 	addi	fp,sp,20
 80506f8:	e13ffd15 	stw	r4,-12(fp)
 80506fc:	e17ffe15 	stw	r5,-8(fp)
 8050700:	e1bfff15 	stw	r6,-4(fp)
  alt_fd* fd;
  off_t   rc = 0; 
 8050704:	e03ffb15 	stw	zero,-20(fp)
   * A common error case is that when the file descriptor was created, the call
   * to open() failed resulting in a negative file descriptor. This is trapped
   * below so that we don't try and process an invalid file descriptor.
   */

  fd = (file < 0) ? NULL : &alt_fd_list[file];
 8050708:	e0bffd17 	ldw	r2,-12(fp)
 805070c:	10000816 	blt	r2,zero,8050730 <lseek+0x48>
 8050710:	01400304 	movi	r5,12
 8050714:	e13ffd17 	ldw	r4,-12(fp)
 8050718:	8042dac0 	call	8042dac <__mulsi3>
 805071c:	1007883a 	mov	r3,r2
 8050720:	00820174 	movhi	r2,2053
 8050724:	10943c04 	addi	r2,r2,20720
 8050728:	1885883a 	add	r2,r3,r2
 805072c:	00000106 	br	8050734 <lseek+0x4c>
 8050730:	0005883a 	mov	r2,zero
 8050734:	e0bffc15 	stw	r2,-16(fp)
  
  if (fd) 
 8050738:	e0bffc17 	ldw	r2,-16(fp)
 805073c:	10001026 	beq	r2,zero,8050780 <lseek+0x98>
    /*
     * If the device driver provides an implementation of the lseek() function,
     * then call that to process the request.
     */
 
    if (fd->dev->lseek)
 8050740:	e0bffc17 	ldw	r2,-16(fp)
 8050744:	10800017 	ldw	r2,0(r2)
 8050748:	10800717 	ldw	r2,28(r2)
 805074c:	10000926 	beq	r2,zero,8050774 <lseek+0x8c>
    {
      rc = fd->dev->lseek(fd, ptr, dir);
 8050750:	e0bffc17 	ldw	r2,-16(fp)
 8050754:	10800017 	ldw	r2,0(r2)
 8050758:	10800717 	ldw	r2,28(r2)
 805075c:	e1bfff17 	ldw	r6,-4(fp)
 8050760:	e17ffe17 	ldw	r5,-8(fp)
 8050764:	e13ffc17 	ldw	r4,-16(fp)
 8050768:	103ee83a 	callr	r2
 805076c:	e0bffb15 	stw	r2,-20(fp)
 8050770:	00000506 	br	8050788 <lseek+0xa0>
     * Otherwise return an error.
     */

    else
    {
      rc = -ENOTSUP;
 8050774:	00bfde84 	movi	r2,-134
 8050778:	e0bffb15 	stw	r2,-20(fp)
 805077c:	00000206 	br	8050788 <lseek+0xa0>
    }
  }
  else  
  {
    rc = -EBADFD;
 8050780:	00bfebc4 	movi	r2,-81
 8050784:	e0bffb15 	stw	r2,-20(fp)
  }

  if (rc < 0)
 8050788:	e0bffb17 	ldw	r2,-20(fp)
 805078c:	1000070e 	bge	r2,zero,80507ac <lseek+0xc4>
  {
    ALT_ERRNO = -rc;
 8050790:	80506ac0 	call	80506ac <alt_get_errno>
 8050794:	1007883a 	mov	r3,r2
 8050798:	e0bffb17 	ldw	r2,-20(fp)
 805079c:	0085c83a 	sub	r2,zero,r2
 80507a0:	18800015 	stw	r2,0(r3)
    rc = -1;
 80507a4:	00bfffc4 	movi	r2,-1
 80507a8:	e0bffb15 	stw	r2,-20(fp)
  }

  return rc;
 80507ac:	e0bffb17 	ldw	r2,-20(fp)
}
 80507b0:	e037883a 	mov	sp,fp
 80507b4:	dfc00117 	ldw	ra,4(sp)
 80507b8:	df000017 	ldw	fp,0(sp)
 80507bc:	dec00204 	addi	sp,sp,8
 80507c0:	f800283a 	ret

080507c4 <alt_main>:
 * devices/filesystems/components in the system; and call the entry point for
 * the users application, i.e. main().
 */

void alt_main (void)
{
 80507c4:	defffd04 	addi	sp,sp,-12
 80507c8:	dfc00215 	stw	ra,8(sp)
 80507cc:	df000115 	stw	fp,4(sp)
 80507d0:	df000104 	addi	fp,sp,4
#endif

  /* ALT LOG - please see HAL/sys/alt_log_printf.h for details */
  ALT_LOG_PRINT_BOOT("[alt_main.c] Entering alt_main, calling alt_irq_init.\r\n");
  /* Initialize the interrupt controller. */
  alt_irq_init (NULL);
 80507d4:	0009883a 	mov	r4,zero
 80507d8:	8050e400 	call	8050e40 <alt_irq_init>

  /* Initialize the operating system */
  ALT_LOG_PRINT_BOOT("[alt_main.c] Done alt_irq_init, calling alt_os_init.\r\n");
  ALT_OS_INIT();
 80507dc:	0001883a 	nop
  ALT_LOG_PRINT_BOOT("[alt_main.c] Done OS Init, calling alt_sem_create.\r\n");
  ALT_SEM_CREATE (&alt_fd_list_lock, 1);

  /* Initialize the device drivers/software components. */
  ALT_LOG_PRINT_BOOT("[alt_main.c] Calling alt_sys_init.\r\n");
  alt_sys_init();
 80507e0:	8050e780 	call	8050e78 <alt_sys_init>
   * devices be present (not equal to /dev/null) and if direct drivers
   * aren't being used.
   */

    ALT_LOG_PRINT_BOOT("[alt_main.c] Redirecting IO.\r\n");
    alt_io_redirect(ALT_STDOUT, ALT_STDIN, ALT_STDERR);
 80507e4:	01820174 	movhi	r6,2053
 80507e8:	3191d704 	addi	r6,r6,18268
 80507ec:	01420174 	movhi	r5,2053
 80507f0:	2951d704 	addi	r5,r5,18268
 80507f4:	01020174 	movhi	r4,2053
 80507f8:	2111d704 	addi	r4,r4,18268
 80507fc:	80539ec0 	call	80539ec <alt_io_redirect>
  /* 
   * Call the C++ constructors 
   */

  ALT_LOG_PRINT_BOOT("[alt_main.c] Calling C++ constructors.\r\n");
  _do_ctors ();
 8050800:	80536fc0 	call	80536fc <_do_ctors>
   * redefined as _exit()). This is in the interest of reducing code footprint,
   * in that the atexit() overhead is removed when it's not needed.
   */

  ALT_LOG_PRINT_BOOT("[alt_main.c] Calling atexit.\r\n");
  atexit (_do_dtors);
 8050804:	01020174 	movhi	r4,2053
 8050808:	210dd704 	addi	r4,r4,14172
 805080c:	8053edc0 	call	8053edc <atexit>
  ALT_LOG_PRINT_BOOT("[alt_main.c] Calling main.\r\n");

#ifdef ALT_NO_EXIT
  main (alt_argc, alt_argv, alt_envp);
#else
  result = main (alt_argc, alt_argv, alt_envp);
 8050810:	d0a71117 	ldw	r2,-25532(gp)
 8050814:	d0e71217 	ldw	r3,-25528(gp)
 8050818:	d1271317 	ldw	r4,-25524(gp)
 805081c:	200d883a 	mov	r6,r4
 8050820:	180b883a 	mov	r5,r3
 8050824:	1009883a 	mov	r4,r2
 8050828:	80403780 	call	8040378 <main>
 805082c:	e0bfff15 	stw	r2,-4(fp)
  close(STDOUT_FILENO);
 8050830:	01000044 	movi	r4,1
 8050834:	80500400 	call	8050040 <close>
  exit (result);
 8050838:	e13fff17 	ldw	r4,-4(fp)
 805083c:	8053ef00 	call	8053ef0 <exit>

08050840 <__malloc_lock>:
 * configuration is single threaded, so there is nothing to do here. Note that 
 * this requires that malloc is never called by an interrupt service routine.
 */

void __malloc_lock ( struct _reent *_r )
{
 8050840:	defffe04 	addi	sp,sp,-8
 8050844:	df000115 	stw	fp,4(sp)
 8050848:	df000104 	addi	fp,sp,4
 805084c:	e13fff15 	stw	r4,-4(fp)
}
 8050850:	0001883a 	nop
 8050854:	e037883a 	mov	sp,fp
 8050858:	df000017 	ldw	fp,0(sp)
 805085c:	dec00104 	addi	sp,sp,4
 8050860:	f800283a 	ret

08050864 <__malloc_unlock>:
/*
 *
 */

void __malloc_unlock ( struct _reent *_r )
{
 8050864:	defffe04 	addi	sp,sp,-8
 8050868:	df000115 	stw	fp,4(sp)
 805086c:	df000104 	addi	fp,sp,4
 8050870:	e13fff15 	stw	r4,-4(fp)
}
 8050874:	0001883a 	nop
 8050878:	e037883a 	mov	sp,fp
 805087c:	df000017 	ldw	fp,0(sp)
 8050880:	dec00104 	addi	sp,sp,4
 8050884:	f800283a 	ret

08050888 <alt_get_errno>:
#undef errno

extern int errno;

static ALT_INLINE int* alt_get_errno(void)
{
 8050888:	defffe04 	addi	sp,sp,-8
 805088c:	dfc00115 	stw	ra,4(sp)
 8050890:	df000015 	stw	fp,0(sp)
 8050894:	d839883a 	mov	fp,sp
  return ((alt_errno) ? alt_errno() : &errno);
 8050898:	d0a00c17 	ldw	r2,-32720(gp)
 805089c:	10000326 	beq	r2,zero,80508ac <alt_get_errno+0x24>
 80508a0:	d0a00c17 	ldw	r2,-32720(gp)
 80508a4:	103ee83a 	callr	r2
 80508a8:	00000106 	br	80508b0 <alt_get_errno+0x28>
 80508ac:	d0a70f04 	addi	r2,gp,-25540
}
 80508b0:	e037883a 	mov	sp,fp
 80508b4:	dfc00117 	ldw	ra,4(sp)
 80508b8:	df000017 	ldw	fp,0(sp)
 80508bc:	dec00204 	addi	sp,sp,8
 80508c0:	f800283a 	ret

080508c4 <read>:
}

#else /* !ALT_USE_DIRECT_DRIVERS */

int ALT_READ (int file, void *ptr, size_t len)
{
 80508c4:	defff904 	addi	sp,sp,-28
 80508c8:	dfc00615 	stw	ra,24(sp)
 80508cc:	df000515 	stw	fp,20(sp)
 80508d0:	df000504 	addi	fp,sp,20
 80508d4:	e13ffd15 	stw	r4,-12(fp)
 80508d8:	e17ffe15 	stw	r5,-8(fp)
 80508dc:	e1bfff15 	stw	r6,-4(fp)
   * A common error case is that when the file descriptor was created, the call
   * to open() failed resulting in a negative file descriptor. This is trapped
   * below so that we don't try and process an invalid file descriptor.
   */

  fd = (file < 0) ? NULL : &alt_fd_list[file];
 80508e0:	e0bffd17 	ldw	r2,-12(fp)
 80508e4:	10000816 	blt	r2,zero,8050908 <read+0x44>
 80508e8:	01400304 	movi	r5,12
 80508ec:	e13ffd17 	ldw	r4,-12(fp)
 80508f0:	8042dac0 	call	8042dac <__mulsi3>
 80508f4:	1007883a 	mov	r3,r2
 80508f8:	00820174 	movhi	r2,2053
 80508fc:	10943c04 	addi	r2,r2,20720
 8050900:	1885883a 	add	r2,r3,r2
 8050904:	00000106 	br	805090c <read+0x48>
 8050908:	0005883a 	mov	r2,zero
 805090c:	e0bffb15 	stw	r2,-20(fp)
  
  if (fd)
 8050910:	e0bffb17 	ldw	r2,-20(fp)
 8050914:	10002226 	beq	r2,zero,80509a0 <read+0xdc>
     * If the file has not been opened with read access, or if the driver does
     * not provide an implementation of read(), generate an error. Otherwise
     * call the drivers read() function to process the request.
     */

    if (((fd->fd_flags & O_ACCMODE) != O_WRONLY) && 
 8050918:	e0bffb17 	ldw	r2,-20(fp)
 805091c:	10800217 	ldw	r2,8(r2)
 8050920:	108000cc 	andi	r2,r2,3
 8050924:	10800060 	cmpeqi	r2,r2,1
 8050928:	1000181e 	bne	r2,zero,805098c <read+0xc8>
        (fd->dev->read))
 805092c:	e0bffb17 	ldw	r2,-20(fp)
 8050930:	10800017 	ldw	r2,0(r2)
 8050934:	10800517 	ldw	r2,20(r2)
     * If the file has not been opened with read access, or if the driver does
     * not provide an implementation of read(), generate an error. Otherwise
     * call the drivers read() function to process the request.
     */

    if (((fd->fd_flags & O_ACCMODE) != O_WRONLY) && 
 8050938:	10001426 	beq	r2,zero,805098c <read+0xc8>
        (fd->dev->read))
      {
        if ((rval = fd->dev->read(fd, ptr, len)) < 0)
 805093c:	e0bffb17 	ldw	r2,-20(fp)
 8050940:	10800017 	ldw	r2,0(r2)
 8050944:	10800517 	ldw	r2,20(r2)
 8050948:	e0ffff17 	ldw	r3,-4(fp)
 805094c:	180d883a 	mov	r6,r3
 8050950:	e17ffe17 	ldw	r5,-8(fp)
 8050954:	e13ffb17 	ldw	r4,-20(fp)
 8050958:	103ee83a 	callr	r2
 805095c:	e0bffc15 	stw	r2,-16(fp)
 8050960:	e0bffc17 	ldw	r2,-16(fp)
 8050964:	1000070e 	bge	r2,zero,8050984 <read+0xc0>
        {
          ALT_ERRNO = -rval;
 8050968:	80508880 	call	8050888 <alt_get_errno>
 805096c:	1007883a 	mov	r3,r2
 8050970:	e0bffc17 	ldw	r2,-16(fp)
 8050974:	0085c83a 	sub	r2,zero,r2
 8050978:	18800015 	stw	r2,0(r3)
          return -1;
 805097c:	00bfffc4 	movi	r2,-1
 8050980:	00000c06 	br	80509b4 <read+0xf0>
        }
        return rval;
 8050984:	e0bffc17 	ldw	r2,-16(fp)
 8050988:	00000a06 	br	80509b4 <read+0xf0>
      }
      else
      {
        ALT_ERRNO = EACCES;
 805098c:	80508880 	call	8050888 <alt_get_errno>
 8050990:	1007883a 	mov	r3,r2
 8050994:	00800344 	movi	r2,13
 8050998:	18800015 	stw	r2,0(r3)
 805099c:	00000406 	br	80509b0 <read+0xec>
      }
    }
  else
  {
    ALT_ERRNO = EBADFD;
 80509a0:	80508880 	call	8050888 <alt_get_errno>
 80509a4:	1007883a 	mov	r3,r2
 80509a8:	00801444 	movi	r2,81
 80509ac:	18800015 	stw	r2,0(r3)
  }
  return -1;
 80509b0:	00bfffc4 	movi	r2,-1
}
 80509b4:	e037883a 	mov	sp,fp
 80509b8:	dfc00117 	ldw	ra,4(sp)
 80509bc:	df000017 	ldw	fp,0(sp)
 80509c0:	dec00204 	addi	sp,sp,8
 80509c4:	f800283a 	ret

080509c8 <alt_release_fd>:
 * File descriptors correcponding to standard in, standard out and standard 
 * error cannont be released backed to the pool. They are always reserved.
 */

void alt_release_fd (int fd)
{
 80509c8:	defffc04 	addi	sp,sp,-16
 80509cc:	dfc00315 	stw	ra,12(sp)
 80509d0:	df000215 	stw	fp,8(sp)
 80509d4:	dc000115 	stw	r16,4(sp)
 80509d8:	df000204 	addi	fp,sp,8
 80509dc:	e13ffe15 	stw	r4,-8(fp)
  if (fd > 2)
 80509e0:	e0bffe17 	ldw	r2,-8(fp)
 80509e4:	108000d0 	cmplti	r2,r2,3
 80509e8:	1000111e 	bne	r2,zero,8050a30 <alt_release_fd+0x68>
  {
    alt_fd_list[fd].fd_flags = 0;
 80509ec:	04020174 	movhi	r16,2053
 80509f0:	84143c04 	addi	r16,r16,20720
 80509f4:	e0bffe17 	ldw	r2,-8(fp)
 80509f8:	01400304 	movi	r5,12
 80509fc:	1009883a 	mov	r4,r2
 8050a00:	8042dac0 	call	8042dac <__mulsi3>
 8050a04:	8085883a 	add	r2,r16,r2
 8050a08:	10800204 	addi	r2,r2,8
 8050a0c:	10000015 	stw	zero,0(r2)
    alt_fd_list[fd].dev      = 0;
 8050a10:	04020174 	movhi	r16,2053
 8050a14:	84143c04 	addi	r16,r16,20720
 8050a18:	e0bffe17 	ldw	r2,-8(fp)
 8050a1c:	01400304 	movi	r5,12
 8050a20:	1009883a 	mov	r4,r2
 8050a24:	8042dac0 	call	8042dac <__mulsi3>
 8050a28:	8085883a 	add	r2,r16,r2
 8050a2c:	10000015 	stw	zero,0(r2)
  }
}
 8050a30:	0001883a 	nop
 8050a34:	e6ffff04 	addi	sp,fp,-4
 8050a38:	dfc00217 	ldw	ra,8(sp)
 8050a3c:	df000117 	ldw	fp,4(sp)
 8050a40:	dc000017 	ldw	r16,0(sp)
 8050a44:	dec00304 	addi	sp,sp,12
 8050a48:	f800283a 	ret

08050a4c <sbrk>:
#endif
 
caddr_t ALT_SBRK (int incr) __attribute__ ((no_instrument_function ));

caddr_t ALT_SBRK (int incr)
{ 
 8050a4c:	defff904 	addi	sp,sp,-28
 8050a50:	df000615 	stw	fp,24(sp)
 8050a54:	df000604 	addi	fp,sp,24
 8050a58:	e13fff15 	stw	r4,-4(fp)
static ALT_INLINE alt_irq_context ALT_ALWAYS_INLINE 
       alt_irq_disable_all (void)
{
  alt_irq_context context;

  NIOS2_READ_STATUS (context);
 8050a5c:	0005303a 	rdctl	r2,status
 8050a60:	e0bffe15 	stw	r2,-8(fp)

  NIOS2_WRITE_STATUS (context & ~NIOS2_STATUS_PIE_MSK);
 8050a64:	e0fffe17 	ldw	r3,-8(fp)
 8050a68:	00bfff84 	movi	r2,-2
 8050a6c:	1884703a 	and	r2,r3,r2
 8050a70:	1001703a 	wrctl	status,r2
  
  return context;
 8050a74:	e0bffe17 	ldw	r2,-8(fp)
  alt_irq_context context;
  char *prev_heap_end; 

  context = alt_irq_disable_all();
 8050a78:	e0bffb15 	stw	r2,-20(fp)

  /* Always return data aligned on a word boundary */
  heap_end = (char *)(((unsigned int)heap_end + 3) & ~3);
 8050a7c:	d0a00e17 	ldw	r2,-32712(gp)
 8050a80:	10c000c4 	addi	r3,r2,3
 8050a84:	00bfff04 	movi	r2,-4
 8050a88:	1884703a 	and	r2,r3,r2
 8050a8c:	d0a00e15 	stw	r2,-32712(gp)
  if (((heap_end + incr) - __alt_heap_start) > ALT_MAX_HEAP_BYTES) {
    alt_irq_enable_all(context);
    return (caddr_t)-1;
  }
#else
  if ((heap_end + incr) > __alt_heap_limit) {
 8050a90:	d0e00e17 	ldw	r3,-32712(gp)
 8050a94:	e0bfff17 	ldw	r2,-4(fp)
 8050a98:	1887883a 	add	r3,r3,r2
 8050a9c:	008201f4 	movhi	r2,2055
 8050aa0:	10a02804 	addi	r2,r2,-32608
 8050aa4:	10c0062e 	bgeu	r2,r3,8050ac0 <sbrk+0x74>
 8050aa8:	e0bffb17 	ldw	r2,-20(fp)
 8050aac:	e0bffa15 	stw	r2,-24(fp)
  status &= ~NIOS2_STATUS_PIE_MSK;
  status |= (context & NIOS2_STATUS_PIE_MSK);
  
  NIOS2_WRITE_STATUS (status);
#else
  NIOS2_WRITE_STATUS (context);
 8050ab0:	e0bffa17 	ldw	r2,-24(fp)
 8050ab4:	1001703a 	wrctl	status,r2
    alt_irq_enable_all(context);
    return (caddr_t)-1;
 8050ab8:	00bfffc4 	movi	r2,-1
 8050abc:	00000b06 	br	8050aec <sbrk+0xa0>
  }
#endif

  prev_heap_end = heap_end; 
 8050ac0:	d0a00e17 	ldw	r2,-32712(gp)
 8050ac4:	e0bffd15 	stw	r2,-12(fp)
  heap_end += incr; 
 8050ac8:	d0e00e17 	ldw	r3,-32712(gp)
 8050acc:	e0bfff17 	ldw	r2,-4(fp)
 8050ad0:	1885883a 	add	r2,r3,r2
 8050ad4:	d0a00e15 	stw	r2,-32712(gp)
 8050ad8:	e0bffb17 	ldw	r2,-20(fp)
 8050adc:	e0bffc15 	stw	r2,-16(fp)
 8050ae0:	e0bffc17 	ldw	r2,-16(fp)
 8050ae4:	1001703a 	wrctl	status,r2

#endif

  alt_irq_enable_all(context);

  return (caddr_t) prev_heap_end; 
 8050ae8:	e0bffd17 	ldw	r2,-12(fp)
} 
 8050aec:	e037883a 	mov	sp,fp
 8050af0:	df000017 	ldw	fp,0(sp)
 8050af4:	dec00104 	addi	sp,sp,4
 8050af8:	f800283a 	ret

08050afc <alt_alarm_stop>:
 * alarms. Alternatively an alarm can unregister itself by returning zero when 
 * the alarm executes.
 */

void alt_alarm_stop (alt_alarm* alarm)
{
 8050afc:	defffa04 	addi	sp,sp,-24
 8050b00:	df000515 	stw	fp,20(sp)
 8050b04:	df000504 	addi	fp,sp,20
 8050b08:	e13fff15 	stw	r4,-4(fp)
static ALT_INLINE alt_irq_context ALT_ALWAYS_INLINE 
       alt_irq_disable_all (void)
{
  alt_irq_context context;

  NIOS2_READ_STATUS (context);
 8050b0c:	0005303a 	rdctl	r2,status
 8050b10:	e0bffc15 	stw	r2,-16(fp)

  NIOS2_WRITE_STATUS (context & ~NIOS2_STATUS_PIE_MSK);
 8050b14:	e0fffc17 	ldw	r3,-16(fp)
 8050b18:	00bfff84 	movi	r2,-2
 8050b1c:	1884703a 	and	r2,r3,r2
 8050b20:	1001703a 	wrctl	status,r2
  
  return context;
 8050b24:	e0bffc17 	ldw	r2,-16(fp)
  alt_irq_context irq_context;

  irq_context = alt_irq_disable_all();
 8050b28:	e0bffb15 	stw	r2,-20(fp)
  alt_llist_remove (&alarm->llist);
 8050b2c:	e0bfff17 	ldw	r2,-4(fp)
 8050b30:	e0bffd15 	stw	r2,-12(fp)
 * input argument is the element to remove.
 */
     
static ALT_INLINE void ALT_ALWAYS_INLINE alt_llist_remove(alt_llist* entry)
{
  entry->next->previous = entry->previous;
 8050b34:	e0bffd17 	ldw	r2,-12(fp)
 8050b38:	10800017 	ldw	r2,0(r2)
 8050b3c:	e0fffd17 	ldw	r3,-12(fp)
 8050b40:	18c00117 	ldw	r3,4(r3)
 8050b44:	10c00115 	stw	r3,4(r2)
  entry->previous->next = entry->next;
 8050b48:	e0bffd17 	ldw	r2,-12(fp)
 8050b4c:	10800117 	ldw	r2,4(r2)
 8050b50:	e0fffd17 	ldw	r3,-12(fp)
 8050b54:	18c00017 	ldw	r3,0(r3)
 8050b58:	10c00015 	stw	r3,0(r2)
  /* 
   * Set the entry to point to itself, so that any further calls to
   * alt_llist_remove() are harmless.
   */

  entry->previous = entry;
 8050b5c:	e0bffd17 	ldw	r2,-12(fp)
 8050b60:	e0fffd17 	ldw	r3,-12(fp)
 8050b64:	10c00115 	stw	r3,4(r2)
  entry->next     = entry;
 8050b68:	e0bffd17 	ldw	r2,-12(fp)
 8050b6c:	e0fffd17 	ldw	r3,-12(fp)
 8050b70:	10c00015 	stw	r3,0(r2)
 8050b74:	e0bffb17 	ldw	r2,-20(fp)
 8050b78:	e0bffe15 	stw	r2,-8(fp)
  status &= ~NIOS2_STATUS_PIE_MSK;
  status |= (context & NIOS2_STATUS_PIE_MSK);
  
  NIOS2_WRITE_STATUS (status);
#else
  NIOS2_WRITE_STATUS (context);
 8050b7c:	e0bffe17 	ldw	r2,-8(fp)
 8050b80:	1001703a 	wrctl	status,r2
  alt_irq_enable_all (irq_context);
}
 8050b84:	0001883a 	nop
 8050b88:	e037883a 	mov	sp,fp
 8050b8c:	df000017 	ldw	fp,0(sp)
 8050b90:	dec00104 	addi	sp,sp,4
 8050b94:	f800283a 	ret

08050b98 <alt_tick>:
 * 
 * alt_tick() is expected to run at interrupt level.
 */

void alt_tick (void)
{
 8050b98:	defffb04 	addi	sp,sp,-20
 8050b9c:	dfc00415 	stw	ra,16(sp)
 8050ba0:	df000315 	stw	fp,12(sp)
 8050ba4:	df000304 	addi	fp,sp,12
  alt_alarm* next;
  alt_alarm* alarm = (alt_alarm*) alt_alarm_list.next;
 8050ba8:	d0a00f17 	ldw	r2,-32708(gp)
 8050bac:	e0bffd15 	stw	r2,-12(fp)

  alt_u32    next_callback;

  /* update the tick counter */

  _alt_nticks++;
 8050bb0:	d0a71517 	ldw	r2,-25516(gp)
 8050bb4:	10800044 	addi	r2,r2,1
 8050bb8:	d0a71515 	stw	r2,-25516(gp)

  /* process the registered callbacks */

  while (alarm != (alt_alarm*) &alt_alarm_list)
 8050bbc:	00002e06 	br	8050c78 <alt_tick+0xe0>
  {
    next = (alt_alarm*) alarm->llist.next;
 8050bc0:	e0bffd17 	ldw	r2,-12(fp)
 8050bc4:	10800017 	ldw	r2,0(r2)
 8050bc8:	e0bffe15 	stw	r2,-8(fp)
    /* 
     * Upon the tick-counter rolling over it is safe to clear the 
     * roll-over flag; once the flag is cleared this (or subsequnt)
     * tick events are enabled to generate an alarm event. 
     */
    if ((alarm->rollover) && (_alt_nticks == 0))
 8050bcc:	e0bffd17 	ldw	r2,-12(fp)
 8050bd0:	10800403 	ldbu	r2,16(r2)
 8050bd4:	10803fcc 	andi	r2,r2,255
 8050bd8:	10000426 	beq	r2,zero,8050bec <alt_tick+0x54>
 8050bdc:	d0a71517 	ldw	r2,-25516(gp)
 8050be0:	1000021e 	bne	r2,zero,8050bec <alt_tick+0x54>
    {
      alarm->rollover = 0;
 8050be4:	e0bffd17 	ldw	r2,-12(fp)
 8050be8:	10000405 	stb	zero,16(r2)
    }
    
    /* if the alarm period has expired, make the callback */    
    if ((alarm->time <= _alt_nticks) && (alarm->rollover == 0))
 8050bec:	e0bffd17 	ldw	r2,-12(fp)
 8050bf0:	10800217 	ldw	r2,8(r2)
 8050bf4:	d0e71517 	ldw	r3,-25516(gp)
 8050bf8:	18801d36 	bltu	r3,r2,8050c70 <alt_tick+0xd8>
 8050bfc:	e0bffd17 	ldw	r2,-12(fp)
 8050c00:	10800403 	ldbu	r2,16(r2)
 8050c04:	10803fcc 	andi	r2,r2,255
 8050c08:	1000191e 	bne	r2,zero,8050c70 <alt_tick+0xd8>
    {
      next_callback = alarm->callback (alarm->context);
 8050c0c:	e0bffd17 	ldw	r2,-12(fp)
 8050c10:	10800317 	ldw	r2,12(r2)
 8050c14:	e0fffd17 	ldw	r3,-12(fp)
 8050c18:	18c00517 	ldw	r3,20(r3)
 8050c1c:	1809883a 	mov	r4,r3
 8050c20:	103ee83a 	callr	r2
 8050c24:	e0bfff15 	stw	r2,-4(fp)

      /* deactivate the alarm if the return value is zero */

      if (next_callback == 0)
 8050c28:	e0bfff17 	ldw	r2,-4(fp)
 8050c2c:	1000031e 	bne	r2,zero,8050c3c <alt_tick+0xa4>
      {
        alt_alarm_stop (alarm);
 8050c30:	e13ffd17 	ldw	r4,-12(fp)
 8050c34:	8050afc0 	call	8050afc <alt_alarm_stop>
 8050c38:	00000d06 	br	8050c70 <alt_tick+0xd8>
      }
      else
      {
        alarm->time += next_callback;
 8050c3c:	e0bffd17 	ldw	r2,-12(fp)
 8050c40:	10c00217 	ldw	r3,8(r2)
 8050c44:	e0bfff17 	ldw	r2,-4(fp)
 8050c48:	1887883a 	add	r3,r3,r2
 8050c4c:	e0bffd17 	ldw	r2,-12(fp)
 8050c50:	10c00215 	stw	r3,8(r2)
        /* 
         * If the desired alarm time causes a roll-over, set the rollover
         * flag. This will prevent the subsequent tick event from causing
         * an alarm too early.
         */
        if(alarm->time < _alt_nticks)
 8050c54:	e0bffd17 	ldw	r2,-12(fp)
 8050c58:	10c00217 	ldw	r3,8(r2)
 8050c5c:	d0a71517 	ldw	r2,-25516(gp)
 8050c60:	1880032e 	bgeu	r3,r2,8050c70 <alt_tick+0xd8>
        {
          alarm->rollover = 1;
 8050c64:	e0bffd17 	ldw	r2,-12(fp)
 8050c68:	00c00044 	movi	r3,1
 8050c6c:	10c00405 	stb	r3,16(r2)
        }
      }
    }
    alarm = next;
 8050c70:	e0bffe17 	ldw	r2,-8(fp)
 8050c74:	e0bffd15 	stw	r2,-12(fp)

  _alt_nticks++;

  /* process the registered callbacks */

  while (alarm != (alt_alarm*) &alt_alarm_list)
 8050c78:	e0fffd17 	ldw	r3,-12(fp)
 8050c7c:	d0a00f04 	addi	r2,gp,-32708
 8050c80:	18bfcf1e 	bne	r3,r2,8050bc0 <__alt_data_end+0xfffe8b20>

  /* 
   * Update the operating system specific timer facilities.
   */

  ALT_OS_TIME_TICK();
 8050c84:	0001883a 	nop
}
 8050c88:	0001883a 	nop
 8050c8c:	e037883a 	mov	sp,fp
 8050c90:	dfc00117 	ldw	ra,4(sp)
 8050c94:	df000017 	ldw	fp,0(sp)
 8050c98:	dec00204 	addi	sp,sp,8
 8050c9c:	f800283a 	ret

08050ca0 <usleep>:
#if defined (__GNUC__) && __GNUC__ >= 4
int ALT_USLEEP (useconds_t us)
#else
unsigned int ALT_USLEEP (unsigned int us)
#endif
{
 8050ca0:	defffd04 	addi	sp,sp,-12
 8050ca4:	dfc00215 	stw	ra,8(sp)
 8050ca8:	df000115 	stw	fp,4(sp)
 8050cac:	df000104 	addi	fp,sp,4
 8050cb0:	e13fff15 	stw	r4,-4(fp)
  return alt_busy_sleep(us);
 8050cb4:	e13fff17 	ldw	r4,-4(fp)
 8050cb8:	80534a40 	call	80534a4 <alt_busy_sleep>
}
 8050cbc:	e037883a 	mov	sp,fp
 8050cc0:	dfc00117 	ldw	ra,4(sp)
 8050cc4:	df000017 	ldw	fp,0(sp)
 8050cc8:	dec00204 	addi	sp,sp,8
 8050ccc:	f800283a 	ret

08050cd0 <alt_get_errno>:
#undef errno

extern int errno;

static ALT_INLINE int* alt_get_errno(void)
{
 8050cd0:	defffe04 	addi	sp,sp,-8
 8050cd4:	dfc00115 	stw	ra,4(sp)
 8050cd8:	df000015 	stw	fp,0(sp)
 8050cdc:	d839883a 	mov	fp,sp
  return ((alt_errno) ? alt_errno() : &errno);
 8050ce0:	d0a00c17 	ldw	r2,-32720(gp)
 8050ce4:	10000326 	beq	r2,zero,8050cf4 <alt_get_errno+0x24>
 8050ce8:	d0a00c17 	ldw	r2,-32720(gp)
 8050cec:	103ee83a 	callr	r2
 8050cf0:	00000106 	br	8050cf8 <alt_get_errno+0x28>
 8050cf4:	d0a70f04 	addi	r2,gp,-25540
}
 8050cf8:	e037883a 	mov	sp,fp
 8050cfc:	dfc00117 	ldw	ra,4(sp)
 8050d00:	df000017 	ldw	fp,0(sp)
 8050d04:	dec00204 	addi	sp,sp,8
 8050d08:	f800283a 	ret

08050d0c <write>:
}

#else /* !ALT_USE_DIRECT_DRIVERS */

int ALT_WRITE (int file, const void *ptr, size_t len)
{
 8050d0c:	defff904 	addi	sp,sp,-28
 8050d10:	dfc00615 	stw	ra,24(sp)
 8050d14:	df000515 	stw	fp,20(sp)
 8050d18:	df000504 	addi	fp,sp,20
 8050d1c:	e13ffd15 	stw	r4,-12(fp)
 8050d20:	e17ffe15 	stw	r5,-8(fp)
 8050d24:	e1bfff15 	stw	r6,-4(fp)
   * A common error case is that when the file descriptor was created, the call
   * to open() failed resulting in a negative file descriptor. This is trapped
   * below so that we don't try and process an invalid file descriptor.
   */

  fd = (file < 0) ? NULL : &alt_fd_list[file];
 8050d28:	e0bffd17 	ldw	r2,-12(fp)
 8050d2c:	10000816 	blt	r2,zero,8050d50 <write+0x44>
 8050d30:	01400304 	movi	r5,12
 8050d34:	e13ffd17 	ldw	r4,-12(fp)
 8050d38:	8042dac0 	call	8042dac <__mulsi3>
 8050d3c:	1007883a 	mov	r3,r2
 8050d40:	00820174 	movhi	r2,2053
 8050d44:	10943c04 	addi	r2,r2,20720
 8050d48:	1885883a 	add	r2,r3,r2
 8050d4c:	00000106 	br	8050d54 <write+0x48>
 8050d50:	0005883a 	mov	r2,zero
 8050d54:	e0bffb15 	stw	r2,-20(fp)
  
  if (fd)
 8050d58:	e0bffb17 	ldw	r2,-20(fp)
 8050d5c:	10002126 	beq	r2,zero,8050de4 <write+0xd8>
     * If the file has not been opened with write access, or if the driver does
     * not provide an implementation of write(), generate an error. Otherwise
     * call the drivers write() function to process the request.
     */

    if (((fd->fd_flags & O_ACCMODE) != O_RDONLY) && fd->dev->write)
 8050d60:	e0bffb17 	ldw	r2,-20(fp)
 8050d64:	10800217 	ldw	r2,8(r2)
 8050d68:	108000cc 	andi	r2,r2,3
 8050d6c:	10001826 	beq	r2,zero,8050dd0 <write+0xc4>
 8050d70:	e0bffb17 	ldw	r2,-20(fp)
 8050d74:	10800017 	ldw	r2,0(r2)
 8050d78:	10800617 	ldw	r2,24(r2)
 8050d7c:	10001426 	beq	r2,zero,8050dd0 <write+0xc4>
    {
      
      /* ALT_LOG - see altera_hal/HAL/inc/sys/alt_log_printf.h */
      ALT_LOG_WRITE_FUNCTION(ptr,len);

      if ((rval = fd->dev->write(fd, ptr, len)) < 0)
 8050d80:	e0bffb17 	ldw	r2,-20(fp)
 8050d84:	10800017 	ldw	r2,0(r2)
 8050d88:	10800617 	ldw	r2,24(r2)
 8050d8c:	e0ffff17 	ldw	r3,-4(fp)
 8050d90:	180d883a 	mov	r6,r3
 8050d94:	e17ffe17 	ldw	r5,-8(fp)
 8050d98:	e13ffb17 	ldw	r4,-20(fp)
 8050d9c:	103ee83a 	callr	r2
 8050da0:	e0bffc15 	stw	r2,-16(fp)
 8050da4:	e0bffc17 	ldw	r2,-16(fp)
 8050da8:	1000070e 	bge	r2,zero,8050dc8 <write+0xbc>
      {
        ALT_ERRNO = -rval;
 8050dac:	8050cd00 	call	8050cd0 <alt_get_errno>
 8050db0:	1007883a 	mov	r3,r2
 8050db4:	e0bffc17 	ldw	r2,-16(fp)
 8050db8:	0085c83a 	sub	r2,zero,r2
 8050dbc:	18800015 	stw	r2,0(r3)
        return -1;
 8050dc0:	00bfffc4 	movi	r2,-1
 8050dc4:	00000c06 	br	8050df8 <write+0xec>
      }
      return rval;
 8050dc8:	e0bffc17 	ldw	r2,-16(fp)
 8050dcc:	00000a06 	br	8050df8 <write+0xec>
    }
    else
    {
      ALT_ERRNO = EACCES;
 8050dd0:	8050cd00 	call	8050cd0 <alt_get_errno>
 8050dd4:	1007883a 	mov	r3,r2
 8050dd8:	00800344 	movi	r2,13
 8050ddc:	18800015 	stw	r2,0(r3)
 8050de0:	00000406 	br	8050df4 <write+0xe8>
    }
  }
  else  
  {
    ALT_ERRNO = EBADFD;
 8050de4:	8050cd00 	call	8050cd0 <alt_get_errno>
 8050de8:	1007883a 	mov	r3,r2
 8050dec:	00801444 	movi	r2,81
 8050df0:	18800015 	stw	r2,0(r3)
  }
  return -1;
 8050df4:	00bfffc4 	movi	r2,-1
}
 8050df8:	e037883a 	mov	sp,fp
 8050dfc:	dfc00117 	ldw	ra,4(sp)
 8050e00:	df000017 	ldw	fp,0(sp)
 8050e04:	dec00204 	addi	sp,sp,8
 8050e08:	f800283a 	ret

08050e0c <alt_dev_reg>:
 */

extern int alt_fs_reg  (alt_dev* dev); 

static ALT_INLINE int alt_dev_reg (alt_dev* dev)
{
 8050e0c:	defffd04 	addi	sp,sp,-12
 8050e10:	dfc00215 	stw	ra,8(sp)
 8050e14:	df000115 	stw	fp,4(sp)
 8050e18:	df000104 	addi	fp,sp,4
 8050e1c:	e13fff15 	stw	r4,-4(fp)
  extern alt_llist alt_dev_list;

  return alt_dev_llist_insert ((alt_dev_llist*) dev, &alt_dev_list);
 8050e20:	d1600904 	addi	r5,gp,-32732
 8050e24:	e13fff17 	ldw	r4,-4(fp)
 8050e28:	80536580 	call	8053658 <alt_dev_llist_insert>
}
 8050e2c:	e037883a 	mov	sp,fp
 8050e30:	dfc00117 	ldw	ra,4(sp)
 8050e34:	df000017 	ldw	fp,0(sp)
 8050e38:	dec00204 	addi	sp,sp,8
 8050e3c:	f800283a 	ret

08050e40 <alt_irq_init>:
 * The "base" parameter is ignored and only
 * present for backwards-compatibility.
 */

void alt_irq_init ( const void* base )
{
 8050e40:	defffd04 	addi	sp,sp,-12
 8050e44:	dfc00215 	stw	ra,8(sp)
 8050e48:	df000115 	stw	fp,4(sp)
 8050e4c:	df000104 	addi	fp,sp,4
 8050e50:	e13fff15 	stw	r4,-4(fp)
    ALTERA_NIOS2_GEN2_IRQ_INIT ( TOP_LEVEL, top_level);
 8050e54:	8053cec0 	call	8053cec <altera_nios2_gen2_irq_init>
 * alt_irq_cpu_enable_interrupts() enables the CPU to start taking interrupts.
 */
static ALT_INLINE void ALT_ALWAYS_INLINE 
       alt_irq_cpu_enable_interrupts (void)
{
    NIOS2_WRITE_STATUS(NIOS2_STATUS_PIE_MSK
 8050e58:	00800044 	movi	r2,1
 8050e5c:	1001703a 	wrctl	status,r2
    alt_irq_cpu_enable_interrupts();
}
 8050e60:	0001883a 	nop
 8050e64:	e037883a 	mov	sp,fp
 8050e68:	dfc00117 	ldw	ra,4(sp)
 8050e6c:	df000017 	ldw	fp,0(sp)
 8050e70:	dec00204 	addi	sp,sp,8
 8050e74:	f800283a 	ret

08050e78 <alt_sys_init>:
 * Initialize the non-interrupt controller devices.
 * Called after alt_irq_init().
 */

void alt_sys_init( void )
{
 8050e78:	defffd04 	addi	sp,sp,-12
 8050e7c:	dfc00215 	stw	ra,8(sp)
 8050e80:	df000115 	stw	fp,4(sp)
 8050e84:	df000104 	addi	fp,sp,4
    ALTERA_AVALON_TIMER_INIT ( TIMER_0, timer_0);
 8050e88:	01c0fa04 	movi	r7,1000
 8050e8c:	01800044 	movi	r6,1
 8050e90:	000b883a 	mov	r5,zero
 8050e94:	01020234 	movhi	r4,2056
 8050e98:	210c8804 	addi	r4,r4,12832
 8050e9c:	8051c640 	call	8051c64 <alt_avalon_timer_sc_init>
    ALTERA_AVALON_JTAG_UART_INIT ( JTAG_UART_0, jtag_uart_0);
 8050ea0:	000d883a 	mov	r6,zero
 8050ea4:	000b883a 	mov	r5,zero
 8050ea8:	01020174 	movhi	r4,2053
 8050eac:	2114a604 	addi	r4,r4,21144
 8050eb0:	80512e80 	call	80512e8 <altera_avalon_jtag_uart_init>
 8050eb4:	01020174 	movhi	r4,2053
 8050eb8:	21149c04 	addi	r4,r4,21104
 8050ebc:	8050e0c0 	call	8050e0c <alt_dev_reg>
    ALTERA_AVALON_SYSID_QSYS_INIT ( SYSID_QSYS_0, sysid_qsys_0);
 8050ec0:	0001883a 	nop
    ALTERA_MODULAR_ADC_INIT ( MODULAR_ADC_0, modular_adc_0);
 8050ec4:	01bfffc4 	movi	r6,-1
 8050ec8:	017fffc4 	movi	r5,-1
 8050ecc:	01020174 	movhi	r4,2053
 8050ed0:	2118b404 	addi	r4,r4,25296
 8050ed4:	8051e340 	call	8051e34 <altera_modular_adc_init>
    ALTERA_UP_AVALON_VIDEO_CHARACTER_BUFFER_WITH_DMA_INIT ( VIDEO_CHARACTER_BUFFER_WITH_DMA_0, video_character_buffer_with_dma_0);
 8050ed8:	00820174 	movhi	r2,2053
 8050edc:	1098c304 	addi	r2,r2,25356
 8050ee0:	10800a17 	ldw	r2,40(r2)
 8050ee4:	10800104 	addi	r2,r2,4
 8050ee8:	10800017 	ldw	r2,0(r2)
 8050eec:	10ffffcc 	andi	r3,r2,65535
 8050ef0:	00820174 	movhi	r2,2053
 8050ef4:	1098c304 	addi	r2,r2,25356
 8050ef8:	10c00c15 	stw	r3,48(r2)
 8050efc:	00820174 	movhi	r2,2053
 8050f00:	1098c304 	addi	r2,r2,25356
 8050f04:	10800a17 	ldw	r2,40(r2)
 8050f08:	10800104 	addi	r2,r2,4
 8050f0c:	10800017 	ldw	r2,0(r2)
 8050f10:	1006d43a 	srli	r3,r2,16
 8050f14:	00820174 	movhi	r2,2053
 8050f18:	1098c304 	addi	r2,r2,25356
 8050f1c:	10c00d15 	stw	r3,52(r2)
 8050f20:	00820174 	movhi	r2,2053
 8050f24:	1098c304 	addi	r2,r2,25356
 8050f28:	10800c17 	ldw	r2,48(r2)
 8050f2c:	10801068 	cmpgeui	r2,r2,65
 8050f30:	1000081e 	bne	r2,zero,8050f54 <alt_sys_init+0xdc>
 8050f34:	00820174 	movhi	r2,2053
 8050f38:	1098c304 	addi	r2,r2,25356
 8050f3c:	00c00fc4 	movi	r3,63
 8050f40:	10c00f15 	stw	r3,60(r2)
 8050f44:	00820174 	movhi	r2,2053
 8050f48:	1098c304 	addi	r2,r2,25356
 8050f4c:	00c00184 	movi	r3,6
 8050f50:	10c01015 	stw	r3,64(r2)
 8050f54:	00820174 	movhi	r2,2053
 8050f58:	1098c304 	addi	r2,r2,25356
 8050f5c:	10800d17 	ldw	r2,52(r2)
 8050f60:	10800868 	cmpgeui	r2,r2,33
 8050f64:	1000041e 	bne	r2,zero,8050f78 <alt_sys_init+0x100>
 8050f68:	00820174 	movhi	r2,2053
 8050f6c:	1098c304 	addi	r2,r2,25356
 8050f70:	00c007c4 	movi	r3,31
 8050f74:	10c01115 	stw	r3,68(r2)
 8050f78:	01020174 	movhi	r4,2053
 8050f7c:	2118c304 	addi	r4,r4,25356
 8050f80:	805224c0 	call	805224c <alt_up_char_buffer_init>
 8050f84:	01020174 	movhi	r4,2053
 8050f88:	2118c304 	addi	r4,r4,25356
 8050f8c:	8050e0c0 	call	8050e0c <alt_dev_reg>
    ALTERA_UP_AVALON_VIDEO_PIXEL_BUFFER_DMA_INIT ( VIDEO_PIXEL_BUFFER_DMA_0, video_pixel_buffer_dma_0);
 8050f90:	00820174 	movhi	r2,2053
 8050f94:	1098d504 	addi	r2,r2,25428
 8050f98:	10800a17 	ldw	r2,40(r2)
 8050f9c:	10800017 	ldw	r2,0(r2)
 8050fa0:	1007883a 	mov	r3,r2
 8050fa4:	00820174 	movhi	r2,2053
 8050fa8:	1098d504 	addi	r2,r2,25428
 8050fac:	10c00b15 	stw	r3,44(r2)
 8050fb0:	00820174 	movhi	r2,2053
 8050fb4:	1098d504 	addi	r2,r2,25428
 8050fb8:	10800a17 	ldw	r2,40(r2)
 8050fbc:	10800104 	addi	r2,r2,4
 8050fc0:	10800017 	ldw	r2,0(r2)
 8050fc4:	1007883a 	mov	r3,r2
 8050fc8:	00820174 	movhi	r2,2053
 8050fcc:	1098d504 	addi	r2,r2,25428
 8050fd0:	10c00c15 	stw	r3,48(r2)
 8050fd4:	00820174 	movhi	r2,2053
 8050fd8:	1098d504 	addi	r2,r2,25428
 8050fdc:	10800a17 	ldw	r2,40(r2)
 8050fe0:	10800204 	addi	r2,r2,8
 8050fe4:	10800017 	ldw	r2,0(r2)
 8050fe8:	10ffffcc 	andi	r3,r2,65535
 8050fec:	00820174 	movhi	r2,2053
 8050ff0:	1098d504 	addi	r2,r2,25428
 8050ff4:	10c00f15 	stw	r3,60(r2)
 8050ff8:	00820174 	movhi	r2,2053
 8050ffc:	1098d504 	addi	r2,r2,25428
 8051000:	10800a17 	ldw	r2,40(r2)
 8051004:	10800204 	addi	r2,r2,8
 8051008:	10800017 	ldw	r2,0(r2)
 805100c:	1006d43a 	srli	r3,r2,16
 8051010:	00820174 	movhi	r2,2053
 8051014:	1098d504 	addi	r2,r2,25428
 8051018:	10c01015 	stw	r3,64(r2)
 805101c:	00820174 	movhi	r2,2053
 8051020:	1098d504 	addi	r2,r2,25428
 8051024:	10800a17 	ldw	r2,40(r2)
 8051028:	10800304 	addi	r2,r2,12
 805102c:	10800017 	ldw	r2,0(r2)
 8051030:	1005d07a 	srai	r2,r2,1
 8051034:	10c0004c 	andi	r3,r2,1
 8051038:	00820174 	movhi	r2,2053
 805103c:	1098d504 	addi	r2,r2,25428
 8051040:	10c00d15 	stw	r3,52(r2)
 8051044:	00820174 	movhi	r2,2053
 8051048:	1098d504 	addi	r2,r2,25428
 805104c:	10800a17 	ldw	r2,40(r2)
 8051050:	10800304 	addi	r2,r2,12
 8051054:	10800017 	ldw	r2,0(r2)
 8051058:	1005d13a 	srai	r2,r2,4
 805105c:	10c003cc 	andi	r3,r2,15
 8051060:	00820174 	movhi	r2,2053
 8051064:	1098d504 	addi	r2,r2,25428
 8051068:	10c00e15 	stw	r3,56(r2)
 805106c:	00820174 	movhi	r2,2053
 8051070:	1098d504 	addi	r2,r2,25428
 8051074:	10800a17 	ldw	r2,40(r2)
 8051078:	10800304 	addi	r2,r2,12
 805107c:	10800017 	ldw	r2,0(r2)
 8051080:	1005d43a 	srai	r2,r2,16
 8051084:	e0bfff05 	stb	r2,-4(fp)
 8051088:	00820174 	movhi	r2,2053
 805108c:	1098d504 	addi	r2,r2,25428
 8051090:	10800a17 	ldw	r2,40(r2)
 8051094:	10800304 	addi	r2,r2,12
 8051098:	10800017 	ldw	r2,0(r2)
 805109c:	1004d63a 	srli	r2,r2,24
 80510a0:	e0bfff45 	stb	r2,-3(fp)
 80510a4:	00820174 	movhi	r2,2053
 80510a8:	1098d504 	addi	r2,r2,25428
 80510ac:	10800e17 	ldw	r2,56(r2)
 80510b0:	10800058 	cmpnei	r2,r2,1
 80510b4:	1000041e 	bne	r2,zero,80510c8 <alt_sys_init+0x250>
 80510b8:	00820174 	movhi	r2,2053
 80510bc:	1098d504 	addi	r2,r2,25428
 80510c0:	10001115 	stw	zero,68(r2)
 80510c4:	00000e06 	br	8051100 <alt_sys_init+0x288>
 80510c8:	00820174 	movhi	r2,2053
 80510cc:	1098d504 	addi	r2,r2,25428
 80510d0:	10800e17 	ldw	r2,56(r2)
 80510d4:	10800098 	cmpnei	r2,r2,2
 80510d8:	1000051e 	bne	r2,zero,80510f0 <alt_sys_init+0x278>
 80510dc:	00820174 	movhi	r2,2053
 80510e0:	1098d504 	addi	r2,r2,25428
 80510e4:	00c00044 	movi	r3,1
 80510e8:	10c01115 	stw	r3,68(r2)
 80510ec:	00000406 	br	8051100 <alt_sys_init+0x288>
 80510f0:	00820174 	movhi	r2,2053
 80510f4:	1098d504 	addi	r2,r2,25428
 80510f8:	00c00084 	movi	r3,2
 80510fc:	10c01115 	stw	r3,68(r2)
 8051100:	e0bfff03 	ldbu	r2,-4(fp)
 8051104:	00c00804 	movi	r3,32
 8051108:	1885c83a 	sub	r2,r3,r2
 805110c:	00ffffc4 	movi	r3,-1
 8051110:	1886d83a 	srl	r3,r3,r2
 8051114:	00820174 	movhi	r2,2053
 8051118:	1098d504 	addi	r2,r2,25428
 805111c:	10c01215 	stw	r3,72(r2)
 8051120:	e0ffff03 	ldbu	r3,-4(fp)
 8051124:	00820174 	movhi	r2,2053
 8051128:	1098d504 	addi	r2,r2,25428
 805112c:	10801117 	ldw	r2,68(r2)
 8051130:	1887883a 	add	r3,r3,r2
 8051134:	00820174 	movhi	r2,2053
 8051138:	1098d504 	addi	r2,r2,25428
 805113c:	10c01315 	stw	r3,76(r2)
 8051140:	e0bfff43 	ldbu	r2,-3(fp)
 8051144:	00c00804 	movi	r3,32
 8051148:	1885c83a 	sub	r2,r3,r2
 805114c:	00ffffc4 	movi	r3,-1
 8051150:	1886d83a 	srl	r3,r3,r2
 8051154:	00820174 	movhi	r2,2053
 8051158:	1098d504 	addi	r2,r2,25428
 805115c:	10c01415 	stw	r3,80(r2)
 8051160:	01020174 	movhi	r4,2053
 8051164:	2118d504 	addi	r4,r4,25428
 8051168:	8050e0c0 	call	8050e0c <alt_dev_reg>
}
 805116c:	0001883a 	nop
 8051170:	e037883a 	mov	sp,fp
 8051174:	dfc00117 	ldw	ra,4(sp)
 8051178:	df000017 	ldw	fp,0(sp)
 805117c:	dec00204 	addi	sp,sp,8
 8051180:	f800283a 	ret

08051184 <altera_avalon_jtag_uart_read_fd>:
 *
 */

int 
altera_avalon_jtag_uart_read_fd(alt_fd* fd, char* buffer, int space)
{
 8051184:	defffa04 	addi	sp,sp,-24
 8051188:	dfc00515 	stw	ra,20(sp)
 805118c:	df000415 	stw	fp,16(sp)
 8051190:	df000404 	addi	fp,sp,16
 8051194:	e13ffd15 	stw	r4,-12(fp)
 8051198:	e17ffe15 	stw	r5,-8(fp)
 805119c:	e1bfff15 	stw	r6,-4(fp)
    altera_avalon_jtag_uart_dev* dev = (altera_avalon_jtag_uart_dev*) fd->dev; 
 80511a0:	e0bffd17 	ldw	r2,-12(fp)
 80511a4:	10800017 	ldw	r2,0(r2)
 80511a8:	e0bffc15 	stw	r2,-16(fp)

    return altera_avalon_jtag_uart_read(&dev->state, buffer, space,
 80511ac:	e0bffc17 	ldw	r2,-16(fp)
 80511b0:	10c00a04 	addi	r3,r2,40
 80511b4:	e0bffd17 	ldw	r2,-12(fp)
 80511b8:	10800217 	ldw	r2,8(r2)
 80511bc:	100f883a 	mov	r7,r2
 80511c0:	e1bfff17 	ldw	r6,-4(fp)
 80511c4:	e17ffe17 	ldw	r5,-8(fp)
 80511c8:	1809883a 	mov	r4,r3
 80511cc:	80517ac0 	call	80517ac <altera_avalon_jtag_uart_read>
      fd->fd_flags);
}
 80511d0:	e037883a 	mov	sp,fp
 80511d4:	dfc00117 	ldw	ra,4(sp)
 80511d8:	df000017 	ldw	fp,0(sp)
 80511dc:	dec00204 	addi	sp,sp,8
 80511e0:	f800283a 	ret

080511e4 <altera_avalon_jtag_uart_write_fd>:

int 
altera_avalon_jtag_uart_write_fd(alt_fd* fd, const char* buffer, int space)
{
 80511e4:	defffa04 	addi	sp,sp,-24
 80511e8:	dfc00515 	stw	ra,20(sp)
 80511ec:	df000415 	stw	fp,16(sp)
 80511f0:	df000404 	addi	fp,sp,16
 80511f4:	e13ffd15 	stw	r4,-12(fp)
 80511f8:	e17ffe15 	stw	r5,-8(fp)
 80511fc:	e1bfff15 	stw	r6,-4(fp)
    altera_avalon_jtag_uart_dev* dev = (altera_avalon_jtag_uart_dev*) fd->dev; 
 8051200:	e0bffd17 	ldw	r2,-12(fp)
 8051204:	10800017 	ldw	r2,0(r2)
 8051208:	e0bffc15 	stw	r2,-16(fp)

    return altera_avalon_jtag_uart_write(&dev->state, buffer, space,
 805120c:	e0bffc17 	ldw	r2,-16(fp)
 8051210:	10c00a04 	addi	r3,r2,40
 8051214:	e0bffd17 	ldw	r2,-12(fp)
 8051218:	10800217 	ldw	r2,8(r2)
 805121c:	100f883a 	mov	r7,r2
 8051220:	e1bfff17 	ldw	r6,-4(fp)
 8051224:	e17ffe17 	ldw	r5,-8(fp)
 8051228:	1809883a 	mov	r4,r3
 805122c:	80519c80 	call	80519c8 <altera_avalon_jtag_uart_write>
      fd->fd_flags);
}
 8051230:	e037883a 	mov	sp,fp
 8051234:	dfc00117 	ldw	ra,4(sp)
 8051238:	df000017 	ldw	fp,0(sp)
 805123c:	dec00204 	addi	sp,sp,8
 8051240:	f800283a 	ret

08051244 <altera_avalon_jtag_uart_close_fd>:

#ifndef ALTERA_AVALON_JTAG_UART_SMALL

int 
altera_avalon_jtag_uart_close_fd(alt_fd* fd)
{
 8051244:	defffc04 	addi	sp,sp,-16
 8051248:	dfc00315 	stw	ra,12(sp)
 805124c:	df000215 	stw	fp,8(sp)
 8051250:	df000204 	addi	fp,sp,8
 8051254:	e13fff15 	stw	r4,-4(fp)
    altera_avalon_jtag_uart_dev* dev = (altera_avalon_jtag_uart_dev*) fd->dev; 
 8051258:	e0bfff17 	ldw	r2,-4(fp)
 805125c:	10800017 	ldw	r2,0(r2)
 8051260:	e0bffe15 	stw	r2,-8(fp)

    return altera_avalon_jtag_uart_close(&dev->state, fd->fd_flags);
 8051264:	e0bffe17 	ldw	r2,-8(fp)
 8051268:	10c00a04 	addi	r3,r2,40
 805126c:	e0bfff17 	ldw	r2,-4(fp)
 8051270:	10800217 	ldw	r2,8(r2)
 8051274:	100b883a 	mov	r5,r2
 8051278:	1809883a 	mov	r4,r3
 805127c:	80516540 	call	8051654 <altera_avalon_jtag_uart_close>
}
 8051280:	e037883a 	mov	sp,fp
 8051284:	dfc00117 	ldw	ra,4(sp)
 8051288:	df000017 	ldw	fp,0(sp)
 805128c:	dec00204 	addi	sp,sp,8
 8051290:	f800283a 	ret

08051294 <altera_avalon_jtag_uart_ioctl_fd>:

int 
altera_avalon_jtag_uart_ioctl_fd(alt_fd* fd, int req, void* arg)
{
 8051294:	defffa04 	addi	sp,sp,-24
 8051298:	dfc00515 	stw	ra,20(sp)
 805129c:	df000415 	stw	fp,16(sp)
 80512a0:	df000404 	addi	fp,sp,16
 80512a4:	e13ffd15 	stw	r4,-12(fp)
 80512a8:	e17ffe15 	stw	r5,-8(fp)
 80512ac:	e1bfff15 	stw	r6,-4(fp)
    altera_avalon_jtag_uart_dev* dev = (altera_avalon_jtag_uart_dev*) fd->dev;
 80512b0:	e0bffd17 	ldw	r2,-12(fp)
 80512b4:	10800017 	ldw	r2,0(r2)
 80512b8:	e0bffc15 	stw	r2,-16(fp)

    return altera_avalon_jtag_uart_ioctl(&dev->state, req, arg);
 80512bc:	e0bffc17 	ldw	r2,-16(fp)
 80512c0:	10800a04 	addi	r2,r2,40
 80512c4:	e1bfff17 	ldw	r6,-4(fp)
 80512c8:	e17ffe17 	ldw	r5,-8(fp)
 80512cc:	1009883a 	mov	r4,r2
 80512d0:	80516bc0 	call	80516bc <altera_avalon_jtag_uart_ioctl>
}
 80512d4:	e037883a 	mov	sp,fp
 80512d8:	dfc00117 	ldw	ra,4(sp)
 80512dc:	df000017 	ldw	fp,0(sp)
 80512e0:	dec00204 	addi	sp,sp,8
 80512e4:	f800283a 	ret

080512e8 <altera_avalon_jtag_uart_init>:
 * Return 1 on sucessful IRQ register and 0 on failure.
 */

void altera_avalon_jtag_uart_init(altera_avalon_jtag_uart_state* sp, 
                                  int irq_controller_id, int irq)
{
 80512e8:	defffa04 	addi	sp,sp,-24
 80512ec:	dfc00515 	stw	ra,20(sp)
 80512f0:	df000415 	stw	fp,16(sp)
 80512f4:	df000404 	addi	fp,sp,16
 80512f8:	e13ffd15 	stw	r4,-12(fp)
 80512fc:	e17ffe15 	stw	r5,-8(fp)
 8051300:	e1bfff15 	stw	r6,-4(fp)
  ALT_FLAG_CREATE(&sp->events, 0);
  ALT_SEM_CREATE(&sp->read_lock, 1);
  ALT_SEM_CREATE(&sp->write_lock, 1);

  /* enable read interrupts at the device */
  sp->irq_enable = ALTERA_AVALON_JTAG_UART_CONTROL_RE_MSK;
 8051304:	e0bffd17 	ldw	r2,-12(fp)
 8051308:	00c00044 	movi	r3,1
 805130c:	10c00815 	stw	r3,32(r2)

  IOWR_ALTERA_AVALON_JTAG_UART_CONTROL(sp->base, sp->irq_enable); 
 8051310:	e0bffd17 	ldw	r2,-12(fp)
 8051314:	10800017 	ldw	r2,0(r2)
 8051318:	10800104 	addi	r2,r2,4
 805131c:	1007883a 	mov	r3,r2
 8051320:	e0bffd17 	ldw	r2,-12(fp)
 8051324:	10800817 	ldw	r2,32(r2)
 8051328:	18800035 	stwio	r2,0(r3)
  
  /* register the interrupt handler */
#ifdef ALT_ENHANCED_INTERRUPT_API_PRESENT
  alt_ic_isr_register(irq_controller_id, irq, altera_avalon_jtag_uart_irq, 
 805132c:	e0bffe17 	ldw	r2,-8(fp)
 8051330:	e0ffff17 	ldw	r3,-4(fp)
 8051334:	d8000015 	stw	zero,0(sp)
 8051338:	e1fffd17 	ldw	r7,-12(fp)
 805133c:	01820174 	movhi	r6,2053
 8051340:	3184ea04 	addi	r6,r6,5032
 8051344:	180b883a 	mov	r5,r3
 8051348:	1009883a 	mov	r4,r2
 805134c:	80502380 	call	8050238 <alt_ic_isr_register>
#else
  alt_irq_register(irq, sp, altera_avalon_jtag_uart_irq);
#endif  

  /* Register an alarm to go off every second to check for presence of host */
  sp->host_inactive = 0;
 8051350:	e0bffd17 	ldw	r2,-12(fp)
 8051354:	10000915 	stw	zero,36(r2)

  if (alt_alarm_start(&sp->alarm, alt_ticks_per_second(), 
 8051358:	e0bffd17 	ldw	r2,-12(fp)
 805135c:	10800204 	addi	r2,r2,8
 * Obtain the system clock rate in ticks/s. 
 */

static ALT_INLINE alt_u32 ALT_ALWAYS_INLINE alt_ticks_per_second (void)
{
  return _alt_tick_rate;
 8051360:	d0e71417 	ldw	r3,-25520(gp)
 8051364:	e1fffd17 	ldw	r7,-12(fp)
 8051368:	01820174 	movhi	r6,2053
 805136c:	31856d04 	addi	r6,r6,5556
 8051370:	180b883a 	mov	r5,r3
 8051374:	1009883a 	mov	r4,r2
 8051378:	804fed80 	call	804fed8 <alt_alarm_start>
 805137c:	1000040e 	bge	r2,zero,8051390 <altera_avalon_jtag_uart_init+0xa8>
    &altera_avalon_jtag_uart_timeout, sp) < 0)
  {
    /* If we can't set the alarm then record "don't know if host present" 
     * and behave as though the host is present.
     */
    sp->timeout = INT_MAX;
 8051380:	e0fffd17 	ldw	r3,-12(fp)
 8051384:	00a00034 	movhi	r2,32768
 8051388:	10bfffc4 	addi	r2,r2,-1
 805138c:	18800115 	stw	r2,4(r3)
  }

  /* ALT_LOG - see altera_hal/HAL/inc/sys/alt_log_printf.h */ 
  ALT_LOG_JTAG_UART_ALARM_REGISTER(sp, sp->base);
}
 8051390:	0001883a 	nop
 8051394:	e037883a 	mov	sp,fp
 8051398:	dfc00117 	ldw	ra,4(sp)
 805139c:	df000017 	ldw	fp,0(sp)
 80513a0:	dec00204 	addi	sp,sp,8
 80513a4:	f800283a 	ret

080513a8 <altera_avalon_jtag_uart_irq>:
#ifdef ALT_ENHANCED_INTERRUPT_API_PRESENT
static void altera_avalon_jtag_uart_irq(void* context)
#else
static void altera_avalon_jtag_uart_irq(void* context, alt_u32 id)
#endif
{
 80513a8:	defff804 	addi	sp,sp,-32
 80513ac:	df000715 	stw	fp,28(sp)
 80513b0:	df000704 	addi	fp,sp,28
 80513b4:	e13fff15 	stw	r4,-4(fp)
  altera_avalon_jtag_uart_state* sp = (altera_avalon_jtag_uart_state*) context;
 80513b8:	e0bfff17 	ldw	r2,-4(fp)
 80513bc:	e0bffb15 	stw	r2,-20(fp)
  unsigned int base = sp->base;
 80513c0:	e0bffb17 	ldw	r2,-20(fp)
 80513c4:	10800017 	ldw	r2,0(r2)
 80513c8:	e0bffc15 	stw	r2,-16(fp)
  /* ALT_LOG - see altera_hal/HAL/inc/sys/alt_log_printf.h */ 
  ALT_LOG_JTAG_UART_ISR_FUNCTION(base, sp);

  for ( ; ; )
  {
    unsigned int control = IORD_ALTERA_AVALON_JTAG_UART_CONTROL(base);
 80513cc:	e0bffc17 	ldw	r2,-16(fp)
 80513d0:	10800104 	addi	r2,r2,4
 80513d4:	10800037 	ldwio	r2,0(r2)
 80513d8:	e0bffd15 	stw	r2,-12(fp)

    /* Return once nothing more to do */
    if ((control & (ALTERA_AVALON_JTAG_UART_CONTROL_RI_MSK | ALTERA_AVALON_JTAG_UART_CONTROL_WI_MSK)) == 0)
 80513dc:	e0bffd17 	ldw	r2,-12(fp)
 80513e0:	1080c00c 	andi	r2,r2,768
 80513e4:	10006d26 	beq	r2,zero,805159c <altera_avalon_jtag_uart_irq+0x1f4>
      break;

    if (control & ALTERA_AVALON_JTAG_UART_CONTROL_RI_MSK)
 80513e8:	e0bffd17 	ldw	r2,-12(fp)
 80513ec:	1080400c 	andi	r2,r2,256
 80513f0:	10003526 	beq	r2,zero,80514c8 <altera_avalon_jtag_uart_irq+0x120>
    {
      /* process a read irq.  Start by assuming that there is data in the
       * receive FIFO (otherwise why would we have been interrupted?)
       */
      unsigned int data = 1 << ALTERA_AVALON_JTAG_UART_DATA_RAVAIL_OFST;
 80513f4:	00800074 	movhi	r2,1
 80513f8:	e0bff915 	stw	r2,-28(fp)
      for ( ; ; )
      {
        /* Check whether there is space in the buffer.  If not then we must not
         * read any characters from the buffer as they will be lost.
         */
        unsigned int next = (sp->rx_in + 1) % ALTERA_AVALON_JTAG_UART_BUF_LEN;
 80513fc:	e0bffb17 	ldw	r2,-20(fp)
 8051400:	10800a17 	ldw	r2,40(r2)
 8051404:	10800044 	addi	r2,r2,1
 8051408:	1081ffcc 	andi	r2,r2,2047
 805140c:	e0bffe15 	stw	r2,-8(fp)
        if (next == sp->rx_out)
 8051410:	e0bffb17 	ldw	r2,-20(fp)
 8051414:	10c00b17 	ldw	r3,44(r2)
 8051418:	e0bffe17 	ldw	r2,-8(fp)
 805141c:	18801526 	beq	r3,r2,8051474 <altera_avalon_jtag_uart_irq+0xcc>
          break;

        /* Try to remove a character from the FIFO and find out whether there
         * are any more characters remaining.
         */
        data = IORD_ALTERA_AVALON_JTAG_UART_DATA(base);
 8051420:	e0bffc17 	ldw	r2,-16(fp)
 8051424:	10800037 	ldwio	r2,0(r2)
 8051428:	e0bff915 	stw	r2,-28(fp)
        
        if ((data & ALTERA_AVALON_JTAG_UART_DATA_RVALID_MSK) == 0)
 805142c:	e0bff917 	ldw	r2,-28(fp)
 8051430:	10a0000c 	andi	r2,r2,32768
 8051434:	10001126 	beq	r2,zero,805147c <altera_avalon_jtag_uart_irq+0xd4>
          break;

        sp->rx_buf[sp->rx_in] = (data & ALTERA_AVALON_JTAG_UART_DATA_DATA_MSK) >> ALTERA_AVALON_JTAG_UART_DATA_DATA_OFST;
 8051438:	e0bffb17 	ldw	r2,-20(fp)
 805143c:	10800a17 	ldw	r2,40(r2)
 8051440:	e0fff917 	ldw	r3,-28(fp)
 8051444:	1809883a 	mov	r4,r3
 8051448:	e0fffb17 	ldw	r3,-20(fp)
 805144c:	1885883a 	add	r2,r3,r2
 8051450:	10800e04 	addi	r2,r2,56
 8051454:	11000005 	stb	r4,0(r2)
        sp->rx_in = (sp->rx_in + 1) % ALTERA_AVALON_JTAG_UART_BUF_LEN;
 8051458:	e0bffb17 	ldw	r2,-20(fp)
 805145c:	10800a17 	ldw	r2,40(r2)
 8051460:	10800044 	addi	r2,r2,1
 8051464:	10c1ffcc 	andi	r3,r2,2047
 8051468:	e0bffb17 	ldw	r2,-20(fp)
 805146c:	10c00a15 	stw	r3,40(r2)

        /* Post an event to notify jtag_uart_read that a character has been read */
        ALT_FLAG_POST (sp->events, ALT_JTAG_UART_READ_RDY, OS_FLAG_SET);
      }
 8051470:	003fe206 	br	80513fc <__alt_data_end+0xfffe935c>
        /* Check whether there is space in the buffer.  If not then we must not
         * read any characters from the buffer as they will be lost.
         */
        unsigned int next = (sp->rx_in + 1) % ALTERA_AVALON_JTAG_UART_BUF_LEN;
        if (next == sp->rx_out)
          break;
 8051474:	0001883a 	nop
 8051478:	00000106 	br	8051480 <altera_avalon_jtag_uart_irq+0xd8>
         * are any more characters remaining.
         */
        data = IORD_ALTERA_AVALON_JTAG_UART_DATA(base);
        
        if ((data & ALTERA_AVALON_JTAG_UART_DATA_RVALID_MSK) == 0)
          break;
 805147c:	0001883a 	nop

        /* Post an event to notify jtag_uart_read that a character has been read */
        ALT_FLAG_POST (sp->events, ALT_JTAG_UART_READ_RDY, OS_FLAG_SET);
      }

      if (data & ALTERA_AVALON_JTAG_UART_DATA_RAVAIL_MSK)
 8051480:	e0bff917 	ldw	r2,-28(fp)
 8051484:	10bfffec 	andhi	r2,r2,65535
 8051488:	10000f26 	beq	r2,zero,80514c8 <altera_avalon_jtag_uart_irq+0x120>
      {
        /* If there is still data available here then the buffer is full 
         * so turn off receive interrupts until some space becomes available.
         */
        sp->irq_enable &= ~ALTERA_AVALON_JTAG_UART_CONTROL_RE_MSK;
 805148c:	e0bffb17 	ldw	r2,-20(fp)
 8051490:	10c00817 	ldw	r3,32(r2)
 8051494:	00bfff84 	movi	r2,-2
 8051498:	1886703a 	and	r3,r3,r2
 805149c:	e0bffb17 	ldw	r2,-20(fp)
 80514a0:	10c00815 	stw	r3,32(r2)
        IOWR_ALTERA_AVALON_JTAG_UART_CONTROL(base, sp->irq_enable);
 80514a4:	e0bffc17 	ldw	r2,-16(fp)
 80514a8:	10800104 	addi	r2,r2,4
 80514ac:	1007883a 	mov	r3,r2
 80514b0:	e0bffb17 	ldw	r2,-20(fp)
 80514b4:	10800817 	ldw	r2,32(r2)
 80514b8:	18800035 	stwio	r2,0(r3)
        
        /* Dummy read to ensure IRQ is cleared prior to ISR completion */
        IORD_ALTERA_AVALON_JTAG_UART_CONTROL(base);
 80514bc:	e0bffc17 	ldw	r2,-16(fp)
 80514c0:	10800104 	addi	r2,r2,4
 80514c4:	10800037 	ldwio	r2,0(r2)
      }
    }

    if (control & ALTERA_AVALON_JTAG_UART_CONTROL_WI_MSK)
 80514c8:	e0bffd17 	ldw	r2,-12(fp)
 80514cc:	1080800c 	andi	r2,r2,512
 80514d0:	103fbe26 	beq	r2,zero,80513cc <__alt_data_end+0xfffe932c>
    {
      /* process a write irq */
      unsigned int space = (control & ALTERA_AVALON_JTAG_UART_CONTROL_WSPACE_MSK) >> ALTERA_AVALON_JTAG_UART_CONTROL_WSPACE_OFST;
 80514d4:	e0bffd17 	ldw	r2,-12(fp)
 80514d8:	1004d43a 	srli	r2,r2,16
 80514dc:	e0bffa15 	stw	r2,-24(fp)

      while (space > 0 && sp->tx_out != sp->tx_in)
 80514e0:	00001406 	br	8051534 <altera_avalon_jtag_uart_irq+0x18c>
      {
        IOWR_ALTERA_AVALON_JTAG_UART_DATA(base, sp->tx_buf[sp->tx_out]);
 80514e4:	e0bffc17 	ldw	r2,-16(fp)
 80514e8:	e0fffb17 	ldw	r3,-20(fp)
 80514ec:	18c00d17 	ldw	r3,52(r3)
 80514f0:	e13ffb17 	ldw	r4,-20(fp)
 80514f4:	20c7883a 	add	r3,r4,r3
 80514f8:	18c20e04 	addi	r3,r3,2104
 80514fc:	18c00003 	ldbu	r3,0(r3)
 8051500:	18c03fcc 	andi	r3,r3,255
 8051504:	18c0201c 	xori	r3,r3,128
 8051508:	18ffe004 	addi	r3,r3,-128
 805150c:	10c00035 	stwio	r3,0(r2)

        sp->tx_out = (sp->tx_out + 1) % ALTERA_AVALON_JTAG_UART_BUF_LEN;
 8051510:	e0bffb17 	ldw	r2,-20(fp)
 8051514:	10800d17 	ldw	r2,52(r2)
 8051518:	10800044 	addi	r2,r2,1
 805151c:	10c1ffcc 	andi	r3,r2,2047
 8051520:	e0bffb17 	ldw	r2,-20(fp)
 8051524:	10c00d15 	stw	r3,52(r2)

        /* Post an event to notify jtag_uart_write that a character has been written */
        ALT_FLAG_POST (sp->events, ALT_JTAG_UART_WRITE_RDY, OS_FLAG_SET);

        space--;
 8051528:	e0bffa17 	ldw	r2,-24(fp)
 805152c:	10bfffc4 	addi	r2,r2,-1
 8051530:	e0bffa15 	stw	r2,-24(fp)
    if (control & ALTERA_AVALON_JTAG_UART_CONTROL_WI_MSK)
    {
      /* process a write irq */
      unsigned int space = (control & ALTERA_AVALON_JTAG_UART_CONTROL_WSPACE_MSK) >> ALTERA_AVALON_JTAG_UART_CONTROL_WSPACE_OFST;

      while (space > 0 && sp->tx_out != sp->tx_in)
 8051534:	e0bffa17 	ldw	r2,-24(fp)
 8051538:	10000526 	beq	r2,zero,8051550 <altera_avalon_jtag_uart_irq+0x1a8>
 805153c:	e0bffb17 	ldw	r2,-20(fp)
 8051540:	10c00d17 	ldw	r3,52(r2)
 8051544:	e0bffb17 	ldw	r2,-20(fp)
 8051548:	10800c17 	ldw	r2,48(r2)
 805154c:	18bfe51e 	bne	r3,r2,80514e4 <__alt_data_end+0xfffe9444>
        ALT_FLAG_POST (sp->events, ALT_JTAG_UART_WRITE_RDY, OS_FLAG_SET);

        space--;
      }

      if (space > 0)
 8051550:	e0bffa17 	ldw	r2,-24(fp)
 8051554:	103f9d26 	beq	r2,zero,80513cc <__alt_data_end+0xfffe932c>
      {
        /* If we don't have any more data available then turn off the TX interrupt */
        sp->irq_enable &= ~ALTERA_AVALON_JTAG_UART_CONTROL_WE_MSK;
 8051558:	e0bffb17 	ldw	r2,-20(fp)
 805155c:	10c00817 	ldw	r3,32(r2)
 8051560:	00bfff44 	movi	r2,-3
 8051564:	1886703a 	and	r3,r3,r2
 8051568:	e0bffb17 	ldw	r2,-20(fp)
 805156c:	10c00815 	stw	r3,32(r2)
        IOWR_ALTERA_AVALON_JTAG_UART_CONTROL(sp->base, sp->irq_enable);
 8051570:	e0bffb17 	ldw	r2,-20(fp)
 8051574:	10800017 	ldw	r2,0(r2)
 8051578:	10800104 	addi	r2,r2,4
 805157c:	1007883a 	mov	r3,r2
 8051580:	e0bffb17 	ldw	r2,-20(fp)
 8051584:	10800817 	ldw	r2,32(r2)
 8051588:	18800035 	stwio	r2,0(r3)
        
        /* Dummy read to ensure IRQ is cleared prior to ISR completion */
        IORD_ALTERA_AVALON_JTAG_UART_CONTROL(base);
 805158c:	e0bffc17 	ldw	r2,-16(fp)
 8051590:	10800104 	addi	r2,r2,4
 8051594:	10800037 	ldwio	r2,0(r2)
      }
    }
  }
 8051598:	003f8c06 	br	80513cc <__alt_data_end+0xfffe932c>
  {
    unsigned int control = IORD_ALTERA_AVALON_JTAG_UART_CONTROL(base);

    /* Return once nothing more to do */
    if ((control & (ALTERA_AVALON_JTAG_UART_CONTROL_RI_MSK | ALTERA_AVALON_JTAG_UART_CONTROL_WI_MSK)) == 0)
      break;
 805159c:	0001883a 	nop
        /* Dummy read to ensure IRQ is cleared prior to ISR completion */
        IORD_ALTERA_AVALON_JTAG_UART_CONTROL(base);
      }
    }
  }
}
 80515a0:	0001883a 	nop
 80515a4:	e037883a 	mov	sp,fp
 80515a8:	df000017 	ldw	fp,0(sp)
 80515ac:	dec00104 	addi	sp,sp,4
 80515b0:	f800283a 	ret

080515b4 <altera_avalon_jtag_uart_timeout>:
 * Timeout routine is called every second
 */

static alt_u32 
altera_avalon_jtag_uart_timeout(void* context) 
{
 80515b4:	defff804 	addi	sp,sp,-32
 80515b8:	df000715 	stw	fp,28(sp)
 80515bc:	df000704 	addi	fp,sp,28
 80515c0:	e13ffb15 	stw	r4,-20(fp)
  altera_avalon_jtag_uart_state* sp = (altera_avalon_jtag_uart_state *) context;
 80515c4:	e0bffb17 	ldw	r2,-20(fp)
 80515c8:	e0bff915 	stw	r2,-28(fp)

  unsigned int control = IORD_ALTERA_AVALON_JTAG_UART_CONTROL(sp->base);
 80515cc:	e0bff917 	ldw	r2,-28(fp)
 80515d0:	10800017 	ldw	r2,0(r2)
 80515d4:	10800104 	addi	r2,r2,4
 80515d8:	10800037 	ldwio	r2,0(r2)
 80515dc:	e0bffa15 	stw	r2,-24(fp)

  if (control & ALTERA_AVALON_JTAG_UART_CONTROL_AC_MSK)
 80515e0:	e0bffa17 	ldw	r2,-24(fp)
 80515e4:	1081000c 	andi	r2,r2,1024
 80515e8:	10000b26 	beq	r2,zero,8051618 <altera_avalon_jtag_uart_timeout+0x64>
  {
    IOWR_ALTERA_AVALON_JTAG_UART_CONTROL(sp->base, sp->irq_enable | ALTERA_AVALON_JTAG_UART_CONTROL_AC_MSK);
 80515ec:	e0bff917 	ldw	r2,-28(fp)
 80515f0:	10800017 	ldw	r2,0(r2)
 80515f4:	10800104 	addi	r2,r2,4
 80515f8:	1007883a 	mov	r3,r2
 80515fc:	e0bff917 	ldw	r2,-28(fp)
 8051600:	10800817 	ldw	r2,32(r2)
 8051604:	10810014 	ori	r2,r2,1024
 8051608:	18800035 	stwio	r2,0(r3)
    sp->host_inactive = 0;
 805160c:	e0bff917 	ldw	r2,-28(fp)
 8051610:	10000915 	stw	zero,36(r2)
 8051614:	00000a06 	br	8051640 <altera_avalon_jtag_uart_timeout+0x8c>
  }
  else if (sp->host_inactive < INT_MAX - 2) {
 8051618:	e0bff917 	ldw	r2,-28(fp)
 805161c:	10c00917 	ldw	r3,36(r2)
 8051620:	00a00034 	movhi	r2,32768
 8051624:	10bfff04 	addi	r2,r2,-4
 8051628:	10c00536 	bltu	r2,r3,8051640 <altera_avalon_jtag_uart_timeout+0x8c>
    sp->host_inactive++;
 805162c:	e0bff917 	ldw	r2,-28(fp)
 8051630:	10800917 	ldw	r2,36(r2)
 8051634:	10c00044 	addi	r3,r2,1
 8051638:	e0bff917 	ldw	r2,-28(fp)
 805163c:	10c00915 	stw	r3,36(r2)
 8051640:	d0a71417 	ldw	r2,-25520(gp)
      ALT_FLAG_POST (sp->events, ALT_JTAG_UART_TIMEOUT, OS_FLAG_SET);
    }
  }

  return alt_ticks_per_second();
}
 8051644:	e037883a 	mov	sp,fp
 8051648:	df000017 	ldw	fp,0(sp)
 805164c:	dec00104 	addi	sp,sp,4
 8051650:	f800283a 	ret

08051654 <altera_avalon_jtag_uart_close>:
 * The close routine is not implemented for the small driver; instead it will
 * map to null. This is because the small driver simply waits while characters
 * are transmitted; there is no interrupt-serviced buffer to empty 
 */
int altera_avalon_jtag_uart_close(altera_avalon_jtag_uart_state* sp, int flags)
{
 8051654:	defffd04 	addi	sp,sp,-12
 8051658:	df000215 	stw	fp,8(sp)
 805165c:	df000204 	addi	fp,sp,8
 8051660:	e13ffe15 	stw	r4,-8(fp)
 8051664:	e17fff15 	stw	r5,-4(fp)
  /* 
   * Wait for all transmit data to be emptied by the JTAG UART ISR, or
   * for a host-inactivity timeout, in which case transmit data will be lost
   */
  while ( (sp->tx_out != sp->tx_in) && (sp->host_inactive < sp->timeout) ) {
 8051668:	00000506 	br	8051680 <altera_avalon_jtag_uart_close+0x2c>
    if (flags & O_NONBLOCK) {
 805166c:	e0bfff17 	ldw	r2,-4(fp)
 8051670:	1090000c 	andi	r2,r2,16384
 8051674:	10000226 	beq	r2,zero,8051680 <altera_avalon_jtag_uart_close+0x2c>
      return -EWOULDBLOCK; 
 8051678:	00bffd44 	movi	r2,-11
 805167c:	00000b06 	br	80516ac <altera_avalon_jtag_uart_close+0x58>
{
  /* 
   * Wait for all transmit data to be emptied by the JTAG UART ISR, or
   * for a host-inactivity timeout, in which case transmit data will be lost
   */
  while ( (sp->tx_out != sp->tx_in) && (sp->host_inactive < sp->timeout) ) {
 8051680:	e0bffe17 	ldw	r2,-8(fp)
 8051684:	10c00d17 	ldw	r3,52(r2)
 8051688:	e0bffe17 	ldw	r2,-8(fp)
 805168c:	10800c17 	ldw	r2,48(r2)
 8051690:	18800526 	beq	r3,r2,80516a8 <altera_avalon_jtag_uart_close+0x54>
 8051694:	e0bffe17 	ldw	r2,-8(fp)
 8051698:	10c00917 	ldw	r3,36(r2)
 805169c:	e0bffe17 	ldw	r2,-8(fp)
 80516a0:	10800117 	ldw	r2,4(r2)
 80516a4:	18bff136 	bltu	r3,r2,805166c <__alt_data_end+0xfffe95cc>
    if (flags & O_NONBLOCK) {
      return -EWOULDBLOCK; 
    }
  }

  return 0;
 80516a8:	0005883a 	mov	r2,zero
}
 80516ac:	e037883a 	mov	sp,fp
 80516b0:	df000017 	ldw	fp,0(sp)
 80516b4:	dec00104 	addi	sp,sp,4
 80516b8:	f800283a 	ret

080516bc <altera_avalon_jtag_uart_ioctl>:
/* ----------------------------------------------------------- */

int 
altera_avalon_jtag_uart_ioctl(altera_avalon_jtag_uart_state* sp, int req,
  void* arg)
{
 80516bc:	defffa04 	addi	sp,sp,-24
 80516c0:	df000515 	stw	fp,20(sp)
 80516c4:	df000504 	addi	fp,sp,20
 80516c8:	e13ffd15 	stw	r4,-12(fp)
 80516cc:	e17ffe15 	stw	r5,-8(fp)
 80516d0:	e1bfff15 	stw	r6,-4(fp)
  int rc = -ENOTTY;
 80516d4:	00bff9c4 	movi	r2,-25
 80516d8:	e0bffb15 	stw	r2,-20(fp)

  switch (req)
 80516dc:	e0bffe17 	ldw	r2,-8(fp)
 80516e0:	10da8060 	cmpeqi	r3,r2,27137
 80516e4:	1800031e 	bne	r3,zero,80516f4 <altera_avalon_jtag_uart_ioctl+0x38>
 80516e8:	109a80a0 	cmpeqi	r2,r2,27138
 80516ec:	1000181e 	bne	r2,zero,8051750 <altera_avalon_jtag_uart_ioctl+0x94>
      rc = 0;
    }
    break;

  default:
    break;
 80516f0:	00002906 	br	8051798 <altera_avalon_jtag_uart_ioctl+0xdc>

  switch (req)
  {
  case TIOCSTIMEOUT:
    /* Set the time to wait until assuming host is not connected */
    if (sp->timeout != INT_MAX)
 80516f4:	e0bffd17 	ldw	r2,-12(fp)
 80516f8:	10c00117 	ldw	r3,4(r2)
 80516fc:	00a00034 	movhi	r2,32768
 8051700:	10bfffc4 	addi	r2,r2,-1
 8051704:	18802126 	beq	r3,r2,805178c <altera_avalon_jtag_uart_ioctl+0xd0>
    {
      int timeout = *((int *)arg);
 8051708:	e0bfff17 	ldw	r2,-4(fp)
 805170c:	10800017 	ldw	r2,0(r2)
 8051710:	e0bffc15 	stw	r2,-16(fp)
      sp->timeout = (timeout >= 2 && timeout < INT_MAX) ? timeout : INT_MAX - 1;
 8051714:	e0bffc17 	ldw	r2,-16(fp)
 8051718:	10800090 	cmplti	r2,r2,2
 805171c:	1000061e 	bne	r2,zero,8051738 <altera_avalon_jtag_uart_ioctl+0x7c>
 8051720:	e0fffc17 	ldw	r3,-16(fp)
 8051724:	00a00034 	movhi	r2,32768
 8051728:	10bfffc4 	addi	r2,r2,-1
 805172c:	18800226 	beq	r3,r2,8051738 <altera_avalon_jtag_uart_ioctl+0x7c>
 8051730:	e0bffc17 	ldw	r2,-16(fp)
 8051734:	00000206 	br	8051740 <altera_avalon_jtag_uart_ioctl+0x84>
 8051738:	00a00034 	movhi	r2,32768
 805173c:	10bfff84 	addi	r2,r2,-2
 8051740:	e0fffd17 	ldw	r3,-12(fp)
 8051744:	18800115 	stw	r2,4(r3)
      rc = 0;
 8051748:	e03ffb15 	stw	zero,-20(fp)
    }
    break;
 805174c:	00000f06 	br	805178c <altera_avalon_jtag_uart_ioctl+0xd0>

  case TIOCGCONNECTED:
    /* Find out whether host is connected */
    if (sp->timeout != INT_MAX)
 8051750:	e0bffd17 	ldw	r2,-12(fp)
 8051754:	10c00117 	ldw	r3,4(r2)
 8051758:	00a00034 	movhi	r2,32768
 805175c:	10bfffc4 	addi	r2,r2,-1
 8051760:	18800c26 	beq	r3,r2,8051794 <altera_avalon_jtag_uart_ioctl+0xd8>
    {
      *((int *)arg) = (sp->host_inactive < sp->timeout) ? 1 : 0;
 8051764:	e0bffd17 	ldw	r2,-12(fp)
 8051768:	10c00917 	ldw	r3,36(r2)
 805176c:	e0bffd17 	ldw	r2,-12(fp)
 8051770:	10800117 	ldw	r2,4(r2)
 8051774:	1885803a 	cmpltu	r2,r3,r2
 8051778:	10c03fcc 	andi	r3,r2,255
 805177c:	e0bfff17 	ldw	r2,-4(fp)
 8051780:	10c00015 	stw	r3,0(r2)
      rc = 0;
 8051784:	e03ffb15 	stw	zero,-20(fp)
    }
    break;
 8051788:	00000206 	br	8051794 <altera_avalon_jtag_uart_ioctl+0xd8>
    {
      int timeout = *((int *)arg);
      sp->timeout = (timeout >= 2 && timeout < INT_MAX) ? timeout : INT_MAX - 1;
      rc = 0;
    }
    break;
 805178c:	0001883a 	nop
 8051790:	00000106 	br	8051798 <altera_avalon_jtag_uart_ioctl+0xdc>
    if (sp->timeout != INT_MAX)
    {
      *((int *)arg) = (sp->host_inactive < sp->timeout) ? 1 : 0;
      rc = 0;
    }
    break;
 8051794:	0001883a 	nop

  default:
    break;
  }

  return rc;
 8051798:	e0bffb17 	ldw	r2,-20(fp)
}
 805179c:	e037883a 	mov	sp,fp
 80517a0:	df000017 	ldw	fp,0(sp)
 80517a4:	dec00104 	addi	sp,sp,4
 80517a8:	f800283a 	ret

080517ac <altera_avalon_jtag_uart_read>:
/* ----------------------------------------------------------- */

int 
altera_avalon_jtag_uart_read(altera_avalon_jtag_uart_state* sp, 
  char * buffer, int space, int flags)
{
 80517ac:	defff304 	addi	sp,sp,-52
 80517b0:	dfc00c15 	stw	ra,48(sp)
 80517b4:	df000b15 	stw	fp,44(sp)
 80517b8:	df000b04 	addi	fp,sp,44
 80517bc:	e13ffc15 	stw	r4,-16(fp)
 80517c0:	e17ffd15 	stw	r5,-12(fp)
 80517c4:	e1bffe15 	stw	r6,-8(fp)
 80517c8:	e1ffff15 	stw	r7,-4(fp)
  char * ptr = buffer;
 80517cc:	e0bffd17 	ldw	r2,-12(fp)
 80517d0:	e0bff515 	stw	r2,-44(fp)
   * When running in a multi threaded environment, obtain the "read_lock"
   * semaphore. This ensures that reading from the device is thread-safe.
   */
  ALT_SEM_PEND (sp->read_lock, 0);

  while (space > 0)
 80517d4:	00004706 	br	80518f4 <altera_avalon_jtag_uart_read+0x148>
    unsigned int in, out;

    /* Read as much data as possible */
    do
    {
      in  = sp->rx_in;
 80517d8:	e0bffc17 	ldw	r2,-16(fp)
 80517dc:	10800a17 	ldw	r2,40(r2)
 80517e0:	e0bff715 	stw	r2,-36(fp)
      out = sp->rx_out;
 80517e4:	e0bffc17 	ldw	r2,-16(fp)
 80517e8:	10800b17 	ldw	r2,44(r2)
 80517ec:	e0bff815 	stw	r2,-32(fp)

      if (in >= out)
 80517f0:	e0fff717 	ldw	r3,-36(fp)
 80517f4:	e0bff817 	ldw	r2,-32(fp)
 80517f8:	18800536 	bltu	r3,r2,8051810 <altera_avalon_jtag_uart_read+0x64>
        n = in - out;
 80517fc:	e0fff717 	ldw	r3,-36(fp)
 8051800:	e0bff817 	ldw	r2,-32(fp)
 8051804:	1885c83a 	sub	r2,r3,r2
 8051808:	e0bff615 	stw	r2,-40(fp)
 805180c:	00000406 	br	8051820 <altera_avalon_jtag_uart_read+0x74>
      else
        n = ALTERA_AVALON_JTAG_UART_BUF_LEN - out;
 8051810:	00c20004 	movi	r3,2048
 8051814:	e0bff817 	ldw	r2,-32(fp)
 8051818:	1885c83a 	sub	r2,r3,r2
 805181c:	e0bff615 	stw	r2,-40(fp)

      if (n == 0)
 8051820:	e0bff617 	ldw	r2,-40(fp)
 8051824:	10001e26 	beq	r2,zero,80518a0 <altera_avalon_jtag_uart_read+0xf4>
        break; /* No more data available */

      if (n > space)
 8051828:	e0fffe17 	ldw	r3,-8(fp)
 805182c:	e0bff617 	ldw	r2,-40(fp)
 8051830:	1880022e 	bgeu	r3,r2,805183c <altera_avalon_jtag_uart_read+0x90>
        n = space;
 8051834:	e0bffe17 	ldw	r2,-8(fp)
 8051838:	e0bff615 	stw	r2,-40(fp)

      memcpy(ptr, sp->rx_buf + out, n);
 805183c:	e0bffc17 	ldw	r2,-16(fp)
 8051840:	10c00e04 	addi	r3,r2,56
 8051844:	e0bff817 	ldw	r2,-32(fp)
 8051848:	1885883a 	add	r2,r3,r2
 805184c:	e1bff617 	ldw	r6,-40(fp)
 8051850:	100b883a 	mov	r5,r2
 8051854:	e13ff517 	ldw	r4,-44(fp)
 8051858:	80455480 	call	8045548 <memcpy>
      ptr   += n;
 805185c:	e0fff517 	ldw	r3,-44(fp)
 8051860:	e0bff617 	ldw	r2,-40(fp)
 8051864:	1885883a 	add	r2,r3,r2
 8051868:	e0bff515 	stw	r2,-44(fp)
      space -= n;
 805186c:	e0fffe17 	ldw	r3,-8(fp)
 8051870:	e0bff617 	ldw	r2,-40(fp)
 8051874:	1885c83a 	sub	r2,r3,r2
 8051878:	e0bffe15 	stw	r2,-8(fp)

      sp->rx_out = (out + n) % ALTERA_AVALON_JTAG_UART_BUF_LEN;
 805187c:	e0fff817 	ldw	r3,-32(fp)
 8051880:	e0bff617 	ldw	r2,-40(fp)
 8051884:	1885883a 	add	r2,r3,r2
 8051888:	10c1ffcc 	andi	r3,r2,2047
 805188c:	e0bffc17 	ldw	r2,-16(fp)
 8051890:	10c00b15 	stw	r3,44(r2)
    }
    while (space > 0);
 8051894:	e0bffe17 	ldw	r2,-8(fp)
 8051898:	00bfcf16 	blt	zero,r2,80517d8 <__alt_data_end+0xfffe9738>
 805189c:	00000106 	br	80518a4 <altera_avalon_jtag_uart_read+0xf8>
        n = in - out;
      else
        n = ALTERA_AVALON_JTAG_UART_BUF_LEN - out;

      if (n == 0)
        break; /* No more data available */
 80518a0:	0001883a 	nop
      sp->rx_out = (out + n) % ALTERA_AVALON_JTAG_UART_BUF_LEN;
    }
    while (space > 0);

    /* If we read any data then return it */
    if (ptr != buffer)
 80518a4:	e0fff517 	ldw	r3,-44(fp)
 80518a8:	e0bffd17 	ldw	r2,-12(fp)
 80518ac:	1880141e 	bne	r3,r2,8051900 <altera_avalon_jtag_uart_read+0x154>
      break;

    /* If in non-blocking mode then return error */
    if (flags & O_NONBLOCK)
 80518b0:	e0bfff17 	ldw	r2,-4(fp)
 80518b4:	1090000c 	andi	r2,r2,16384
 80518b8:	1000131e 	bne	r2,zero,8051908 <altera_avalon_jtag_uart_read+0x15c>
      while (in == sp->rx_in && sp->host_inactive < sp->timeout)
        ;
    }
#else
    /* No OS: Always spin */
    while (in == sp->rx_in && sp->host_inactive < sp->timeout)
 80518bc:	0001883a 	nop
 80518c0:	e0bffc17 	ldw	r2,-16(fp)
 80518c4:	10c00a17 	ldw	r3,40(r2)
 80518c8:	e0bff717 	ldw	r2,-36(fp)
 80518cc:	1880051e 	bne	r3,r2,80518e4 <altera_avalon_jtag_uart_read+0x138>
 80518d0:	e0bffc17 	ldw	r2,-16(fp)
 80518d4:	10c00917 	ldw	r3,36(r2)
 80518d8:	e0bffc17 	ldw	r2,-16(fp)
 80518dc:	10800117 	ldw	r2,4(r2)
 80518e0:	18bff736 	bltu	r3,r2,80518c0 <__alt_data_end+0xfffe9820>
      ;
#endif /* __ucosii__ */

    if (in == sp->rx_in)
 80518e4:	e0bffc17 	ldw	r2,-16(fp)
 80518e8:	10c00a17 	ldw	r3,40(r2)
 80518ec:	e0bff717 	ldw	r2,-36(fp)
 80518f0:	18800726 	beq	r3,r2,8051910 <altera_avalon_jtag_uart_read+0x164>
   * When running in a multi threaded environment, obtain the "read_lock"
   * semaphore. This ensures that reading from the device is thread-safe.
   */
  ALT_SEM_PEND (sp->read_lock, 0);

  while (space > 0)
 80518f4:	e0bffe17 	ldw	r2,-8(fp)
 80518f8:	00bfb716 	blt	zero,r2,80517d8 <__alt_data_end+0xfffe9738>
 80518fc:	00000506 	br	8051914 <altera_avalon_jtag_uart_read+0x168>
    }
    while (space > 0);

    /* If we read any data then return it */
    if (ptr != buffer)
      break;
 8051900:	0001883a 	nop
 8051904:	00000306 	br	8051914 <altera_avalon_jtag_uart_read+0x168>

    /* If in non-blocking mode then return error */
    if (flags & O_NONBLOCK)
      break;
 8051908:	0001883a 	nop
 805190c:	00000106 	br	8051914 <altera_avalon_jtag_uart_read+0x168>
    while (in == sp->rx_in && sp->host_inactive < sp->timeout)
      ;
#endif /* __ucosii__ */

    if (in == sp->rx_in)
      break;
 8051910:	0001883a 	nop
   * semaphore so that other threads can access the buffer.
   */

  ALT_SEM_POST (sp->read_lock);

  if (ptr != buffer)
 8051914:	e0fff517 	ldw	r3,-44(fp)
 8051918:	e0bffd17 	ldw	r2,-12(fp)
 805191c:	18801826 	beq	r3,r2,8051980 <altera_avalon_jtag_uart_read+0x1d4>
static ALT_INLINE alt_irq_context ALT_ALWAYS_INLINE 
       alt_irq_disable_all (void)
{
  alt_irq_context context;

  NIOS2_READ_STATUS (context);
 8051920:	0005303a 	rdctl	r2,status
 8051924:	e0bffb15 	stw	r2,-20(fp)

  NIOS2_WRITE_STATUS (context & ~NIOS2_STATUS_PIE_MSK);
 8051928:	e0fffb17 	ldw	r3,-20(fp)
 805192c:	00bfff84 	movi	r2,-2
 8051930:	1884703a 	and	r2,r3,r2
 8051934:	1001703a 	wrctl	status,r2
  
  return context;
 8051938:	e0bffb17 	ldw	r2,-20(fp)
  {
    /* If we read any data then there is space in the buffer so enable interrupts */
    context = alt_irq_disable_all();
 805193c:	e0bffa15 	stw	r2,-24(fp)
    sp->irq_enable |= ALTERA_AVALON_JTAG_UART_CONTROL_RE_MSK;
 8051940:	e0bffc17 	ldw	r2,-16(fp)
 8051944:	10800817 	ldw	r2,32(r2)
 8051948:	10c00054 	ori	r3,r2,1
 805194c:	e0bffc17 	ldw	r2,-16(fp)
 8051950:	10c00815 	stw	r3,32(r2)
    IOWR_ALTERA_AVALON_JTAG_UART_CONTROL(sp->base, sp->irq_enable);
 8051954:	e0bffc17 	ldw	r2,-16(fp)
 8051958:	10800017 	ldw	r2,0(r2)
 805195c:	10800104 	addi	r2,r2,4
 8051960:	1007883a 	mov	r3,r2
 8051964:	e0bffc17 	ldw	r2,-16(fp)
 8051968:	10800817 	ldw	r2,32(r2)
 805196c:	18800035 	stwio	r2,0(r3)
 8051970:	e0bffa17 	ldw	r2,-24(fp)
 8051974:	e0bff915 	stw	r2,-28(fp)
  status &= ~NIOS2_STATUS_PIE_MSK;
  status |= (context & NIOS2_STATUS_PIE_MSK);
  
  NIOS2_WRITE_STATUS (status);
#else
  NIOS2_WRITE_STATUS (context);
 8051978:	e0bff917 	ldw	r2,-28(fp)
 805197c:	1001703a 	wrctl	status,r2
    alt_irq_enable_all(context);
  }

  if (ptr != buffer)
 8051980:	e0fff517 	ldw	r3,-44(fp)
 8051984:	e0bffd17 	ldw	r2,-12(fp)
 8051988:	18800426 	beq	r3,r2,805199c <altera_avalon_jtag_uart_read+0x1f0>
    return ptr - buffer;
 805198c:	e0fff517 	ldw	r3,-44(fp)
 8051990:	e0bffd17 	ldw	r2,-12(fp)
 8051994:	1885c83a 	sub	r2,r3,r2
 8051998:	00000606 	br	80519b4 <altera_avalon_jtag_uart_read+0x208>
  else if (flags & O_NONBLOCK)
 805199c:	e0bfff17 	ldw	r2,-4(fp)
 80519a0:	1090000c 	andi	r2,r2,16384
 80519a4:	10000226 	beq	r2,zero,80519b0 <altera_avalon_jtag_uart_read+0x204>
    return -EWOULDBLOCK;
 80519a8:	00bffd44 	movi	r2,-11
 80519ac:	00000106 	br	80519b4 <altera_avalon_jtag_uart_read+0x208>
  else
    return -EIO;
 80519b0:	00bffec4 	movi	r2,-5
}
 80519b4:	e037883a 	mov	sp,fp
 80519b8:	dfc00117 	ldw	ra,4(sp)
 80519bc:	df000017 	ldw	fp,0(sp)
 80519c0:	dec00204 	addi	sp,sp,8
 80519c4:	f800283a 	ret

080519c8 <altera_avalon_jtag_uart_write>:
/* ----------------------------------------------------------- */

int 
altera_avalon_jtag_uart_write(altera_avalon_jtag_uart_state* sp, 
  const char * ptr, int count, int flags)
{
 80519c8:	defff304 	addi	sp,sp,-52
 80519cc:	dfc00c15 	stw	ra,48(sp)
 80519d0:	df000b15 	stw	fp,44(sp)
 80519d4:	df000b04 	addi	fp,sp,44
 80519d8:	e13ffc15 	stw	r4,-16(fp)
 80519dc:	e17ffd15 	stw	r5,-12(fp)
 80519e0:	e1bffe15 	stw	r6,-8(fp)
 80519e4:	e1ffff15 	stw	r7,-4(fp)
  /* Remove warning at optimisation level 03 by seting out to 0 */
  unsigned int in, out=0;
 80519e8:	e03ff515 	stw	zero,-44(fp)
  unsigned int n;
  alt_irq_context context;

  const char * start = ptr;
 80519ec:	e0bffd17 	ldw	r2,-12(fp)
 80519f0:	e0bff715 	stw	r2,-36(fp)
  ALT_SEM_PEND (sp->write_lock, 0);

  do
  {
    /* Copy as much as we can into the transmit buffer */
    while (count > 0)
 80519f4:	00003706 	br	8051ad4 <altera_avalon_jtag_uart_write+0x10c>
    {
      /* We need a stable value of the out pointer to calculate the space available */
      in  = sp->tx_in;
 80519f8:	e0bffc17 	ldw	r2,-16(fp)
 80519fc:	10800c17 	ldw	r2,48(r2)
 8051a00:	e0bff915 	stw	r2,-28(fp)
      out = sp->tx_out;
 8051a04:	e0bffc17 	ldw	r2,-16(fp)
 8051a08:	10800d17 	ldw	r2,52(r2)
 8051a0c:	e0bff515 	stw	r2,-44(fp)

      if (in < out)
 8051a10:	e0fff917 	ldw	r3,-28(fp)
 8051a14:	e0bff517 	ldw	r2,-44(fp)
 8051a18:	1880062e 	bgeu	r3,r2,8051a34 <altera_avalon_jtag_uart_write+0x6c>
        n = out - 1 - in;
 8051a1c:	e0fff517 	ldw	r3,-44(fp)
 8051a20:	e0bff917 	ldw	r2,-28(fp)
 8051a24:	1885c83a 	sub	r2,r3,r2
 8051a28:	10bfffc4 	addi	r2,r2,-1
 8051a2c:	e0bff615 	stw	r2,-40(fp)
 8051a30:	00000b06 	br	8051a60 <altera_avalon_jtag_uart_write+0x98>
      else if (out > 0)
 8051a34:	e0bff517 	ldw	r2,-44(fp)
 8051a38:	10000526 	beq	r2,zero,8051a50 <altera_avalon_jtag_uart_write+0x88>
        n = ALTERA_AVALON_JTAG_UART_BUF_LEN - in;
 8051a3c:	00c20004 	movi	r3,2048
 8051a40:	e0bff917 	ldw	r2,-28(fp)
 8051a44:	1885c83a 	sub	r2,r3,r2
 8051a48:	e0bff615 	stw	r2,-40(fp)
 8051a4c:	00000406 	br	8051a60 <altera_avalon_jtag_uart_write+0x98>
      else
        n = ALTERA_AVALON_JTAG_UART_BUF_LEN - 1 - in;
 8051a50:	00c1ffc4 	movi	r3,2047
 8051a54:	e0bff917 	ldw	r2,-28(fp)
 8051a58:	1885c83a 	sub	r2,r3,r2
 8051a5c:	e0bff615 	stw	r2,-40(fp)

      if (n == 0)
 8051a60:	e0bff617 	ldw	r2,-40(fp)
 8051a64:	10001e26 	beq	r2,zero,8051ae0 <altera_avalon_jtag_uart_write+0x118>
        break;

      if (n > count)
 8051a68:	e0fffe17 	ldw	r3,-8(fp)
 8051a6c:	e0bff617 	ldw	r2,-40(fp)
 8051a70:	1880022e 	bgeu	r3,r2,8051a7c <altera_avalon_jtag_uart_write+0xb4>
        n = count;
 8051a74:	e0bffe17 	ldw	r2,-8(fp)
 8051a78:	e0bff615 	stw	r2,-40(fp)

      memcpy(sp->tx_buf + in, ptr, n);
 8051a7c:	e0bffc17 	ldw	r2,-16(fp)
 8051a80:	10c20e04 	addi	r3,r2,2104
 8051a84:	e0bff917 	ldw	r2,-28(fp)
 8051a88:	1885883a 	add	r2,r3,r2
 8051a8c:	e1bff617 	ldw	r6,-40(fp)
 8051a90:	e17ffd17 	ldw	r5,-12(fp)
 8051a94:	1009883a 	mov	r4,r2
 8051a98:	80455480 	call	8045548 <memcpy>
      ptr   += n;
 8051a9c:	e0fffd17 	ldw	r3,-12(fp)
 8051aa0:	e0bff617 	ldw	r2,-40(fp)
 8051aa4:	1885883a 	add	r2,r3,r2
 8051aa8:	e0bffd15 	stw	r2,-12(fp)
      count -= n;
 8051aac:	e0fffe17 	ldw	r3,-8(fp)
 8051ab0:	e0bff617 	ldw	r2,-40(fp)
 8051ab4:	1885c83a 	sub	r2,r3,r2
 8051ab8:	e0bffe15 	stw	r2,-8(fp)

      sp->tx_in = (in + n) % ALTERA_AVALON_JTAG_UART_BUF_LEN;
 8051abc:	e0fff917 	ldw	r3,-28(fp)
 8051ac0:	e0bff617 	ldw	r2,-40(fp)
 8051ac4:	1885883a 	add	r2,r3,r2
 8051ac8:	10c1ffcc 	andi	r3,r2,2047
 8051acc:	e0bffc17 	ldw	r2,-16(fp)
 8051ad0:	10c00c15 	stw	r3,48(r2)
  ALT_SEM_PEND (sp->write_lock, 0);

  do
  {
    /* Copy as much as we can into the transmit buffer */
    while (count > 0)
 8051ad4:	e0bffe17 	ldw	r2,-8(fp)
 8051ad8:	00bfc716 	blt	zero,r2,80519f8 <__alt_data_end+0xfffe9958>
 8051adc:	00000106 	br	8051ae4 <altera_avalon_jtag_uart_write+0x11c>
        n = ALTERA_AVALON_JTAG_UART_BUF_LEN - in;
      else
        n = ALTERA_AVALON_JTAG_UART_BUF_LEN - 1 - in;

      if (n == 0)
        break;
 8051ae0:	0001883a 	nop
static ALT_INLINE alt_irq_context ALT_ALWAYS_INLINE 
       alt_irq_disable_all (void)
{
  alt_irq_context context;

  NIOS2_READ_STATUS (context);
 8051ae4:	0005303a 	rdctl	r2,status
 8051ae8:	e0bffb15 	stw	r2,-20(fp)

  NIOS2_WRITE_STATUS (context & ~NIOS2_STATUS_PIE_MSK);
 8051aec:	e0fffb17 	ldw	r3,-20(fp)
 8051af0:	00bfff84 	movi	r2,-2
 8051af4:	1884703a 	and	r2,r3,r2
 8051af8:	1001703a 	wrctl	status,r2
  
  return context;
 8051afc:	e0bffb17 	ldw	r2,-20(fp)
     * to enable interrupts if there is no space left in the FIFO
     *
     * For now kick the interrupt routine every time to make it transmit 
     * the data 
     */
    context = alt_irq_disable_all();
 8051b00:	e0bffa15 	stw	r2,-24(fp)
    sp->irq_enable |= ALTERA_AVALON_JTAG_UART_CONTROL_WE_MSK;
 8051b04:	e0bffc17 	ldw	r2,-16(fp)
 8051b08:	10800817 	ldw	r2,32(r2)
 8051b0c:	10c00094 	ori	r3,r2,2
 8051b10:	e0bffc17 	ldw	r2,-16(fp)
 8051b14:	10c00815 	stw	r3,32(r2)
    IOWR_ALTERA_AVALON_JTAG_UART_CONTROL(sp->base, sp->irq_enable);
 8051b18:	e0bffc17 	ldw	r2,-16(fp)
 8051b1c:	10800017 	ldw	r2,0(r2)
 8051b20:	10800104 	addi	r2,r2,4
 8051b24:	1007883a 	mov	r3,r2
 8051b28:	e0bffc17 	ldw	r2,-16(fp)
 8051b2c:	10800817 	ldw	r2,32(r2)
 8051b30:	18800035 	stwio	r2,0(r3)
 8051b34:	e0bffa17 	ldw	r2,-24(fp)
 8051b38:	e0bff815 	stw	r2,-32(fp)
  status &= ~NIOS2_STATUS_PIE_MSK;
  status |= (context & NIOS2_STATUS_PIE_MSK);
  
  NIOS2_WRITE_STATUS (status);
#else
  NIOS2_WRITE_STATUS (context);
 8051b3c:	e0bff817 	ldw	r2,-32(fp)
 8051b40:	1001703a 	wrctl	status,r2
    /* 
     * If there is any data left then either return now or block until 
     * some has been sent 
     */
    /* consider: test whether there is anything there while doing this and delay for at most 2s. */
    if (count > 0)
 8051b44:	e0bffe17 	ldw	r2,-8(fp)
 8051b48:	0080100e 	bge	zero,r2,8051b8c <altera_avalon_jtag_uart_write+0x1c4>
    {
      if (flags & O_NONBLOCK)
 8051b4c:	e0bfff17 	ldw	r2,-4(fp)
 8051b50:	1090000c 	andi	r2,r2,16384
 8051b54:	1000101e 	bne	r2,zero,8051b98 <altera_avalon_jtag_uart_write+0x1d0>
      /*
       * No OS present: Always wait for data to be removed from buffer.  Once
       * the interrupt routine has removed some data then we will be able to
       * insert some more.
       */
      while (out == sp->tx_out && sp->host_inactive < sp->timeout)
 8051b58:	0001883a 	nop
 8051b5c:	e0bffc17 	ldw	r2,-16(fp)
 8051b60:	10c00d17 	ldw	r3,52(r2)
 8051b64:	e0bff517 	ldw	r2,-44(fp)
 8051b68:	1880051e 	bne	r3,r2,8051b80 <altera_avalon_jtag_uart_write+0x1b8>
 8051b6c:	e0bffc17 	ldw	r2,-16(fp)
 8051b70:	10c00917 	ldw	r3,36(r2)
 8051b74:	e0bffc17 	ldw	r2,-16(fp)
 8051b78:	10800117 	ldw	r2,4(r2)
 8051b7c:	18bff736 	bltu	r3,r2,8051b5c <__alt_data_end+0xfffe9abc>
        ;
#endif /* __ucosii__ */

      if  (sp->host_inactive)
 8051b80:	e0bffc17 	ldw	r2,-16(fp)
 8051b84:	10800917 	ldw	r2,36(r2)
 8051b88:	1000051e 	bne	r2,zero,8051ba0 <altera_avalon_jtag_uart_write+0x1d8>
         break;
    }
  }
  while (count > 0);
 8051b8c:	e0bffe17 	ldw	r2,-8(fp)
 8051b90:	00bfd016 	blt	zero,r2,8051ad4 <__alt_data_end+0xfffe9a34>
 8051b94:	00000306 	br	8051ba4 <altera_avalon_jtag_uart_write+0x1dc>
     */
    /* consider: test whether there is anything there while doing this and delay for at most 2s. */
    if (count > 0)
    {
      if (flags & O_NONBLOCK)
        break;
 8051b98:	0001883a 	nop
 8051b9c:	00000106 	br	8051ba4 <altera_avalon_jtag_uart_write+0x1dc>
      while (out == sp->tx_out && sp->host_inactive < sp->timeout)
        ;
#endif /* __ucosii__ */

      if  (sp->host_inactive)
         break;
 8051ba0:	0001883a 	nop
   * Now that access to the circular buffer is complete, release the write
   * semaphore so that other threads can access the buffer.
   */
  ALT_SEM_POST (sp->write_lock);

  if (ptr != start)
 8051ba4:	e0fffd17 	ldw	r3,-12(fp)
 8051ba8:	e0bff717 	ldw	r2,-36(fp)
 8051bac:	18800426 	beq	r3,r2,8051bc0 <altera_avalon_jtag_uart_write+0x1f8>
    return ptr - start;
 8051bb0:	e0fffd17 	ldw	r3,-12(fp)
 8051bb4:	e0bff717 	ldw	r2,-36(fp)
 8051bb8:	1885c83a 	sub	r2,r3,r2
 8051bbc:	00000606 	br	8051bd8 <altera_avalon_jtag_uart_write+0x210>
  else if (flags & O_NONBLOCK)
 8051bc0:	e0bfff17 	ldw	r2,-4(fp)
 8051bc4:	1090000c 	andi	r2,r2,16384
 8051bc8:	10000226 	beq	r2,zero,8051bd4 <altera_avalon_jtag_uart_write+0x20c>
    return -EWOULDBLOCK;
 8051bcc:	00bffd44 	movi	r2,-11
 8051bd0:	00000106 	br	8051bd8 <altera_avalon_jtag_uart_write+0x210>
    sp->tx_out = sp->tx_in = 0;
    return ptr - start + count;
  }
#endif
  else
    return -EIO; /* Host not connected */
 8051bd4:	00bffec4 	movi	r2,-5
}
 8051bd8:	e037883a 	mov	sp,fp
 8051bdc:	dfc00117 	ldw	ra,4(sp)
 8051be0:	df000017 	ldw	fp,0(sp)
 8051be4:	dec00204 	addi	sp,sp,8
 8051be8:	f800283a 	ret

08051bec <alt_avalon_timer_sc_irq>:
#ifdef ALT_ENHANCED_INTERRUPT_API_PRESENT
static void alt_avalon_timer_sc_irq (void* base)
#else
static void alt_avalon_timer_sc_irq (void* base, alt_u32 id)
#endif
{
 8051bec:	defffa04 	addi	sp,sp,-24
 8051bf0:	dfc00515 	stw	ra,20(sp)
 8051bf4:	df000415 	stw	fp,16(sp)
 8051bf8:	df000404 	addi	fp,sp,16
 8051bfc:	e13fff15 	stw	r4,-4(fp)
  alt_irq_context cpu_sr;
  
  /* clear the interrupt */
  IOWR_ALTERA_AVALON_TIMER_STATUS (base, 0);
 8051c00:	0007883a 	mov	r3,zero
 8051c04:	e0bfff17 	ldw	r2,-4(fp)
 8051c08:	10c00035 	stwio	r3,0(r2)
  /* 
   * Dummy read to ensure IRQ is negated before the ISR returns.
   * The control register is read because reading the status
   * register has side-effects per the register map documentation.
   */
  IORD_ALTERA_AVALON_TIMER_CONTROL (base);
 8051c0c:	e0bfff17 	ldw	r2,-4(fp)
 8051c10:	10800104 	addi	r2,r2,4
 8051c14:	10800037 	ldwio	r2,0(r2)
static ALT_INLINE alt_irq_context ALT_ALWAYS_INLINE 
       alt_irq_disable_all (void)
{
  alt_irq_context context;

  NIOS2_READ_STATUS (context);
 8051c18:	0005303a 	rdctl	r2,status
 8051c1c:	e0bffd15 	stw	r2,-12(fp)

  NIOS2_WRITE_STATUS (context & ~NIOS2_STATUS_PIE_MSK);
 8051c20:	e0fffd17 	ldw	r3,-12(fp)
 8051c24:	00bfff84 	movi	r2,-2
 8051c28:	1884703a 	and	r2,r3,r2
 8051c2c:	1001703a 	wrctl	status,r2
  
  return context;
 8051c30:	e0bffd17 	ldw	r2,-12(fp)

  /* 
   * Notify the system of a clock tick. disable interrupts 
   * during this time to safely support ISR preemption
   */
  cpu_sr = alt_irq_disable_all();
 8051c34:	e0bffc15 	stw	r2,-16(fp)
  alt_tick ();
 8051c38:	8050b980 	call	8050b98 <alt_tick>
 8051c3c:	e0bffc17 	ldw	r2,-16(fp)
 8051c40:	e0bffe15 	stw	r2,-8(fp)
  status &= ~NIOS2_STATUS_PIE_MSK;
  status |= (context & NIOS2_STATUS_PIE_MSK);
  
  NIOS2_WRITE_STATUS (status);
#else
  NIOS2_WRITE_STATUS (context);
 8051c44:	e0bffe17 	ldw	r2,-8(fp)
 8051c48:	1001703a 	wrctl	status,r2
  alt_irq_enable_all(cpu_sr);
}
 8051c4c:	0001883a 	nop
 8051c50:	e037883a 	mov	sp,fp
 8051c54:	dfc00117 	ldw	ra,4(sp)
 8051c58:	df000017 	ldw	fp,0(sp)
 8051c5c:	dec00204 	addi	sp,sp,8
 8051c60:	f800283a 	ret

08051c64 <alt_avalon_timer_sc_init>:
 * auto-generated alt_sys_init() function.
 */

void alt_avalon_timer_sc_init (void* base, alt_u32 irq_controller_id, 
                                alt_u32 irq, alt_u32 freq)
{
 8051c64:	defff804 	addi	sp,sp,-32
 8051c68:	dfc00715 	stw	ra,28(sp)
 8051c6c:	df000615 	stw	fp,24(sp)
 8051c70:	df000604 	addi	fp,sp,24
 8051c74:	e13ffc15 	stw	r4,-16(fp)
 8051c78:	e17ffd15 	stw	r5,-12(fp)
 8051c7c:	e1bffe15 	stw	r6,-8(fp)
 8051c80:	e1ffff15 	stw	r7,-4(fp)
 8051c84:	e0bfff17 	ldw	r2,-4(fp)
 8051c88:	e0bffb15 	stw	r2,-20(fp)
 * in order to initialise the value of the clock frequency.
 */

static ALT_INLINE int ALT_ALWAYS_INLINE alt_sysclk_init (alt_u32 nticks)
{
  if (! _alt_tick_rate)
 8051c8c:	d0a71417 	ldw	r2,-25520(gp)
 8051c90:	1000021e 	bne	r2,zero,8051c9c <alt_avalon_timer_sc_init+0x38>
  {
    _alt_tick_rate = nticks;
 8051c94:	e0bffb17 	ldw	r2,-20(fp)
 8051c98:	d0a71415 	stw	r2,-25520(gp)
  
  alt_sysclk_init (freq);
  
  /* set to free running mode */
  
  IOWR_ALTERA_AVALON_TIMER_CONTROL (base, 
 8051c9c:	e0bffc17 	ldw	r2,-16(fp)
 8051ca0:	10800104 	addi	r2,r2,4
 8051ca4:	00c001c4 	movi	r3,7
 8051ca8:	10c00035 	stwio	r3,0(r2)
            ALTERA_AVALON_TIMER_CONTROL_CONT_MSK |
            ALTERA_AVALON_TIMER_CONTROL_START_MSK);

  /* register the interrupt handler, and enable the interrupt */
#ifdef ALT_ENHANCED_INTERRUPT_API_PRESENT
  alt_ic_isr_register(irq_controller_id, irq, alt_avalon_timer_sc_irq, 
 8051cac:	d8000015 	stw	zero,0(sp)
 8051cb0:	e1fffc17 	ldw	r7,-16(fp)
 8051cb4:	01820174 	movhi	r6,2053
 8051cb8:	3186fb04 	addi	r6,r6,7148
 8051cbc:	e17ffe17 	ldw	r5,-8(fp)
 8051cc0:	e13ffd17 	ldw	r4,-12(fp)
 8051cc4:	80502380 	call	8050238 <alt_ic_isr_register>
                      base, NULL);
#else
  alt_irq_register (irq, base, alt_avalon_timer_sc_irq);
#endif  
}
 8051cc8:	0001883a 	nop
 8051ccc:	e037883a 	mov	sp,fp
 8051cd0:	dfc00117 	ldw	ra,4(sp)
 8051cd4:	df000017 	ldw	fp,0(sp)
 8051cd8:	dec00204 	addi	sp,sp,8
 8051cdc:	f800283a 	ret

08051ce0 <alt_adc_irq>:
 * alt_adc_irq()
 *
 * Interrupt handler for the altera modular adc.
 */
static void alt_adc_irq(void *context)
{
 8051ce0:	defff904 	addi	sp,sp,-28
 8051ce4:	dfc00615 	stw	ra,24(sp)
 8051ce8:	df000515 	stw	fp,20(sp)
 8051cec:	df000504 	addi	fp,sp,20
 8051cf0:	e13fff15 	stw	r4,-4(fp)
    alt_modular_adc_dev *dev = (alt_modular_adc_dev *) context;
 8051cf4:	e0bfff17 	ldw	r2,-4(fp)
 8051cf8:	e0bffb15 	stw	r2,-20(fp)
    alt_irq_context cpu_sr = 0;
 8051cfc:	e03ffc15 	stw	zero,-16(fp)

	if(NULL != dev)
 8051d00:	e0bffb17 	ldw	r2,-20(fp)
 8051d04:	10001a26 	beq	r2,zero,8051d70 <alt_adc_irq+0x90>
static ALT_INLINE alt_irq_context ALT_ALWAYS_INLINE 
       alt_irq_disable_all (void)
{
  alt_irq_context context;

  NIOS2_READ_STATUS (context);
 8051d08:	0005303a 	rdctl	r2,status
 8051d0c:	e0bffe15 	stw	r2,-8(fp)

  NIOS2_WRITE_STATUS (context & ~NIOS2_STATUS_PIE_MSK);
 8051d10:	e0fffe17 	ldw	r3,-8(fp)
 8051d14:	00bfff84 	movi	r2,-2
 8051d18:	1884703a 	and	r2,r3,r2
 8051d1c:	1001703a 	wrctl	status,r2
  
  return context;
 8051d20:	e0bffe17 	ldw	r2,-8(fp)
	{
	    cpu_sr = alt_irq_disable_all();
 8051d24:	e0bffc15 	stw	r2,-16(fp)
		* Other interrupts are explicitly disabled if callbacks
		* are registered because there is no guarantee that they are 
		* pre-emption-safe. This allows the driver to support 
		* interrupt pre-emption.
		*/
		if(dev->callback) 
 8051d28:	e0bffb17 	ldw	r2,-20(fp)
 8051d2c:	10800a17 	ldw	r2,40(r2)
 8051d30:	10000626 	beq	r2,zero,8051d4c <alt_adc_irq+0x6c>
		{
			dev->callback (dev->callback_context);
 8051d34:	e0bffb17 	ldw	r2,-20(fp)
 8051d38:	10800a17 	ldw	r2,40(r2)
 8051d3c:	e0fffb17 	ldw	r3,-20(fp)
 8051d40:	18c00b17 	ldw	r3,44(r3)
 8051d44:	1809883a 	mov	r4,r3
 8051d48:	103ee83a 	callr	r2
		}
    
		/* clear the IRQ status */
		adc_clear_interrupt_status(dev->sample_store_base);
 8051d4c:	e0bffb17 	ldw	r2,-20(fp)
 8051d50:	10800c17 	ldw	r2,48(r2)
 8051d54:	1009883a 	mov	r4,r2
 8051d58:	805218c0 	call	805218c <adc_clear_interrupt_status>
 8051d5c:	e0bffc17 	ldw	r2,-16(fp)
 8051d60:	e0bffd15 	stw	r2,-12(fp)
  status &= ~NIOS2_STATUS_PIE_MSK;
  status |= (context & NIOS2_STATUS_PIE_MSK);
  
  NIOS2_WRITE_STATUS (status);
#else
  NIOS2_WRITE_STATUS (context);
 8051d64:	e0bffd17 	ldw	r2,-12(fp)
 8051d68:	1001703a 	wrctl	status,r2
	    
		alt_irq_enable_all(cpu_sr);
	}
	
    return;
 8051d6c:	0001883a 	nop
 8051d70:	0001883a 	nop
}
 8051d74:	e037883a 	mov	sp,fp
 8051d78:	dfc00117 	ldw	ra,4(sp)
 8051d7c:	df000017 	ldw	fp,0(sp)
 8051d80:	dec00204 	addi	sp,sp,8
 8051d84:	f800283a 	ret

08051d88 <alt_adc_word_read>:
 * Returns:
 * 0 -> success
 * -EINVAL -> Invalid arguments
**/
int alt_adc_word_read (alt_u32 sample_store_base, alt_u32* dest_ptr, alt_u32 len)
{
 8051d88:	defff804 	addi	sp,sp,-32
 8051d8c:	df000715 	stw	fp,28(sp)
 8051d90:	df000704 	addi	fp,sp,28
 8051d94:	e13ffd15 	stw	r4,-12(fp)
 8051d98:	e17ffe15 	stw	r5,-8(fp)
 8051d9c:	e1bfff15 	stw	r6,-4(fp)
    alt_u32 word = 0;
 8051da0:	e03ff915 	stw	zero,-28(fp)
    alt_u32 word_length = len;
 8051da4:	e0bfff17 	ldw	r2,-4(fp)
 8051da8:	e0bffb15 	stw	r2,-20(fp)
    alt_u32* dest_buf = dest_ptr;
 8051dac:	e0bffe17 	ldw	r2,-8(fp)
 8051db0:	e0bffa15 	stw	r2,-24(fp)
    alt_u32 base = sample_store_base;
 8051db4:	e0bffd17 	ldw	r2,-12(fp)
 8051db8:	e0bffc15 	stw	r2,-16(fp)
     
    /* return -EINVAL if invalid arguments passed into function */
    if(NULL == dest_buf)
 8051dbc:	e0bffa17 	ldw	r2,-24(fp)
 8051dc0:	1000021e 	bne	r2,zero,8051dcc <alt_adc_word_read+0x44>
    {
    	return -EINVAL;
 8051dc4:	00bffa84 	movi	r2,-22
 8051dc8:	00001606 	br	8051e24 <alt_adc_word_read+0x9c>
    }

    for(word = 0; word < word_length; word++)
 8051dcc:	e03ff915 	stw	zero,-28(fp)
 8051dd0:	00001006 	br	8051e14 <alt_adc_word_read+0x8c>
    {
       *dest_buf = IORD_32DIRECT((base + (word * 4)),0);
 8051dd4:	e0bff917 	ldw	r2,-28(fp)
 8051dd8:	1085883a 	add	r2,r2,r2
 8051ddc:	1085883a 	add	r2,r2,r2
 8051de0:	1007883a 	mov	r3,r2
 8051de4:	e0bffc17 	ldw	r2,-16(fp)
 8051de8:	1885883a 	add	r2,r3,r2
 8051dec:	10800037 	ldwio	r2,0(r2)
 8051df0:	1007883a 	mov	r3,r2
 8051df4:	e0bffa17 	ldw	r2,-24(fp)
 8051df8:	10c00015 	stw	r3,0(r2)

       dest_buf++;
 8051dfc:	e0bffa17 	ldw	r2,-24(fp)
 8051e00:	10800104 	addi	r2,r2,4
 8051e04:	e0bffa15 	stw	r2,-24(fp)
    if(NULL == dest_buf)
    {
    	return -EINVAL;
    }

    for(word = 0; word < word_length; word++)
 8051e08:	e0bff917 	ldw	r2,-28(fp)
 8051e0c:	10800044 	addi	r2,r2,1
 8051e10:	e0bff915 	stw	r2,-28(fp)
 8051e14:	e0fff917 	ldw	r3,-28(fp)
 8051e18:	e0bffb17 	ldw	r2,-20(fp)
 8051e1c:	18bfed36 	bltu	r3,r2,8051dd4 <__alt_data_end+0xfffe9d34>
       *dest_buf = IORD_32DIRECT((base + (word * 4)),0);

       dest_buf++;
    }

    return 0;
 8051e20:	0005883a 	mov	r2,zero

}
 8051e24:	e037883a 	mov	sp,fp
 8051e28:	df000017 	ldw	fp,0(sp)
 8051e2c:	dec00104 	addi	sp,sp,4
 8051e30:	f800283a 	ret

08051e34 <altera_modular_adc_init>:


void altera_modular_adc_init(alt_modular_adc_dev* dev, alt_32 ic_id, alt_32 irq)
{
 8051e34:	defffa04 	addi	sp,sp,-24
 8051e38:	dfc00515 	stw	ra,20(sp)
 8051e3c:	df000415 	stw	fp,16(sp)
 8051e40:	df000404 	addi	fp,sp,16
 8051e44:	e13ffd15 	stw	r4,-12(fp)
 8051e48:	e17ffe15 	stw	r5,-8(fp)
 8051e4c:	e1bfff15 	stw	r6,-4(fp)
    extern alt_llist altera_modular_adc_list;
    alt_dev_llist_insert((alt_dev_llist*) dev, &altera_modular_adc_list);
 8051e50:	d1601104 	addi	r5,gp,-32700
 8051e54:	e13ffd17 	ldw	r4,-12(fp)
 8051e58:	80536580 	call	8053658 <alt_dev_llist_insert>
	
	if ((0 <= ic_id) && (0 <= irq))
 8051e5c:	e0bffe17 	ldw	r2,-8(fp)
 8051e60:	10000b16 	blt	r2,zero,8051e90 <altera_modular_adc_init+0x5c>
 8051e64:	e0bfff17 	ldw	r2,-4(fp)
 8051e68:	10000916 	blt	r2,zero,8051e90 <altera_modular_adc_init+0x5c>
	{
          /* Install IRQ handler */
	  #ifdef ALT_ENHANCED_INTERRUPT_API_PRESENT
              alt_ic_isr_register(ic_id, irq, alt_adc_irq, 
 8051e6c:	e0bffe17 	ldw	r2,-8(fp)
 8051e70:	e0ffff17 	ldw	r3,-4(fp)
 8051e74:	d8000015 	stw	zero,0(sp)
 8051e78:	e1fffd17 	ldw	r7,-12(fp)
 8051e7c:	01820174 	movhi	r6,2053
 8051e80:	31873804 	addi	r6,r6,7392
 8051e84:	180b883a 	mov	r5,r3
 8051e88:	1009883a 	mov	r4,r2
 8051e8c:	80502380 	call	8050238 <alt_ic_isr_register>
                      dev, NULL);
          #else
             alt_irq_register(irq, dev, alt_adc_irq);
          #endif 
	}
}
 8051e90:	0001883a 	nop
 8051e94:	e037883a 	mov	sp,fp
 8051e98:	dfc00117 	ldw	ra,4(sp)
 8051e9c:	df000017 	ldw	fp,0(sp)
 8051ea0:	dec00204 	addi	sp,sp,8
 8051ea4:	f800283a 	ret

08051ea8 <alt_adc_register_callback>:
void alt_adc_register_callback(
	alt_modular_adc_dev *dev,
	alt_adc_callback callback,
	void *context,
	alt_u32 sample_store_base)
{
 8051ea8:	defffa04 	addi	sp,sp,-24
 8051eac:	dfc00515 	stw	ra,20(sp)
 8051eb0:	df000415 	stw	fp,16(sp)
 8051eb4:	df000404 	addi	fp,sp,16
 8051eb8:	e13ffc15 	stw	r4,-16(fp)
 8051ebc:	e17ffd15 	stw	r5,-12(fp)
 8051ec0:	e1bffe15 	stw	r6,-8(fp)
 8051ec4:	e1ffff15 	stw	r7,-4(fp)
    dev->callback         = callback;
 8051ec8:	e0bffc17 	ldw	r2,-16(fp)
 8051ecc:	e0fffd17 	ldw	r3,-12(fp)
 8051ed0:	10c00a15 	stw	r3,40(r2)
    dev->callback_context = context;
 8051ed4:	e0bffc17 	ldw	r2,-16(fp)
 8051ed8:	e0fffe17 	ldw	r3,-8(fp)
 8051edc:	10c00b15 	stw	r3,44(r2)
    dev->sample_store_base = sample_store_base;
 8051ee0:	e0bffc17 	ldw	r2,-16(fp)
 8051ee4:	e0ffff17 	ldw	r3,-4(fp)
 8051ee8:	10c00c15 	stw	r3,48(r2)
	
	if(NULL != callback)
 8051eec:	e0bffd17 	ldw	r2,-12(fp)
 8051ef0:	10000726 	beq	r2,zero,8051f10 <alt_adc_register_callback+0x68>
	{
                adc_clear_interrupt_status(sample_store_base);
 8051ef4:	e0bfff17 	ldw	r2,-4(fp)
 8051ef8:	1009883a 	mov	r4,r2
 8051efc:	805218c0 	call	805218c <adc_clear_interrupt_status>
		adc_interrupt_enable(sample_store_base);
 8051f00:	e0bfff17 	ldw	r2,-4(fp)
 8051f04:	1009883a 	mov	r4,r2
 8051f08:	80521000 	call	8052100 <adc_interrupt_enable>
                adc_clear_interrupt_status(sample_store_base);
	}
	
    
	
    return ;
 8051f0c:	00000706 	br	8051f2c <alt_adc_register_callback+0x84>
                adc_clear_interrupt_status(sample_store_base);
		adc_interrupt_enable(sample_store_base);
	}
	else
	{
		adc_interrupt_disable(sample_store_base);
 8051f10:	e0bfff17 	ldw	r2,-4(fp)
 8051f14:	1009883a 	mov	r4,r2
 8051f18:	80521440 	call	8052144 <adc_interrupt_disable>
                adc_clear_interrupt_status(sample_store_base);
 8051f1c:	e0bfff17 	ldw	r2,-4(fp)
 8051f20:	1009883a 	mov	r4,r2
 8051f24:	805218c0 	call	805218c <adc_clear_interrupt_status>
	}
	
    
	
    return ;
 8051f28:	0001883a 	nop
}
 8051f2c:	e037883a 	mov	sp,fp
 8051f30:	dfc00117 	ldw	ra,4(sp)
 8051f34:	df000017 	ldw	fp,0(sp)
 8051f38:	dec00204 	addi	sp,sp,8
 8051f3c:	f800283a 	ret

08051f40 <altera_modular_adc_open>:

alt_modular_adc_dev* altera_modular_adc_open (const char *name)
{
 8051f40:	defffc04 	addi	sp,sp,-16
 8051f44:	dfc00315 	stw	ra,12(sp)
 8051f48:	df000215 	stw	fp,8(sp)
 8051f4c:	df000204 	addi	fp,sp,8
 8051f50:	e13fff15 	stw	r4,-4(fp)
    alt_modular_adc_dev *dev = NULL;
 8051f54:	e03ffe15 	stw	zero,-8(fp)

    /* Find requested device */
    dev = (alt_modular_adc_dev*) alt_find_dev (name, &altera_modular_adc_list);
 8051f58:	d1601104 	addi	r5,gp,-32700
 8051f5c:	e13fff17 	ldw	r4,-4(fp)
 8051f60:	80537bc0 	call	80537bc <alt_find_dev>
 8051f64:	e0bffe15 	stw	r2,-8(fp)

    return dev;
 8051f68:	e0bffe17 	ldw	r2,-8(fp)
}
 8051f6c:	e037883a 	mov	sp,fp
 8051f70:	dfc00117 	ldw	ra,4(sp)
 8051f74:	df000017 	ldw	fp,0(sp)
 8051f78:	dec00204 	addi	sp,sp,8
 8051f7c:	f800283a 	ret

08051f80 <adc_stop>:

void adc_stop(int sequencer_base)
{
 8051f80:	defffe04 	addi	sp,sp,-8
 8051f84:	df000115 	stw	fp,4(sp)
 8051f88:	df000104 	addi	fp,sp,4
 8051f8c:	e13fff15 	stw	r4,-4(fp)
    ALTERA_MODULAR_ADC_SEQUENCER_STOP(sequencer_base);
 8051f90:	e0bfff17 	ldw	r2,-4(fp)
 8051f94:	e0ffff17 	ldw	r3,-4(fp)
 8051f98:	19000037 	ldwio	r4,0(r3)
 8051f9c:	00ffff84 	movi	r3,-2
 8051fa0:	20c6703a 	and	r3,r4,r3
 8051fa4:	10c00035 	stwio	r3,0(r2)
 8051fa8:	0001883a 	nop
 8051fac:	e0bfff17 	ldw	r2,-4(fp)
 8051fb0:	10800037 	ldwio	r2,0(r2)
 8051fb4:	1080004c 	andi	r2,r2,1
 8051fb8:	103ffc1e 	bne	r2,zero,8051fac <__alt_data_end+0xfffe9f0c>
}
 8051fbc:	0001883a 	nop
 8051fc0:	e037883a 	mov	sp,fp
 8051fc4:	df000017 	ldw	fp,0(sp)
 8051fc8:	dec00104 	addi	sp,sp,4
 8051fcc:	f800283a 	ret

08051fd0 <adc_start>:

void adc_start(int sequencer_base)
{
 8051fd0:	defffe04 	addi	sp,sp,-8
 8051fd4:	df000115 	stw	fp,4(sp)
 8051fd8:	df000104 	addi	fp,sp,4
 8051fdc:	e13fff15 	stw	r4,-4(fp)
    ALTERA_MODULAR_ADC_SEQUENCER_START(sequencer_base);
 8051fe0:	e0bfff17 	ldw	r2,-4(fp)
 8051fe4:	e0ffff17 	ldw	r3,-4(fp)
 8051fe8:	18c00037 	ldwio	r3,0(r3)
 8051fec:	18c00054 	ori	r3,r3,1
 8051ff0:	10c00035 	stwio	r3,0(r2)
}
 8051ff4:	0001883a 	nop
 8051ff8:	e037883a 	mov	sp,fp
 8051ffc:	df000017 	ldw	fp,0(sp)
 8052000:	dec00104 	addi	sp,sp,4
 8052004:	f800283a 	ret

08052008 <adc_set_mode_run_once>:

void adc_set_mode_run_once(int sequencer_base)
{
 8052008:	defffe04 	addi	sp,sp,-8
 805200c:	df000115 	stw	fp,4(sp)
 8052010:	df000104 	addi	fp,sp,4
 8052014:	e13fff15 	stw	r4,-4(fp)
    /* Note: Stop the ADC before calling this function,
       changing ADC mode while RUN bit is set has no effect. */
    ALTERA_MODULAR_ADC_SEQUENCER_MODE_RUN_ONCE(sequencer_base);
 8052018:	e0bfff17 	ldw	r2,-4(fp)
 805201c:	e0ffff17 	ldw	r3,-4(fp)
 8052020:	19000037 	ldwio	r4,0(r3)
 8052024:	00fffc44 	movi	r3,-15
 8052028:	20c6703a 	and	r3,r4,r3
 805202c:	18c00094 	ori	r3,r3,2
 8052030:	10c00035 	stwio	r3,0(r2)
}
 8052034:	0001883a 	nop
 8052038:	e037883a 	mov	sp,fp
 805203c:	df000017 	ldw	fp,0(sp)
 8052040:	dec00104 	addi	sp,sp,4
 8052044:	f800283a 	ret

08052048 <adc_set_mode_run_continuously>:

void adc_set_mode_run_continuously(int sequencer_base)
{
 8052048:	defffe04 	addi	sp,sp,-8
 805204c:	df000115 	stw	fp,4(sp)
 8052050:	df000104 	addi	fp,sp,4
 8052054:	e13fff15 	stw	r4,-4(fp)
    /* Note: Stop the ADC before calling this function,
       changing ADC mode while RUN bit is set has no effect. */
    ALTERA_MODULAR_ADC_SEQUENCER_MODE_RUN_CONTINUOUSLY(sequencer_base);
 8052058:	e0bfff17 	ldw	r2,-4(fp)
 805205c:	e0ffff17 	ldw	r3,-4(fp)
 8052060:	19000037 	ldwio	r4,0(r3)
 8052064:	00fffc44 	movi	r3,-15
 8052068:	20c6703a 	and	r3,r4,r3
 805206c:	10c00035 	stwio	r3,0(r2)
}
 8052070:	0001883a 	nop
 8052074:	e037883a 	mov	sp,fp
 8052078:	df000017 	ldw	fp,0(sp)
 805207c:	dec00104 	addi	sp,sp,4
 8052080:	f800283a 	ret

08052084 <adc_recalibrate>:

void adc_recalibrate(int sequencer_base)
{
 8052084:	defffc04 	addi	sp,sp,-16
 8052088:	dfc00315 	stw	ra,12(sp)
 805208c:	df000215 	stw	fp,8(sp)
 8052090:	df000204 	addi	fp,sp,8
 8052094:	e13fff15 	stw	r4,-4(fp)
         2. Start the ADC Sequencer Core.
         5. Poll for RUN bit to be clear
         6. Restore CMD register
     */
    alt_u32 backup_cmd_reg;
    backup_cmd_reg = IORD_ALTERA_MODULAR_ADC_SEQUENCER_CMD_REG(sequencer_base);
 8052098:	e0bfff17 	ldw	r2,-4(fp)
 805209c:	10800037 	ldwio	r2,0(r2)
 80520a0:	e0bffe15 	stw	r2,-8(fp)
    adc_stop(sequencer_base);
 80520a4:	e13fff17 	ldw	r4,-4(fp)
 80520a8:	8051f800 	call	8051f80 <adc_stop>
    ALTERA_MODULAR_ADC_SEQUENCER_MODE_RUN_RECALIBRATION(sequencer_base);
 80520ac:	e0bfff17 	ldw	r2,-4(fp)
 80520b0:	e0ffff17 	ldw	r3,-4(fp)
 80520b4:	18c00037 	ldwio	r3,0(r3)
 80520b8:	18c00394 	ori	r3,r3,14
 80520bc:	10c00035 	stwio	r3,0(r2)
    adc_start(sequencer_base);
 80520c0:	e13fff17 	ldw	r4,-4(fp)
 80520c4:	8051fd00 	call	8051fd0 <adc_start>
    while(IORD_ALTERA_MODULAR_ADC_SEQUENCER_CMD_REG(sequencer_base)
 80520c8:	0001883a 	nop
 80520cc:	e0bfff17 	ldw	r2,-4(fp)
 80520d0:	10800037 	ldwio	r2,0(r2)
             & ALTERA_MODULAR_ADC_SEQUENCER_CMD_RUN_MSK);
 80520d4:	1080004c 	andi	r2,r2,1
    alt_u32 backup_cmd_reg;
    backup_cmd_reg = IORD_ALTERA_MODULAR_ADC_SEQUENCER_CMD_REG(sequencer_base);
    adc_stop(sequencer_base);
    ALTERA_MODULAR_ADC_SEQUENCER_MODE_RUN_RECALIBRATION(sequencer_base);
    adc_start(sequencer_base);
    while(IORD_ALTERA_MODULAR_ADC_SEQUENCER_CMD_REG(sequencer_base)
 80520d8:	103ffc1e 	bne	r2,zero,80520cc <__alt_data_end+0xfffea02c>
             & ALTERA_MODULAR_ADC_SEQUENCER_CMD_RUN_MSK);
    IOWR_ALTERA_MODULAR_ADC_SEQUENCER_CMD_REG(sequencer_base, backup_cmd_reg);
 80520dc:	e0bfff17 	ldw	r2,-4(fp)
 80520e0:	e0fffe17 	ldw	r3,-8(fp)
 80520e4:	10c00035 	stwio	r3,0(r2)
}
 80520e8:	0001883a 	nop
 80520ec:	e037883a 	mov	sp,fp
 80520f0:	dfc00117 	ldw	ra,4(sp)
 80520f4:	df000017 	ldw	fp,0(sp)
 80520f8:	dec00204 	addi	sp,sp,8
 80520fc:	f800283a 	ret

08052100 <adc_interrupt_enable>:

void adc_interrupt_enable(int sample_store_base)
{
 8052100:	defffe04 	addi	sp,sp,-8
 8052104:	df000115 	stw	fp,4(sp)
 8052108:	df000104 	addi	fp,sp,4
 805210c:	e13fff15 	stw	r4,-4(fp)
    ALTERA_MODULAR_ADC_SAMPLE_STORAGE_IRQ_ENABLE(sample_store_base);
 8052110:	e0bfff17 	ldw	r2,-4(fp)
 8052114:	10804004 	addi	r2,r2,256
 8052118:	1007883a 	mov	r3,r2
 805211c:	e0bfff17 	ldw	r2,-4(fp)
 8052120:	10804004 	addi	r2,r2,256
 8052124:	10800037 	ldwio	r2,0(r2)
 8052128:	10800054 	ori	r2,r2,1
 805212c:	18800035 	stwio	r2,0(r3)
}
 8052130:	0001883a 	nop
 8052134:	e037883a 	mov	sp,fp
 8052138:	df000017 	ldw	fp,0(sp)
 805213c:	dec00104 	addi	sp,sp,4
 8052140:	f800283a 	ret

08052144 <adc_interrupt_disable>:

void adc_interrupt_disable(int sample_store_base)
{
 8052144:	defffe04 	addi	sp,sp,-8
 8052148:	df000115 	stw	fp,4(sp)
 805214c:	df000104 	addi	fp,sp,4
 8052150:	e13fff15 	stw	r4,-4(fp)
    ALTERA_MODULAR_ADC_SAMPLE_STORAGE_IRQ_DISABLE(sample_store_base);
 8052154:	e0bfff17 	ldw	r2,-4(fp)
 8052158:	10804004 	addi	r2,r2,256
 805215c:	1009883a 	mov	r4,r2
 8052160:	e0bfff17 	ldw	r2,-4(fp)
 8052164:	10804004 	addi	r2,r2,256
 8052168:	10c00037 	ldwio	r3,0(r2)
 805216c:	00bfff84 	movi	r2,-2
 8052170:	1884703a 	and	r2,r3,r2
 8052174:	20800035 	stwio	r2,0(r4)
}
 8052178:	0001883a 	nop
 805217c:	e037883a 	mov	sp,fp
 8052180:	df000017 	ldw	fp,0(sp)
 8052184:	dec00104 	addi	sp,sp,4
 8052188:	f800283a 	ret

0805218c <adc_clear_interrupt_status>:

void adc_clear_interrupt_status(int sample_store_base)
{
 805218c:	defffe04 	addi	sp,sp,-8
 8052190:	df000115 	stw	fp,4(sp)
 8052194:	df000104 	addi	fp,sp,4
 8052198:	e13fff15 	stw	r4,-4(fp)
    CLEAR_ALTERA_MODULAR_ADC_SAMPLE_STORAGE_IRQ_STATUS(sample_store_base);
 805219c:	e0bfff17 	ldw	r2,-4(fp)
 80521a0:	10804104 	addi	r2,r2,260
 80521a4:	1007883a 	mov	r3,r2
 80521a8:	e0bfff17 	ldw	r2,-4(fp)
 80521ac:	10804104 	addi	r2,r2,260
 80521b0:	10800037 	ldwio	r2,0(r2)
 80521b4:	10800054 	ori	r2,r2,1
 80521b8:	18800035 	stwio	r2,0(r3)
}
 80521bc:	0001883a 	nop
 80521c0:	e037883a 	mov	sp,fp
 80521c4:	df000017 	ldw	fp,0(sp)
 80521c8:	dec00104 	addi	sp,sp,4
 80521cc:	f800283a 	ret

080521d0 <adc_interrupt_asserted>:

int adc_interrupt_asserted(int sample_store_base)
{
 80521d0:	defffe04 	addi	sp,sp,-8
 80521d4:	df000115 	stw	fp,4(sp)
 80521d8:	df000104 	addi	fp,sp,4
 80521dc:	e13fff15 	stw	r4,-4(fp)
    return((READ_ALTERA_MODULAR_ADC_SAMPLE_STORAGE_IRQ_STATUS(sample_store_base)==1) ? -1 : 0);
 80521e0:	e0bfff17 	ldw	r2,-4(fp)
 80521e4:	10804104 	addi	r2,r2,260
 80521e8:	10800037 	ldwio	r2,0(r2)
 80521ec:	1080004c 	andi	r2,r2,1
 80521f0:	10000226 	beq	r2,zero,80521fc <adc_interrupt_asserted+0x2c>
 80521f4:	00bfffc4 	movi	r2,-1
 80521f8:	00000106 	br	8052200 <adc_interrupt_asserted+0x30>
 80521fc:	0005883a 	mov	r2,zero
}
 8052200:	e037883a 	mov	sp,fp
 8052204:	df000017 	ldw	fp,0(sp)
 8052208:	dec00104 	addi	sp,sp,4
 805220c:	f800283a 	ret

08052210 <adc_wait_for_interrupt>:

void adc_wait_for_interrupt(int sample_store_base)
{
 8052210:	defffe04 	addi	sp,sp,-8
 8052214:	df000115 	stw	fp,4(sp)
 8052218:	df000104 	addi	fp,sp,4
 805221c:	e13fff15 	stw	r4,-4(fp)
    WAIT_FOR_ALTERA_MODULAR_ADC_SAMPLE_STORAGE_IRQ(sample_store_base);
 8052220:	0001883a 	nop
 8052224:	e0bfff17 	ldw	r2,-4(fp)
 8052228:	10804104 	addi	r2,r2,260
 805222c:	10800037 	ldwio	r2,0(r2)
 8052230:	1080004c 	andi	r2,r2,1
 8052234:	103ffb26 	beq	r2,zero,8052224 <__alt_data_end+0xfffea184>
}
 8052238:	0001883a 	nop
 805223c:	e037883a 	mov	sp,fp
 8052240:	df000017 	ldw	fp,0(sp)
 8052244:	dec00104 	addi	sp,sp,4
 8052248:	f800283a 	ret

0805224c <alt_up_char_buffer_init>:
#include <priv/alt_file.h>

#include "altera_up_avalon_video_character_buffer_with_dma.h"
#include "altera_up_avalon_video_character_buffer_with_dma_regs.h"

void alt_up_char_buffer_init(alt_up_char_buffer_dev *char_buffer) {
 805224c:	defffc04 	addi	sp,sp,-16
 8052250:	dfc00315 	stw	ra,12(sp)
 8052254:	df000215 	stw	fp,8(sp)
 8052258:	df000204 	addi	fp,sp,8
 805225c:	e13fff15 	stw	r4,-4(fp)
	char * name;
	name = (char *) char_buffer->dev.name;
 8052260:	e0bfff17 	ldw	r2,-4(fp)
 8052264:	10800217 	ldw	r2,8(r2)
 8052268:	e0bffe15 	stw	r2,-8(fp)

	for ( ; (*name) != '\0'; name++) {
 805226c:	00000b06 	br	805229c <alt_up_char_buffer_init+0x50>
		if (strcmp(name, "_avalon_char_buffer_slave") == 0) {
 8052270:	01420174 	movhi	r5,2053
 8052274:	29520204 	addi	r5,r5,18440
 8052278:	e13ffe17 	ldw	r4,-8(fp)
 805227c:	804c3180 	call	804c318 <strcmp>
 8052280:	1000031e 	bne	r2,zero,8052290 <alt_up_char_buffer_init+0x44>
			(*name) = '\0';
 8052284:	e0bffe17 	ldw	r2,-8(fp)
 8052288:	10000005 	stb	zero,0(r2)
			break;
 805228c:	00000906 	br	80522b4 <alt_up_char_buffer_init+0x68>

void alt_up_char_buffer_init(alt_up_char_buffer_dev *char_buffer) {
	char * name;
	name = (char *) char_buffer->dev.name;

	for ( ; (*name) != '\0'; name++) {
 8052290:	e0bffe17 	ldw	r2,-8(fp)
 8052294:	10800044 	addi	r2,r2,1
 8052298:	e0bffe15 	stw	r2,-8(fp)
 805229c:	e0bffe17 	ldw	r2,-8(fp)
 80522a0:	10800003 	ldbu	r2,0(r2)
 80522a4:	10803fcc 	andi	r2,r2,255
 80522a8:	1080201c 	xori	r2,r2,128
 80522ac:	10bfe004 	addi	r2,r2,-128
 80522b0:	103fef1e 	bne	r2,zero,8052270 <__alt_data_end+0xfffea1d0>
			(*name) = '\0';
			break;
		}
	}
	
	return;
 80522b4:	0001883a 	nop
}
 80522b8:	e037883a 	mov	sp,fp
 80522bc:	dfc00117 	ldw	ra,4(sp)
 80522c0:	df000017 	ldw	fp,0(sp)
 80522c4:	dec00204 	addi	sp,sp,8
 80522c8:	f800283a 	ret

080522cc <alt_up_char_buffer_open_dev>:

alt_up_char_buffer_dev* alt_up_char_buffer_open_dev(const char* name) {
 80522cc:	defffc04 	addi	sp,sp,-16
 80522d0:	dfc00315 	stw	ra,12(sp)
 80522d4:	df000215 	stw	fp,8(sp)
 80522d8:	df000204 	addi	fp,sp,8
 80522dc:	e13fff15 	stw	r4,-4(fp)
  // find the device from the device list 
  // (see altera_hal/HAL/inc/priv/alt_file.h 
  // and altera_hal/HAL/src/alt_find_dev.c 
  // for details)
  alt_up_char_buffer_dev *dev = (alt_up_char_buffer_dev *)alt_find_dev(name, &alt_dev_list);
 80522e0:	d1600904 	addi	r5,gp,-32732
 80522e4:	e13fff17 	ldw	r4,-4(fp)
 80522e8:	80537bc0 	call	80537bc <alt_find_dev>
 80522ec:	e0bffe15 	stw	r2,-8(fp)

  return dev;
 80522f0:	e0bffe17 	ldw	r2,-8(fp)
}
 80522f4:	e037883a 	mov	sp,fp
 80522f8:	dfc00117 	ldw	ra,4(sp)
 80522fc:	df000017 	ldw	fp,0(sp)
 8052300:	dec00204 	addi	sp,sp,8
 8052304:	f800283a 	ret

08052308 <alt_up_char_buffer_draw>:

int alt_up_char_buffer_draw(alt_up_char_buffer_dev *char_buffer, unsigned char ch, 
	unsigned int x, unsigned int y) {
 8052308:	defffa04 	addi	sp,sp,-24
 805230c:	df000515 	stw	fp,20(sp)
 8052310:	df000504 	addi	fp,sp,20
 8052314:	e13ffc15 	stw	r4,-16(fp)
 8052318:	2805883a 	mov	r2,r5
 805231c:	e1bffe15 	stw	r6,-8(fp)
 8052320:	e1ffff15 	stw	r7,-4(fp)
 8052324:	e0bffd05 	stb	r2,-12(fp)
	// boundary check
	if (x >= char_buffer->x_resolution || y >= char_buffer->y_resolution )
 8052328:	e0bffc17 	ldw	r2,-16(fp)
 805232c:	10800c17 	ldw	r2,48(r2)
 8052330:	e0fffe17 	ldw	r3,-8(fp)
 8052334:	1880042e 	bgeu	r3,r2,8052348 <alt_up_char_buffer_draw+0x40>
 8052338:	e0bffc17 	ldw	r2,-16(fp)
 805233c:	10800d17 	ldw	r2,52(r2)
 8052340:	e0ffff17 	ldw	r3,-4(fp)
 8052344:	18800236 	bltu	r3,r2,8052350 <alt_up_char_buffer_draw+0x48>
		return -1;
 8052348:	00bfffc4 	movi	r2,-1
 805234c:	00001d06 	br	80523c4 <alt_up_char_buffer_draw+0xbc>
	
	unsigned int addr = 0;
 8052350:	e03ffb15 	stw	zero,-20(fp)
	addr |= ((x & char_buffer->x_coord_mask) << char_buffer->x_coord_offset);
 8052354:	e0bffc17 	ldw	r2,-16(fp)
 8052358:	10c00f17 	ldw	r3,60(r2)
 805235c:	e0bffe17 	ldw	r2,-8(fp)
 8052360:	1886703a 	and	r3,r3,r2
 8052364:	e0bffc17 	ldw	r2,-16(fp)
 8052368:	10800e17 	ldw	r2,56(r2)
 805236c:	1884983a 	sll	r2,r3,r2
 8052370:	e0fffb17 	ldw	r3,-20(fp)
 8052374:	1884b03a 	or	r2,r3,r2
 8052378:	e0bffb15 	stw	r2,-20(fp)
	addr |= ((y & char_buffer->y_coord_mask) << char_buffer->y_coord_offset);
 805237c:	e0bffc17 	ldw	r2,-16(fp)
 8052380:	10c01117 	ldw	r3,68(r2)
 8052384:	e0bfff17 	ldw	r2,-4(fp)
 8052388:	1886703a 	and	r3,r3,r2
 805238c:	e0bffc17 	ldw	r2,-16(fp)
 8052390:	10801017 	ldw	r2,64(r2)
 8052394:	1884983a 	sll	r2,r3,r2
 8052398:	e0fffb17 	ldw	r3,-20(fp)
 805239c:	1884b03a 	or	r2,r3,r2
 80523a0:	e0bffb15 	stw	r2,-20(fp)
	IOWR_8DIRECT(char_buffer->buffer_base, addr, ch);
 80523a4:	e0bffc17 	ldw	r2,-16(fp)
 80523a8:	10c00b17 	ldw	r3,44(r2)
 80523ac:	e0bffb17 	ldw	r2,-20(fp)
 80523b0:	1885883a 	add	r2,r3,r2
 80523b4:	1007883a 	mov	r3,r2
 80523b8:	e0bffd03 	ldbu	r2,-12(fp)
 80523bc:	18800025 	stbio	r2,0(r3)

	return 0;
 80523c0:	0005883a 	mov	r2,zero
}
 80523c4:	e037883a 	mov	sp,fp
 80523c8:	df000017 	ldw	fp,0(sp)
 80523cc:	dec00104 	addi	sp,sp,4
 80523d0:	f800283a 	ret

080523d4 <alt_up_char_buffer_string>:

int alt_up_char_buffer_string(alt_up_char_buffer_dev *char_buffer, const char *ptr, 
	unsigned int x, unsigned int y) {
 80523d4:	defffa04 	addi	sp,sp,-24
 80523d8:	df000515 	stw	fp,20(sp)
 80523dc:	df000504 	addi	fp,sp,20
 80523e0:	e13ffc15 	stw	r4,-16(fp)
 80523e4:	e17ffd15 	stw	r5,-12(fp)
 80523e8:	e1bffe15 	stw	r6,-8(fp)
 80523ec:	e1ffff15 	stw	r7,-4(fp)
	// boundary check
	if (x >= char_buffer->x_resolution || y >= char_buffer->y_resolution )
 80523f0:	e0bffc17 	ldw	r2,-16(fp)
 80523f4:	10800c17 	ldw	r2,48(r2)
 80523f8:	e0fffe17 	ldw	r3,-8(fp)
 80523fc:	1880042e 	bgeu	r3,r2,8052410 <alt_up_char_buffer_string+0x3c>
 8052400:	e0bffc17 	ldw	r2,-16(fp)
 8052404:	10800d17 	ldw	r2,52(r2)
 8052408:	e0ffff17 	ldw	r3,-4(fp)
 805240c:	18800236 	bltu	r3,r2,8052418 <alt_up_char_buffer_string+0x44>
		return -1;
 8052410:	00bfffc4 	movi	r2,-1
 8052414:	00002a06 	br	80524c0 <alt_up_char_buffer_string+0xec>
	
	unsigned int offset = 0;
 8052418:	e03ffb15 	stw	zero,-20(fp)
	offset = (y << char_buffer->y_coord_offset) + x;
 805241c:	e0bffc17 	ldw	r2,-16(fp)
 8052420:	10801017 	ldw	r2,64(r2)
 8052424:	e0ffff17 	ldw	r3,-4(fp)
 8052428:	1886983a 	sll	r3,r3,r2
 805242c:	e0bffe17 	ldw	r2,-8(fp)
 8052430:	1885883a 	add	r2,r3,r2
 8052434:	e0bffb15 	stw	r2,-20(fp)

	while ( *ptr )
 8052438:	00001a06 	br	80524a4 <alt_up_char_buffer_string+0xd0>
	{
		IOWR_8DIRECT(char_buffer->buffer_base, offset, *ptr);
 805243c:	e0bffc17 	ldw	r2,-16(fp)
 8052440:	10c00b17 	ldw	r3,44(r2)
 8052444:	e0bffb17 	ldw	r2,-20(fp)
 8052448:	1885883a 	add	r2,r3,r2
 805244c:	1007883a 	mov	r3,r2
 8052450:	e0bffd17 	ldw	r2,-12(fp)
 8052454:	10800003 	ldbu	r2,0(r2)
 8052458:	10803fcc 	andi	r2,r2,255
 805245c:	1080201c 	xori	r2,r2,128
 8052460:	10bfe004 	addi	r2,r2,-128
 8052464:	18800025 	stbio	r2,0(r3)
		++ptr;
 8052468:	e0bffd17 	ldw	r2,-12(fp)
 805246c:	10800044 	addi	r2,r2,1
 8052470:	e0bffd15 	stw	r2,-12(fp)
		if (++x >= char_buffer->x_resolution)
 8052474:	e0bffe17 	ldw	r2,-8(fp)
 8052478:	10800044 	addi	r2,r2,1
 805247c:	e0bffe15 	stw	r2,-8(fp)
 8052480:	e0bffc17 	ldw	r2,-16(fp)
 8052484:	10800c17 	ldw	r2,48(r2)
 8052488:	e0fffe17 	ldw	r3,-8(fp)
 805248c:	18800236 	bltu	r3,r2,8052498 <alt_up_char_buffer_string+0xc4>
			return -1;
 8052490:	00bfffc4 	movi	r2,-1
 8052494:	00000a06 	br	80524c0 <alt_up_char_buffer_string+0xec>
		++offset;
 8052498:	e0bffb17 	ldw	r2,-20(fp)
 805249c:	10800044 	addi	r2,r2,1
 80524a0:	e0bffb15 	stw	r2,-20(fp)
		return -1;
	
	unsigned int offset = 0;
	offset = (y << char_buffer->y_coord_offset) + x;

	while ( *ptr )
 80524a4:	e0bffd17 	ldw	r2,-12(fp)
 80524a8:	10800003 	ldbu	r2,0(r2)
 80524ac:	10803fcc 	andi	r2,r2,255
 80524b0:	1080201c 	xori	r2,r2,128
 80524b4:	10bfe004 	addi	r2,r2,-128
 80524b8:	103fe01e 	bne	r2,zero,805243c <__alt_data_end+0xfffea39c>
		++ptr;
		if (++x >= char_buffer->x_resolution)
			return -1;
		++offset;
	}
	return 0;
 80524bc:	0005883a 	mov	r2,zero
}
 80524c0:	e037883a 	mov	sp,fp
 80524c4:	df000017 	ldw	fp,0(sp)
 80524c8:	dec00104 	addi	sp,sp,4
 80524cc:	f800283a 	ret

080524d0 <alt_up_char_buffer_clear>:

int alt_up_char_buffer_clear(alt_up_char_buffer_dev *char_buffer) {
 80524d0:	defffe04 	addi	sp,sp,-8
 80524d4:	df000115 	stw	fp,4(sp)
 80524d8:	df000104 	addi	fp,sp,4
 80524dc:	e13fff15 	stw	r4,-4(fp)
	IOWR_ALT_UP_CHAR_BUFFER_CLR_SCRN(char_buffer->ctrl_reg_base, 1);
 80524e0:	e0bfff17 	ldw	r2,-4(fp)
 80524e4:	10800a17 	ldw	r2,40(r2)
 80524e8:	10800084 	addi	r2,r2,2
 80524ec:	1007883a 	mov	r3,r2
 80524f0:	00800044 	movi	r2,1
 80524f4:	18800025 	stbio	r2,0(r3)
	while ((IORD_ALT_UP_CHAR_BUFFER_CLR_SCRN(char_buffer->ctrl_reg_base) & ALT_UP_CHAR_BUFFER_CLR_SCRN_MSK) >> ALT_UP_CHAR_BUFFER_CLR_SCRN_OFST);
 80524f8:	0001883a 	nop
 80524fc:	e0bfff17 	ldw	r2,-4(fp)
 8052500:	10800a17 	ldw	r2,40(r2)
 8052504:	10800084 	addi	r2,r2,2
 8052508:	10800023 	ldbuio	r2,0(r2)
 805250c:	10803fcc 	andi	r2,r2,255
 8052510:	1080004c 	andi	r2,r2,1
 8052514:	103ff91e 	bne	r2,zero,80524fc <__alt_data_end+0xfffea45c>
	return 0;
 8052518:	0005883a 	mov	r2,zero
}
 805251c:	e037883a 	mov	sp,fp
 8052520:	df000017 	ldw	fp,0(sp)
 8052524:	dec00104 	addi	sp,sp,4
 8052528:	f800283a 	ret

0805252c <alt_up_pixel_buffer_dma_open_dev>:

#include "altera_up_avalon_video_pixel_buffer_dma.h"

#define ABS(x)	((x >= 0) ? (x) : (-(x)))

alt_up_pixel_buffer_dma_dev* alt_up_pixel_buffer_dma_open_dev(const char* name) {
 805252c:	defffc04 	addi	sp,sp,-16
 8052530:	dfc00315 	stw	ra,12(sp)
 8052534:	df000215 	stw	fp,8(sp)
 8052538:	df000204 	addi	fp,sp,8
 805253c:	e13fff15 	stw	r4,-4(fp)
  // find the device from the device list 
  // (see altera_hal/HAL/inc/priv/alt_file.h 
  // and altera_hal/HAL/src/alt_find_dev.c 
  // for details)
  alt_up_pixel_buffer_dma_dev *dev = (alt_up_pixel_buffer_dma_dev*)alt_find_dev(name, &alt_dev_list);
 8052540:	d1600904 	addi	r5,gp,-32732
 8052544:	e13fff17 	ldw	r4,-4(fp)
 8052548:	80537bc0 	call	80537bc <alt_find_dev>
 805254c:	e0bffe15 	stw	r2,-8(fp)

  return dev;
 8052550:	e0bffe17 	ldw	r2,-8(fp)
}
 8052554:	e037883a 	mov	sp,fp
 8052558:	dfc00117 	ldw	ra,4(sp)
 805255c:	df000017 	ldw	fp,0(sp)
 8052560:	dec00204 	addi	sp,sp,8
 8052564:	f800283a 	ret

08052568 <alt_up_pixel_buffer_dma_draw>:

int alt_up_pixel_buffer_dma_draw(alt_up_pixel_buffer_dma_dev *pixel_buffer, unsigned int color, unsigned int x, unsigned int y)
/* This function draws a pixel to the back buffer.
 */
{
 8052568:	defff904 	addi	sp,sp,-28
 805256c:	dfc00615 	stw	ra,24(sp)
 8052570:	df000515 	stw	fp,20(sp)
 8052574:	df000504 	addi	fp,sp,20
 8052578:	e13ffc15 	stw	r4,-16(fp)
 805257c:	e17ffd15 	stw	r5,-12(fp)
 8052580:	e1bffe15 	stw	r6,-8(fp)
 8052584:	e1ffff15 	stw	r7,-4(fp)
	// boundary check
	if (x >= pixel_buffer->x_resolution || y >= pixel_buffer->y_resolution )
 8052588:	e0bffc17 	ldw	r2,-16(fp)
 805258c:	10800f17 	ldw	r2,60(r2)
 8052590:	e0fffe17 	ldw	r3,-8(fp)
 8052594:	1880042e 	bgeu	r3,r2,80525a8 <alt_up_pixel_buffer_dma_draw+0x40>
 8052598:	e0bffc17 	ldw	r2,-16(fp)
 805259c:	10801017 	ldw	r2,64(r2)
 80525a0:	e0ffff17 	ldw	r3,-4(fp)
 80525a4:	18800236 	bltu	r3,r2,80525b0 <alt_up_pixel_buffer_dma_draw+0x48>
		return -1;
 80525a8:	00bfffc4 	movi	r2,-1
 80525ac:	00005306 	br	80526fc <alt_up_pixel_buffer_dma_draw+0x194>

	unsigned int addr = 0;
 80525b0:	e03ffb15 	stw	zero,-20(fp)
	/* Check the mode VGA Pixel Buffer is using. */
	if (pixel_buffer->addressing_mode == ALT_UP_PIXEL_BUFFER_XY_ADDRESS_MODE) {
 80525b4:	e0bffc17 	ldw	r2,-16(fp)
 80525b8:	10800d17 	ldw	r2,52(r2)
 80525bc:	1000151e 	bne	r2,zero,8052614 <alt_up_pixel_buffer_dma_draw+0xac>
		/* For X-Y addressing mode, the address format is | unused | Y | X |. So shift bits for coordinates X and Y into their respective locations. */
		addr += ((x & pixel_buffer->x_coord_mask) << pixel_buffer->x_coord_offset);
 80525c0:	e0bffc17 	ldw	r2,-16(fp)
 80525c4:	10c01217 	ldw	r3,72(r2)
 80525c8:	e0bffe17 	ldw	r2,-8(fp)
 80525cc:	1886703a 	and	r3,r3,r2
 80525d0:	e0bffc17 	ldw	r2,-16(fp)
 80525d4:	10801117 	ldw	r2,68(r2)
 80525d8:	1884983a 	sll	r2,r3,r2
 80525dc:	e0fffb17 	ldw	r3,-20(fp)
 80525e0:	1885883a 	add	r2,r3,r2
 80525e4:	e0bffb15 	stw	r2,-20(fp)
		addr += ((y & pixel_buffer->y_coord_mask) << pixel_buffer->y_coord_offset);
 80525e8:	e0bffc17 	ldw	r2,-16(fp)
 80525ec:	10c01417 	ldw	r3,80(r2)
 80525f0:	e0bfff17 	ldw	r2,-4(fp)
 80525f4:	1886703a 	and	r3,r3,r2
 80525f8:	e0bffc17 	ldw	r2,-16(fp)
 80525fc:	10801317 	ldw	r2,76(r2)
 8052600:	1884983a 	sll	r2,r3,r2
 8052604:	e0fffb17 	ldw	r3,-20(fp)
 8052608:	1885883a 	add	r2,r3,r2
 805260c:	e0bffb15 	stw	r2,-20(fp)
 8052610:	00001a06 	br	805267c <alt_up_pixel_buffer_dma_draw+0x114>
	} else {
		/* In a consecutive addressing mode, the pixels are stored in consecutive memory locations. So the address of a pixel at (x,y) can be computed as
		 * (y*x_resolution + x).*/
		addr += ((x & pixel_buffer->x_coord_mask) << pixel_buffer->x_coord_offset);
 8052614:	e0bffc17 	ldw	r2,-16(fp)
 8052618:	10c01217 	ldw	r3,72(r2)
 805261c:	e0bffe17 	ldw	r2,-8(fp)
 8052620:	1886703a 	and	r3,r3,r2
 8052624:	e0bffc17 	ldw	r2,-16(fp)
 8052628:	10801117 	ldw	r2,68(r2)
 805262c:	1884983a 	sll	r2,r3,r2
 8052630:	e0fffb17 	ldw	r3,-20(fp)
 8052634:	1885883a 	add	r2,r3,r2
 8052638:	e0bffb15 	stw	r2,-20(fp)
		addr += (((y & pixel_buffer->y_coord_mask) * pixel_buffer->x_resolution) << pixel_buffer->x_coord_offset);
 805263c:	e0bffc17 	ldw	r2,-16(fp)
 8052640:	10c01417 	ldw	r3,80(r2)
 8052644:	e0bfff17 	ldw	r2,-4(fp)
 8052648:	1886703a 	and	r3,r3,r2
 805264c:	e0bffc17 	ldw	r2,-16(fp)
 8052650:	10800f17 	ldw	r2,60(r2)
 8052654:	100b883a 	mov	r5,r2
 8052658:	1809883a 	mov	r4,r3
 805265c:	8042dac0 	call	8042dac <__mulsi3>
 8052660:	1007883a 	mov	r3,r2
 8052664:	e0bffc17 	ldw	r2,-16(fp)
 8052668:	10801117 	ldw	r2,68(r2)
 805266c:	1884983a 	sll	r2,r3,r2
 8052670:	e0fffb17 	ldw	r3,-20(fp)
 8052674:	1885883a 	add	r2,r3,r2
 8052678:	e0bffb15 	stw	r2,-20(fp)
	}
	/* Now, depending on the color depth, write the pixel color to the specified memory location. */
	if (pixel_buffer->color_mode == ALT_UP_8BIT_COLOR_MODE) {
 805267c:	e0bffc17 	ldw	r2,-16(fp)
 8052680:	10800e17 	ldw	r2,56(r2)
 8052684:	10800058 	cmpnei	r2,r2,1
 8052688:	1000081e 	bne	r2,zero,80526ac <alt_up_pixel_buffer_dma_draw+0x144>
		IOWR_8DIRECT(pixel_buffer->back_buffer_start_address, addr, color);
 805268c:	e0bffc17 	ldw	r2,-16(fp)
 8052690:	10c00c17 	ldw	r3,48(r2)
 8052694:	e0bffb17 	ldw	r2,-20(fp)
 8052698:	1885883a 	add	r2,r3,r2
 805269c:	1007883a 	mov	r3,r2
 80526a0:	e0bffd17 	ldw	r2,-12(fp)
 80526a4:	18800025 	stbio	r2,0(r3)
 80526a8:	00001306 	br	80526f8 <alt_up_pixel_buffer_dma_draw+0x190>
	} else if (pixel_buffer->color_mode == ALT_UP_16BIT_COLOR_MODE) {
 80526ac:	e0bffc17 	ldw	r2,-16(fp)
 80526b0:	10800e17 	ldw	r2,56(r2)
 80526b4:	10800098 	cmpnei	r2,r2,2
 80526b8:	1000081e 	bne	r2,zero,80526dc <alt_up_pixel_buffer_dma_draw+0x174>
		IOWR_16DIRECT(pixel_buffer->back_buffer_start_address, addr, color);
 80526bc:	e0bffc17 	ldw	r2,-16(fp)
 80526c0:	10c00c17 	ldw	r3,48(r2)
 80526c4:	e0bffb17 	ldw	r2,-20(fp)
 80526c8:	1885883a 	add	r2,r3,r2
 80526cc:	1007883a 	mov	r3,r2
 80526d0:	e0bffd17 	ldw	r2,-12(fp)
 80526d4:	1880002d 	sthio	r2,0(r3)
 80526d8:	00000706 	br	80526f8 <alt_up_pixel_buffer_dma_draw+0x190>
	} else {
		IOWR_32DIRECT(pixel_buffer->back_buffer_start_address, addr, color);
 80526dc:	e0bffc17 	ldw	r2,-16(fp)
 80526e0:	10c00c17 	ldw	r3,48(r2)
 80526e4:	e0bffb17 	ldw	r2,-20(fp)
 80526e8:	1885883a 	add	r2,r3,r2
 80526ec:	1007883a 	mov	r3,r2
 80526f0:	e0bffd17 	ldw	r2,-12(fp)
 80526f4:	18800035 	stwio	r2,0(r3)
	}

	return 0;
 80526f8:	0005883a 	mov	r2,zero
}
 80526fc:	e037883a 	mov	sp,fp
 8052700:	dfc00117 	ldw	ra,4(sp)
 8052704:	df000017 	ldw	fp,0(sp)
 8052708:	dec00204 	addi	sp,sp,8
 805270c:	f800283a 	ret

08052710 <alt_up_pixel_buffer_dma_change_back_buffer_address>:

int alt_up_pixel_buffer_dma_change_back_buffer_address(alt_up_pixel_buffer_dma_dev *pixel_buffer, unsigned int new_address)
/* This function changes the memory address for the back buffer. */
{
 8052710:	defffd04 	addi	sp,sp,-12
 8052714:	df000215 	stw	fp,8(sp)
 8052718:	df000204 	addi	fp,sp,8
 805271c:	e13ffe15 	stw	r4,-8(fp)
 8052720:	e17fff15 	stw	r5,-4(fp)
	IOWR_32DIRECT(pixel_buffer->base, 4, new_address);
 8052724:	e0bffe17 	ldw	r2,-8(fp)
 8052728:	10800a17 	ldw	r2,40(r2)
 805272c:	10800104 	addi	r2,r2,4
 8052730:	1007883a 	mov	r3,r2
 8052734:	e0bfff17 	ldw	r2,-4(fp)
 8052738:	18800035 	stwio	r2,0(r3)
	pixel_buffer->back_buffer_start_address = IORD_32DIRECT(pixel_buffer->base, 4);
 805273c:	e0bffe17 	ldw	r2,-8(fp)
 8052740:	10800a17 	ldw	r2,40(r2)
 8052744:	10800104 	addi	r2,r2,4
 8052748:	10800037 	ldwio	r2,0(r2)
 805274c:	1007883a 	mov	r3,r2
 8052750:	e0bffe17 	ldw	r2,-8(fp)
 8052754:	10c00c15 	stw	r3,48(r2)
	return 0;
 8052758:	0005883a 	mov	r2,zero
}
 805275c:	e037883a 	mov	sp,fp
 8052760:	df000017 	ldw	fp,0(sp)
 8052764:	dec00104 	addi	sp,sp,4
 8052768:	f800283a 	ret

0805276c <alt_up_pixel_buffer_dma_swap_buffers>:

int alt_up_pixel_buffer_dma_swap_buffers(alt_up_pixel_buffer_dma_dev *pixel_buffer)
/* This function swaps the front and back buffers. At the next refresh cycle the back buffer will be drawn on the screen
 * and will become the front buffer. */
{
 805276c:	defffd04 	addi	sp,sp,-12
 8052770:	df000215 	stw	fp,8(sp)
 8052774:	dc000115 	stw	r16,4(sp)
 8052778:	df000204 	addi	fp,sp,8
 805277c:	e13ffe15 	stw	r4,-8(fp)
	register unsigned int temp = pixel_buffer->back_buffer_start_address;
 8052780:	e0bffe17 	ldw	r2,-8(fp)
 8052784:	14000c17 	ldw	r16,48(r2)
	IOWR_32DIRECT(pixel_buffer->base, 0, 1);
 8052788:	e0bffe17 	ldw	r2,-8(fp)
 805278c:	10800a17 	ldw	r2,40(r2)
 8052790:	1007883a 	mov	r3,r2
 8052794:	00800044 	movi	r2,1
 8052798:	18800035 	stwio	r2,0(r3)
	pixel_buffer->back_buffer_start_address = pixel_buffer->buffer_start_address;
 805279c:	e0bffe17 	ldw	r2,-8(fp)
 80527a0:	10c00b17 	ldw	r3,44(r2)
 80527a4:	e0bffe17 	ldw	r2,-8(fp)
 80527a8:	10c00c15 	stw	r3,48(r2)
	pixel_buffer->buffer_start_address = temp;
 80527ac:	e0bffe17 	ldw	r2,-8(fp)
 80527b0:	14000b15 	stw	r16,44(r2)
	return 0;
 80527b4:	0005883a 	mov	r2,zero
}
 80527b8:	e6ffff04 	addi	sp,fp,-4
 80527bc:	df000117 	ldw	fp,4(sp)
 80527c0:	dc000017 	ldw	r16,0(sp)
 80527c4:	dec00204 	addi	sp,sp,8
 80527c8:	f800283a 	ret

080527cc <alt_up_pixel_buffer_dma_check_swap_buffers_status>:
int alt_up_pixel_buffer_dma_check_swap_buffers_status(alt_up_pixel_buffer_dma_dev *pixel_buffer)
/* This function checks if the buffer swap has occured. Since the buffer swap only happens after an entire screen is drawn,
 * it is important to wait for this function to return 0 before proceeding to draw on either buffer. When both front and the back buffers
 * have the same address calling the alt_up_pixel_buffer_dma_swap_buffers(...) function and then waiting for this function to return 0, causes your program to
 * wait for the screen to refresh. */
{
 80527cc:	defffe04 	addi	sp,sp,-8
 80527d0:	df000115 	stw	fp,4(sp)
 80527d4:	df000104 	addi	fp,sp,4
 80527d8:	e13fff15 	stw	r4,-4(fp)
	return (IORD_32DIRECT(pixel_buffer->base, 12) & 0x1);
 80527dc:	e0bfff17 	ldw	r2,-4(fp)
 80527e0:	10800a17 	ldw	r2,40(r2)
 80527e4:	10800304 	addi	r2,r2,12
 80527e8:	10800037 	ldwio	r2,0(r2)
 80527ec:	1080004c 	andi	r2,r2,1
}
 80527f0:	e037883a 	mov	sp,fp
 80527f4:	df000017 	ldw	fp,0(sp)
 80527f8:	dec00104 	addi	sp,sp,4
 80527fc:	f800283a 	ret

08052800 <alt_up_pixel_buffer_dma_clear_screen>:

void alt_up_pixel_buffer_dma_clear_screen(alt_up_pixel_buffer_dma_dev *pixel_buffer, int backbuffer)
/* This function clears the screen by setting each pixel to a black color. */
{
 8052800:	defff604 	addi	sp,sp,-40
 8052804:	dfc00915 	stw	ra,36(sp)
 8052808:	df000815 	stw	fp,32(sp)
 805280c:	dd400715 	stw	r21,28(sp)
 8052810:	dd000615 	stw	r20,24(sp)
 8052814:	dcc00515 	stw	r19,20(sp)
 8052818:	dc800415 	stw	r18,16(sp)
 805281c:	dc400315 	stw	r17,12(sp)
 8052820:	dc000215 	stw	r16,8(sp)
 8052824:	df000804 	addi	fp,sp,32
 8052828:	e13ff815 	stw	r4,-32(fp)
 805282c:	e17ff915 	stw	r5,-28(fp)
	register unsigned int addr;
	register unsigned int limit_x, limit_y;
	
	/* Set up the address to start clearing from and the screen boundaries. */
	if (backbuffer == 1)
 8052830:	e0bff917 	ldw	r2,-28(fp)
 8052834:	10800058 	cmpnei	r2,r2,1
 8052838:	1000031e 	bne	r2,zero,8052848 <alt_up_pixel_buffer_dma_clear_screen+0x48>
		addr = pixel_buffer->back_buffer_start_address;
 805283c:	e0bff817 	ldw	r2,-32(fp)
 8052840:	14400c17 	ldw	r17,48(r2)
 8052844:	00000206 	br	8052850 <alt_up_pixel_buffer_dma_clear_screen+0x50>
	else
		addr = pixel_buffer->buffer_start_address;
 8052848:	e0bff817 	ldw	r2,-32(fp)
 805284c:	14400b17 	ldw	r17,44(r2)
	limit_x = pixel_buffer->x_resolution;
 8052850:	e0bff817 	ldw	r2,-32(fp)
 8052854:	14000f17 	ldw	r16,60(r2)
	/* In 16 and 32-bit color modes we use twice or four times more memory for the display buffer.*/
	if (pixel_buffer->color_mode == ALT_UP_16BIT_COLOR_MODE) {
 8052858:	e0bff817 	ldw	r2,-32(fp)
 805285c:	10800e17 	ldw	r2,56(r2)
 8052860:	10800098 	cmpnei	r2,r2,2
 8052864:	1000031e 	bne	r2,zero,8052874 <alt_up_pixel_buffer_dma_clear_screen+0x74>
		limit_x = limit_x << 1;
 8052868:	8405883a 	add	r2,r16,r16
 805286c:	1021883a 	mov	r16,r2
 8052870:	00000306 	br	8052880 <alt_up_pixel_buffer_dma_clear_screen+0x80>
	} else {
		limit_x = limit_x << 2;
 8052874:	8405883a 	add	r2,r16,r16
 8052878:	1085883a 	add	r2,r2,r2
 805287c:	1021883a 	mov	r16,r2
	}	
	limit_y = pixel_buffer->y_resolution;
 8052880:	e0bff817 	ldw	r2,-32(fp)
 8052884:	14c01017 	ldw	r19,64(r2)

	if (pixel_buffer->addressing_mode == ALT_UP_PIXEL_BUFFER_XY_ADDRESS_MODE) {
 8052888:	e0bff817 	ldw	r2,-32(fp)
 805288c:	10800d17 	ldw	r2,52(r2)
 8052890:	1000111e 	bne	r2,zero,80528d8 <alt_up_pixel_buffer_dma_clear_screen+0xd8>
		/* Clear the screen when the VGA is set up in an XY addressing mode. */
		register unsigned int x,y;
		register unsigned int offset_y;
		offset_y = pixel_buffer->y_coord_offset;
 8052894:	e0bff817 	ldw	r2,-32(fp)
 8052898:	15401317 	ldw	r21,76(r2)

		for (y = 0; y < limit_y; y++)
 805289c:	0029883a 	mov	r20,zero
 80528a0:	00000b06 	br	80528d0 <alt_up_pixel_buffer_dma_clear_screen+0xd0>
		{
			for (x = 0; x < limit_x; x = x + 4)
 80528a4:	0025883a 	mov	r18,zero
 80528a8:	00000406 	br	80528bc <alt_up_pixel_buffer_dma_clear_screen+0xbc>
			{
				IOWR_32DIRECT(addr, x, 0);
 80528ac:	9445883a 	add	r2,r18,r17
 80528b0:	0007883a 	mov	r3,zero
 80528b4:	10c00035 	stwio	r3,0(r2)
		register unsigned int offset_y;
		offset_y = pixel_buffer->y_coord_offset;

		for (y = 0; y < limit_y; y++)
		{
			for (x = 0; x < limit_x; x = x + 4)
 80528b8:	94800104 	addi	r18,r18,4
 80528bc:	943ffb36 	bltu	r18,r16,80528ac <__alt_data_end+0xfffea80c>
			{
				IOWR_32DIRECT(addr, x, 0);
			}
			addr = addr + (1 << offset_y);
 80528c0:	00800044 	movi	r2,1
 80528c4:	1544983a 	sll	r2,r2,r21
 80528c8:	88a3883a 	add	r17,r17,r2
		/* Clear the screen when the VGA is set up in an XY addressing mode. */
		register unsigned int x,y;
		register unsigned int offset_y;
		offset_y = pixel_buffer->y_coord_offset;

		for (y = 0; y < limit_y; y++)
 80528cc:	a5000044 	addi	r20,r20,1
 80528d0:	a4fff436 	bltu	r20,r19,80528a4 <__alt_data_end+0xfffea804>
		for (x = 0; x < limit_y; x = x + 4)
		{
			IOWR_32DIRECT(addr, x, 0);
		}
	}
}
 80528d4:	00000d06 	br	805290c <alt_up_pixel_buffer_dma_clear_screen+0x10c>
			addr = addr + (1 << offset_y);
		}
	} else {
		/* Clear the screen when the VGA is set up in a linear addressing mode. */
		register int x;
		limit_y = limit_x*limit_y;	
 80528d8:	800b883a 	mov	r5,r16
 80528dc:	9809883a 	mov	r4,r19
 80528e0:	8042dac0 	call	8042dac <__mulsi3>
 80528e4:	1027883a 	mov	r19,r2

		for (x = 0; x < limit_y; x = x + 4)
 80528e8:	0021883a 	mov	r16,zero
 80528ec:	00000506 	br	8052904 <alt_up_pixel_buffer_dma_clear_screen+0x104>
		{
			IOWR_32DIRECT(addr, x, 0);
 80528f0:	8005883a 	mov	r2,r16
 80528f4:	1445883a 	add	r2,r2,r17
 80528f8:	0007883a 	mov	r3,zero
 80528fc:	10c00035 	stwio	r3,0(r2)
	} else {
		/* Clear the screen when the VGA is set up in a linear addressing mode. */
		register int x;
		limit_y = limit_x*limit_y;	

		for (x = 0; x < limit_y; x = x + 4)
 8052900:	84000104 	addi	r16,r16,4
 8052904:	8005883a 	mov	r2,r16
 8052908:	14fff936 	bltu	r2,r19,80528f0 <__alt_data_end+0xfffea850>
		{
			IOWR_32DIRECT(addr, x, 0);
		}
	}
}
 805290c:	0001883a 	nop
 8052910:	e6fffa04 	addi	sp,fp,-24
 8052914:	dfc00717 	ldw	ra,28(sp)
 8052918:	df000617 	ldw	fp,24(sp)
 805291c:	dd400517 	ldw	r21,20(sp)
 8052920:	dd000417 	ldw	r20,16(sp)
 8052924:	dcc00317 	ldw	r19,12(sp)
 8052928:	dc800217 	ldw	r18,8(sp)
 805292c:	dc400117 	ldw	r17,4(sp)
 8052930:	dc000017 	ldw	r16,0(sp)
 8052934:	dec00804 	addi	sp,sp,32
 8052938:	f800283a 	ret

0805293c <alt_up_pixel_buffer_dma_draw_box>:

void alt_up_pixel_buffer_dma_draw_box(alt_up_pixel_buffer_dma_dev *pixel_buffer, int x0, int y0, int x1, int y1, int color, int backbuffer)
/* This function draws a filled box. */
{
 805293c:	defff204 	addi	sp,sp,-56
 8052940:	dfc00d15 	stw	ra,52(sp)
 8052944:	df000c15 	stw	fp,48(sp)
 8052948:	ddc00b15 	stw	r23,44(sp)
 805294c:	dd800a15 	stw	r22,40(sp)
 8052950:	dd400915 	stw	r21,36(sp)
 8052954:	dd000815 	stw	r20,32(sp)
 8052958:	dcc00715 	stw	r19,28(sp)
 805295c:	dc800615 	stw	r18,24(sp)
 8052960:	dc400515 	stw	r17,20(sp)
 8052964:	dc000415 	stw	r16,16(sp)
 8052968:	df000c04 	addi	fp,sp,48
 805296c:	e13ff415 	stw	r4,-48(fp)
 8052970:	e17ff515 	stw	r5,-44(fp)
 8052974:	e1bff615 	stw	r6,-40(fp)
 8052978:	e1fff715 	stw	r7,-36(fp)
	register unsigned int addr;
	register unsigned int limit_x = pixel_buffer->x_resolution;
 805297c:	e0bff417 	ldw	r2,-48(fp)
 8052980:	14800f17 	ldw	r18,60(r2)
	register unsigned int limit_y = pixel_buffer->y_resolution;
 8052984:	e0bff417 	ldw	r2,-48(fp)
 8052988:	14001017 	ldw	r16,64(r2)
	register unsigned int temp;
	register unsigned int l_x = x0;
 805298c:	e5bff517 	ldw	r22,-44(fp)
	register unsigned int r_x = x1;
 8052990:	e53ff717 	ldw	r20,-36(fp)
	register unsigned int t_y = y0;
 8052994:	e47ff617 	ldw	r17,-40(fp)
	register unsigned int b_y = y1;
 8052998:	e4c00217 	ldw	r19,8(fp)
	register unsigned int local_color = color;
 805299c:	e5c00317 	ldw	r23,12(fp)
	
	/* Check coordinates */
	if (l_x > r_x)
 80529a0:	a580032e 	bgeu	r20,r22,80529b0 <alt_up_pixel_buffer_dma_draw_box+0x74>
	{
		temp = l_x;
 80529a4:	b02b883a 	mov	r21,r22
		l_x = r_x;
 80529a8:	a02d883a 	mov	r22,r20
		r_x = temp;
 80529ac:	a829883a 	mov	r20,r21
	}
	if (t_y > b_y)
 80529b0:	9c40032e 	bgeu	r19,r17,80529c0 <alt_up_pixel_buffer_dma_draw_box+0x84>
	{
		temp = t_y;
 80529b4:	882b883a 	mov	r21,r17
		t_y = b_y;
 80529b8:	9823883a 	mov	r17,r19
		b_y = temp;
 80529bc:	a827883a 	mov	r19,r21
	}
	if ((l_x >= limit_x) || (t_y >= limit_y) || (r_x < 0) || (b_y < 0))
 80529c0:	b4808f2e 	bgeu	r22,r18,8052c00 <alt_up_pixel_buffer_dma_draw_box+0x2c4>
 80529c4:	8c008e2e 	bgeu	r17,r16,8052c00 <alt_up_pixel_buffer_dma_draw_box+0x2c4>
	/* Clip the box and draw only within the confines of the screen. */
	if (l_x < 0)
	{
		l_x = 0;
	}
	if (r_x >= limit_x)
 80529c8:	a4800136 	bltu	r20,r18,80529d0 <alt_up_pixel_buffer_dma_draw_box+0x94>
	{
		r_x = limit_x - 1;
 80529cc:	953fffc4 	addi	r20,r18,-1
	}
	if (t_y < 0)
	{
		t_y = 0;
	}
	if (b_y >= limit_y)
 80529d0:	9c000136 	bltu	r19,r16,80529d8 <alt_up_pixel_buffer_dma_draw_box+0x9c>
	{
		b_y = limit_y - 1;
 80529d4:	84ffffc4 	addi	r19,r16,-1
	}

	/* Set up the address to start clearing from and the screen boundaries. */
	if (backbuffer == 1)
 80529d8:	e0800417 	ldw	r2,16(fp)
 80529dc:	10800058 	cmpnei	r2,r2,1
 80529e0:	1000031e 	bne	r2,zero,80529f0 <alt_up_pixel_buffer_dma_draw_box+0xb4>
		addr = pixel_buffer->back_buffer_start_address;
 80529e4:	e0bff417 	ldw	r2,-48(fp)
 80529e8:	14000c17 	ldw	r16,48(r2)
 80529ec:	00000206 	br	80529f8 <alt_up_pixel_buffer_dma_draw_box+0xbc>
	else
		addr = pixel_buffer->buffer_start_address;
 80529f0:	e0bff417 	ldw	r2,-48(fp)
 80529f4:	14000b17 	ldw	r16,44(r2)

	/* Draw the box using one of the addressing modes. */
	if (pixel_buffer->addressing_mode == ALT_UP_PIXEL_BUFFER_XY_ADDRESS_MODE) {
 80529f8:	e0bff417 	ldw	r2,-48(fp)
 80529fc:	10800d17 	ldw	r2,52(r2)
 8052a00:	10003c1e 	bne	r2,zero,8052af4 <alt_up_pixel_buffer_dma_draw_box+0x1b8>
		/* Draw a box of a given color on the screen using the XY addressing mode. */
		register unsigned int x,y;
		register unsigned int offset_y;
		offset_y = pixel_buffer->y_coord_offset;
 8052a04:	e0bff417 	ldw	r2,-48(fp)
 8052a08:	15401317 	ldw	r21,76(r2)
		addr = addr + (t_y << offset_y);
 8052a0c:	8d44983a 	sll	r2,r17,r21
 8052a10:	80a1883a 	add	r16,r16,r2
		
		/* This portion of the code is purposefully replicated. This is because having a text for
		 * the mode would unnecessarily slow down the drawing of a box. */
		if (pixel_buffer->color_mode == ALT_UP_8BIT_COLOR_MODE) {
 8052a14:	e0bff417 	ldw	r2,-48(fp)
 8052a18:	10800e17 	ldw	r2,56(r2)
 8052a1c:	10800058 	cmpnei	r2,r2,1
 8052a20:	10000f1e 	bne	r2,zero,8052a60 <alt_up_pixel_buffer_dma_draw_box+0x124>
			for (y = t_y; y <= b_y; y++)
 8052a24:	8825883a 	mov	r18,r17
 8052a28:	00000b06 	br	8052a58 <alt_up_pixel_buffer_dma_draw_box+0x11c>
			{
				for (x = l_x; x <= r_x; x++)
 8052a2c:	b023883a 	mov	r17,r22
 8052a30:	00000406 	br	8052a44 <alt_up_pixel_buffer_dma_draw_box+0x108>
				{
					IOWR_8DIRECT(addr, x, local_color);
 8052a34:	8c05883a 	add	r2,r17,r16
 8052a38:	b807883a 	mov	r3,r23
 8052a3c:	10c00025 	stbio	r3,0(r2)
		/* This portion of the code is purposefully replicated. This is because having a text for
		 * the mode would unnecessarily slow down the drawing of a box. */
		if (pixel_buffer->color_mode == ALT_UP_8BIT_COLOR_MODE) {
			for (y = t_y; y <= b_y; y++)
			{
				for (x = l_x; x <= r_x; x++)
 8052a40:	8c400044 	addi	r17,r17,1
 8052a44:	a47ffb2e 	bgeu	r20,r17,8052a34 <__alt_data_end+0xfffea994>
				{
					IOWR_8DIRECT(addr, x, local_color);
				}
				addr = addr + (1 << offset_y);
 8052a48:	00800044 	movi	r2,1
 8052a4c:	1544983a 	sll	r2,r2,r21
 8052a50:	80a1883a 	add	r16,r16,r2
		addr = addr + (t_y << offset_y);
		
		/* This portion of the code is purposefully replicated. This is because having a text for
		 * the mode would unnecessarily slow down the drawing of a box. */
		if (pixel_buffer->color_mode == ALT_UP_8BIT_COLOR_MODE) {
			for (y = t_y; y <= b_y; y++)
 8052a54:	94800044 	addi	r18,r18,1
 8052a58:	9cbff42e 	bgeu	r19,r18,8052a2c <__alt_data_end+0xfffea98c>
 8052a5c:	00006906 	br	8052c04 <alt_up_pixel_buffer_dma_draw_box+0x2c8>
				{
					IOWR_8DIRECT(addr, x, local_color);
				}
				addr = addr + (1 << offset_y);
			}
		} else if (pixel_buffer->color_mode == ALT_UP_16BIT_COLOR_MODE) {
 8052a60:	e0bff417 	ldw	r2,-48(fp)
 8052a64:	10800e17 	ldw	r2,56(r2)
 8052a68:	10800098 	cmpnei	r2,r2,2
 8052a6c:	1000101e 	bne	r2,zero,8052ab0 <alt_up_pixel_buffer_dma_draw_box+0x174>
			for (y = t_y; y <= b_y; y++)
 8052a70:	8825883a 	mov	r18,r17
 8052a74:	00000c06 	br	8052aa8 <alt_up_pixel_buffer_dma_draw_box+0x16c>
			{
				for (x = l_x; x <= r_x; x++)
 8052a78:	b023883a 	mov	r17,r22
 8052a7c:	00000506 	br	8052a94 <alt_up_pixel_buffer_dma_draw_box+0x158>
				{
					IOWR_16DIRECT(addr, x << 1, local_color);
 8052a80:	8c45883a 	add	r2,r17,r17
 8052a84:	1405883a 	add	r2,r2,r16
 8052a88:	b807883a 	mov	r3,r23
 8052a8c:	10c0002d 	sthio	r3,0(r2)
				addr = addr + (1 << offset_y);
			}
		} else if (pixel_buffer->color_mode == ALT_UP_16BIT_COLOR_MODE) {
			for (y = t_y; y <= b_y; y++)
			{
				for (x = l_x; x <= r_x; x++)
 8052a90:	8c400044 	addi	r17,r17,1
 8052a94:	a47ffa2e 	bgeu	r20,r17,8052a80 <__alt_data_end+0xfffea9e0>
				{
					IOWR_16DIRECT(addr, x << 1, local_color);
				}
				addr = addr + (1 << offset_y);
 8052a98:	00800044 	movi	r2,1
 8052a9c:	1544983a 	sll	r2,r2,r21
 8052aa0:	80a1883a 	add	r16,r16,r2
					IOWR_8DIRECT(addr, x, local_color);
				}
				addr = addr + (1 << offset_y);
			}
		} else if (pixel_buffer->color_mode == ALT_UP_16BIT_COLOR_MODE) {
			for (y = t_y; y <= b_y; y++)
 8052aa4:	94800044 	addi	r18,r18,1
 8052aa8:	9cbff32e 	bgeu	r19,r18,8052a78 <__alt_data_end+0xfffea9d8>
 8052aac:	00005506 	br	8052c04 <alt_up_pixel_buffer_dma_draw_box+0x2c8>
				addr = addr + (1 << offset_y);
			}
		}
		else
		{
			for (y = t_y; y <= b_y; y++)
 8052ab0:	8825883a 	mov	r18,r17
 8052ab4:	00000d06 	br	8052aec <alt_up_pixel_buffer_dma_draw_box+0x1b0>
			{
				for (x = l_x; x <= r_x; x++)
 8052ab8:	b023883a 	mov	r17,r22
 8052abc:	00000606 	br	8052ad8 <alt_up_pixel_buffer_dma_draw_box+0x19c>
				{
					IOWR_32DIRECT(addr, x << 2, local_color);
 8052ac0:	8c45883a 	add	r2,r17,r17
 8052ac4:	1085883a 	add	r2,r2,r2
 8052ac8:	1405883a 	add	r2,r2,r16
 8052acc:	b807883a 	mov	r3,r23
 8052ad0:	10c00035 	stwio	r3,0(r2)
		}
		else
		{
			for (y = t_y; y <= b_y; y++)
			{
				for (x = l_x; x <= r_x; x++)
 8052ad4:	8c400044 	addi	r17,r17,1
 8052ad8:	a47ff92e 	bgeu	r20,r17,8052ac0 <__alt_data_end+0xfffeaa20>
				{
					IOWR_32DIRECT(addr, x << 2, local_color);
				}
				addr = addr + (1 << offset_y);
 8052adc:	00800044 	movi	r2,1
 8052ae0:	1544983a 	sll	r2,r2,r21
 8052ae4:	80a1883a 	add	r16,r16,r2
				addr = addr + (1 << offset_y);
			}
		}
		else
		{
			for (y = t_y; y <= b_y; y++)
 8052ae8:	94800044 	addi	r18,r18,1
 8052aec:	9cbff22e 	bgeu	r19,r18,8052ab8 <__alt_data_end+0xfffeaa18>
 8052af0:	00004406 	br	8052c04 <alt_up_pixel_buffer_dma_draw_box+0x2c8>
	} else {
		/* Draw a box of a given color on the screen using the linear addressing mode. */
		register unsigned int x,y;
		/* This portion of the code is purposefully replicated. This is because having a text for
		 * the mode would unnecessarily slow down the drawing of a box. */
		if (pixel_buffer->color_mode == ALT_UP_8BIT_COLOR_MODE) {
 8052af4:	e0bff417 	ldw	r2,-48(fp)
 8052af8:	10800e17 	ldw	r2,56(r2)
 8052afc:	10800058 	cmpnei	r2,r2,1
 8052b00:	1000111e 	bne	r2,zero,8052b48 <alt_up_pixel_buffer_dma_draw_box+0x20c>
			addr = addr + t_y * limit_x;
 8052b04:	900b883a 	mov	r5,r18
 8052b08:	8809883a 	mov	r4,r17
 8052b0c:	8042dac0 	call	8042dac <__mulsi3>
 8052b10:	80a1883a 	add	r16,r16,r2
			for (y = t_y; y <= b_y; y++)
 8052b14:	882b883a 	mov	r21,r17
 8052b18:	00000906 	br	8052b40 <alt_up_pixel_buffer_dma_draw_box+0x204>
			{
				for (x = l_x; x <= r_x; x++)
 8052b1c:	b023883a 	mov	r17,r22
 8052b20:	00000406 	br	8052b34 <alt_up_pixel_buffer_dma_draw_box+0x1f8>
				{
					IOWR_8DIRECT(addr, x, local_color);
 8052b24:	8c05883a 	add	r2,r17,r16
 8052b28:	b807883a 	mov	r3,r23
 8052b2c:	10c00025 	stbio	r3,0(r2)
		 * the mode would unnecessarily slow down the drawing of a box. */
		if (pixel_buffer->color_mode == ALT_UP_8BIT_COLOR_MODE) {
			addr = addr + t_y * limit_x;
			for (y = t_y; y <= b_y; y++)
			{
				for (x = l_x; x <= r_x; x++)
 8052b30:	8c400044 	addi	r17,r17,1
 8052b34:	a47ffb2e 	bgeu	r20,r17,8052b24 <__alt_data_end+0xfffeaa84>
				{
					IOWR_8DIRECT(addr, x, local_color);
				}
				addr = addr + limit_x;
 8052b38:	84a1883a 	add	r16,r16,r18
		register unsigned int x,y;
		/* This portion of the code is purposefully replicated. This is because having a text for
		 * the mode would unnecessarily slow down the drawing of a box. */
		if (pixel_buffer->color_mode == ALT_UP_8BIT_COLOR_MODE) {
			addr = addr + t_y * limit_x;
			for (y = t_y; y <= b_y; y++)
 8052b3c:	ad400044 	addi	r21,r21,1
 8052b40:	9d7ff62e 	bgeu	r19,r21,8052b1c <__alt_data_end+0xfffeaa7c>
 8052b44:	00002f06 	br	8052c04 <alt_up_pixel_buffer_dma_draw_box+0x2c8>
				{
					IOWR_8DIRECT(addr, x, local_color);
				}
				addr = addr + limit_x;
			}
		} else if (pixel_buffer->color_mode == ALT_UP_16BIT_COLOR_MODE) {
 8052b48:	e0bff417 	ldw	r2,-48(fp)
 8052b4c:	10800e17 	ldw	r2,56(r2)
 8052b50:	10800098 	cmpnei	r2,r2,2
 8052b54:	1000141e 	bne	r2,zero,8052ba8 <alt_up_pixel_buffer_dma_draw_box+0x26c>
			limit_x = limit_x << 1;
 8052b58:	9485883a 	add	r2,r18,r18
 8052b5c:	1025883a 	mov	r18,r2
			addr = addr + t_y * limit_x;
 8052b60:	900b883a 	mov	r5,r18
 8052b64:	8809883a 	mov	r4,r17
 8052b68:	8042dac0 	call	8042dac <__mulsi3>
 8052b6c:	80a1883a 	add	r16,r16,r2
			for (y = t_y; y <= b_y; y++)
 8052b70:	882b883a 	mov	r21,r17
 8052b74:	00000a06 	br	8052ba0 <alt_up_pixel_buffer_dma_draw_box+0x264>
			{
				for (x = l_x; x <= r_x; x++)
 8052b78:	b023883a 	mov	r17,r22
 8052b7c:	00000506 	br	8052b94 <alt_up_pixel_buffer_dma_draw_box+0x258>
				{
					IOWR_16DIRECT(addr, x << 1, local_color);
 8052b80:	8c45883a 	add	r2,r17,r17
 8052b84:	1405883a 	add	r2,r2,r16
 8052b88:	b807883a 	mov	r3,r23
 8052b8c:	10c0002d 	sthio	r3,0(r2)
		} else if (pixel_buffer->color_mode == ALT_UP_16BIT_COLOR_MODE) {
			limit_x = limit_x << 1;
			addr = addr + t_y * limit_x;
			for (y = t_y; y <= b_y; y++)
			{
				for (x = l_x; x <= r_x; x++)
 8052b90:	8c400044 	addi	r17,r17,1
 8052b94:	a47ffa2e 	bgeu	r20,r17,8052b80 <__alt_data_end+0xfffeaae0>
				{
					IOWR_16DIRECT(addr, x << 1, local_color);
				}
				addr = addr + limit_x;
 8052b98:	84a1883a 	add	r16,r16,r18
				addr = addr + limit_x;
			}
		} else if (pixel_buffer->color_mode == ALT_UP_16BIT_COLOR_MODE) {
			limit_x = limit_x << 1;
			addr = addr + t_y * limit_x;
			for (y = t_y; y <= b_y; y++)
 8052b9c:	ad400044 	addi	r21,r21,1
 8052ba0:	9d7ff52e 	bgeu	r19,r21,8052b78 <__alt_data_end+0xfffeaad8>
 8052ba4:	00001706 	br	8052c04 <alt_up_pixel_buffer_dma_draw_box+0x2c8>
				addr = addr + limit_x;
			}
		}
		else
		{
			limit_x = limit_x << 2;
 8052ba8:	9485883a 	add	r2,r18,r18
 8052bac:	1085883a 	add	r2,r2,r2
 8052bb0:	1025883a 	mov	r18,r2
			addr = addr + t_y * limit_x;
 8052bb4:	900b883a 	mov	r5,r18
 8052bb8:	8809883a 	mov	r4,r17
 8052bbc:	8042dac0 	call	8042dac <__mulsi3>
 8052bc0:	80a1883a 	add	r16,r16,r2
			for (y = t_y; y <= b_y; y++)
 8052bc4:	882b883a 	mov	r21,r17
 8052bc8:	00000b06 	br	8052bf8 <alt_up_pixel_buffer_dma_draw_box+0x2bc>
			{
				for (x = l_x; x <= r_x; x++)
 8052bcc:	b023883a 	mov	r17,r22
 8052bd0:	00000606 	br	8052bec <alt_up_pixel_buffer_dma_draw_box+0x2b0>
				{
					IOWR_32DIRECT(addr, x << 2, local_color);
 8052bd4:	8c45883a 	add	r2,r17,r17
 8052bd8:	1085883a 	add	r2,r2,r2
 8052bdc:	1405883a 	add	r2,r2,r16
 8052be0:	b807883a 	mov	r3,r23
 8052be4:	10c00035 	stwio	r3,0(r2)
		{
			limit_x = limit_x << 2;
			addr = addr + t_y * limit_x;
			for (y = t_y; y <= b_y; y++)
			{
				for (x = l_x; x <= r_x; x++)
 8052be8:	8c400044 	addi	r17,r17,1
 8052bec:	a47ff92e 	bgeu	r20,r17,8052bd4 <__alt_data_end+0xfffeab34>
				{
					IOWR_32DIRECT(addr, x << 2, local_color);
				}
				addr = addr + limit_x;
 8052bf0:	84a1883a 	add	r16,r16,r18
		}
		else
		{
			limit_x = limit_x << 2;
			addr = addr + t_y * limit_x;
			for (y = t_y; y <= b_y; y++)
 8052bf4:	ad400044 	addi	r21,r21,1
 8052bf8:	9d7ff42e 	bgeu	r19,r21,8052bcc <__alt_data_end+0xfffeab2c>
 8052bfc:	00000106 	br	8052c04 <alt_up_pixel_buffer_dma_draw_box+0x2c8>
		b_y = temp;
	}
	if ((l_x >= limit_x) || (t_y >= limit_y) || (r_x < 0) || (b_y < 0))
	{
		/* Drawing outside of the window, so don't bother. */
		return;
 8052c00:	0001883a 	nop
				}
				addr = addr + limit_x;
			}
		}
	}
}
 8052c04:	e6fff804 	addi	sp,fp,-32
 8052c08:	dfc00917 	ldw	ra,36(sp)
 8052c0c:	df000817 	ldw	fp,32(sp)
 8052c10:	ddc00717 	ldw	r23,28(sp)
 8052c14:	dd800617 	ldw	r22,24(sp)
 8052c18:	dd400517 	ldw	r21,20(sp)
 8052c1c:	dd000417 	ldw	r20,16(sp)
 8052c20:	dcc00317 	ldw	r19,12(sp)
 8052c24:	dc800217 	ldw	r18,8(sp)
 8052c28:	dc400117 	ldw	r17,4(sp)
 8052c2c:	dc000017 	ldw	r16,0(sp)
 8052c30:	dec00a04 	addi	sp,sp,40
 8052c34:	f800283a 	ret

08052c38 <alt_up_pixel_buffer_dma_draw_hline>:

void alt_up_pixel_buffer_dma_draw_hline(alt_up_pixel_buffer_dma_dev *pixel_buffer, int x0, int x1, int y, int color, int backbuffer)
/* This method draws a horizontal line. This method is faster than using the line method because we know the direction of the line. */
{
 8052c38:	defff304 	addi	sp,sp,-52
 8052c3c:	dfc00c15 	stw	ra,48(sp)
 8052c40:	df000b15 	stw	fp,44(sp)
 8052c44:	dd800a15 	stw	r22,40(sp)
 8052c48:	dd400915 	stw	r21,36(sp)
 8052c4c:	dd000815 	stw	r20,32(sp)
 8052c50:	dcc00715 	stw	r19,28(sp)
 8052c54:	dc800615 	stw	r18,24(sp)
 8052c58:	dc400515 	stw	r17,20(sp)
 8052c5c:	dc000415 	stw	r16,16(sp)
 8052c60:	df000b04 	addi	fp,sp,44
 8052c64:	e13ff515 	stw	r4,-44(fp)
 8052c68:	e17ff615 	stw	r5,-40(fp)
 8052c6c:	e1bff715 	stw	r6,-36(fp)
 8052c70:	e1fff815 	stw	r7,-32(fp)
	register unsigned int addr;
	register unsigned int limit_x = pixel_buffer->x_resolution;
 8052c74:	e0bff517 	ldw	r2,-44(fp)
 8052c78:	14c00f17 	ldw	r19,60(r2)
	register unsigned int limit_y = pixel_buffer->y_resolution;
 8052c7c:	e0bff517 	ldw	r2,-44(fp)
 8052c80:	14001017 	ldw	r16,64(r2)
	register unsigned int temp;
	register unsigned int l_x = x0;
 8052c84:	e47ff617 	ldw	r17,-40(fp)
	register unsigned int r_x = x1;
 8052c88:	e4bff717 	ldw	r18,-36(fp)
	register unsigned int line_y = y;
 8052c8c:	e53ff817 	ldw	r20,-32(fp)
	register unsigned int local_color = color;
 8052c90:	e5400217 	ldw	r21,8(fp)
	
	/* Check coordinates */
	if (l_x > r_x)
 8052c94:	9440032e 	bgeu	r18,r17,8052ca4 <alt_up_pixel_buffer_dma_draw_hline+0x6c>
	{
		temp = l_x;
 8052c98:	882d883a 	mov	r22,r17
		l_x = r_x;
 8052c9c:	9023883a 	mov	r17,r18
		r_x = temp;
 8052ca0:	b025883a 	mov	r18,r22
	}
	if ((l_x >= limit_x) || (line_y >= limit_y) || (r_x < 0) || (line_y < 0))
 8052ca4:	8cc0632e 	bgeu	r17,r19,8052e34 <alt_up_pixel_buffer_dma_draw_hline+0x1fc>
 8052ca8:	a400622e 	bgeu	r20,r16,8052e34 <alt_up_pixel_buffer_dma_draw_hline+0x1fc>
	/* Clip the box and draw only within the confines of the screen. */
	if (l_x < 0)
	{
		l_x = 0;
	}
	if (r_x >= limit_x)
 8052cac:	94c00136 	bltu	r18,r19,8052cb4 <alt_up_pixel_buffer_dma_draw_hline+0x7c>
	{
		r_x = limit_x - 1;
 8052cb0:	9cbfffc4 	addi	r18,r19,-1
	}

	/* Set up the address to start clearing from and the screen boundaries. */
	if (backbuffer == 1)
 8052cb4:	e0800317 	ldw	r2,12(fp)
 8052cb8:	10800058 	cmpnei	r2,r2,1
 8052cbc:	1000031e 	bne	r2,zero,8052ccc <alt_up_pixel_buffer_dma_draw_hline+0x94>
		addr = pixel_buffer->back_buffer_start_address;
 8052cc0:	e0bff517 	ldw	r2,-44(fp)
 8052cc4:	14000c17 	ldw	r16,48(r2)
 8052cc8:	00000206 	br	8052cd4 <alt_up_pixel_buffer_dma_draw_hline+0x9c>
	else
		addr = pixel_buffer->buffer_start_address;
 8052ccc:	e0bff517 	ldw	r2,-44(fp)
 8052cd0:	14000b17 	ldw	r16,44(r2)

	/* Draw a horizontal line using one of the addressing modes. */
	if (pixel_buffer->addressing_mode == ALT_UP_PIXEL_BUFFER_XY_ADDRESS_MODE) {
 8052cd4:	e0bff517 	ldw	r2,-44(fp)
 8052cd8:	10800d17 	ldw	r2,52(r2)
 8052cdc:	1000231e 	bne	r2,zero,8052d6c <alt_up_pixel_buffer_dma_draw_hline+0x134>
		/* Draw a horizontal line of a given color on the screen using the XY addressing mode. */
		register unsigned int x;
		register unsigned int offset_y;
		offset_y = pixel_buffer->y_coord_offset;
 8052ce0:	e0bff517 	ldw	r2,-44(fp)
 8052ce4:	14c01317 	ldw	r19,76(r2)
		addr = addr + (line_y << offset_y);
 8052ce8:	a4c4983a 	sll	r2,r20,r19
 8052cec:	80a1883a 	add	r16,r16,r2
		
		/* This portion of the code is purposefully replicated. This is because having a text for
		 * the mode would unnecessarily slow down the drawing of a horizontal line. */
		if (pixel_buffer->color_mode == ALT_UP_8BIT_COLOR_MODE) {
 8052cf0:	e0bff517 	ldw	r2,-44(fp)
 8052cf4:	10800e17 	ldw	r2,56(r2)
 8052cf8:	10800058 	cmpnei	r2,r2,1
 8052cfc:	1000071e 	bne	r2,zero,8052d1c <alt_up_pixel_buffer_dma_draw_hline+0xe4>
			for (x = l_x; x <= r_x; x++)
 8052d00:	00000406 	br	8052d14 <alt_up_pixel_buffer_dma_draw_hline+0xdc>
			{
				IOWR_8DIRECT(addr, x, local_color);
 8052d04:	8c05883a 	add	r2,r17,r16
 8052d08:	a807883a 	mov	r3,r21
 8052d0c:	10c00025 	stbio	r3,0(r2)
		addr = addr + (line_y << offset_y);
		
		/* This portion of the code is purposefully replicated. This is because having a text for
		 * the mode would unnecessarily slow down the drawing of a horizontal line. */
		if (pixel_buffer->color_mode == ALT_UP_8BIT_COLOR_MODE) {
			for (x = l_x; x <= r_x; x++)
 8052d10:	8c400044 	addi	r17,r17,1
 8052d14:	947ffb2e 	bgeu	r18,r17,8052d04 <__alt_data_end+0xfffeac64>
 8052d18:	00004706 	br	8052e38 <alt_up_pixel_buffer_dma_draw_hline+0x200>
			{
				IOWR_8DIRECT(addr, x, local_color);
			}
		} else if (pixel_buffer->color_mode == ALT_UP_16BIT_COLOR_MODE) {
 8052d1c:	e0bff517 	ldw	r2,-44(fp)
 8052d20:	10800e17 	ldw	r2,56(r2)
 8052d24:	10800098 	cmpnei	r2,r2,2
 8052d28:	10000e1e 	bne	r2,zero,8052d64 <alt_up_pixel_buffer_dma_draw_hline+0x12c>
			for (x = l_x; x <= r_x; x++)
 8052d2c:	00000506 	br	8052d44 <alt_up_pixel_buffer_dma_draw_hline+0x10c>
			{
				IOWR_16DIRECT(addr, x << 1, local_color);
 8052d30:	8c45883a 	add	r2,r17,r17
 8052d34:	1405883a 	add	r2,r2,r16
 8052d38:	a807883a 	mov	r3,r21
 8052d3c:	10c0002d 	sthio	r3,0(r2)
			for (x = l_x; x <= r_x; x++)
			{
				IOWR_8DIRECT(addr, x, local_color);
			}
		} else if (pixel_buffer->color_mode == ALT_UP_16BIT_COLOR_MODE) {
			for (x = l_x; x <= r_x; x++)
 8052d40:	8c400044 	addi	r17,r17,1
 8052d44:	947ffa2e 	bgeu	r18,r17,8052d30 <__alt_data_end+0xfffeac90>
 8052d48:	00003b06 	br	8052e38 <alt_up_pixel_buffer_dma_draw_hline+0x200>
		}
		else
		{
			for (x = l_x; x <= r_x; x++)
			{
				IOWR_32DIRECT(addr, x << 2, local_color);
 8052d4c:	8c45883a 	add	r2,r17,r17
 8052d50:	1085883a 	add	r2,r2,r2
 8052d54:	1405883a 	add	r2,r2,r16
 8052d58:	a807883a 	mov	r3,r21
 8052d5c:	10c00035 	stwio	r3,0(r2)
				IOWR_16DIRECT(addr, x << 1, local_color);
			}
		}
		else
		{
			for (x = l_x; x <= r_x; x++)
 8052d60:	8c400044 	addi	r17,r17,1
 8052d64:	947ff92e 	bgeu	r18,r17,8052d4c <__alt_data_end+0xfffeacac>
 8052d68:	00003306 	br	8052e38 <alt_up_pixel_buffer_dma_draw_hline+0x200>
	} else {
		/* Draw a horizontal line of a given color on the screen using the linear addressing mode. */
		register unsigned int x;
		/* This portion of the code is purposefully replicated. This is because having a text for
		 * the mode would unnecessarily slow down the drawing of a box. */
		if (pixel_buffer->color_mode == ALT_UP_8BIT_COLOR_MODE) {
 8052d6c:	e0bff517 	ldw	r2,-44(fp)
 8052d70:	10800e17 	ldw	r2,56(r2)
 8052d74:	10800058 	cmpnei	r2,r2,1
 8052d78:	10000b1e 	bne	r2,zero,8052da8 <alt_up_pixel_buffer_dma_draw_hline+0x170>
			addr = addr + line_y * limit_x;
 8052d7c:	980b883a 	mov	r5,r19
 8052d80:	a009883a 	mov	r4,r20
 8052d84:	8042dac0 	call	8042dac <__mulsi3>
 8052d88:	80a1883a 	add	r16,r16,r2
			for (x = l_x; x <= r_x; x++)
 8052d8c:	00000406 	br	8052da0 <alt_up_pixel_buffer_dma_draw_hline+0x168>
			{
				IOWR_8DIRECT(addr, x, local_color);
 8052d90:	8c05883a 	add	r2,r17,r16
 8052d94:	a807883a 	mov	r3,r21
 8052d98:	10c00025 	stbio	r3,0(r2)
		register unsigned int x;
		/* This portion of the code is purposefully replicated. This is because having a text for
		 * the mode would unnecessarily slow down the drawing of a box. */
		if (pixel_buffer->color_mode == ALT_UP_8BIT_COLOR_MODE) {
			addr = addr + line_y * limit_x;
			for (x = l_x; x <= r_x; x++)
 8052d9c:	8c400044 	addi	r17,r17,1
 8052da0:	947ffb2e 	bgeu	r18,r17,8052d90 <__alt_data_end+0xfffeacf0>
 8052da4:	00002406 	br	8052e38 <alt_up_pixel_buffer_dma_draw_hline+0x200>
			{
				IOWR_8DIRECT(addr, x, local_color);
			}
		} else if (pixel_buffer->color_mode == ALT_UP_16BIT_COLOR_MODE) {
 8052da8:	e0bff517 	ldw	r2,-44(fp)
 8052dac:	10800e17 	ldw	r2,56(r2)
 8052db0:	10800098 	cmpnei	r2,r2,2
 8052db4:	10000e1e 	bne	r2,zero,8052df0 <alt_up_pixel_buffer_dma_draw_hline+0x1b8>
			limit_x = limit_x << 1;
 8052db8:	9cc5883a 	add	r2,r19,r19
 8052dbc:	1027883a 	mov	r19,r2
			addr = addr + line_y * limit_x;
 8052dc0:	980b883a 	mov	r5,r19
 8052dc4:	a009883a 	mov	r4,r20
 8052dc8:	8042dac0 	call	8042dac <__mulsi3>
 8052dcc:	80a1883a 	add	r16,r16,r2
			for (x = l_x; x <= r_x; x++)
 8052dd0:	00000506 	br	8052de8 <alt_up_pixel_buffer_dma_draw_hline+0x1b0>
			{
				IOWR_16DIRECT(addr, x << 1, local_color);
 8052dd4:	8c45883a 	add	r2,r17,r17
 8052dd8:	1405883a 	add	r2,r2,r16
 8052ddc:	a807883a 	mov	r3,r21
 8052de0:	10c0002d 	sthio	r3,0(r2)
				IOWR_8DIRECT(addr, x, local_color);
			}
		} else if (pixel_buffer->color_mode == ALT_UP_16BIT_COLOR_MODE) {
			limit_x = limit_x << 1;
			addr = addr + line_y * limit_x;
			for (x = l_x; x <= r_x; x++)
 8052de4:	8c400044 	addi	r17,r17,1
 8052de8:	947ffa2e 	bgeu	r18,r17,8052dd4 <__alt_data_end+0xfffead34>
 8052dec:	00001206 	br	8052e38 <alt_up_pixel_buffer_dma_draw_hline+0x200>
				IOWR_16DIRECT(addr, x << 1, local_color);
			}
		}
		else
		{
			limit_x = limit_x << 2;
 8052df0:	9cc5883a 	add	r2,r19,r19
 8052df4:	1085883a 	add	r2,r2,r2
 8052df8:	1027883a 	mov	r19,r2
			addr = addr + line_y * limit_x;
 8052dfc:	980b883a 	mov	r5,r19
 8052e00:	a009883a 	mov	r4,r20
 8052e04:	8042dac0 	call	8042dac <__mulsi3>
 8052e08:	80a1883a 	add	r16,r16,r2
			for (x = l_x; x <= r_x; x++)
 8052e0c:	00000606 	br	8052e28 <alt_up_pixel_buffer_dma_draw_hline+0x1f0>
			{
				IOWR_32DIRECT(addr, x << 2, local_color);
 8052e10:	8c45883a 	add	r2,r17,r17
 8052e14:	1085883a 	add	r2,r2,r2
 8052e18:	1405883a 	add	r2,r2,r16
 8052e1c:	a807883a 	mov	r3,r21
 8052e20:	10c00035 	stwio	r3,0(r2)
		}
		else
		{
			limit_x = limit_x << 2;
			addr = addr + line_y * limit_x;
			for (x = l_x; x <= r_x; x++)
 8052e24:	8c400044 	addi	r17,r17,1
 8052e28:	947ff92e 	bgeu	r18,r17,8052e10 <__alt_data_end+0xfffead70>
			{
				IOWR_32DIRECT(addr, x << 2, local_color);
			}
			addr = addr + limit_x;
 8052e2c:	84e1883a 	add	r16,r16,r19
 8052e30:	00000106 	br	8052e38 <alt_up_pixel_buffer_dma_draw_hline+0x200>
		r_x = temp;
	}
	if ((l_x >= limit_x) || (line_y >= limit_y) || (r_x < 0) || (line_y < 0))
	{
		/* Drawing outside of the window, so don't bother. */
		return;
 8052e34:	0001883a 	nop
				IOWR_32DIRECT(addr, x << 2, local_color);
			}
			addr = addr + limit_x;
		}
	}
}
 8052e38:	e6fff904 	addi	sp,fp,-28
 8052e3c:	dfc00817 	ldw	ra,32(sp)
 8052e40:	df000717 	ldw	fp,28(sp)
 8052e44:	dd800617 	ldw	r22,24(sp)
 8052e48:	dd400517 	ldw	r21,20(sp)
 8052e4c:	dd000417 	ldw	r20,16(sp)
 8052e50:	dcc00317 	ldw	r19,12(sp)
 8052e54:	dc800217 	ldw	r18,8(sp)
 8052e58:	dc400117 	ldw	r17,4(sp)
 8052e5c:	dc000017 	ldw	r16,0(sp)
 8052e60:	dec00904 	addi	sp,sp,36
 8052e64:	f800283a 	ret

08052e68 <alt_up_pixel_buffer_dma_draw_vline>:


void alt_up_pixel_buffer_dma_draw_vline(alt_up_pixel_buffer_dma_dev *pixel_buffer, int x, int y0, int y1, int color, int backbuffer)
/* This method draws a vertical line. This method is faster than using the line method because we know the direction of the line. */

{
 8052e68:	defff304 	addi	sp,sp,-52
 8052e6c:	dfc00c15 	stw	ra,48(sp)
 8052e70:	df000b15 	stw	fp,44(sp)
 8052e74:	dd800a15 	stw	r22,40(sp)
 8052e78:	dd400915 	stw	r21,36(sp)
 8052e7c:	dd000815 	stw	r20,32(sp)
 8052e80:	dcc00715 	stw	r19,28(sp)
 8052e84:	dc800615 	stw	r18,24(sp)
 8052e88:	dc400515 	stw	r17,20(sp)
 8052e8c:	dc000415 	stw	r16,16(sp)
 8052e90:	df000b04 	addi	fp,sp,44
 8052e94:	e13ff515 	stw	r4,-44(fp)
 8052e98:	e17ff615 	stw	r5,-40(fp)
 8052e9c:	e1bff715 	stw	r6,-36(fp)
 8052ea0:	e1fff815 	stw	r7,-32(fp)
	register unsigned int addr;
	register unsigned int limit_x = pixel_buffer->x_resolution;
 8052ea4:	e0bff517 	ldw	r2,-44(fp)
 8052ea8:	14c00f17 	ldw	r19,60(r2)
	register unsigned int limit_y = pixel_buffer->y_resolution;
 8052eac:	e0bff517 	ldw	r2,-44(fp)
 8052eb0:	14001017 	ldw	r16,64(r2)
	register unsigned int temp;
	register unsigned int line_x = x;
 8052eb4:	e47ff617 	ldw	r17,-40(fp)
	register unsigned int t_y = y0;
 8052eb8:	e53ff717 	ldw	r20,-36(fp)
	register unsigned int b_y = y1;
 8052ebc:	e4bff817 	ldw	r18,-32(fp)
	register unsigned int local_color = color;
 8052ec0:	e5800217 	ldw	r22,8(fp)
	
	/* Check coordinates */
	if (t_y > b_y)
 8052ec4:	9500032e 	bgeu	r18,r20,8052ed4 <alt_up_pixel_buffer_dma_draw_vline+0x6c>
	{
		temp = t_y;
 8052ec8:	a02b883a 	mov	r21,r20
		t_y = b_y;
 8052ecc:	9029883a 	mov	r20,r18
		b_y = temp;
 8052ed0:	a825883a 	mov	r18,r21
	}
	if ((line_x >= limit_x) || (t_y >= limit_y) || (line_x < 0) || (b_y < 0))
 8052ed4:	8cc0722e 	bgeu	r17,r19,80530a0 <alt_up_pixel_buffer_dma_draw_vline+0x238>
 8052ed8:	a400712e 	bgeu	r20,r16,80530a0 <alt_up_pixel_buffer_dma_draw_vline+0x238>
	/* Clip the box and draw only within the confines of the screen. */
	if (t_y < 0)
	{
		t_y = 0;
	}
	if (b_y >= limit_y)
 8052edc:	94000136 	bltu	r18,r16,8052ee4 <alt_up_pixel_buffer_dma_draw_vline+0x7c>
	{
		b_y = limit_y - 1;
 8052ee0:	84bfffc4 	addi	r18,r16,-1
	}

	/* Set up the address to start clearing from and the screen boundaries. */
	if (backbuffer == 1)
 8052ee4:	e0800317 	ldw	r2,12(fp)
 8052ee8:	10800058 	cmpnei	r2,r2,1
 8052eec:	1000031e 	bne	r2,zero,8052efc <alt_up_pixel_buffer_dma_draw_vline+0x94>
		addr = pixel_buffer->back_buffer_start_address;
 8052ef0:	e0bff517 	ldw	r2,-44(fp)
 8052ef4:	14000c17 	ldw	r16,48(r2)
 8052ef8:	00000206 	br	8052f04 <alt_up_pixel_buffer_dma_draw_vline+0x9c>
	else
		addr = pixel_buffer->buffer_start_address;
 8052efc:	e0bff517 	ldw	r2,-44(fp)
 8052f00:	14000b17 	ldw	r16,44(r2)

	/* Draw the vertical line using one of the addressing modes. */
	if (pixel_buffer->addressing_mode == ALT_UP_PIXEL_BUFFER_XY_ADDRESS_MODE) {
 8052f04:	e0bff517 	ldw	r2,-44(fp)
 8052f08:	10800d17 	ldw	r2,52(r2)
 8052f0c:	1000301e 	bne	r2,zero,8052fd0 <alt_up_pixel_buffer_dma_draw_vline+0x168>
		/* Draw a vertical line of a given color on the screen using the XY addressing mode. */
		register unsigned int y;
		register unsigned int offset_y;
		offset_y = pixel_buffer->y_coord_offset;
 8052f10:	e0bff517 	ldw	r2,-44(fp)
 8052f14:	15401317 	ldw	r21,76(r2)
		addr = addr + (t_y << offset_y);
 8052f18:	a544983a 	sll	r2,r20,r21
 8052f1c:	80a1883a 	add	r16,r16,r2
		
		/* This portion of the code is purposefully replicated. This is because having a text for
		 * the mode would unnecessarily slow down the drawing of a box. */
		if (pixel_buffer->color_mode == ALT_UP_8BIT_COLOR_MODE) {
 8052f20:	e0bff517 	ldw	r2,-44(fp)
 8052f24:	10800e17 	ldw	r2,56(r2)
 8052f28:	10800058 	cmpnei	r2,r2,1
 8052f2c:	10000b1e 	bne	r2,zero,8052f5c <alt_up_pixel_buffer_dma_draw_vline+0xf4>
			for (y = t_y; y <= b_y; y++)
 8052f30:	a027883a 	mov	r19,r20
 8052f34:	00000706 	br	8052f54 <alt_up_pixel_buffer_dma_draw_vline+0xec>
			{
				IOWR_8DIRECT(addr, line_x, local_color);
 8052f38:	8c05883a 	add	r2,r17,r16
 8052f3c:	b007883a 	mov	r3,r22
 8052f40:	10c00025 	stbio	r3,0(r2)
				addr = addr + (1 << offset_y);
 8052f44:	00800044 	movi	r2,1
 8052f48:	1544983a 	sll	r2,r2,r21
 8052f4c:	80a1883a 	add	r16,r16,r2
		addr = addr + (t_y << offset_y);
		
		/* This portion of the code is purposefully replicated. This is because having a text for
		 * the mode would unnecessarily slow down the drawing of a box. */
		if (pixel_buffer->color_mode == ALT_UP_8BIT_COLOR_MODE) {
			for (y = t_y; y <= b_y; y++)
 8052f50:	9cc00044 	addi	r19,r19,1
 8052f54:	94fff82e 	bgeu	r18,r19,8052f38 <__alt_data_end+0xfffeae98>
 8052f58:	00005206 	br	80530a4 <alt_up_pixel_buffer_dma_draw_vline+0x23c>
			{
				IOWR_8DIRECT(addr, line_x, local_color);
				addr = addr + (1 << offset_y);
			}
		} else if (pixel_buffer->color_mode == ALT_UP_16BIT_COLOR_MODE) {
 8052f5c:	e0bff517 	ldw	r2,-44(fp)
 8052f60:	10800e17 	ldw	r2,56(r2)
 8052f64:	10800098 	cmpnei	r2,r2,2
 8052f68:	10000c1e 	bne	r2,zero,8052f9c <alt_up_pixel_buffer_dma_draw_vline+0x134>
			for (y = t_y; y <= b_y; y++)
 8052f6c:	a027883a 	mov	r19,r20
 8052f70:	00000806 	br	8052f94 <alt_up_pixel_buffer_dma_draw_vline+0x12c>
			{
				IOWR_16DIRECT(addr, line_x << 1, local_color);
 8052f74:	8c45883a 	add	r2,r17,r17
 8052f78:	1405883a 	add	r2,r2,r16
 8052f7c:	b007883a 	mov	r3,r22
 8052f80:	10c0002d 	sthio	r3,0(r2)
				addr = addr + (1 << offset_y);
 8052f84:	00800044 	movi	r2,1
 8052f88:	1544983a 	sll	r2,r2,r21
 8052f8c:	80a1883a 	add	r16,r16,r2
			{
				IOWR_8DIRECT(addr, line_x, local_color);
				addr = addr + (1 << offset_y);
			}
		} else if (pixel_buffer->color_mode == ALT_UP_16BIT_COLOR_MODE) {
			for (y = t_y; y <= b_y; y++)
 8052f90:	9cc00044 	addi	r19,r19,1
 8052f94:	94fff72e 	bgeu	r18,r19,8052f74 <__alt_data_end+0xfffeaed4>
 8052f98:	00004206 	br	80530a4 <alt_up_pixel_buffer_dma_draw_vline+0x23c>
				addr = addr + (1 << offset_y);
			}
		}
		else
		{
			for (y = t_y; y <= b_y; y++)
 8052f9c:	a027883a 	mov	r19,r20
 8052fa0:	00000906 	br	8052fc8 <alt_up_pixel_buffer_dma_draw_vline+0x160>
			{
				IOWR_32DIRECT(addr, line_x << 2, local_color);
 8052fa4:	8c45883a 	add	r2,r17,r17
 8052fa8:	1085883a 	add	r2,r2,r2
 8052fac:	1405883a 	add	r2,r2,r16
 8052fb0:	b007883a 	mov	r3,r22
 8052fb4:	10c00035 	stwio	r3,0(r2)
				addr = addr + (1 << offset_y);
 8052fb8:	00800044 	movi	r2,1
 8052fbc:	1544983a 	sll	r2,r2,r21
 8052fc0:	80a1883a 	add	r16,r16,r2
				addr = addr + (1 << offset_y);
			}
		}
		else
		{
			for (y = t_y; y <= b_y; y++)
 8052fc4:	9cc00044 	addi	r19,r19,1
 8052fc8:	94fff62e 	bgeu	r18,r19,8052fa4 <__alt_data_end+0xfffeaf04>
 8052fcc:	00003506 	br	80530a4 <alt_up_pixel_buffer_dma_draw_vline+0x23c>
	} else {
		/* Draw a vertical line of a given color on the screen using the linear addressing mode. */
		register unsigned int y;
		/* This portion of the code is purposefully replicated. This is because having a text for
		 * the mode would unnecessarily slow down the drawing of a box. */
		if (pixel_buffer->color_mode == ALT_UP_8BIT_COLOR_MODE) {
 8052fd0:	e0bff517 	ldw	r2,-44(fp)
 8052fd4:	10800e17 	ldw	r2,56(r2)
 8052fd8:	10800058 	cmpnei	r2,r2,1
 8052fdc:	10000c1e 	bne	r2,zero,8053010 <alt_up_pixel_buffer_dma_draw_vline+0x1a8>
			addr = addr + t_y * limit_x;
 8052fe0:	980b883a 	mov	r5,r19
 8052fe4:	a009883a 	mov	r4,r20
 8052fe8:	8042dac0 	call	8042dac <__mulsi3>
 8052fec:	80a1883a 	add	r16,r16,r2
			for (y = t_y; y <= b_y; y++)
 8052ff0:	00000506 	br	8053008 <alt_up_pixel_buffer_dma_draw_vline+0x1a0>
			{
				IOWR_8DIRECT(addr, line_x, local_color);
 8052ff4:	8c05883a 	add	r2,r17,r16
 8052ff8:	b007883a 	mov	r3,r22
 8052ffc:	10c00025 	stbio	r3,0(r2)
				addr = addr + limit_x;
 8053000:	84e1883a 	add	r16,r16,r19
		register unsigned int y;
		/* This portion of the code is purposefully replicated. This is because having a text for
		 * the mode would unnecessarily slow down the drawing of a box. */
		if (pixel_buffer->color_mode == ALT_UP_8BIT_COLOR_MODE) {
			addr = addr + t_y * limit_x;
			for (y = t_y; y <= b_y; y++)
 8053004:	a5000044 	addi	r20,r20,1
 8053008:	953ffa2e 	bgeu	r18,r20,8052ff4 <__alt_data_end+0xfffeaf54>
 805300c:	00002506 	br	80530a4 <alt_up_pixel_buffer_dma_draw_vline+0x23c>
			{
				IOWR_8DIRECT(addr, line_x, local_color);
				addr = addr + limit_x;
			}
		} else if (pixel_buffer->color_mode == ALT_UP_16BIT_COLOR_MODE) {
 8053010:	e0bff517 	ldw	r2,-44(fp)
 8053014:	10800e17 	ldw	r2,56(r2)
 8053018:	10800098 	cmpnei	r2,r2,2
 805301c:	10000f1e 	bne	r2,zero,805305c <alt_up_pixel_buffer_dma_draw_vline+0x1f4>
			limit_x = limit_x << 1;
 8053020:	9cc5883a 	add	r2,r19,r19
 8053024:	1027883a 	mov	r19,r2
			addr = addr + t_y * limit_x;
 8053028:	980b883a 	mov	r5,r19
 805302c:	a009883a 	mov	r4,r20
 8053030:	8042dac0 	call	8042dac <__mulsi3>
 8053034:	80a1883a 	add	r16,r16,r2
			for (y = t_y; y <= b_y; y++)
 8053038:	00000606 	br	8053054 <alt_up_pixel_buffer_dma_draw_vline+0x1ec>
			{
				IOWR_16DIRECT(addr, line_x << 1, local_color);
 805303c:	8c45883a 	add	r2,r17,r17
 8053040:	1405883a 	add	r2,r2,r16
 8053044:	b007883a 	mov	r3,r22
 8053048:	10c0002d 	sthio	r3,0(r2)
				addr = addr + limit_x;
 805304c:	84e1883a 	add	r16,r16,r19
				addr = addr + limit_x;
			}
		} else if (pixel_buffer->color_mode == ALT_UP_16BIT_COLOR_MODE) {
			limit_x = limit_x << 1;
			addr = addr + t_y * limit_x;
			for (y = t_y; y <= b_y; y++)
 8053050:	a5000044 	addi	r20,r20,1
 8053054:	953ff92e 	bgeu	r18,r20,805303c <__alt_data_end+0xfffeaf9c>
 8053058:	00001206 	br	80530a4 <alt_up_pixel_buffer_dma_draw_vline+0x23c>
				addr = addr + limit_x;
			}
		}
		else
		{
			limit_x = limit_x << 2;
 805305c:	9cc5883a 	add	r2,r19,r19
 8053060:	1085883a 	add	r2,r2,r2
 8053064:	1027883a 	mov	r19,r2
			addr = addr + t_y * limit_x;
 8053068:	980b883a 	mov	r5,r19
 805306c:	a009883a 	mov	r4,r20
 8053070:	8042dac0 	call	8042dac <__mulsi3>
 8053074:	80a1883a 	add	r16,r16,r2
			for (y = t_y; y <= b_y; y++)
 8053078:	00000706 	br	8053098 <alt_up_pixel_buffer_dma_draw_vline+0x230>
			{
				IOWR_32DIRECT(addr, line_x << 2, local_color);
 805307c:	8c45883a 	add	r2,r17,r17
 8053080:	1085883a 	add	r2,r2,r2
 8053084:	1405883a 	add	r2,r2,r16
 8053088:	b007883a 	mov	r3,r22
 805308c:	10c00035 	stwio	r3,0(r2)
				addr = addr + limit_x;
 8053090:	84e1883a 	add	r16,r16,r19
		}
		else
		{
			limit_x = limit_x << 2;
			addr = addr + t_y * limit_x;
			for (y = t_y; y <= b_y; y++)
 8053094:	a5000044 	addi	r20,r20,1
 8053098:	953ff82e 	bgeu	r18,r20,805307c <__alt_data_end+0xfffeafdc>
 805309c:	00000106 	br	80530a4 <alt_up_pixel_buffer_dma_draw_vline+0x23c>
		b_y = temp;
	}
	if ((line_x >= limit_x) || (t_y >= limit_y) || (line_x < 0) || (b_y < 0))
	{
		/* Drawing outside of the window, so don't bother. */
		return;
 80530a0:	0001883a 	nop
				IOWR_32DIRECT(addr, line_x << 2, local_color);
				addr = addr + limit_x;
			}
		}
	}
}
 80530a4:	e6fff904 	addi	sp,fp,-28
 80530a8:	dfc00817 	ldw	ra,32(sp)
 80530ac:	df000717 	ldw	fp,28(sp)
 80530b0:	dd800617 	ldw	r22,24(sp)
 80530b4:	dd400517 	ldw	r21,20(sp)
 80530b8:	dd000417 	ldw	r20,16(sp)
 80530bc:	dcc00317 	ldw	r19,12(sp)
 80530c0:	dc800217 	ldw	r18,8(sp)
 80530c4:	dc400117 	ldw	r17,4(sp)
 80530c8:	dc000017 	ldw	r16,0(sp)
 80530cc:	dec00904 	addi	sp,sp,36
 80530d0:	f800283a 	ret

080530d4 <alt_up_pixel_buffer_dma_draw_rectangle>:

void alt_up_pixel_buffer_dma_draw_rectangle(alt_up_pixel_buffer_dma_dev *pixel_buffer, int x0, int y0, int x1, int y1, int color, int backbuffer)
{
 80530d4:	defff804 	addi	sp,sp,-32
 80530d8:	dfc00715 	stw	ra,28(sp)
 80530dc:	df000615 	stw	fp,24(sp)
 80530e0:	df000604 	addi	fp,sp,24
 80530e4:	e13ffc15 	stw	r4,-16(fp)
 80530e8:	e17ffd15 	stw	r5,-12(fp)
 80530ec:	e1bffe15 	stw	r6,-8(fp)
 80530f0:	e1ffff15 	stw	r7,-4(fp)
	alt_up_pixel_buffer_dma_draw_hline(pixel_buffer, x0, x1, y0, color, backbuffer);
 80530f4:	e0800417 	ldw	r2,16(fp)
 80530f8:	d8800115 	stw	r2,4(sp)
 80530fc:	e0800317 	ldw	r2,12(fp)
 8053100:	d8800015 	stw	r2,0(sp)
 8053104:	e1fffe17 	ldw	r7,-8(fp)
 8053108:	e1bfff17 	ldw	r6,-4(fp)
 805310c:	e17ffd17 	ldw	r5,-12(fp)
 8053110:	e13ffc17 	ldw	r4,-16(fp)
 8053114:	8052c380 	call	8052c38 <alt_up_pixel_buffer_dma_draw_hline>
	alt_up_pixel_buffer_dma_draw_hline(pixel_buffer, x0, x1, y1, color, backbuffer);
 8053118:	e0800417 	ldw	r2,16(fp)
 805311c:	d8800115 	stw	r2,4(sp)
 8053120:	e0800317 	ldw	r2,12(fp)
 8053124:	d8800015 	stw	r2,0(sp)
 8053128:	e1c00217 	ldw	r7,8(fp)
 805312c:	e1bfff17 	ldw	r6,-4(fp)
 8053130:	e17ffd17 	ldw	r5,-12(fp)
 8053134:	e13ffc17 	ldw	r4,-16(fp)
 8053138:	8052c380 	call	8052c38 <alt_up_pixel_buffer_dma_draw_hline>
	alt_up_pixel_buffer_dma_draw_vline(pixel_buffer, x0, y0, y1, color, backbuffer);
 805313c:	e0800417 	ldw	r2,16(fp)
 8053140:	d8800115 	stw	r2,4(sp)
 8053144:	e0800317 	ldw	r2,12(fp)
 8053148:	d8800015 	stw	r2,0(sp)
 805314c:	e1c00217 	ldw	r7,8(fp)
 8053150:	e1bffe17 	ldw	r6,-8(fp)
 8053154:	e17ffd17 	ldw	r5,-12(fp)
 8053158:	e13ffc17 	ldw	r4,-16(fp)
 805315c:	8052e680 	call	8052e68 <alt_up_pixel_buffer_dma_draw_vline>
	alt_up_pixel_buffer_dma_draw_vline(pixel_buffer, x1, y0, y1, color, backbuffer);
 8053160:	e0800417 	ldw	r2,16(fp)
 8053164:	d8800115 	stw	r2,4(sp)
 8053168:	e0800317 	ldw	r2,12(fp)
 805316c:	d8800015 	stw	r2,0(sp)
 8053170:	e1c00217 	ldw	r7,8(fp)
 8053174:	e1bffe17 	ldw	r6,-8(fp)
 8053178:	e17fff17 	ldw	r5,-4(fp)
 805317c:	e13ffc17 	ldw	r4,-16(fp)
 8053180:	8052e680 	call	8052e68 <alt_up_pixel_buffer_dma_draw_vline>
}
 8053184:	0001883a 	nop
 8053188:	e037883a 	mov	sp,fp
 805318c:	dfc00117 	ldw	ra,4(sp)
 8053190:	df000017 	ldw	fp,0(sp)
 8053194:	dec00204 	addi	sp,sp,8
 8053198:	f800283a 	ret

0805319c <helper_plot_pixel>:

void helper_plot_pixel(register unsigned int buffer_start, register int line_size, register int x, register int y, register int color, register int mode)
/* This is a helper function that draws a pixel at a given location. Note that no boundary checks are made,
 * so drawing off-screen may cause unpredictable side effects. */
{
 805319c:	defffb04 	addi	sp,sp,-20
 80531a0:	dfc00415 	stw	ra,16(sp)
 80531a4:	df000315 	stw	fp,12(sp)
 80531a8:	dc800215 	stw	r18,8(sp)
 80531ac:	dc400115 	stw	r17,4(sp)
 80531b0:	dc000015 	stw	r16,0(sp)
 80531b4:	df000304 	addi	fp,sp,12
 80531b8:	2021883a 	mov	r16,r4
 80531bc:	2807883a 	mov	r3,r5
 80531c0:	3023883a 	mov	r17,r6
 80531c4:	3809883a 	mov	r4,r7
 80531c8:	e4800217 	ldw	r18,8(fp)
 80531cc:	e0800317 	ldw	r2,12(fp)
	if (mode == 0)
 80531d0:	1000071e 	bne	r2,zero,80531f0 <helper_plot_pixel+0x54>
		IOWR_8DIRECT(buffer_start, line_size*y+x, color);
 80531d4:	200b883a 	mov	r5,r4
 80531d8:	1809883a 	mov	r4,r3
 80531dc:	8042dac0 	call	8042dac <__mulsi3>
 80531e0:	1445883a 	add	r2,r2,r17
 80531e4:	1405883a 	add	r2,r2,r16
 80531e8:	14800025 	stbio	r18,0(r2)
	else if (mode == 1)
		IOWR_16DIRECT(buffer_start, (line_size*y+x) << 1, color);
	else
		IOWR_32DIRECT(buffer_start, (line_size*y+x) << 2, color);
}
 80531ec:	00001206 	br	8053238 <helper_plot_pixel+0x9c>
/* This is a helper function that draws a pixel at a given location. Note that no boundary checks are made,
 * so drawing off-screen may cause unpredictable side effects. */
{
	if (mode == 0)
		IOWR_8DIRECT(buffer_start, line_size*y+x, color);
	else if (mode == 1)
 80531f0:	10800058 	cmpnei	r2,r2,1
 80531f4:	1000081e 	bne	r2,zero,8053218 <helper_plot_pixel+0x7c>
		IOWR_16DIRECT(buffer_start, (line_size*y+x) << 1, color);
 80531f8:	200b883a 	mov	r5,r4
 80531fc:	1809883a 	mov	r4,r3
 8053200:	8042dac0 	call	8042dac <__mulsi3>
 8053204:	1445883a 	add	r2,r2,r17
 8053208:	1085883a 	add	r2,r2,r2
 805320c:	1405883a 	add	r2,r2,r16
 8053210:	1480002d 	sthio	r18,0(r2)
	else
		IOWR_32DIRECT(buffer_start, (line_size*y+x) << 2, color);
}
 8053214:	00000806 	br	8053238 <helper_plot_pixel+0x9c>
	if (mode == 0)
		IOWR_8DIRECT(buffer_start, line_size*y+x, color);
	else if (mode == 1)
		IOWR_16DIRECT(buffer_start, (line_size*y+x) << 1, color);
	else
		IOWR_32DIRECT(buffer_start, (line_size*y+x) << 2, color);
 8053218:	200b883a 	mov	r5,r4
 805321c:	1809883a 	mov	r4,r3
 8053220:	8042dac0 	call	8042dac <__mulsi3>
 8053224:	1445883a 	add	r2,r2,r17
 8053228:	1085883a 	add	r2,r2,r2
 805322c:	1085883a 	add	r2,r2,r2
 8053230:	1405883a 	add	r2,r2,r16
 8053234:	14800035 	stwio	r18,0(r2)
}
 8053238:	0001883a 	nop
 805323c:	e6fffd04 	addi	sp,fp,-12
 8053240:	dfc00417 	ldw	ra,16(sp)
 8053244:	df000317 	ldw	fp,12(sp)
 8053248:	dc800217 	ldw	r18,8(sp)
 805324c:	dc400117 	ldw	r17,4(sp)
 8053250:	dc000017 	ldw	r16,0(sp)
 8053254:	dec00504 	addi	sp,sp,20
 8053258:	f800283a 	ret

0805325c <alt_up_pixel_buffer_dma_draw_line>:

void alt_up_pixel_buffer_dma_draw_line(alt_up_pixel_buffer_dma_dev *pixel_buffer, int x0, int y0, int x1, int y1, int color, int backbuffer)
/* This function draws a line between points (x0, y0) and (x1, y1). The function does not check if it draws a pixel within screen boundaries.
 * users should ensure that the line is drawn within the screen boundaries. */
{
 805325c:	deffeb04 	addi	sp,sp,-84
 8053260:	dfc01415 	stw	ra,80(sp)
 8053264:	df001315 	stw	fp,76(sp)
 8053268:	ddc01215 	stw	r23,72(sp)
 805326c:	dd801115 	stw	r22,68(sp)
 8053270:	dd401015 	stw	r21,64(sp)
 8053274:	dd000f15 	stw	r20,60(sp)
 8053278:	dcc00e15 	stw	r19,56(sp)
 805327c:	dc800d15 	stw	r18,52(sp)
 8053280:	dc400c15 	stw	r17,48(sp)
 8053284:	dc000b15 	stw	r16,44(sp)
 8053288:	df001304 	addi	fp,sp,76
 805328c:	e13fef15 	stw	r4,-68(fp)
 8053290:	e17ff015 	stw	r5,-64(fp)
 8053294:	e1bff115 	stw	r6,-60(fp)
 8053298:	e1fff215 	stw	r7,-56(fp)
	register int x_0 = x0;
 805329c:	e47ff017 	ldw	r17,-64(fp)
	register int y_0 = y0;
 80532a0:	e4fff117 	ldw	r19,-60(fp)
	register int x_1 = x1;
 80532a4:	e4bff217 	ldw	r18,-56(fp)
	register int y_1 = y1;
 80532a8:	e5000217 	ldw	r20,8(fp)
	register char steep = (ABS(y_1 - y_0) > ABS(x_1 - x_0)) ? 1 : 0;
 80532ac:	a4c5c83a 	sub	r2,r20,r19
 80532b0:	1000010e 	bge	r2,zero,80532b8 <alt_up_pixel_buffer_dma_draw_line+0x5c>
 80532b4:	0085c83a 	sub	r2,zero,r2
 80532b8:	1007883a 	mov	r3,r2
 80532bc:	9445c83a 	sub	r2,r18,r17
 80532c0:	1000010e 	bge	r2,zero,80532c8 <alt_up_pixel_buffer_dma_draw_line+0x6c>
 80532c4:	0085c83a 	sub	r2,zero,r2
 80532c8:	10c4803a 	cmplt	r2,r2,r3
 80532cc:	e0bff305 	stb	r2,-52(fp)
	register int deltax, deltay, error, ystep, x, y;
	register int color_mode =	(pixel_buffer->color_mode == ALT_UP_8BIT_COLOR_MODE) ? 0 :
 80532d0:	e0bfef17 	ldw	r2,-68(fp)
 80532d4:	10800e17 	ldw	r2,56(r2)
 80532d8:	10800060 	cmpeqi	r2,r2,1
 80532dc:	1000081e 	bne	r2,zero,8053300 <alt_up_pixel_buffer_dma_draw_line+0xa4>
								(pixel_buffer->color_mode == ALT_UP_16BIT_COLOR_MODE) ? 1 : 2;
 80532e0:	e0bfef17 	ldw	r2,-68(fp)
 80532e4:	10800e17 	ldw	r2,56(r2)
 80532e8:	10800098 	cmpnei	r2,r2,2
 80532ec:	1000021e 	bne	r2,zero,80532f8 <alt_up_pixel_buffer_dma_draw_line+0x9c>
 80532f0:	00800044 	movi	r2,1
 80532f4:	00000306 	br	8053304 <alt_up_pixel_buffer_dma_draw_line+0xa8>
 80532f8:	00800084 	movi	r2,2
 80532fc:	00000106 	br	8053304 <alt_up_pixel_buffer_dma_draw_line+0xa8>
	register int y_0 = y0;
	register int x_1 = x1;
	register int y_1 = y1;
	register char steep = (ABS(y_1 - y_0) > ABS(x_1 - x_0)) ? 1 : 0;
	register int deltax, deltay, error, ystep, x, y;
	register int color_mode =	(pixel_buffer->color_mode == ALT_UP_8BIT_COLOR_MODE) ? 0 :
 8053300:	0005883a 	mov	r2,zero
 8053304:	e0bff415 	stw	r2,-48(fp)
								(pixel_buffer->color_mode == ALT_UP_16BIT_COLOR_MODE) ? 1 : 2;
	register int line_color = color;
 8053308:	e0800317 	ldw	r2,12(fp)
 805330c:	e0bff515 	stw	r2,-44(fp)
	register unsigned int buffer_start;
	register int line_size = (pixel_buffer->addressing_mode == ALT_UP_PIXEL_BUFFER_XY_ADDRESS_MODE) ? (1 << (pixel_buffer->y_coord_offset-color_mode)) : pixel_buffer->x_resolution;
 8053310:	e0bfef17 	ldw	r2,-68(fp)
 8053314:	10800d17 	ldw	r2,52(r2)
 8053318:	1000071e 	bne	r2,zero,8053338 <alt_up_pixel_buffer_dma_draw_line+0xdc>
 805331c:	e0bfef17 	ldw	r2,-68(fp)
 8053320:	10801317 	ldw	r2,76(r2)
 8053324:	e0fff417 	ldw	r3,-48(fp)
 8053328:	10c5c83a 	sub	r2,r2,r3
 805332c:	00c00044 	movi	r3,1
 8053330:	1884983a 	sll	r2,r3,r2
 8053334:	00000206 	br	8053340 <alt_up_pixel_buffer_dma_draw_line+0xe4>
 8053338:	e0bfef17 	ldw	r2,-68(fp)
 805333c:	10800f17 	ldw	r2,60(r2)
 8053340:	e0bff615 	stw	r2,-40(fp)

	if (backbuffer == 1)
 8053344:	e0800417 	ldw	r2,16(fp)
 8053348:	10800058 	cmpnei	r2,r2,1
 805334c:	1000031e 	bne	r2,zero,805335c <alt_up_pixel_buffer_dma_draw_line+0x100>
		buffer_start = pixel_buffer->back_buffer_start_address;
 8053350:	e0bfef17 	ldw	r2,-68(fp)
 8053354:	15c00c17 	ldw	r23,48(r2)
 8053358:	00000206 	br	8053364 <alt_up_pixel_buffer_dma_draw_line+0x108>
	else
		buffer_start = pixel_buffer->buffer_start_address;
 805335c:	e0bfef17 	ldw	r2,-68(fp)
 8053360:	15c00b17 	ldw	r23,44(r2)

	/* Preprocessing inputs */
	if (steep > 0) {
 8053364:	e0bff307 	ldb	r2,-52(fp)
 8053368:	0080060e 	bge	zero,r2,8053384 <alt_up_pixel_buffer_dma_draw_line+0x128>
		// Swap x_0 and y_0
		error = x_0;
 805336c:	8821883a 	mov	r16,r17
		x_0 = y_0;
 8053370:	9823883a 	mov	r17,r19
		y_0 = error;
 8053374:	8027883a 	mov	r19,r16
		// Swap x_1 and y_1
		error = x_1;
 8053378:	9021883a 	mov	r16,r18
		x_1 = y_1;
 805337c:	a025883a 	mov	r18,r20
		y_1 = error;
 8053380:	8029883a 	mov	r20,r16
	}
	if (x_0 > x_1) {
 8053384:	9440060e 	bge	r18,r17,80533a0 <alt_up_pixel_buffer_dma_draw_line+0x144>
		// Swap x_0 and x_1
		error = x_0;
 8053388:	8821883a 	mov	r16,r17
		x_0 = x_1;
 805338c:	9023883a 	mov	r17,r18
		x_1 = error;
 8053390:	8025883a 	mov	r18,r16
		// Swap y_0 and y_1
		error = y_0;
 8053394:	9821883a 	mov	r16,r19
		y_0 = y_1;
 8053398:	a027883a 	mov	r19,r20
		y_1 = error;
 805339c:	8029883a 	mov	r20,r16
	}

	/* Setup local variables */
	deltax = x_1 - x_0;
 80533a0:	946bc83a 	sub	r21,r18,r17
	deltay = ABS(y_1 - y_0);
 80533a4:	a4c5c83a 	sub	r2,r20,r19
 80533a8:	1000010e 	bge	r2,zero,80533b0 <alt_up_pixel_buffer_dma_draw_line+0x154>
 80533ac:	0085c83a 	sub	r2,zero,r2
 80533b0:	e0bff715 	stw	r2,-36(fp)
	error = -(deltax / 2); 
 80533b4:	a804d7fa 	srli	r2,r21,31
 80533b8:	1545883a 	add	r2,r2,r21
 80533bc:	1005d07a 	srai	r2,r2,1
 80533c0:	00a1c83a 	sub	r16,zero,r2
	y = y_0;
 80533c4:	982d883a 	mov	r22,r19
	if (y_0 < y_1)
 80533c8:	9d00020e 	bge	r19,r20,80533d4 <alt_up_pixel_buffer_dma_draw_line+0x178>
		ystep = 1;
 80533cc:	04c00044 	movi	r19,1
 80533d0:	00000106 	br	80533d8 <alt_up_pixel_buffer_dma_draw_line+0x17c>
	else
		ystep = -1;
 80533d4:	04ffffc4 	movi	r19,-1

	/* Draw a line - either go along the x axis (steep = 0) or along the y axis (steep = 1). The code is replicated to
	 * compile well on low optimization levels. */
	if (steep == 1)
 80533d8:	e0bff307 	ldb	r2,-52(fp)
 80533dc:	10800058 	cmpnei	r2,r2,1
 80533e0:	1000211e 	bne	r2,zero,8053468 <alt_up_pixel_buffer_dma_draw_line+0x20c>
	{
		for (x=x_0; x <= x_1; x++) {
 80533e4:	00000f06 	br	8053424 <alt_up_pixel_buffer_dma_draw_line+0x1c8>
			helper_plot_pixel(buffer_start, line_size, y, x, line_color, color_mode);
 80533e8:	e0bff417 	ldw	r2,-48(fp)
 80533ec:	d8800115 	stw	r2,4(sp)
 80533f0:	e0bff517 	ldw	r2,-44(fp)
 80533f4:	d8800015 	stw	r2,0(sp)
 80533f8:	880f883a 	mov	r7,r17
 80533fc:	b00d883a 	mov	r6,r22
 8053400:	e17ff617 	ldw	r5,-40(fp)
 8053404:	b809883a 	mov	r4,r23
 8053408:	805319c0 	call	805319c <helper_plot_pixel>
			error = error + deltay;
 805340c:	e0bff717 	ldw	r2,-36(fp)
 8053410:	80a1883a 	add	r16,r16,r2
			if (error > 0) {
 8053414:	0400020e 	bge	zero,r16,8053420 <alt_up_pixel_buffer_dma_draw_line+0x1c4>
				y = y + ystep;
 8053418:	b4ed883a 	add	r22,r22,r19
				error = error - deltax;
 805341c:	8561c83a 	sub	r16,r16,r21

	/* Draw a line - either go along the x axis (steep = 0) or along the y axis (steep = 1). The code is replicated to
	 * compile well on low optimization levels. */
	if (steep == 1)
	{
		for (x=x_0; x <= x_1; x++) {
 8053420:	8c400044 	addi	r17,r17,1
 8053424:	947ff00e 	bge	r18,r17,80533e8 <__alt_data_end+0xfffeb348>
				y = y + ystep;
				error = error - deltax;
			}
		}
	}
}
 8053428:	00001006 	br	805346c <alt_up_pixel_buffer_dma_draw_line+0x210>
		}
	}
	else
	{
		for (x=x_0; x <= x_1; x++) {
			helper_plot_pixel(buffer_start, line_size, x, y, line_color, color_mode);
 805342c:	e0bff417 	ldw	r2,-48(fp)
 8053430:	d8800115 	stw	r2,4(sp)
 8053434:	e0bff517 	ldw	r2,-44(fp)
 8053438:	d8800015 	stw	r2,0(sp)
 805343c:	b00f883a 	mov	r7,r22
 8053440:	880d883a 	mov	r6,r17
 8053444:	e17ff617 	ldw	r5,-40(fp)
 8053448:	b809883a 	mov	r4,r23
 805344c:	805319c0 	call	805319c <helper_plot_pixel>
			error = error + deltay;
 8053450:	e0bff717 	ldw	r2,-36(fp)
 8053454:	80a1883a 	add	r16,r16,r2
			if (error > 0) {
 8053458:	0400020e 	bge	zero,r16,8053464 <alt_up_pixel_buffer_dma_draw_line+0x208>
				y = y + ystep;
 805345c:	b4ed883a 	add	r22,r22,r19
				error = error - deltax;
 8053460:	8561c83a 	sub	r16,r16,r21
			}
		}
	}
	else
	{
		for (x=x_0; x <= x_1; x++) {
 8053464:	8c400044 	addi	r17,r17,1
 8053468:	947ff00e 	bge	r18,r17,805342c <__alt_data_end+0xfffeb38c>
				y = y + ystep;
				error = error - deltax;
			}
		}
	}
}
 805346c:	0001883a 	nop
 8053470:	e6fff804 	addi	sp,fp,-32
 8053474:	dfc00917 	ldw	ra,36(sp)
 8053478:	df000817 	ldw	fp,32(sp)
 805347c:	ddc00717 	ldw	r23,28(sp)
 8053480:	dd800617 	ldw	r22,24(sp)
 8053484:	dd400517 	ldw	r21,20(sp)
 8053488:	dd000417 	ldw	r20,16(sp)
 805348c:	dcc00317 	ldw	r19,12(sp)
 8053490:	dc800217 	ldw	r18,8(sp)
 8053494:	dc400117 	ldw	r17,4(sp)
 8053498:	dc000017 	ldw	r16,0(sp)
 805349c:	dec00a04 	addi	sp,sp,40
 80534a0:	f800283a 	ret

080534a4 <alt_busy_sleep>:
#include "alt_types.h"

#include "priv/alt_busy_sleep.h"

unsigned int alt_busy_sleep (unsigned int us)
{
 80534a4:	defffa04 	addi	sp,sp,-24
 80534a8:	dfc00515 	stw	ra,20(sp)
 80534ac:	df000415 	stw	fp,16(sp)
 80534b0:	df000404 	addi	fp,sp,16
 80534b4:	e13fff15 	stw	r4,-4(fp)
  int big_loops;
  alt_u32 cycles_per_loop;
  
  if (!strcmp(NIOS2_CPU_IMPLEMENTATION,"tiny"))
  {
    cycles_per_loop = 9;
 80534b8:	00800244 	movi	r2,9
 80534bc:	e0bffd15 	stw	r2,-12(fp)
    cycles_per_loop = 3;
  }
  

  big_loops = us / (INT_MAX/
  (ALT_CPU_FREQ/(cycles_per_loop * 1000000)));
 80534c0:	014003f4 	movhi	r5,15
 80534c4:	29509004 	addi	r5,r5,16960
 80534c8:	e13ffd17 	ldw	r4,-12(fp)
 80534cc:	8042dac0 	call	8042dac <__mulsi3>
 80534d0:	100b883a 	mov	r5,r2
 80534d4:	0100bef4 	movhi	r4,763
 80534d8:	213c2004 	addi	r4,r4,-3968
 80534dc:	8042cf00 	call	8042cf0 <__udivsi3>
  {
    cycles_per_loop = 3;
  }
  

  big_loops = us / (INT_MAX/
 80534e0:	100b883a 	mov	r5,r2
 80534e4:	01200034 	movhi	r4,32768
 80534e8:	213fffc4 	addi	r4,r4,-1
 80534ec:	8042cf00 	call	8042cf0 <__udivsi3>
 80534f0:	100b883a 	mov	r5,r2
 80534f4:	e13fff17 	ldw	r4,-4(fp)
 80534f8:	8042cf00 	call	8042cf0 <__udivsi3>
 80534fc:	e0bffe15 	stw	r2,-8(fp)
  (ALT_CPU_FREQ/(cycles_per_loop * 1000000)));

  if (big_loops)
 8053500:	e0bffe17 	ldw	r2,-8(fp)
 8053504:	10002a26 	beq	r2,zero,80535b0 <alt_busy_sleep+0x10c>
  {
    for(i=0;i<big_loops;i++)
 8053508:	e03ffc15 	stw	zero,-16(fp)
 805350c:	00001706 	br	805356c <alt_busy_sleep+0xc8>
      /*
      * Do NOT Try to single step the asm statement below 
      * (single step will never return)
      * Step out of this function or set a breakpoint after the asm statements
      */
      __asm__ volatile (
 8053510:	00a00034 	movhi	r2,32768
 8053514:	10bfffc4 	addi	r2,r2,-1
 8053518:	10bfffc4 	addi	r2,r2,-1
 805351c:	103ffe1e 	bne	r2,zero,8053518 <__alt_data_end+0xfffeb478>
        "\n\t.pushsection .debug_alt_sim_info"
        "\n\t.int 4, 0, 0b, 1b"
        "\n\t.popsection"
        :: "r" (INT_MAX));
      us -= (INT_MAX/(ALT_CPU_FREQ/
      (cycles_per_loop * 1000000)));
 8053520:	014003f4 	movhi	r5,15
 8053524:	29509004 	addi	r5,r5,16960
 8053528:	e13ffd17 	ldw	r4,-12(fp)
 805352c:	8042dac0 	call	8042dac <__mulsi3>
        "\n1:"
        "\n\t.pushsection .debug_alt_sim_info"
        "\n\t.int 4, 0, 0b, 1b"
        "\n\t.popsection"
        :: "r" (INT_MAX));
      us -= (INT_MAX/(ALT_CPU_FREQ/
 8053530:	100b883a 	mov	r5,r2
 8053534:	0100bef4 	movhi	r4,763
 8053538:	213c2004 	addi	r4,r4,-3968
 805353c:	8042cf00 	call	8042cf0 <__udivsi3>
 8053540:	100b883a 	mov	r5,r2
 8053544:	01200034 	movhi	r4,32768
 8053548:	213fffc4 	addi	r4,r4,-1
 805354c:	8042cf00 	call	8042cf0 <__udivsi3>
 8053550:	1007883a 	mov	r3,r2
 8053554:	e0bfff17 	ldw	r2,-4(fp)
 8053558:	10c5c83a 	sub	r2,r2,r3
 805355c:	e0bfff15 	stw	r2,-4(fp)
  big_loops = us / (INT_MAX/
  (ALT_CPU_FREQ/(cycles_per_loop * 1000000)));

  if (big_loops)
  {
    for(i=0;i<big_loops;i++)
 8053560:	e0bffc17 	ldw	r2,-16(fp)
 8053564:	10800044 	addi	r2,r2,1
 8053568:	e0bffc15 	stw	r2,-16(fp)
 805356c:	e0fffc17 	ldw	r3,-16(fp)
 8053570:	e0bffe17 	ldw	r2,-8(fp)
 8053574:	18bfe616 	blt	r3,r2,8053510 <__alt_data_end+0xfffeb470>
      "\n\tbne %0,zero,0b"
      "\n1:"
      "\n\t.pushsection .debug_alt_sim_info"
      "\n\t.int 4, 0, 0b, 1b"
      "\n\t.popsection"
      :: "r" (us*(ALT_CPU_FREQ/(cycles_per_loop * 1000000))));
 8053578:	014003f4 	movhi	r5,15
 805357c:	29509004 	addi	r5,r5,16960
 8053580:	e13ffd17 	ldw	r4,-12(fp)
 8053584:	8042dac0 	call	8042dac <__mulsi3>
 8053588:	100b883a 	mov	r5,r2
 805358c:	0100bef4 	movhi	r4,763
 8053590:	213c2004 	addi	r4,r4,-3968
 8053594:	8042cf00 	call	8042cf0 <__udivsi3>
 8053598:	e17fff17 	ldw	r5,-4(fp)
 805359c:	1009883a 	mov	r4,r2
 80535a0:	8042dac0 	call	8042dac <__mulsi3>
    /*
    * Do NOT Try to single step the asm statement below 
    * (single step will never return)
    * Step out of this function or set a breakpoint after the asm statements
    */
    __asm__ volatile (
 80535a4:	10bfffc4 	addi	r2,r2,-1
 80535a8:	103ffe1e 	bne	r2,zero,80535a4 <__alt_data_end+0xfffeb504>
 80535ac:	00000d06 	br	80535e4 <alt_busy_sleep+0x140>
      "\n\tbgt %0,zero,0b"
      "\n1:"
      "\n\t.pushsection .debug_alt_sim_info"
      "\n\t.int 4, 0, 0b, 1b"
      "\n\t.popsection"
      :: "r" (us*(ALT_CPU_FREQ/(cycles_per_loop * 1000000))));
 80535b0:	014003f4 	movhi	r5,15
 80535b4:	29509004 	addi	r5,r5,16960
 80535b8:	e13ffd17 	ldw	r4,-12(fp)
 80535bc:	8042dac0 	call	8042dac <__mulsi3>
 80535c0:	100b883a 	mov	r5,r2
 80535c4:	0100bef4 	movhi	r4,763
 80535c8:	213c2004 	addi	r4,r4,-3968
 80535cc:	8042cf00 	call	8042cf0 <__udivsi3>
 80535d0:	e17fff17 	ldw	r5,-4(fp)
 80535d4:	1009883a 	mov	r4,r2
 80535d8:	8042dac0 	call	8042dac <__mulsi3>
    /*
    * Do NOT Try to single step the asm statement below 
    * (single step will never return)
    * Step out of this function or set a breakpoint after the asm statements
    */
    __asm__ volatile (
 80535dc:	10bfffc4 	addi	r2,r2,-1
 80535e0:	00bffe16 	blt	zero,r2,80535dc <__alt_data_end+0xfffeb53c>
      "\n\t.int 4, 0, 0b, 1b"
      "\n\t.popsection"
      :: "r" (us*(ALT_CPU_FREQ/(cycles_per_loop * 1000000))));
  }
#endif /* #ifndef ALT_SIM_OPTIMIZE */
  return 0;
 80535e4:	0005883a 	mov	r2,zero
}
 80535e8:	e037883a 	mov	sp,fp
 80535ec:	dfc00117 	ldw	ra,4(sp)
 80535f0:	df000017 	ldw	fp,0(sp)
 80535f4:	dec00204 	addi	sp,sp,8
 80535f8:	f800283a 	ret

080535fc <alt_dcache_flush_all>:
/*
 * alt_dcache_flush_all() is called to flush the entire data cache.
 */

void alt_dcache_flush_all (void)
{
 80535fc:	deffff04 	addi	sp,sp,-4
 8053600:	df000015 	stw	fp,0(sp)
 8053604:	d839883a 	mov	fp,sp
  for (i = (char*) 0; i < (char*) NIOS2_DCACHE_SIZE; i+= NIOS2_DCACHE_LINE_SIZE)
  { 
    __asm__ volatile ("flushd (%0)" :: "r" (i));
  }
#endif /* NIOS2_DCACHE_SIZE > 0 */
}
 8053608:	0001883a 	nop
 805360c:	e037883a 	mov	sp,fp
 8053610:	df000017 	ldw	fp,0(sp)
 8053614:	dec00104 	addi	sp,sp,4
 8053618:	f800283a 	ret

0805361c <alt_get_errno>:
#undef errno

extern int errno;

static ALT_INLINE int* alt_get_errno(void)
{
 805361c:	defffe04 	addi	sp,sp,-8
 8053620:	dfc00115 	stw	ra,4(sp)
 8053624:	df000015 	stw	fp,0(sp)
 8053628:	d839883a 	mov	fp,sp
  return ((alt_errno) ? alt_errno() : &errno);
 805362c:	d0a00c17 	ldw	r2,-32720(gp)
 8053630:	10000326 	beq	r2,zero,8053640 <alt_get_errno+0x24>
 8053634:	d0a00c17 	ldw	r2,-32720(gp)
 8053638:	103ee83a 	callr	r2
 805363c:	00000106 	br	8053644 <alt_get_errno+0x28>
 8053640:	d0a70f04 	addi	r2,gp,-25540
}
 8053644:	e037883a 	mov	sp,fp
 8053648:	dfc00117 	ldw	ra,4(sp)
 805364c:	df000017 	ldw	fp,0(sp)
 8053650:	dec00204 	addi	sp,sp,8
 8053654:	f800283a 	ret

08053658 <alt_dev_llist_insert>:
/*
 *
 */

int alt_dev_llist_insert (alt_dev_llist* dev, alt_llist* list)
{
 8053658:	defffa04 	addi	sp,sp,-24
 805365c:	dfc00515 	stw	ra,20(sp)
 8053660:	df000415 	stw	fp,16(sp)
 8053664:	df000404 	addi	fp,sp,16
 8053668:	e13ffe15 	stw	r4,-8(fp)
 805366c:	e17fff15 	stw	r5,-4(fp)
  /*
   * check that the device exists, and that it has a valid name.
   */

  if (!dev || !dev->name)
 8053670:	e0bffe17 	ldw	r2,-8(fp)
 8053674:	10000326 	beq	r2,zero,8053684 <alt_dev_llist_insert+0x2c>
 8053678:	e0bffe17 	ldw	r2,-8(fp)
 805367c:	10800217 	ldw	r2,8(r2)
 8053680:	1000061e 	bne	r2,zero,805369c <alt_dev_llist_insert+0x44>
  {
    ALT_ERRNO = EINVAL;
 8053684:	805361c0 	call	805361c <alt_get_errno>
 8053688:	1007883a 	mov	r3,r2
 805368c:	00800584 	movi	r2,22
 8053690:	18800015 	stw	r2,0(r3)
    return -EINVAL;
 8053694:	00bffa84 	movi	r2,-22
 8053698:	00001306 	br	80536e8 <alt_dev_llist_insert+0x90>
  
  /*
   * register the device.
   */
  
  alt_llist_insert(list, &dev->llist);
 805369c:	e0bffe17 	ldw	r2,-8(fp)
 80536a0:	e0ffff17 	ldw	r3,-4(fp)
 80536a4:	e0fffc15 	stw	r3,-16(fp)
 80536a8:	e0bffd15 	stw	r2,-12(fp)
 */

static ALT_INLINE void ALT_ALWAYS_INLINE alt_llist_insert(alt_llist* list, 
                alt_llist* entry)
{
  entry->previous = list;
 80536ac:	e0bffd17 	ldw	r2,-12(fp)
 80536b0:	e0fffc17 	ldw	r3,-16(fp)
 80536b4:	10c00115 	stw	r3,4(r2)
  entry->next     = list->next;
 80536b8:	e0bffc17 	ldw	r2,-16(fp)
 80536bc:	10c00017 	ldw	r3,0(r2)
 80536c0:	e0bffd17 	ldw	r2,-12(fp)
 80536c4:	10c00015 	stw	r3,0(r2)

  list->next->previous = entry;
 80536c8:	e0bffc17 	ldw	r2,-16(fp)
 80536cc:	10800017 	ldw	r2,0(r2)
 80536d0:	e0fffd17 	ldw	r3,-12(fp)
 80536d4:	10c00115 	stw	r3,4(r2)
  list->next           = entry;
 80536d8:	e0bffc17 	ldw	r2,-16(fp)
 80536dc:	e0fffd17 	ldw	r3,-12(fp)
 80536e0:	10c00015 	stw	r3,0(r2)

  return 0;  
 80536e4:	0005883a 	mov	r2,zero
}
 80536e8:	e037883a 	mov	sp,fp
 80536ec:	dfc00117 	ldw	ra,4(sp)
 80536f0:	df000017 	ldw	fp,0(sp)
 80536f4:	dec00204 	addi	sp,sp,8
 80536f8:	f800283a 	ret

080536fc <_do_ctors>:
/*
 * Run the C++ static constructors.
 */

void _do_ctors(void)
{
 80536fc:	defffd04 	addi	sp,sp,-12
 8053700:	dfc00215 	stw	ra,8(sp)
 8053704:	df000115 	stw	fp,4(sp)
 8053708:	df000104 	addi	fp,sp,4
  constructor* ctor;

  for (ctor = &__CTOR_END__[-1]; ctor >= __CTOR_LIST__; ctor--)
 805370c:	00820174 	movhi	r2,2053
 8053710:	10909b04 	addi	r2,r2,17004
 8053714:	e0bfff15 	stw	r2,-4(fp)
 8053718:	00000606 	br	8053734 <_do_ctors+0x38>
        (*ctor) (); 
 805371c:	e0bfff17 	ldw	r2,-4(fp)
 8053720:	10800017 	ldw	r2,0(r2)
 8053724:	103ee83a 	callr	r2

void _do_ctors(void)
{
  constructor* ctor;

  for (ctor = &__CTOR_END__[-1]; ctor >= __CTOR_LIST__; ctor--)
 8053728:	e0bfff17 	ldw	r2,-4(fp)
 805372c:	10bfff04 	addi	r2,r2,-4
 8053730:	e0bfff15 	stw	r2,-4(fp)
 8053734:	e0ffff17 	ldw	r3,-4(fp)
 8053738:	00820174 	movhi	r2,2053
 805373c:	10909c04 	addi	r2,r2,17008
 8053740:	18bff62e 	bgeu	r3,r2,805371c <__alt_data_end+0xfffeb67c>
        (*ctor) (); 
}
 8053744:	0001883a 	nop
 8053748:	e037883a 	mov	sp,fp
 805374c:	dfc00117 	ldw	ra,4(sp)
 8053750:	df000017 	ldw	fp,0(sp)
 8053754:	dec00204 	addi	sp,sp,8
 8053758:	f800283a 	ret

0805375c <_do_dtors>:
/*
 * Run the C++ static destructors.
 */

void _do_dtors(void)
{
 805375c:	defffd04 	addi	sp,sp,-12
 8053760:	dfc00215 	stw	ra,8(sp)
 8053764:	df000115 	stw	fp,4(sp)
 8053768:	df000104 	addi	fp,sp,4
  destructor* dtor;

  for (dtor = &__DTOR_END__[-1]; dtor >= __DTOR_LIST__; dtor--)
 805376c:	00820174 	movhi	r2,2053
 8053770:	10909b04 	addi	r2,r2,17004
 8053774:	e0bfff15 	stw	r2,-4(fp)
 8053778:	00000606 	br	8053794 <_do_dtors+0x38>
        (*dtor) (); 
 805377c:	e0bfff17 	ldw	r2,-4(fp)
 8053780:	10800017 	ldw	r2,0(r2)
 8053784:	103ee83a 	callr	r2

void _do_dtors(void)
{
  destructor* dtor;

  for (dtor = &__DTOR_END__[-1]; dtor >= __DTOR_LIST__; dtor--)
 8053788:	e0bfff17 	ldw	r2,-4(fp)
 805378c:	10bfff04 	addi	r2,r2,-4
 8053790:	e0bfff15 	stw	r2,-4(fp)
 8053794:	e0ffff17 	ldw	r3,-4(fp)
 8053798:	00820174 	movhi	r2,2053
 805379c:	10909c04 	addi	r2,r2,17008
 80537a0:	18bff62e 	bgeu	r3,r2,805377c <__alt_data_end+0xfffeb6dc>
        (*dtor) (); 
}
 80537a4:	0001883a 	nop
 80537a8:	e037883a 	mov	sp,fp
 80537ac:	dfc00117 	ldw	ra,4(sp)
 80537b0:	df000017 	ldw	fp,0(sp)
 80537b4:	dec00204 	addi	sp,sp,8
 80537b8:	f800283a 	ret

080537bc <alt_find_dev>:
 * "name" must be an exact match for the devices registered name for a match to
 * be found.
 */
 
alt_dev* alt_find_dev(const char* name, alt_llist* llist)
{
 80537bc:	defffa04 	addi	sp,sp,-24
 80537c0:	dfc00515 	stw	ra,20(sp)
 80537c4:	df000415 	stw	fp,16(sp)
 80537c8:	df000404 	addi	fp,sp,16
 80537cc:	e13ffe15 	stw	r4,-8(fp)
 80537d0:	e17fff15 	stw	r5,-4(fp)
  alt_dev* next = (alt_dev*) llist->next;
 80537d4:	e0bfff17 	ldw	r2,-4(fp)
 80537d8:	10800017 	ldw	r2,0(r2)
 80537dc:	e0bffc15 	stw	r2,-16(fp)
  alt_32 len;

  len  = strlen(name) + 1;
 80537e0:	e13ffe17 	ldw	r4,-8(fp)
 80537e4:	80459cc0 	call	80459cc <strlen>
 80537e8:	10800044 	addi	r2,r2,1
 80537ec:	e0bffd15 	stw	r2,-12(fp)
  /*
   * Check each list entry in turn, until a match is found, or we reach the
   * end of the list (i.e. next winds up pointing back to the list head).
   */ 

  while (next != (alt_dev*) llist)
 80537f0:	00000d06 	br	8053828 <alt_find_dev+0x6c>
    /* 
     * memcmp() is used here rather than strcmp() in order to reduce the size
     * of the executable.
     */

    if (!memcmp (next->name, name, len))
 80537f4:	e0bffc17 	ldw	r2,-16(fp)
 80537f8:	10800217 	ldw	r2,8(r2)
 80537fc:	e0fffd17 	ldw	r3,-12(fp)
 8053800:	180d883a 	mov	r6,r3
 8053804:	e17ffe17 	ldw	r5,-8(fp)
 8053808:	1009883a 	mov	r4,r2
 805380c:	8053f280 	call	8053f28 <memcmp>
 8053810:	1000021e 	bne	r2,zero,805381c <alt_find_dev+0x60>
    {
      /* match found */

      return next;
 8053814:	e0bffc17 	ldw	r2,-16(fp)
 8053818:	00000706 	br	8053838 <alt_find_dev+0x7c>
    }
    next = (alt_dev*) next->llist.next;
 805381c:	e0bffc17 	ldw	r2,-16(fp)
 8053820:	10800017 	ldw	r2,0(r2)
 8053824:	e0bffc15 	stw	r2,-16(fp)
  /*
   * Check each list entry in turn, until a match is found, or we reach the
   * end of the list (i.e. next winds up pointing back to the list head).
   */ 

  while (next != (alt_dev*) llist)
 8053828:	e0fffc17 	ldw	r3,-16(fp)
 805382c:	e0bfff17 	ldw	r2,-4(fp)
 8053830:	18bff01e 	bne	r3,r2,80537f4 <__alt_data_end+0xfffeb754>
    next = (alt_dev*) next->llist.next;
  }
  
  /* No match found */
  
  return NULL;
 8053834:	0005883a 	mov	r2,zero
}
 8053838:	e037883a 	mov	sp,fp
 805383c:	dfc00117 	ldw	ra,4(sp)
 8053840:	df000017 	ldw	fp,0(sp)
 8053844:	dec00204 	addi	sp,sp,8
 8053848:	f800283a 	ret

0805384c <alt_icache_flush_all>:
/*
 * alt_icache_flush_all() is called to flush the entire instruction cache.
 */

void alt_icache_flush_all (void)
{
 805384c:	deffff04 	addi	sp,sp,-4
 8053850:	df000015 	stw	fp,0(sp)
 8053854:	d839883a 	mov	fp,sp
#if NIOS2_ICACHE_SIZE > 0
  alt_icache_flush (0, NIOS2_ICACHE_SIZE);
#endif
}
 8053858:	0001883a 	nop
 805385c:	e037883a 	mov	sp,fp
 8053860:	df000017 	ldw	fp,0(sp)
 8053864:	dec00104 	addi	sp,sp,4
 8053868:	f800283a 	ret

0805386c <alt_exception_cause_generated_bad_addr>:
 * Return: 1: BADADDR (bad_addr argument to handler) is valid
 *         0: BADADDR is not valid
 */
int 
alt_exception_cause_generated_bad_addr(alt_exception_cause cause)
{
 805386c:	defffe04 	addi	sp,sp,-8
 8053870:	df000115 	stw	fp,4(sp)
 8053874:	df000104 	addi	fp,sp,4
 8053878:	e13fff15 	stw	r4,-4(fp)
  switch (cause) {
 805387c:	e0bfff17 	ldw	r2,-4(fp)
 8053880:	10bffe84 	addi	r2,r2,-6
 8053884:	10c00428 	cmpgeui	r3,r2,16
 8053888:	18001a1e 	bne	r3,zero,80538f4 <alt_exception_cause_generated_bad_addr+0x88>
 805388c:	100690ba 	slli	r3,r2,2
 8053890:	00820174 	movhi	r2,2053
 8053894:	108e2904 	addi	r2,r2,14500
 8053898:	1885883a 	add	r2,r3,r2
 805389c:	10800017 	ldw	r2,0(r2)
 80538a0:	1000683a 	jmp	r2
 80538a4:	080538e4 	muli	zero,at,5347
 80538a8:	080538e4 	muli	zero,at,5347
 80538ac:	080538f4 	orhi	zero,at,5347
 80538b0:	080538f4 	orhi	zero,at,5347
 80538b4:	080538f4 	orhi	zero,at,5347
 80538b8:	080538e4 	muli	zero,at,5347
 80538bc:	080538ec 	andhi	zero,at,5347
 80538c0:	080538f4 	orhi	zero,at,5347
 80538c4:	080538e4 	muli	zero,at,5347
 80538c8:	080538e4 	muli	zero,at,5347
 80538cc:	080538f4 	orhi	zero,at,5347
 80538d0:	080538e4 	muli	zero,at,5347
 80538d4:	080538ec 	andhi	zero,at,5347
 80538d8:	080538f4 	orhi	zero,at,5347
 80538dc:	080538f4 	orhi	zero,at,5347
 80538e0:	080538e4 	muli	zero,at,5347
  case NIOS2_EXCEPTION_MISALIGNED_TARGET_PC:
  case NIOS2_EXCEPTION_TLB_READ_PERM_VIOLATION:
  case NIOS2_EXCEPTION_TLB_WRITE_PERM_VIOLATION:
  case NIOS2_EXCEPTION_MPU_DATA_REGION_VIOLATION:
  case NIOS2_EXCEPTION_ECC_DATA_ERR:
    return 1;
 80538e4:	00800044 	movi	r2,1
 80538e8:	00000306 	br	80538f8 <alt_exception_cause_generated_bad_addr+0x8c>

  case NIOS2_EXCEPTION_TLB_MISS:
  case NIOS2_EXCEPTION_ECC_TLB_ERR:
    return 0;
 80538ec:	0005883a 	mov	r2,zero
 80538f0:	00000106 	br	80538f8 <alt_exception_cause_generated_bad_addr+0x8c>

  default:
    return 0;
 80538f4:	0005883a 	mov	r2,zero
  }
}
 80538f8:	e037883a 	mov	sp,fp
 80538fc:	df000017 	ldw	fp,0(sp)
 8053900:	dec00104 	addi	sp,sp,4
 8053904:	f800283a 	ret

08053908 <alt_open_fd>:
 * If the device can not be succesfully opened, then the input file descriptor
 * remains unchanged.
 */

static void alt_open_fd(alt_fd* fd, const char* name, int flags, int mode)
{
 8053908:	defff804 	addi	sp,sp,-32
 805390c:	dfc00715 	stw	ra,28(sp)
 8053910:	df000615 	stw	fp,24(sp)
 8053914:	dc000515 	stw	r16,20(sp)
 8053918:	df000604 	addi	fp,sp,24
 805391c:	e13ffb15 	stw	r4,-20(fp)
 8053920:	e17ffc15 	stw	r5,-16(fp)
 8053924:	e1bffd15 	stw	r6,-12(fp)
 8053928:	e1fffe15 	stw	r7,-8(fp)
  int old;

  old = open (name, flags, mode);
 805392c:	e1bffe17 	ldw	r6,-8(fp)
 8053930:	e17ffd17 	ldw	r5,-12(fp)
 8053934:	e13ffc17 	ldw	r4,-16(fp)
 8053938:	8053b900 	call	8053b90 <open>
 805393c:	e0bffa15 	stw	r2,-24(fp)

  if (old >= 0)
 8053940:	e0bffa17 	ldw	r2,-24(fp)
 8053944:	10002216 	blt	r2,zero,80539d0 <alt_open_fd+0xc8>
  {
    fd->dev      = alt_fd_list[old].dev;
 8053948:	04020174 	movhi	r16,2053
 805394c:	84143c04 	addi	r16,r16,20720
 8053950:	e0bffa17 	ldw	r2,-24(fp)
 8053954:	01400304 	movi	r5,12
 8053958:	1009883a 	mov	r4,r2
 805395c:	8042dac0 	call	8042dac <__mulsi3>
 8053960:	8085883a 	add	r2,r16,r2
 8053964:	10c00017 	ldw	r3,0(r2)
 8053968:	e0bffb17 	ldw	r2,-20(fp)
 805396c:	10c00015 	stw	r3,0(r2)
    fd->priv     = alt_fd_list[old].priv;
 8053970:	04020174 	movhi	r16,2053
 8053974:	84143c04 	addi	r16,r16,20720
 8053978:	e0bffa17 	ldw	r2,-24(fp)
 805397c:	01400304 	movi	r5,12
 8053980:	1009883a 	mov	r4,r2
 8053984:	8042dac0 	call	8042dac <__mulsi3>
 8053988:	8085883a 	add	r2,r16,r2
 805398c:	10800104 	addi	r2,r2,4
 8053990:	10c00017 	ldw	r3,0(r2)
 8053994:	e0bffb17 	ldw	r2,-20(fp)
 8053998:	10c00115 	stw	r3,4(r2)
    fd->fd_flags = alt_fd_list[old].fd_flags;
 805399c:	04020174 	movhi	r16,2053
 80539a0:	84143c04 	addi	r16,r16,20720
 80539a4:	e0bffa17 	ldw	r2,-24(fp)
 80539a8:	01400304 	movi	r5,12
 80539ac:	1009883a 	mov	r4,r2
 80539b0:	8042dac0 	call	8042dac <__mulsi3>
 80539b4:	8085883a 	add	r2,r16,r2
 80539b8:	10800204 	addi	r2,r2,8
 80539bc:	10c00017 	ldw	r3,0(r2)
 80539c0:	e0bffb17 	ldw	r2,-20(fp)
 80539c4:	10c00215 	stw	r3,8(r2)

    alt_release_fd (old);
 80539c8:	e13ffa17 	ldw	r4,-24(fp)
 80539cc:	80509c80 	call	80509c8 <alt_release_fd>
  }
} 
 80539d0:	0001883a 	nop
 80539d4:	e6ffff04 	addi	sp,fp,-4
 80539d8:	dfc00217 	ldw	ra,8(sp)
 80539dc:	df000117 	ldw	fp,4(sp)
 80539e0:	dc000017 	ldw	r16,0(sp)
 80539e4:	dec00304 	addi	sp,sp,12
 80539e8:	f800283a 	ret

080539ec <alt_io_redirect>:
 */
 
void alt_io_redirect(const char* stdout_dev, 
                     const char* stdin_dev, 
                     const char* stderr_dev)
{
 80539ec:	defffb04 	addi	sp,sp,-20
 80539f0:	dfc00415 	stw	ra,16(sp)
 80539f4:	df000315 	stw	fp,12(sp)
 80539f8:	df000304 	addi	fp,sp,12
 80539fc:	e13ffd15 	stw	r4,-12(fp)
 8053a00:	e17ffe15 	stw	r5,-8(fp)
 8053a04:	e1bfff15 	stw	r6,-4(fp)
  /* Redirect the channels */

  alt_open_fd (&alt_fd_list[STDOUT_FILENO], stdout_dev, O_WRONLY, 0777);
 8053a08:	01c07fc4 	movi	r7,511
 8053a0c:	01800044 	movi	r6,1
 8053a10:	e17ffd17 	ldw	r5,-12(fp)
 8053a14:	01020174 	movhi	r4,2053
 8053a18:	21143f04 	addi	r4,r4,20732
 8053a1c:	80539080 	call	8053908 <alt_open_fd>
  alt_open_fd (&alt_fd_list[STDIN_FILENO], stdin_dev, O_RDONLY, 0777);
 8053a20:	01c07fc4 	movi	r7,511
 8053a24:	000d883a 	mov	r6,zero
 8053a28:	e17ffe17 	ldw	r5,-8(fp)
 8053a2c:	01020174 	movhi	r4,2053
 8053a30:	21143c04 	addi	r4,r4,20720
 8053a34:	80539080 	call	8053908 <alt_open_fd>
  alt_open_fd (&alt_fd_list[STDERR_FILENO], stderr_dev, O_WRONLY, 0777);
 8053a38:	01c07fc4 	movi	r7,511
 8053a3c:	01800044 	movi	r6,1
 8053a40:	e17fff17 	ldw	r5,-4(fp)
 8053a44:	01020174 	movhi	r4,2053
 8053a48:	21144204 	addi	r4,r4,20744
 8053a4c:	80539080 	call	8053908 <alt_open_fd>
}  
 8053a50:	0001883a 	nop
 8053a54:	e037883a 	mov	sp,fp
 8053a58:	dfc00117 	ldw	ra,4(sp)
 8053a5c:	df000017 	ldw	fp,0(sp)
 8053a60:	dec00204 	addi	sp,sp,8
 8053a64:	f800283a 	ret

08053a68 <alt_get_errno>:
#undef errno

extern int errno;

static ALT_INLINE int* alt_get_errno(void)
{
 8053a68:	defffe04 	addi	sp,sp,-8
 8053a6c:	dfc00115 	stw	ra,4(sp)
 8053a70:	df000015 	stw	fp,0(sp)
 8053a74:	d839883a 	mov	fp,sp
  return ((alt_errno) ? alt_errno() : &errno);
 8053a78:	d0a00c17 	ldw	r2,-32720(gp)
 8053a7c:	10000326 	beq	r2,zero,8053a8c <alt_get_errno+0x24>
 8053a80:	d0a00c17 	ldw	r2,-32720(gp)
 8053a84:	103ee83a 	callr	r2
 8053a88:	00000106 	br	8053a90 <alt_get_errno+0x28>
 8053a8c:	d0a70f04 	addi	r2,gp,-25540
}
 8053a90:	e037883a 	mov	sp,fp
 8053a94:	dfc00117 	ldw	ra,4(sp)
 8053a98:	df000017 	ldw	fp,0(sp)
 8053a9c:	dec00204 	addi	sp,sp,8
 8053aa0:	f800283a 	ret

08053aa4 <alt_file_locked>:
 * performed for devices. Filesystems are required to handle the ioctl() call
 * themselves, and report the error from the filesystems open() function. 
 */ 

static int alt_file_locked (alt_fd* fd)
{
 8053aa4:	defffb04 	addi	sp,sp,-20
 8053aa8:	dfc00415 	stw	ra,16(sp)
 8053aac:	df000315 	stw	fp,12(sp)
 8053ab0:	dc000215 	stw	r16,8(sp)
 8053ab4:	df000304 	addi	fp,sp,12
 8053ab8:	e13ffe15 	stw	r4,-8(fp)

  /*
   * Mark the file descriptor as belonging to a device.
   */

  fd->fd_flags |= ALT_FD_DEV;
 8053abc:	e0bffe17 	ldw	r2,-8(fp)
 8053ac0:	10800217 	ldw	r2,8(r2)
 8053ac4:	10d00034 	orhi	r3,r2,16384
 8053ac8:	e0bffe17 	ldw	r2,-8(fp)
 8053acc:	10c00215 	stw	r3,8(r2)
  /*
   * Loop through all current file descriptors searching for one that's locked
   * for exclusive access. If a match is found, generate an error.
   */

  for (i = 0; i <= alt_max_fd; i++)
 8053ad0:	e03ffd15 	stw	zero,-12(fp)
 8053ad4:	00002306 	br	8053b64 <alt_file_locked+0xc0>
  {
    if ((alt_fd_list[i].dev == fd->dev) &&
 8053ad8:	04020174 	movhi	r16,2053
 8053adc:	84143c04 	addi	r16,r16,20720
 8053ae0:	e0bffd17 	ldw	r2,-12(fp)
 8053ae4:	01400304 	movi	r5,12
 8053ae8:	1009883a 	mov	r4,r2
 8053aec:	8042dac0 	call	8042dac <__mulsi3>
 8053af0:	8085883a 	add	r2,r16,r2
 8053af4:	10c00017 	ldw	r3,0(r2)
 8053af8:	e0bffe17 	ldw	r2,-8(fp)
 8053afc:	10800017 	ldw	r2,0(r2)
 8053b00:	1880151e 	bne	r3,r2,8053b58 <alt_file_locked+0xb4>
        (alt_fd_list[i].fd_flags & ALT_FD_EXCL) &&
 8053b04:	04020174 	movhi	r16,2053
 8053b08:	84143c04 	addi	r16,r16,20720
 8053b0c:	e0bffd17 	ldw	r2,-12(fp)
 8053b10:	01400304 	movi	r5,12
 8053b14:	1009883a 	mov	r4,r2
 8053b18:	8042dac0 	call	8042dac <__mulsi3>
 8053b1c:	8085883a 	add	r2,r16,r2
 8053b20:	10800204 	addi	r2,r2,8
 8053b24:	10800017 	ldw	r2,0(r2)
   * for exclusive access. If a match is found, generate an error.
   */

  for (i = 0; i <= alt_max_fd; i++)
  {
    if ((alt_fd_list[i].dev == fd->dev) &&
 8053b28:	10000b0e 	bge	r2,zero,8053b58 <alt_file_locked+0xb4>
        (alt_fd_list[i].fd_flags & ALT_FD_EXCL) &&
        (&alt_fd_list[i] != fd))
 8053b2c:	01400304 	movi	r5,12
 8053b30:	e13ffd17 	ldw	r4,-12(fp)
 8053b34:	8042dac0 	call	8042dac <__mulsi3>
 8053b38:	1007883a 	mov	r3,r2
 8053b3c:	00820174 	movhi	r2,2053
 8053b40:	10943c04 	addi	r2,r2,20720
 8053b44:	1887883a 	add	r3,r3,r2
   */

  for (i = 0; i <= alt_max_fd; i++)
  {
    if ((alt_fd_list[i].dev == fd->dev) &&
        (alt_fd_list[i].fd_flags & ALT_FD_EXCL) &&
 8053b48:	e0bffe17 	ldw	r2,-8(fp)
 8053b4c:	18800226 	beq	r3,r2,8053b58 <alt_file_locked+0xb4>
        (&alt_fd_list[i] != fd))
    {
      return -EACCES;
 8053b50:	00bffcc4 	movi	r2,-13
 8053b54:	00000806 	br	8053b78 <alt_file_locked+0xd4>
  /*
   * Loop through all current file descriptors searching for one that's locked
   * for exclusive access. If a match is found, generate an error.
   */

  for (i = 0; i <= alt_max_fd; i++)
 8053b58:	e0bffd17 	ldw	r2,-12(fp)
 8053b5c:	10800044 	addi	r2,r2,1
 8053b60:	e0bffd15 	stw	r2,-12(fp)
 8053b64:	d0a00b17 	ldw	r2,-32724(gp)
 8053b68:	1007883a 	mov	r3,r2
 8053b6c:	e0bffd17 	ldw	r2,-12(fp)
 8053b70:	18bfd92e 	bgeu	r3,r2,8053ad8 <__alt_data_end+0xfffeba38>
    }
  }
  
  /* The device is not locked */
 
  return 0;
 8053b74:	0005883a 	mov	r2,zero
}
 8053b78:	e6ffff04 	addi	sp,fp,-4
 8053b7c:	dfc00217 	ldw	ra,8(sp)
 8053b80:	df000117 	ldw	fp,4(sp)
 8053b84:	dc000017 	ldw	r16,0(sp)
 8053b88:	dec00304 	addi	sp,sp,12
 8053b8c:	f800283a 	ret

08053b90 <open>:
 *
 * ALT_OPEN is mapped onto the open() system call in alt_syscall.h
 */
 
int ALT_OPEN (const char* file, int flags, int mode)
{ 
 8053b90:	defff604 	addi	sp,sp,-40
 8053b94:	dfc00915 	stw	ra,36(sp)
 8053b98:	df000815 	stw	fp,32(sp)
 8053b9c:	df000804 	addi	fp,sp,32
 8053ba0:	e13ffd15 	stw	r4,-12(fp)
 8053ba4:	e17ffe15 	stw	r5,-8(fp)
 8053ba8:	e1bfff15 	stw	r6,-4(fp)
  alt_dev* dev;
  alt_fd*  fd;
  int index  = -1;
 8053bac:	00bfffc4 	movi	r2,-1
 8053bb0:	e0bff915 	stw	r2,-28(fp)
  int status = -ENODEV;
 8053bb4:	00bffb44 	movi	r2,-19
 8053bb8:	e0bffa15 	stw	r2,-24(fp)
  int isafs = 0;
 8053bbc:	e03ffb15 	stw	zero,-20(fp)
  /* 
   * Check the device list, to see if a device with a matching name is 
   * registered.
   */
  
  if (!(dev = alt_find_dev (file, &alt_dev_list)))
 8053bc0:	d1600904 	addi	r5,gp,-32732
 8053bc4:	e13ffd17 	ldw	r4,-12(fp)
 8053bc8:	80537bc0 	call	80537bc <alt_find_dev>
 8053bcc:	e0bff815 	stw	r2,-32(fp)
 8053bd0:	e0bff817 	ldw	r2,-32(fp)
 8053bd4:	1000051e 	bne	r2,zero,8053bec <open+0x5c>
  {
    /* No matching device, so try the filesystem list */

    dev   = alt_find_file (file);
 8053bd8:	e13ffd17 	ldw	r4,-12(fp)
 8053bdc:	8053d100 	call	8053d10 <alt_find_file>
 8053be0:	e0bff815 	stw	r2,-32(fp)
    isafs = 1;
 8053be4:	00800044 	movi	r2,1
 8053be8:	e0bffb15 	stw	r2,-20(fp)

  /* 
   * If a matching device or filesystem is found, allocate a file descriptor. 
   */

  if (dev)
 8053bec:	e0bff817 	ldw	r2,-32(fp)
 8053bf0:	10002b26 	beq	r2,zero,8053ca0 <open+0x110>
  {
    if ((index = alt_get_fd (dev)) < 0)
 8053bf4:	e13ff817 	ldw	r4,-32(fp)
 8053bf8:	8053e180 	call	8053e18 <alt_get_fd>
 8053bfc:	e0bff915 	stw	r2,-28(fp)
 8053c00:	e0bff917 	ldw	r2,-28(fp)
 8053c04:	1000030e 	bge	r2,zero,8053c14 <open+0x84>
    {
      status = index;
 8053c08:	e0bff917 	ldw	r2,-28(fp)
 8053c0c:	e0bffa15 	stw	r2,-24(fp)
 8053c10:	00002506 	br	8053ca8 <open+0x118>
    }
    else
    {
      fd = &alt_fd_list[index];
 8053c14:	01400304 	movi	r5,12
 8053c18:	e13ff917 	ldw	r4,-28(fp)
 8053c1c:	8042dac0 	call	8042dac <__mulsi3>
 8053c20:	1007883a 	mov	r3,r2
 8053c24:	00820174 	movhi	r2,2053
 8053c28:	10943c04 	addi	r2,r2,20720
 8053c2c:	1885883a 	add	r2,r3,r2
 8053c30:	e0bffc15 	stw	r2,-16(fp)
      fd->fd_flags = (flags & ~ALT_FD_FLAGS_MASK);
 8053c34:	e0fffe17 	ldw	r3,-8(fp)
 8053c38:	00900034 	movhi	r2,16384
 8053c3c:	10bfffc4 	addi	r2,r2,-1
 8053c40:	1886703a 	and	r3,r3,r2
 8053c44:	e0bffc17 	ldw	r2,-16(fp)
 8053c48:	10c00215 	stw	r3,8(r2)
      
      /* If this is a device, ensure it isn't already locked */

      if (isafs || ((status = alt_file_locked (fd)) >= 0))
 8053c4c:	e0bffb17 	ldw	r2,-20(fp)
 8053c50:	1000051e 	bne	r2,zero,8053c68 <open+0xd8>
 8053c54:	e13ffc17 	ldw	r4,-16(fp)
 8053c58:	8053aa40 	call	8053aa4 <alt_file_locked>
 8053c5c:	e0bffa15 	stw	r2,-24(fp)
 8053c60:	e0bffa17 	ldw	r2,-24(fp)
 8053c64:	10001016 	blt	r2,zero,8053ca8 <open+0x118>
        /* 
         * If the device or filesystem provides an open() callback function,
         * call it now to perform any device/filesystem specific operations.
         */
    
        status = (dev->open) ? dev->open(fd, file, flags, mode): 0;
 8053c68:	e0bff817 	ldw	r2,-32(fp)
 8053c6c:	10800317 	ldw	r2,12(r2)
 8053c70:	10000826 	beq	r2,zero,8053c94 <open+0x104>
 8053c74:	e0bff817 	ldw	r2,-32(fp)
 8053c78:	10800317 	ldw	r2,12(r2)
 8053c7c:	e1ffff17 	ldw	r7,-4(fp)
 8053c80:	e1bffe17 	ldw	r6,-8(fp)
 8053c84:	e17ffd17 	ldw	r5,-12(fp)
 8053c88:	e13ffc17 	ldw	r4,-16(fp)
 8053c8c:	103ee83a 	callr	r2
 8053c90:	00000106 	br	8053c98 <open+0x108>
 8053c94:	0005883a 	mov	r2,zero
 8053c98:	e0bffa15 	stw	r2,-24(fp)
 8053c9c:	00000206 	br	8053ca8 <open+0x118>
      }
    }
  }
  else
  {
    status = -ENODEV;
 8053ca0:	00bffb44 	movi	r2,-19
 8053ca4:	e0bffa15 	stw	r2,-24(fp)
  }

  /* Allocation failed, so clean up and return an error */ 

  if (status < 0)
 8053ca8:	e0bffa17 	ldw	r2,-24(fp)
 8053cac:	1000090e 	bge	r2,zero,8053cd4 <open+0x144>
  {
    alt_release_fd (index);  
 8053cb0:	e13ff917 	ldw	r4,-28(fp)
 8053cb4:	80509c80 	call	80509c8 <alt_release_fd>
    ALT_ERRNO = -status;
 8053cb8:	8053a680 	call	8053a68 <alt_get_errno>
 8053cbc:	1007883a 	mov	r3,r2
 8053cc0:	e0bffa17 	ldw	r2,-24(fp)
 8053cc4:	0085c83a 	sub	r2,zero,r2
 8053cc8:	18800015 	stw	r2,0(r3)
    return -1;
 8053ccc:	00bfffc4 	movi	r2,-1
 8053cd0:	00000106 	br	8053cd8 <open+0x148>
  }
  
  /* return the reference upon success */

  return index;
 8053cd4:	e0bff917 	ldw	r2,-28(fp)
}
 8053cd8:	e037883a 	mov	sp,fp
 8053cdc:	dfc00117 	ldw	ra,4(sp)
 8053ce0:	df000017 	ldw	fp,0(sp)
 8053ce4:	dec00204 	addi	sp,sp,8
 8053ce8:	f800283a 	ret

08053cec <altera_nios2_gen2_irq_init>:
/*
 * To initialize the internal interrupt controller, just clear the IENABLE
 * register so that all possible IRQs are disabled.
 */
void altera_nios2_gen2_irq_init(void) 
{
 8053cec:	deffff04 	addi	sp,sp,-4
 8053cf0:	df000015 	stw	fp,0(sp)
 8053cf4:	d839883a 	mov	fp,sp
    NIOS2_WRITE_IENABLE(0);
 8053cf8:	000170fa 	wrctl	ienable,zero
}
 8053cfc:	0001883a 	nop
 8053d00:	e037883a 	mov	sp,fp
 8053d04:	df000017 	ldw	fp,0(sp)
 8053d08:	dec00104 	addi	sp,sp,4
 8053d0c:	f800283a 	ret

08053d10 <alt_find_file>:
 * either '/' or '\0' is the prefix of the filename. For example the filename:
 * "/myfilesystem/junk.txt" would match: "/myfilesystem", but not: "/myfile". 
 */
 
alt_dev* alt_find_file (const char* name)
{
 8053d10:	defffb04 	addi	sp,sp,-20
 8053d14:	dfc00415 	stw	ra,16(sp)
 8053d18:	df000315 	stw	fp,12(sp)
 8053d1c:	df000304 	addi	fp,sp,12
 8053d20:	e13fff15 	stw	r4,-4(fp)
  alt_dev* next = (alt_dev*) alt_fs_list.next;   
 8053d24:	d0a00717 	ldw	r2,-32740(gp)
 8053d28:	e0bffd15 	stw	r2,-12(fp)
  /*
   * Check each list entry in turn, until a match is found, or we reach the
   * end of the list (i.e. next winds up pointing back to the list head).
   */ 
 
  while (next != (alt_dev*) &alt_fs_list)
 8053d2c:	00003106 	br	8053df4 <alt_find_file+0xe4>
  {
    len = strlen(next->name);
 8053d30:	e0bffd17 	ldw	r2,-12(fp)
 8053d34:	10800217 	ldw	r2,8(r2)
 8053d38:	1009883a 	mov	r4,r2
 8053d3c:	80459cc0 	call	80459cc <strlen>
 8053d40:	e0bffe15 	stw	r2,-8(fp)
    
    if (next->name[len-1] == '/')
 8053d44:	e0bffd17 	ldw	r2,-12(fp)
 8053d48:	10c00217 	ldw	r3,8(r2)
 8053d4c:	e0bffe17 	ldw	r2,-8(fp)
 8053d50:	10bfffc4 	addi	r2,r2,-1
 8053d54:	1885883a 	add	r2,r3,r2
 8053d58:	10800003 	ldbu	r2,0(r2)
 8053d5c:	10803fcc 	andi	r2,r2,255
 8053d60:	1080201c 	xori	r2,r2,128
 8053d64:	10bfe004 	addi	r2,r2,-128
 8053d68:	10800bd8 	cmpnei	r2,r2,47
 8053d6c:	1000031e 	bne	r2,zero,8053d7c <alt_find_file+0x6c>
    {
      len -= 1;
 8053d70:	e0bffe17 	ldw	r2,-8(fp)
 8053d74:	10bfffc4 	addi	r2,r2,-1
 8053d78:	e0bffe15 	stw	r2,-8(fp)
    }

    if (((name[len] == '/') || (name[len] == '\0')) && 
 8053d7c:	e0bffe17 	ldw	r2,-8(fp)
 8053d80:	e0ffff17 	ldw	r3,-4(fp)
 8053d84:	1885883a 	add	r2,r3,r2
 8053d88:	10800003 	ldbu	r2,0(r2)
 8053d8c:	10803fcc 	andi	r2,r2,255
 8053d90:	1080201c 	xori	r2,r2,128
 8053d94:	10bfe004 	addi	r2,r2,-128
 8053d98:	10800be0 	cmpeqi	r2,r2,47
 8053d9c:	1000081e 	bne	r2,zero,8053dc0 <alt_find_file+0xb0>
 8053da0:	e0bffe17 	ldw	r2,-8(fp)
 8053da4:	e0ffff17 	ldw	r3,-4(fp)
 8053da8:	1885883a 	add	r2,r3,r2
 8053dac:	10800003 	ldbu	r2,0(r2)
 8053db0:	10803fcc 	andi	r2,r2,255
 8053db4:	1080201c 	xori	r2,r2,128
 8053db8:	10bfe004 	addi	r2,r2,-128
 8053dbc:	10000a1e 	bne	r2,zero,8053de8 <alt_find_file+0xd8>
        !memcmp (next->name, name, len))
 8053dc0:	e0bffd17 	ldw	r2,-12(fp)
 8053dc4:	10800217 	ldw	r2,8(r2)
 8053dc8:	e0fffe17 	ldw	r3,-8(fp)
 8053dcc:	180d883a 	mov	r6,r3
 8053dd0:	e17fff17 	ldw	r5,-4(fp)
 8053dd4:	1009883a 	mov	r4,r2
 8053dd8:	8053f280 	call	8053f28 <memcmp>
    if (next->name[len-1] == '/')
    {
      len -= 1;
    }

    if (((name[len] == '/') || (name[len] == '\0')) && 
 8053ddc:	1000021e 	bne	r2,zero,8053de8 <alt_find_file+0xd8>
        !memcmp (next->name, name, len))
    {
      /* match found */

      return next;
 8053de0:	e0bffd17 	ldw	r2,-12(fp)
 8053de4:	00000706 	br	8053e04 <alt_find_file+0xf4>
    }
    next = (alt_dev*) next->llist.next;
 8053de8:	e0bffd17 	ldw	r2,-12(fp)
 8053dec:	10800017 	ldw	r2,0(r2)
 8053df0:	e0bffd15 	stw	r2,-12(fp)
  /*
   * Check each list entry in turn, until a match is found, or we reach the
   * end of the list (i.e. next winds up pointing back to the list head).
   */ 
 
  while (next != (alt_dev*) &alt_fs_list)
 8053df4:	e0fffd17 	ldw	r3,-12(fp)
 8053df8:	d0a00704 	addi	r2,gp,-32740
 8053dfc:	18bfcc1e 	bne	r3,r2,8053d30 <__alt_data_end+0xfffebc90>
    next = (alt_dev*) next->llist.next;
  }
  
  /* No match found */
  
  return NULL;     
 8053e00:	0005883a 	mov	r2,zero
}
 8053e04:	e037883a 	mov	sp,fp
 8053e08:	dfc00117 	ldw	ra,4(sp)
 8053e0c:	df000017 	ldw	fp,0(sp)
 8053e10:	dec00204 	addi	sp,sp,8
 8053e14:	f800283a 	ret

08053e18 <alt_get_fd>:
 * the offset of the file descriptor within the file descriptor array). A
 * negative value indicates failure.
 */

int alt_get_fd (alt_dev* dev)
{
 8053e18:	defffa04 	addi	sp,sp,-24
 8053e1c:	dfc00515 	stw	ra,20(sp)
 8053e20:	df000415 	stw	fp,16(sp)
 8053e24:	dc000315 	stw	r16,12(sp)
 8053e28:	df000404 	addi	fp,sp,16
 8053e2c:	e13ffe15 	stw	r4,-8(fp)
  alt_32 i;
  int rc = -EMFILE;
 8053e30:	00bffa04 	movi	r2,-24
 8053e34:	e0bffd15 	stw	r2,-12(fp)
   * indicates the highest file descriptor ever allocated. This is used to
   * improve efficency when searching the file descriptor list, and 
   * therefore reduce contention on the alt_fd_list_lock semaphore. 
   */

  for (i = 0; i < ALT_MAX_FD; i++)
 8053e38:	e03ffc15 	stw	zero,-16(fp)
 8053e3c:	00001d06 	br	8053eb4 <alt_get_fd+0x9c>
  {
    if (!alt_fd_list[i].dev)
 8053e40:	04020174 	movhi	r16,2053
 8053e44:	84143c04 	addi	r16,r16,20720
 8053e48:	e0bffc17 	ldw	r2,-16(fp)
 8053e4c:	01400304 	movi	r5,12
 8053e50:	1009883a 	mov	r4,r2
 8053e54:	8042dac0 	call	8042dac <__mulsi3>
 8053e58:	8085883a 	add	r2,r16,r2
 8053e5c:	10800017 	ldw	r2,0(r2)
 8053e60:	1000111e 	bne	r2,zero,8053ea8 <alt_get_fd+0x90>
    {
      alt_fd_list[i].dev = dev;
 8053e64:	04020174 	movhi	r16,2053
 8053e68:	84143c04 	addi	r16,r16,20720
 8053e6c:	e0bffc17 	ldw	r2,-16(fp)
 8053e70:	01400304 	movi	r5,12
 8053e74:	1009883a 	mov	r4,r2
 8053e78:	8042dac0 	call	8042dac <__mulsi3>
 8053e7c:	8085883a 	add	r2,r16,r2
 8053e80:	e0fffe17 	ldw	r3,-8(fp)
 8053e84:	10c00015 	stw	r3,0(r2)
      if (i > alt_max_fd)
 8053e88:	d0e00b17 	ldw	r3,-32724(gp)
 8053e8c:	e0bffc17 	ldw	r2,-16(fp)
 8053e90:	1880020e 	bge	r3,r2,8053e9c <alt_get_fd+0x84>
      {
        alt_max_fd = i;
 8053e94:	e0bffc17 	ldw	r2,-16(fp)
 8053e98:	d0a00b15 	stw	r2,-32724(gp)
      }
      rc = i;
 8053e9c:	e0bffc17 	ldw	r2,-16(fp)
 8053ea0:	e0bffd15 	stw	r2,-12(fp)
      goto alt_get_fd_exit;
 8053ea4:	00000606 	br	8053ec0 <alt_get_fd+0xa8>
   * indicates the highest file descriptor ever allocated. This is used to
   * improve efficency when searching the file descriptor list, and 
   * therefore reduce contention on the alt_fd_list_lock semaphore. 
   */

  for (i = 0; i < ALT_MAX_FD; i++)
 8053ea8:	e0bffc17 	ldw	r2,-16(fp)
 8053eac:	10800044 	addi	r2,r2,1
 8053eb0:	e0bffc15 	stw	r2,-16(fp)
 8053eb4:	e0bffc17 	ldw	r2,-16(fp)
 8053eb8:	10800810 	cmplti	r2,r2,32
 8053ebc:	103fe01e 	bne	r2,zero,8053e40 <__alt_data_end+0xfffebda0>
   * file descriptor pool.
   */

  ALT_SEM_POST(alt_fd_list_lock);

  return rc;
 8053ec0:	e0bffd17 	ldw	r2,-12(fp)
}
 8053ec4:	e6ffff04 	addi	sp,fp,-4
 8053ec8:	dfc00217 	ldw	ra,8(sp)
 8053ecc:	df000117 	ldw	fp,4(sp)
 8053ed0:	dc000017 	ldw	r16,0(sp)
 8053ed4:	dec00304 	addi	sp,sp,12
 8053ed8:	f800283a 	ret

08053edc <atexit>:
 8053edc:	200b883a 	mov	r5,r4
 8053ee0:	000f883a 	mov	r7,zero
 8053ee4:	000d883a 	mov	r6,zero
 8053ee8:	0009883a 	mov	r4,zero
 8053eec:	8053fa41 	jmpi	8053fa4 <__register_exitproc>

08053ef0 <exit>:
 8053ef0:	defffe04 	addi	sp,sp,-8
 8053ef4:	000b883a 	mov	r5,zero
 8053ef8:	dc000015 	stw	r16,0(sp)
 8053efc:	dfc00115 	stw	ra,4(sp)
 8053f00:	2021883a 	mov	r16,r4
 8053f04:	80540bc0 	call	80540bc <__call_exitprocs>
 8053f08:	00820174 	movhi	r2,2053
 8053f0c:	1098ec04 	addi	r2,r2,25520
 8053f10:	11000017 	ldw	r4,0(r2)
 8053f14:	20800f17 	ldw	r2,60(r4)
 8053f18:	10000126 	beq	r2,zero,8053f20 <exit+0x30>
 8053f1c:	103ee83a 	callr	r2
 8053f20:	8009883a 	mov	r4,r16
 8053f24:	805423c0 	call	805423c <_exit>

08053f28 <memcmp>:
 8053f28:	01c000c4 	movi	r7,3
 8053f2c:	3980192e 	bgeu	r7,r6,8053f94 <memcmp+0x6c>
 8053f30:	2144b03a 	or	r2,r4,r5
 8053f34:	11c4703a 	and	r2,r2,r7
 8053f38:	10000f26 	beq	r2,zero,8053f78 <memcmp+0x50>
 8053f3c:	20800003 	ldbu	r2,0(r4)
 8053f40:	28c00003 	ldbu	r3,0(r5)
 8053f44:	10c0151e 	bne	r2,r3,8053f9c <memcmp+0x74>
 8053f48:	31bfff84 	addi	r6,r6,-2
 8053f4c:	01ffffc4 	movi	r7,-1
 8053f50:	00000406 	br	8053f64 <memcmp+0x3c>
 8053f54:	20800003 	ldbu	r2,0(r4)
 8053f58:	28c00003 	ldbu	r3,0(r5)
 8053f5c:	31bfffc4 	addi	r6,r6,-1
 8053f60:	10c00e1e 	bne	r2,r3,8053f9c <memcmp+0x74>
 8053f64:	21000044 	addi	r4,r4,1
 8053f68:	29400044 	addi	r5,r5,1
 8053f6c:	31fff91e 	bne	r6,r7,8053f54 <__alt_data_end+0xfffebeb4>
 8053f70:	0005883a 	mov	r2,zero
 8053f74:	f800283a 	ret
 8053f78:	20c00017 	ldw	r3,0(r4)
 8053f7c:	28800017 	ldw	r2,0(r5)
 8053f80:	18bfee1e 	bne	r3,r2,8053f3c <__alt_data_end+0xfffebe9c>
 8053f84:	31bfff04 	addi	r6,r6,-4
 8053f88:	21000104 	addi	r4,r4,4
 8053f8c:	29400104 	addi	r5,r5,4
 8053f90:	39bff936 	bltu	r7,r6,8053f78 <__alt_data_end+0xfffebed8>
 8053f94:	303fe91e 	bne	r6,zero,8053f3c <__alt_data_end+0xfffebe9c>
 8053f98:	003ff506 	br	8053f70 <__alt_data_end+0xfffebed0>
 8053f9c:	10c5c83a 	sub	r2,r2,r3
 8053fa0:	f800283a 	ret

08053fa4 <__register_exitproc>:
 8053fa4:	defffa04 	addi	sp,sp,-24
 8053fa8:	dc000315 	stw	r16,12(sp)
 8053fac:	04020174 	movhi	r16,2053
 8053fb0:	8418ec04 	addi	r16,r16,25520
 8053fb4:	80c00017 	ldw	r3,0(r16)
 8053fb8:	dc400415 	stw	r17,16(sp)
 8053fbc:	dfc00515 	stw	ra,20(sp)
 8053fc0:	18805217 	ldw	r2,328(r3)
 8053fc4:	2023883a 	mov	r17,r4
 8053fc8:	10003726 	beq	r2,zero,80540a8 <__register_exitproc+0x104>
 8053fcc:	10c00117 	ldw	r3,4(r2)
 8053fd0:	010007c4 	movi	r4,31
 8053fd4:	20c00e16 	blt	r4,r3,8054010 <__register_exitproc+0x6c>
 8053fd8:	1a000044 	addi	r8,r3,1
 8053fdc:	8800221e 	bne	r17,zero,8054068 <__register_exitproc+0xc4>
 8053fe0:	18c00084 	addi	r3,r3,2
 8053fe4:	18c7883a 	add	r3,r3,r3
 8053fe8:	18c7883a 	add	r3,r3,r3
 8053fec:	12000115 	stw	r8,4(r2)
 8053ff0:	10c7883a 	add	r3,r2,r3
 8053ff4:	19400015 	stw	r5,0(r3)
 8053ff8:	0005883a 	mov	r2,zero
 8053ffc:	dfc00517 	ldw	ra,20(sp)
 8054000:	dc400417 	ldw	r17,16(sp)
 8054004:	dc000317 	ldw	r16,12(sp)
 8054008:	dec00604 	addi	sp,sp,24
 805400c:	f800283a 	ret
 8054010:	00800034 	movhi	r2,0
 8054014:	10800004 	addi	r2,r2,0
 8054018:	10002626 	beq	r2,zero,80540b4 <__register_exitproc+0x110>
 805401c:	01006404 	movi	r4,400
 8054020:	d9400015 	stw	r5,0(sp)
 8054024:	d9800115 	stw	r6,4(sp)
 8054028:	d9c00215 	stw	r7,8(sp)
 805402c:	00000000 	call	0 <__alt_mem_new_sdram_controller_0-0x4000000>
 8054030:	d9400017 	ldw	r5,0(sp)
 8054034:	d9800117 	ldw	r6,4(sp)
 8054038:	d9c00217 	ldw	r7,8(sp)
 805403c:	10001d26 	beq	r2,zero,80540b4 <__register_exitproc+0x110>
 8054040:	81000017 	ldw	r4,0(r16)
 8054044:	10000115 	stw	zero,4(r2)
 8054048:	02000044 	movi	r8,1
 805404c:	22405217 	ldw	r9,328(r4)
 8054050:	0007883a 	mov	r3,zero
 8054054:	12400015 	stw	r9,0(r2)
 8054058:	20805215 	stw	r2,328(r4)
 805405c:	10006215 	stw	zero,392(r2)
 8054060:	10006315 	stw	zero,396(r2)
 8054064:	883fde26 	beq	r17,zero,8053fe0 <__alt_data_end+0xfffebf40>
 8054068:	18c9883a 	add	r4,r3,r3
 805406c:	2109883a 	add	r4,r4,r4
 8054070:	1109883a 	add	r4,r2,r4
 8054074:	21802215 	stw	r6,136(r4)
 8054078:	01800044 	movi	r6,1
 805407c:	12406217 	ldw	r9,392(r2)
 8054080:	30cc983a 	sll	r6,r6,r3
 8054084:	4992b03a 	or	r9,r9,r6
 8054088:	12406215 	stw	r9,392(r2)
 805408c:	21c04215 	stw	r7,264(r4)
 8054090:	01000084 	movi	r4,2
 8054094:	893fd21e 	bne	r17,r4,8053fe0 <__alt_data_end+0xfffebf40>
 8054098:	11006317 	ldw	r4,396(r2)
 805409c:	218cb03a 	or	r6,r4,r6
 80540a0:	11806315 	stw	r6,396(r2)
 80540a4:	003fce06 	br	8053fe0 <__alt_data_end+0xfffebf40>
 80540a8:	18805304 	addi	r2,r3,332
 80540ac:	18805215 	stw	r2,328(r3)
 80540b0:	003fc606 	br	8053fcc <__alt_data_end+0xfffebf2c>
 80540b4:	00bfffc4 	movi	r2,-1
 80540b8:	003fd006 	br	8053ffc <__alt_data_end+0xfffebf5c>

080540bc <__call_exitprocs>:
 80540bc:	defff504 	addi	sp,sp,-44
 80540c0:	df000915 	stw	fp,36(sp)
 80540c4:	dd400615 	stw	r21,24(sp)
 80540c8:	dc800315 	stw	r18,12(sp)
 80540cc:	dfc00a15 	stw	ra,40(sp)
 80540d0:	ddc00815 	stw	r23,32(sp)
 80540d4:	dd800715 	stw	r22,28(sp)
 80540d8:	dd000515 	stw	r20,20(sp)
 80540dc:	dcc00415 	stw	r19,16(sp)
 80540e0:	dc400215 	stw	r17,8(sp)
 80540e4:	dc000115 	stw	r16,4(sp)
 80540e8:	d9000015 	stw	r4,0(sp)
 80540ec:	2839883a 	mov	fp,r5
 80540f0:	04800044 	movi	r18,1
 80540f4:	057fffc4 	movi	r21,-1
 80540f8:	00820174 	movhi	r2,2053
 80540fc:	1098ec04 	addi	r2,r2,25520
 8054100:	12000017 	ldw	r8,0(r2)
 8054104:	45005217 	ldw	r20,328(r8)
 8054108:	44c05204 	addi	r19,r8,328
 805410c:	a0001c26 	beq	r20,zero,8054180 <__call_exitprocs+0xc4>
 8054110:	a0800117 	ldw	r2,4(r20)
 8054114:	15ffffc4 	addi	r23,r2,-1
 8054118:	b8000d16 	blt	r23,zero,8054150 <__call_exitprocs+0x94>
 805411c:	14000044 	addi	r16,r2,1
 8054120:	8421883a 	add	r16,r16,r16
 8054124:	8421883a 	add	r16,r16,r16
 8054128:	84402004 	addi	r17,r16,128
 805412c:	a463883a 	add	r17,r20,r17
 8054130:	a421883a 	add	r16,r20,r16
 8054134:	e0001e26 	beq	fp,zero,80541b0 <__call_exitprocs+0xf4>
 8054138:	80804017 	ldw	r2,256(r16)
 805413c:	e0801c26 	beq	fp,r2,80541b0 <__call_exitprocs+0xf4>
 8054140:	bdffffc4 	addi	r23,r23,-1
 8054144:	843fff04 	addi	r16,r16,-4
 8054148:	8c7fff04 	addi	r17,r17,-4
 805414c:	bd7ff91e 	bne	r23,r21,8054134 <__alt_data_end+0xfffec094>
 8054150:	00800034 	movhi	r2,0
 8054154:	10800004 	addi	r2,r2,0
 8054158:	10000926 	beq	r2,zero,8054180 <__call_exitprocs+0xc4>
 805415c:	a0800117 	ldw	r2,4(r20)
 8054160:	1000301e 	bne	r2,zero,8054224 <__call_exitprocs+0x168>
 8054164:	a0800017 	ldw	r2,0(r20)
 8054168:	10003226 	beq	r2,zero,8054234 <__call_exitprocs+0x178>
 805416c:	a009883a 	mov	r4,r20
 8054170:	98800015 	stw	r2,0(r19)
 8054174:	00000000 	call	0 <__alt_mem_new_sdram_controller_0-0x4000000>
 8054178:	9d000017 	ldw	r20,0(r19)
 805417c:	a03fe41e 	bne	r20,zero,8054110 <__alt_data_end+0xfffec070>
 8054180:	dfc00a17 	ldw	ra,40(sp)
 8054184:	df000917 	ldw	fp,36(sp)
 8054188:	ddc00817 	ldw	r23,32(sp)
 805418c:	dd800717 	ldw	r22,28(sp)
 8054190:	dd400617 	ldw	r21,24(sp)
 8054194:	dd000517 	ldw	r20,20(sp)
 8054198:	dcc00417 	ldw	r19,16(sp)
 805419c:	dc800317 	ldw	r18,12(sp)
 80541a0:	dc400217 	ldw	r17,8(sp)
 80541a4:	dc000117 	ldw	r16,4(sp)
 80541a8:	dec00b04 	addi	sp,sp,44
 80541ac:	f800283a 	ret
 80541b0:	a0800117 	ldw	r2,4(r20)
 80541b4:	80c00017 	ldw	r3,0(r16)
 80541b8:	10bfffc4 	addi	r2,r2,-1
 80541bc:	15c01426 	beq	r2,r23,8054210 <__call_exitprocs+0x154>
 80541c0:	80000015 	stw	zero,0(r16)
 80541c4:	183fde26 	beq	r3,zero,8054140 <__alt_data_end+0xfffec0a0>
 80541c8:	95c8983a 	sll	r4,r18,r23
 80541cc:	a0806217 	ldw	r2,392(r20)
 80541d0:	a5800117 	ldw	r22,4(r20)
 80541d4:	2084703a 	and	r2,r4,r2
 80541d8:	10000b26 	beq	r2,zero,8054208 <__call_exitprocs+0x14c>
 80541dc:	a0806317 	ldw	r2,396(r20)
 80541e0:	2088703a 	and	r4,r4,r2
 80541e4:	20000c1e 	bne	r4,zero,8054218 <__call_exitprocs+0x15c>
 80541e8:	89400017 	ldw	r5,0(r17)
 80541ec:	d9000017 	ldw	r4,0(sp)
 80541f0:	183ee83a 	callr	r3
 80541f4:	a0800117 	ldw	r2,4(r20)
 80541f8:	15bfbf1e 	bne	r2,r22,80540f8 <__alt_data_end+0xfffec058>
 80541fc:	98800017 	ldw	r2,0(r19)
 8054200:	153fcf26 	beq	r2,r20,8054140 <__alt_data_end+0xfffec0a0>
 8054204:	003fbc06 	br	80540f8 <__alt_data_end+0xfffec058>
 8054208:	183ee83a 	callr	r3
 805420c:	003ff906 	br	80541f4 <__alt_data_end+0xfffec154>
 8054210:	a5c00115 	stw	r23,4(r20)
 8054214:	003feb06 	br	80541c4 <__alt_data_end+0xfffec124>
 8054218:	89000017 	ldw	r4,0(r17)
 805421c:	183ee83a 	callr	r3
 8054220:	003ff406 	br	80541f4 <__alt_data_end+0xfffec154>
 8054224:	a0800017 	ldw	r2,0(r20)
 8054228:	a027883a 	mov	r19,r20
 805422c:	1029883a 	mov	r20,r2
 8054230:	003fb606 	br	805410c <__alt_data_end+0xfffec06c>
 8054234:	0005883a 	mov	r2,zero
 8054238:	003ffb06 	br	8054228 <__alt_data_end+0xfffec188>

0805423c <_exit>:
 *
 * ALT_EXIT is mapped onto the _exit() system call in alt_syscall.h
 */

void ALT_EXIT (int exit_code)
{
 805423c:	defffd04 	addi	sp,sp,-12
 8054240:	df000215 	stw	fp,8(sp)
 8054244:	df000204 	addi	fp,sp,8
 8054248:	e13fff15 	stw	r4,-4(fp)
  ALT_LOG_PRINT_BOOT("[alt_exit.c] Entering _exit() function.\r\n");
  ALT_LOG_PRINT_BOOT("[alt_exit.c] Exit code from main was %d.\r\n",exit_code);
  /* Stop all other threads */

  ALT_LOG_PRINT_BOOT("[alt_exit.c] Calling ALT_OS_STOP().\r\n");
  ALT_OS_STOP();
 805424c:	0001883a 	nop
 8054250:	e0bfff17 	ldw	r2,-4(fp)
 8054254:	e0bffe15 	stw	r2,-8(fp)
/*
 * Routine called on exit.
 */
static ALT_INLINE ALT_ALWAYS_INLINE void alt_sim_halt(int exit_code)
{
  register int r2 asm ("r2") = exit_code;
 8054258:	e0bffe17 	ldw	r2,-8(fp)
  __asm__ volatile ("\n0:\n\taddi %0,%0, -1\n\tbgt %0,zero,0b" : : "r" (ALT_CPU_FREQ/100) ); /* Delay for >30ms */

  __asm__ volatile ("break 2" : : "r"(r2), "r"(r3) ALT_GMON_DATA );

#else /* !DEBUG_STUB */
  if (r2) {
 805425c:	10000226 	beq	r2,zero,8054268 <_exit+0x2c>
    ALT_SIM_FAIL();
 8054260:	002af070 	cmpltui	zero,zero,43969
 8054264:	00000106 	br	805426c <_exit+0x30>
  } else {
    ALT_SIM_PASS();
 8054268:	002af0b0 	cmpltui	zero,zero,43970
  ALT_SIM_HALT(exit_code);

  /* spin forever, since there's no where to go back to */

  ALT_LOG_PRINT_BOOT("[alt_exit.c] Spinning forever.\r\n");
  while (1);
 805426c:	003fff06 	br	805426c <__alt_data_end+0xfffec1cc>
