
pongers.elf:     file format elf32-littlenios2
pongers.elf
architecture: nios2:r1, flags 0x00000112:
EXEC_P, HAS_SYMS, D_PAGED
start address 0x08040230

Program Header:
    LOAD off    0x00001000 vaddr 0x08040000 paddr 0x08040000 align 2**12
         filesz 0x00000020 memsz 0x00000020 flags r-x
    LOAD off    0x00001020 vaddr 0x08040020 paddr 0x08040020 align 2**12
         filesz 0x00013d80 memsz 0x00013d80 flags r-x
    LOAD off    0x00014da0 vaddr 0x08053da0 paddr 0x08055970 align 2**12
         filesz 0x00001bd0 memsz 0x00001bd0 flags rw-
    LOAD off    0x00017540 vaddr 0x08057540 paddr 0x08057540 align 2**12
         filesz 0x00000000 memsz 0x00000180 flags rw-

Sections:
Idx Name          Size      VMA       LMA       File off  Algn
  0 .entry        00000020  08040000  08040000  00001000  2**5
                  CONTENTS, ALLOC, LOAD, READONLY, CODE
  1 .exceptions   00000210  08040020  08040020  00001020  2**2
                  CONTENTS, ALLOC, LOAD, READONLY, CODE
  2 .text         000135d0  08040230  08040230  00001230  2**2
                  CONTENTS, ALLOC, LOAD, READONLY, CODE
  3 .rodata       000005a0  08053800  08053800  00014800  2**2
                  CONTENTS, ALLOC, LOAD, READONLY, DATA
  4 .rwdata       00001bd0  08053da0  08055970  00014da0  2**2
                  CONTENTS, ALLOC, LOAD, DATA, SMALL_DATA
  5 .bss          00000180  08057540  08057540  00017540  2**2
                  ALLOC, SMALL_DATA
  6 .new_sdram_controller_0 00000000  04000000  04000000  00016970  2**0
                  CONTENTS
  7 .onchip_memory2_0 00000000  080576c0  080576c0  00016970  2**0
                  CONTENTS
  8 .comment      00000023  00000000  00000000  00016970  2**0
                  CONTENTS, READONLY
  9 .debug_aranges 00000f10  00000000  00000000  00016998  2**3
                  CONTENTS, READONLY, DEBUGGING
 10 .debug_info   00023703  00000000  00000000  000178a8  2**0
                  CONTENTS, READONLY, DEBUGGING
 11 .debug_abbrev 000091cc  00000000  00000000  0003afab  2**0
                  CONTENTS, READONLY, DEBUGGING
 12 .debug_line   0000bcda  00000000  00000000  00044177  2**0
                  CONTENTS, READONLY, DEBUGGING
 13 .debug_frame  00002908  00000000  00000000  0004fe54  2**2
                  CONTENTS, READONLY, DEBUGGING
 14 .debug_str    000042f7  00000000  00000000  0005275c  2**0
                  CONTENTS, READONLY, DEBUGGING
 15 .debug_loc    000174f2  00000000  00000000  00056a53  2**0
                  CONTENTS, READONLY, DEBUGGING
 16 .debug_alt_sim_info 00000040  00000000  00000000  0006df48  2**2
                  CONTENTS, READONLY, DEBUGGING
 17 .debug_ranges 000018a8  00000000  00000000  0006df88  2**3
                  CONTENTS, READONLY, DEBUGGING
 18 .thread_model 00000003  00000000  00000000  0007336e  2**0
                  CONTENTS, READONLY
 19 .cpu          00000009  00000000  00000000  00073371  2**0
                  CONTENTS, READONLY
 20 .qsys         00000001  00000000  00000000  0007337a  2**0
                  CONTENTS, READONLY
 21 .simulation_enabled 00000001  00000000  00000000  0007337b  2**0
                  CONTENTS, READONLY
 22 .sysid_hash   00000004  00000000  00000000  0007337c  2**0
                  CONTENTS, READONLY
 23 .sysid_base   00000004  00000000  00000000  00073380  2**0
                  CONTENTS, READONLY
 24 .sysid_time   00000004  00000000  00000000  00073384  2**0
                  CONTENTS, READONLY
 25 .stderr_dev   00000004  00000000  00000000  00073388  2**0
                  CONTENTS, READONLY
 26 .stdin_dev    00000004  00000000  00000000  0007338c  2**0
                  CONTENTS, READONLY
 27 .stdout_dev   00000004  00000000  00000000  00073390  2**0
                  CONTENTS, READONLY
 28 .sopc_system_name 00000009  00000000  00000000  00073394  2**0
                  CONTENTS, READONLY
 29 .quartus_project_dir 00000030  00000000  00000000  0007339d  2**0
                  CONTENTS, READONLY
 30 .jdi          00003d27  00000000  00000000  000733cd  2**0
                  CONTENTS, READONLY
 31 .sopcinfo     000a8662  00000000  00000000  000770f4  2**0
                  CONTENTS, READONLY
SYMBOL TABLE:
08040000 l    d  .entry	00000000 .entry
08040020 l    d  .exceptions	00000000 .exceptions
08040230 l    d  .text	00000000 .text
08053800 l    d  .rodata	00000000 .rodata
08053da0 l    d  .rwdata	00000000 .rwdata
08057540 l    d  .bss	00000000 .bss
04000000 l    d  .new_sdram_controller_0	00000000 .new_sdram_controller_0
080576c0 l    d  .onchip_memory2_0	00000000 .onchip_memory2_0
00000000 l    d  .comment	00000000 .comment
00000000 l    d  .debug_aranges	00000000 .debug_aranges
00000000 l    d  .debug_info	00000000 .debug_info
00000000 l    d  .debug_abbrev	00000000 .debug_abbrev
00000000 l    d  .debug_line	00000000 .debug_line
00000000 l    d  .debug_frame	00000000 .debug_frame
00000000 l    d  .debug_str	00000000 .debug_str
00000000 l    d  .debug_loc	00000000 .debug_loc
00000000 l    d  .debug_alt_sim_info	00000000 .debug_alt_sim_info
00000000 l    d  .debug_ranges	00000000 .debug_ranges
00000000 l    df *ABS*	00000000 ../pongers_bsp//obj/HAL/src/crt0.o
08040268 l       .text	00000000 alt_after_alt_main
00000000 l    df *ABS*	00000000 alt_irq_handler.c
00000000 l    df *ABS*	00000000 alt_instruction_exception_entry.c
00000000 l    df *ABS*	00000000 pongers.c
0804026c l     F .text	00000048 pio_isr
08040318 l     F .text	00000060 alarm_callback.3516
08057580 l     O .bss	00000018 alarm.3518
08041a68 l     F .text	0000004c clear.3557
08041cbc l     F .text	0000007c reset_game.3580
080426a4 l     F .text	000000d0 reset_game_snake.3652
08041f64 l     F .text	0000005c pause_menu.3603
08041fc0 l     F .text	0000005c clear_pause_menu.3606
08041db0 l     F .text	0000014c run_game_tick.3591
08042818 l     F .text	0000030c run_game_tick_snake.3665
08040d84 l     F .text	000000c8 cheat_code.3520
08040e4c l     F .text	00000338 update_paddle.3525
08041184 l     F .text	00000038 sign.3539
080411bc l     F .text	00000054 collision_sound.3541
08041210 l     F .text	00000858 update_ball.3544
08041ab4 l     F .text	00000174 draw.3564
08041c28 l     F .text	00000094 get_user_input.3571
08041d38 l     F .text	00000078 check_win.3584
08041efc l     F .text	00000034 music_on.3598
08041f30 l     F .text	00000034 music_off.3600
0804201c l     F .text	000000d8 generate_fruit.3609
080420f4 l     F .text	0000008c check_opposite_direction.3613
08042180 l     F .text	00000060 check_fruit_eaten.3616
080421e0 l     F .text	000003b4 update_snake.3620
08042594 l     F .text	00000110 check_snake_collision.3641
08042774 l     F .text	000000a4 snake_game_over.3658
00000000 l    df *ABS*	00000000 lib2-divmod.c
00000000 l    df *ABS*	00000000 lib2-mul.c
00000000 l    df *ABS*	00000000 tramp.c
00000000 l    df *ABS*	00000000 gesf2.c
00000000 l    df *ABS*	00000000 lesf2.c
00000000 l    df *ABS*	00000000 floatunsisf.c
00000000 l    df *ABS*	00000000 divdf3.c
00000000 l    df *ABS*	00000000 gedf2.c
00000000 l    df *ABS*	00000000 ledf2.c
00000000 l    df *ABS*	00000000 muldf3.c
00000000 l    df *ABS*	00000000 extendsfdf2.c
00000000 l    df *ABS*	00000000 truncdfsf2.c
00000000 l    df *ABS*	00000000 libgcc2.c
00000000 l    df *ABS*	00000000 libgcc2.c
00000000 l    df *ABS*	00000000 memcpy.c
00000000 l    df *ABS*	00000000 memset.c
00000000 l    df *ABS*	00000000 puts.c
00000000 l    df *ABS*	00000000 rand.c
00000000 l    df *ABS*	00000000 sprintf.c
00000000 l    df *ABS*	00000000 strlen.c
00000000 l    df *ABS*	00000000 vfprintf.c
08053b5a l     O .rodata	00000010 zeroes.4389
08053b6a l     O .rodata	00000010 blanks.4388
00000000 l    df *ABS*	00000000 dtoa.c
08046f00 l     F .text	00000228 quorem
00000000 l    df *ABS*	00000000 findfp.c
080487b0 l     F .text	00000008 __fp_unlock
080487c4 l     F .text	0000019c __sinit.part.1
08048960 l     F .text	00000008 __fp_lock
00000000 l    df *ABS*	00000000 fvwrite.c
00000000 l    df *ABS*	00000000 fwalk.c
00000000 l    df *ABS*	00000000 impure.c
08053da0 l     O .rwdata	00000424 impure_data
00000000 l    df *ABS*	00000000 locale.c
080541e4 l     O .rwdata	00000020 lc_ctype_charset
080541c4 l     O .rwdata	00000020 lc_message_charset
08054204 l     O .rwdata	00000038 lconv
00000000 l    df *ABS*	00000000 mallocr.c
00000000 l    df *ABS*	00000000 memchr.c
00000000 l    df *ABS*	00000000 memmove.c
00000000 l    df *ABS*	00000000 mprec.c
08053b9c l     O .rodata	0000000c p05.2768
00000000 l    df *ABS*	00000000 mallocr.c
00000000 l    df *ABS*	00000000 s_fpclassify.c
00000000 l    df *ABS*	00000000 sbrkr.c
00000000 l    df *ABS*	00000000 stdio.c
00000000 l    df *ABS*	00000000 strcmp.c
00000000 l    df *ABS*	00000000 vfprintf.c
08053cc0 l     O .rodata	00000010 zeroes.4333
08053cd0 l     O .rodata	00000010 blanks.4332
00000000 l    df *ABS*	00000000 writer.c
00000000 l    df *ABS*	00000000 wsetup.c
00000000 l    df *ABS*	00000000 closer.c
00000000 l    df *ABS*	00000000 mallocr.c
00000000 l    df *ABS*	00000000 fclose.c
00000000 l    df *ABS*	00000000 fflush.c
00000000 l    df *ABS*	00000000 mallocr.c
00000000 l    df *ABS*	00000000 int_errno.c
00000000 l    df *ABS*	00000000 lseekr.c
00000000 l    df *ABS*	00000000 makebuf.c
00000000 l    df *ABS*	00000000 readr.c
00000000 l    df *ABS*	00000000 fstatr.c
00000000 l    df *ABS*	00000000 isattyr.c
00000000 l    df *ABS*	00000000 libgcc2.c
00000000 l    df *ABS*	00000000 libgcc2.c
00000000 l    df *ABS*	00000000 libgcc2.c
00000000 l    df *ABS*	00000000 adddf3.c
00000000 l    df *ABS*	00000000 eqdf2.c
00000000 l    df *ABS*	00000000 subdf3.c
00000000 l    df *ABS*	00000000 fixdfsi.c
00000000 l    df *ABS*	00000000 floatsidf.c
00000000 l    df *ABS*	00000000 floatunsidf.c
00000000 l    df *ABS*	00000000 alt_alarm_start.c
00000000 l    df *ABS*	00000000 alt_close.c
0804fb60 l     F .text	0000003c alt_get_errno
00000000 l    df *ABS*	00000000 alt_dev.c
0804fc74 l     F .text	0000002c alt_dev_null_write
00000000 l    df *ABS*	00000000 alt_errno.c
00000000 l    df *ABS*	00000000 alt_fstat.c
0804fca0 l     F .text	0000003c alt_get_errno
00000000 l    df *ABS*	00000000 alt_iic.c
00000000 l    df *ABS*	00000000 alt_iic_isr_register.c
00000000 l    df *ABS*	00000000 alt_irq_vars.c
00000000 l    df *ABS*	00000000 alt_isatty.c
08050034 l     F .text	0000003c alt_get_errno
00000000 l    df *ABS*	00000000 alt_load.c
0805011c l     F .text	00000068 alt_load_section
00000000 l    df *ABS*	00000000 alt_lseek.c
08050208 l     F .text	0000003c alt_get_errno
00000000 l    df *ABS*	00000000 alt_main.c
00000000 l    df *ABS*	00000000 alt_malloc_lock.c
00000000 l    df *ABS*	00000000 alt_read.c
080503c8 l     F .text	0000003c alt_get_errno
00000000 l    df *ABS*	00000000 alt_release_fd.c
00000000 l    df *ABS*	00000000 alt_sbrk.c
0805595c l     O .rwdata	00000004 heap_end
00000000 l    df *ABS*	00000000 alt_tick.c
00000000 l    df *ABS*	00000000 alt_usleep.c
00000000 l    df *ABS*	00000000 alt_write.c
08050810 l     F .text	0000003c alt_get_errno
00000000 l    df *ABS*	00000000 alt_sys_init.c
0805094c l     F .text	00000034 alt_dev_reg
080547ec l     O .rwdata	00001060 jtag_uart_0
0805584c l     O .rwdata	0000003c modular_adc_0
08055888 l     O .rwdata	00000048 video_character_buffer_with_dma_0
080558d0 l     O .rwdata	00000054 video_pixel_buffer_dma_0
00000000 l    df *ABS*	00000000 altera_avalon_jtag_uart_fd.c
00000000 l    df *ABS*	00000000 altera_avalon_jtag_uart_init.c
08050ee8 l     F .text	0000020c altera_avalon_jtag_uart_irq
080510f4 l     F .text	000000a0 altera_avalon_jtag_uart_timeout
00000000 l    df *ABS*	00000000 altera_avalon_jtag_uart_ioctl.c
00000000 l    df *ABS*	00000000 altera_avalon_jtag_uart_read.c
00000000 l    df *ABS*	00000000 altera_avalon_jtag_uart_write.c
00000000 l    df *ABS*	00000000 altera_avalon_timer_sc.c
0805172c l     F .text	00000078 alt_avalon_timer_sc_irq
00000000 l    df *ABS*	00000000 altera_modular_adc.c
08051820 l     F .text	000000a8 alt_adc_irq
00000000 l    df *ABS*	00000000 altera_up_avalon_video_character_buffer_with_dma.c
00000000 l    df *ABS*	00000000 altera_up_avalon_video_pixel_buffer_dma.c
00000000 l    df *ABS*	00000000 alt_busy_sleep.c
00000000 l    df *ABS*	00000000 alt_dcache_flush_all.c
00000000 l    df *ABS*	00000000 alt_dev_llist_insert.c
0805315c l     F .text	0000003c alt_get_errno
00000000 l    df *ABS*	00000000 alt_do_ctors.c
00000000 l    df *ABS*	00000000 alt_do_dtors.c
00000000 l    df *ABS*	00000000 alt_find_dev.c
00000000 l    df *ABS*	00000000 alt_icache_flush_all.c
00000000 l    df *ABS*	00000000 altera_nios2_gen2_irq.c
00000000 l    df *ABS*	00000000 atexit.c
00000000 l    df *ABS*	00000000 exit.c
00000000 l    df *ABS*	00000000 memcmp.c
00000000 l    df *ABS*	00000000 __atexit.c
00000000 l    df *ABS*	00000000 __call_atexit.c
00000000 l    df *ABS*	00000000 alt_exit.c
0805757c g     O .bss	00000004 alt_instruction_exception_handler
0804ac18 g     F .text	00000074 _mprec_log10
08051ac0 g     F .text	00000050 adc_stop
08055928 g     O .rwdata	00000004 game_flag
0804ad04 g     F .text	0000008c __any_on
0804d8e0 g     F .text	00000054 _isatty_r
08053ba8 g     O .rodata	00000028 __mprec_tinytens
08050320 g     F .text	00000060 alt_main
080529a8 g     F .text	0000026c alt_up_pixel_buffer_dma_draw_vline
08044998 g     F .text	000000c0 _puts_r
080575c0 g     O .bss	00000100 alt_irq
0804d608 g     F .text	00000060 _lseek_r
08055970 g       *ABS*	00000000 __flash_rwdata_start
0804eeac g     F .text	00000088 .hidden __eqdf2
080576c0 g       *ABS*	00000000 __alt_heap_start
0804b494 g     F .text	0000005c __sseek
08048b10 g     F .text	00000010 __sinit
08051f14 g     F .text	000000fc alt_up_char_buffer_string
080491b0 g     F .text	0000007c _setlocale_r
08048968 g     F .text	00000078 __sfmoreglue
080503a4 g     F .text	00000024 __malloc_unlock
08051e48 g     F .text	000000cc alt_up_char_buffer_draw
08049b7c g     F .text	0000015c memmove
08048af8 g     F .text	00000018 _cleanup
08049cd8 g     F .text	000000a8 _Balloc
080520a8 g     F .text	000001a8 alt_up_pixel_buffer_dma_draw
080439d0 g     F .text	000000dc .hidden __gtdf2
08053448 g     F .text	00000024 altera_nios2_gen2_irq_init
0805206c g     F .text	0000003c alt_up_pixel_buffer_dma_open_dev
08040000 g     F .entry	0000000c __reset
08051c84 g     F .text	00000048 adc_interrupt_disable
08040020 g       *ABS*	00000000 __flash_exceptions_start
0804d884 g     F .text	0000005c _fstat_r
08057560 g     O .bss	00000004 errno
0804b410 g     F .text	00000008 __seofread
0804b7a4 g     F .text	000013a0 ___svfiprintf_internal_r
08051974 g     F .text	00000074 altera_modular_adc_init
0805756c g     O .bss	00000004 alt_argv
0805d924 g       *ABS*	00000000 _gp
080507e0 g     F .text	00000030 usleep
08052250 g     F .text	0000005c alt_up_pixel_buffer_dma_change_back_buffer_address
0805466c g     O .rwdata	00000180 alt_fd_list
080532fc g     F .text	00000090 alt_find_dev
08044728 g     F .text	00000148 memcpy
08052010 g     F .text	0000005c alt_up_char_buffer_clear
080487b8 g     F .text	0000000c _cleanup_r
0804f8b0 g     F .text	000000dc .hidden __floatsidf
08051b88 g     F .text	0000003c adc_set_mode_run_continuously
08043aac g     F .text	000000f4 .hidden __ltdf2
08053800 g       *ABS*	00000000 __DTOR_END__
08044a58 g     F .text	00000014 puts
080533ac g     F .text	0000009c alt_exception_cause_generated_bad_addr
0804b2f4 g     F .text	00000074 __fpclassifyd
0804ab74 g     F .text	000000a4 __ratio
0805230c g     F .text	00000034 alt_up_pixel_buffer_dma_check_swap_buffers_status
080512ec g     F .text	0000021c altera_avalon_jtag_uart_read
08040000 g       *ABS*	00000000 __alt_mem_onchip_memory2_0
08042c1c g     F .text	00000064 .hidden __udivsi3
08050070 g     F .text	000000ac isatty
08053bf8 g     O .rodata	000000c8 __mprec_tens
08052778 g     F .text	00000230 alt_up_pixel_buffer_dma_draw_hline
0804922c g     F .text	0000000c __locale_charset
08042e48 g     F .text	000000c8 .hidden __lesf2
08055924 g     O .rwdata	00000004 main_menu_flag
0805755c g     O .bss	00000004 __malloc_top_pad
08055934 g     O .rwdata	00000004 __mb_cur_max
0804925c g     F .text	0000000c _localeconv_r
0804a10c g     F .text	0000003c __i2b
08048b60 g     F .text	000004c8 __sfvwrite_r
0804b368 g     F .text	00000054 _sbrk_r
08052cdc g     F .text	000000c0 helper_plot_pixel
0804d824 g     F .text	00000060 _read_r
08055968 g     O .rwdata	00000008 altera_modular_adc_list
08055950 g     O .rwdata	00000004 alt_max_fd
0804ce28 g     F .text	000000f0 _fclose_r
0804d1a4 g     F .text	00000030 fflush
08057558 g     O .bss	00000004 __malloc_max_sbrked_mem
0804440c g     F .text	00000110 .hidden __extendsfdf2
0804e600 g     F .text	000008ac .hidden __adddf3
0804a91c g     F .text	0000010c __b2d
08052340 g     F .text	0000013c alt_up_pixel_buffer_dma_clear_screen
0804e03c g     F .text	000005c4 .hidden __umoddi3
08050244 g     F .text	000000dc lseek
0805592c g     O .rwdata	00000004 _global_impure_ptr
0804ad90 g     F .text	00000564 _realloc_r
080576c0 g       *ABS*	00000000 __bss_end
0804ff44 g     F .text	000000f0 alt_iic_isr_register
0805247c g     F .text	000002fc alt_up_pixel_buffer_dma_draw_box
080506d8 g     F .text	00000108 alt_tick
0804da40 g     F .text	000005fc .hidden __udivdi3
08051d50 g     F .text	0000003c adc_wait_for_interrupt
08053bd0 g     O .rodata	00000028 __mprec_bigtens
08049ef0 g     F .text	00000104 __s2b
0804f98c g     F .text	000000a8 .hidden __floatunsidf
0804a65c g     F .text	00000060 __mcmp
08048b30 g     F .text	00000018 __fp_lock_all
0804fef8 g     F .text	0000004c alt_ic_irq_enabled
0805063c g     F .text	0000009c alt_alarm_stop
08057564 g     O .bss	00000004 alt_irq_active
080400fc g     F .exceptions	000000d4 alt_irq_handler
08054644 g     O .rwdata	00000028 alt_dev_null
08051b48 g     F .text	00000040 adc_set_mode_run_once
0805313c g     F .text	00000020 alt_dcache_flush_all
08049ff4 g     F .text	00000068 __hi0bits
08052c14 g     F .text	000000c8 alt_up_pixel_buffer_dma_draw_rectangle
0804f830 g     F .text	00000080 .hidden __fixdfsi
08055970 g       *ABS*	00000000 __ram_rwdata_end
08055948 g     O .rwdata	00000008 alt_dev_list
0805084c g     F .text	00000100 write
08052d9c g     F .text	00000248 alt_up_pixel_buffer_dma_draw_line
08042d8c g     F .text	000000bc .hidden __gtsf2
08053da0 g       *ABS*	00000000 __ram_rodata_end
0804fcdc g     F .text	000000b8 fstat
08043aac g     F .text	000000f4 .hidden __ledf2
0804a3d4 g     F .text	00000140 __pow5mult
08051b10 g     F .text	00000038 adc_start
08057550 g     O .bss	00000004 __nlocale_changed
08042c80 g     F .text	00000058 .hidden __umodsi3
080576c0 g       *ABS*	00000000 end
08051d8c g     F .text	00000080 alt_up_char_buffer_init
08050e28 g     F .text	000000c0 altera_avalon_jtag_uart_init
080401d0 g     F .exceptions	00000060 alt_instruction_exception_entry
08042d00 g     F .text	0000008c .hidden __trampoline_setup
08053800 g       *ABS*	00000000 __CTOR_LIST__
080680a0 g       *ABS*	00000000 __alt_stack_pointer
080517a4 g     F .text	0000007c alt_avalon_timer_sc_init
080446c4 g     F .text	00000064 .hidden __clzsi2
08051508 g     F .text	00000224 altera_avalon_jtag_uart_write
08048b20 g     F .text	00000004 __sfp_lock_acquire
08049a98 g     F .text	000000e4 memchr
08044ae8 g     F .text	00000058 _sprintf_r
0804d2f8 g     F .text	00000310 _free_r
08049238 g     F .text	00000010 __locale_mb_cur_max
0805364c g     F .text	00000180 __call_exitprocs
0805754c g     O .bss	00000004 __mlocale_changed
08055938 g     O .rwdata	00000004 __malloc_sbrk_base
08040230 g     F .text	0000003c _start
08057574 g     O .bss	00000004 _alt_tick_rate
08044a84 g     F .text	00000064 rand
0804a514 g     F .text	00000148 __lshift
08057578 g     O .bss	00000004 _alt_nticks
08050404 g     F .text	00000104 read
080509b8 g     F .text	0000030c alt_sys_init
0804b5d4 g     F .text	000001d0 __ssprint_r
08053534 g     F .text	00000118 __register_exitproc
0804a148 g     F .text	0000028c __multiply
08051194 g     F .text	00000068 altera_avalon_jtag_uart_close
08042cd8 g     F .text	00000028 .hidden __mulsi3
08053da0 g       *ABS*	00000000 __ram_rwdata_start
08053800 g       *ABS*	00000000 __ram_rodata_start
08057598 g     O .bss	00000028 __malloc_current_mallinfo
0804aa28 g     F .text	0000014c __d2b
08050cc4 g     F .text	00000060 altera_avalon_jtag_uart_read_fd
08052fe4 g     F .text	00000158 alt_busy_sleep
0804ccf8 g     F .text	00000054 _close_r
080534b8 g     F .text	0000007c memcmp
08050d84 g     F .text	00000050 altera_avalon_jtag_uart_close_fd
080576c0 g       *ABS*	00000000 __alt_stack_base
08050dd4 g     F .text	00000054 altera_avalon_jtag_uart_ioctl_fd
0804cba4 g     F .text	00000154 __swsetup_r
08051c40 g     F .text	00000044 adc_interrupt_enable
08043000 g     F .text	000009d0 .hidden __divdf3
080489e0 g     F .text	00000118 __sfp
0804ac8c g     F .text	00000078 __copybits
08057540 g     O .bss	00000004 pause_flag
0805423c g     O .rwdata	00000408 __malloc_av_
08048b2c g     F .text	00000004 __sinit_lock_release
08043ba0 g     F .text	0000086c .hidden __muldf3
0804b3bc g     F .text	00000054 __sread
08053198 g     F .text	000000a4 alt_dev_llist_insert
08050380 g     F .text	00000024 __malloc_lock
0805058c g     F .text	000000b0 sbrk
08044c44 g     F .text	000022bc ___svfprintf_internal_r
0804d148 g     F .text	0000005c _fflush_r
0804cd4c g     F .text	000000dc _calloc_r
08057540 g       *ABS*	00000000 __bss_start
08044870 g     F .text	00000128 memset
08040378 g     F .text	00000a0c main
08057570 g     O .bss	00000004 alt_envp
08057554 g     O .bss	00000004 __malloc_max_total_mem
080522ac g     F .text	00000060 alt_up_pixel_buffer_dma_swap_buffers
08051e0c g     F .text	0000003c alt_up_char_buffer_open_dev
08050d24 g     F .text	00000060 altera_avalon_jtag_uart_write_fd
08044a6c g     F .text	00000018 srand
08042e48 g     F .text	000000c8 .hidden __ltsf2
080518c8 g     F .text	000000ac alt_adc_word_read
0804b4f0 g     F .text	00000008 __sclose
080680a0 g       *ABS*	00000000 __alt_heap_limit
0804cf18 g     F .text	00000014 fclose
0804451c g     F .text	000001a8 .hidden __truncdfsf2
08047128 g     F .text	00001688 _dtoa_r
0804928c g     F .text	0000080c _malloc_r
08055954 g     O .rwdata	00000004 alt_errno
08049028 g     F .text	000000c4 _fwalk
08042b24 g     F .text	00000084 .hidden __divsi3
0804d1d4 g     F .text	00000124 _malloc_trim_r
08053800 g       *ABS*	00000000 __CTOR_END__
0804b4f8 g     F .text	000000dc strcmp
08053800 g       *ABS*	00000000 __flash_rodata_start
08053800 g       *ABS*	00000000 __DTOR_LIST__
080402b4 g     F .text	00000064 init_pio_interrupt
0804eeac g     F .text	00000088 .hidden __nedf2
08050980 g     F .text	00000038 alt_irq_init
08050508 g     F .text	00000084 alt_release_fd
08044b40 g     F .text	0000006c sprintf
08053a12 g     O .rodata	00000100 .hidden __clz_tab
08057548 g     O .bss	00000004 _PathLocale
0805346c g     F .text	00000014 atexit
08042d8c g     F .text	000000bc .hidden __gesf2
0804cb44 g     F .text	00000060 _write_r
08049268 g     F .text	00000018 setlocale
08055930 g     O .rwdata	00000004 _impure_ptr
08057568 g     O .bss	00000004 alt_argc
0804cf2c g     F .text	0000021c __sflush_r
0805329c g     F .text	00000060 _do_dtors
08049254 g     F .text	00000008 __locale_cjk_lang
08040020 g       .exceptions	00000000 alt_irq_entry
0804a8b8 g     F .text	00000064 __ulp
08048b48 g     F .text	00000018 __fp_unlock_all
08055940 g     O .rwdata	00000008 alt_fs_list
08040020 g       *ABS*	00000000 __ram_exceptions_start
08049280 g     F .text	0000000c localeconv
04000000 g       *ABS*	00000000 __alt_mem_new_sdram_controller_0
0804fd94 g     F .text	00000050 alt_ic_isr_register
08055970 g       *ABS*	00000000 _edata
080576c0 g       *ABS*	00000000 _end
08051d10 g     F .text	00000040 adc_interrupt_asserted
08040230 g       *ABS*	00000000 __ram_exceptions_end
080511fc g     F .text	000000f0 altera_avalon_jtag_uart_ioctl
08057544 g     O .bss	00000004 game_clear_flag
0804fe6c g     F .text	0000008c alt_ic_irq_disable
0804b418 g     F .text	0000007c __swrite
0805593c g     O .rwdata	00000004 __malloc_trim_threshold
08051ccc g     F .text	00000044 adc_clear_interrupt_status
08049248 g     F .text	0000000c __locale_msgcharset
08053480 g     F .text	00000038 exit
080490ec g     F .text	000000c4 _fwalk_reent
08042f10 g     F .text	000000f0 .hidden __floatunsisf
0804a6bc g     F .text	000001fc __mdiff
08042ba8 g     F .text	00000074 .hidden __modsi3
080680a0 g       *ABS*	00000000 __alt_data_end
08040020 g     F .exceptions	00000000 alt_exception
08048b24 g     F .text	00000004 __sfp_lock_release
08051a80 g     F .text	00000040 altera_modular_adc_open
080537cc g     F .text	00000034 _exit
0804fa34 g     F .text	0000012c alt_alarm_start
0804d934 g     F .text	0000010c .hidden __muldi3
0804d668 g     F .text	000001bc __smakebuf_r
08044bac g     F .text	00000098 strlen
080439d0 g     F .text	000000dc .hidden __gedf2
08051bc4 g     F .text	0000007c adc_recalibrate
0805338c g     F .text	00000020 alt_icache_flush_all
08055958 g     O .rwdata	00000004 alt_priority_mask
0804fde4 g     F .text	00000088 alt_ic_irq_enable
0804ef34 g     F .text	000008fc .hidden __subdf3
0804a05c g     F .text	000000b0 __lo0bits
08055960 g     O .rwdata	00000008 alt_alarm_list
0805323c g     F .text	00000060 _do_ctors
0804fb9c g     F .text	000000d8 close
08050184 g     F .text	00000084 alt_load
080519e8 g     F .text	00000098 alt_adc_register_callback
08048b28 g     F .text	00000004 __sinit_lock_acquire
08049da8 g     F .text	00000148 __multadd
08049d80 g     F .text	00000028 _Bfree



Disassembly of section .entry:

08040000 <__reset>:
 * Jump to the _start entry point in the .text section if reset code
 * is allowed or if optimizing for RTL simulation.
 */
#if defined(ALT_ALLOW_CODE_AT_RESET) || defined(ALT_SIM_OPTIMIZE)
    /* Jump to the _start entry point in the .text section. */
    movhi r1, %hi(_start)
 8040000:	00420134 	movhi	at,2052
    ori r1, r1, %lo(_start)
 8040004:	08408c14 	ori	at,at,560
    jmp r1
 8040008:	0800683a 	jmp	at
	...

Disassembly of section .exceptions:

08040020 <alt_exception>:

#else /* ALT_EXCEPTION_STACK disabled */
        /* 
         * Reserve space on normal stack for registers about to be pushed.
         */
        addi  sp, sp, -76
 8040020:	deffed04 	addi	sp,sp,-76
         * documentation for details).
         *
         * Leave a gap in the stack frame at 4(sp) for the muldiv handler to
         * store zero into.
         */
        stw   ra,  0(sp)
 8040024:	dfc00015 	stw	ra,0(sp)
        stw   r1,   8(sp)
 8040028:	d8400215 	stw	at,8(sp)
        stw   r2,  12(sp)
 804002c:	d8800315 	stw	r2,12(sp)
        stw   r3,  16(sp)
 8040030:	d8c00415 	stw	r3,16(sp)
        stw   r4,  20(sp)
 8040034:	d9000515 	stw	r4,20(sp)
        stw   r5,  24(sp)
 8040038:	d9400615 	stw	r5,24(sp)
        stw   r6,  28(sp)
 804003c:	d9800715 	stw	r6,28(sp)
        stw   r7,  32(sp)
 8040040:	d9c00815 	stw	r7,32(sp)
        rdctl r5, estatus   /* Read early to avoid usage stall */
 8040044:	000b307a 	rdctl	r5,estatus
        stw   r8,  36(sp)
 8040048:	da000915 	stw	r8,36(sp)
        stw   r9,  40(sp)
 804004c:	da400a15 	stw	r9,40(sp)
        stw   r10, 44(sp)
 8040050:	da800b15 	stw	r10,44(sp)
        stw   r11, 48(sp)
 8040054:	dac00c15 	stw	r11,48(sp)
        stw   r12, 52(sp)
 8040058:	db000d15 	stw	r12,52(sp)
        stw   r13, 56(sp)
 804005c:	db400e15 	stw	r13,56(sp)
        stw   r14, 60(sp)
 8040060:	db800f15 	stw	r14,60(sp)
        stw   r15, 64(sp)
 8040064:	dbc01015 	stw	r15,64(sp)
        /*
         * ea-4 contains the address of the instruction being executed
         * when the exception occured. For interrupt exceptions, we will
         * will be re-issue the isntruction. Store it in 72(sp)
         */
        stw   r5,  68(sp)  /* estatus */
 8040068:	d9401115 	stw	r5,68(sp)
        addi  r15, ea, -4  /* instruction that caused exception */
 804006c:	ebffff04 	addi	r15,ea,-4
        stw   r15,  72(sp)
 8040070:	dbc01215 	stw	r15,72(sp)
#else
        /*
         * Test to see if the exception was a software exception or caused 
         * by an external interrupt, and vector accordingly.
         */
        rdctl r4, ipending
 8040074:	0009313a 	rdctl	r4,ipending
        andi  r2, r5, 1
 8040078:	2880004c 	andi	r2,r5,1
        beq   r2, zero, .Lnot_irq
 804007c:	10000326 	beq	r2,zero,804008c <alt_exception+0x6c>
        beq   r4, zero, .Lnot_irq
 8040080:	20000226 	beq	r4,zero,804008c <alt_exception+0x6c>
        /*
         * Now that all necessary registers have been preserved, call 
         * alt_irq_handler() to process the interrupts.
         */

        call alt_irq_handler
 8040084:	80400fc0 	call	80400fc <alt_irq_handler>

        .section .exceptions.irqreturn, "xa"

        br    .Lexception_exit
 8040088:	00000706 	br	80400a8 <alt_exception+0x88>
         * upon completion, so we write ea (address of instruction *after*
         * the one where the exception occured) into 72(sp). The actual
         * instruction that caused the exception is written in r2, which these
         * handlers will utilize.
         */
        stw ea, 72(sp) /* EA is PC+4 so will skip over instruction causing exception */
 804008c:	df401215 	stw	ea,72(sp)
.Lunknown_16bit:
        addi.n r4, r4, 2 /* Need PC+2 to skip over instruction causing exception */
        stw r4, 72(sp)

#else /* CDX is not Enabled and all instructions are 32bits */
        ldw r2, -4(ea) /* Instruction value that caused exception */
 8040090:	e8bfff17 	ldw	r2,-4(ea)
         * debugger is present) or go into an infinite loop since the
         * handling behavior is undefined; in that case we will not return here.
         */

        /* Load exception-causing address as first argument (r4) */
        addi   r4, ea, -4
 8040094:	e93fff04 	addi	r4,ea,-4

        /* Call the instruction-exception entry */
        call   alt_instruction_exception_entry
 8040098:	80401d00 	call	80401d0 <alt_instruction_exception_entry>
         * instruction
         *
         * Return code was 0: Skip. The instruction after the exception is
         * already stored in 72(sp).
         */
        bne   r2, r0, .Lexception_exit
 804009c:	1000021e 	bne	r2,zero,80400a8 <alt_exception+0x88>

        /*
         * Otherwise, modify 72(sp) to re-issue the instruction that caused the
         * exception.
         */
        addi  r15, ea, -4  /* instruction that caused exception */
 80400a0:	ebffff04 	addi	r15,ea,-4
        stw   r15,  72(sp)
 80400a4:	dbc01215 	stw	r15,72(sp)
        /* 
         * Restore the saved registers, so that all general purpose registers 
         * have been restored to their state at the time the interrupt occured.
         */

        ldw   r5,  68(sp)
 80400a8:	d9401117 	ldw	r5,68(sp)
        ldw   ea,  72(sp)  /* This becomes the PC once eret is executed */
 80400ac:	df401217 	ldw	ea,72(sp)
        ldw   ra,   0(sp)
 80400b0:	dfc00017 	ldw	ra,0(sp)

        wrctl estatus, r5
 80400b4:	2801707a 	wrctl	estatus,r5

        ldw   r1,   8(sp)
 80400b8:	d8400217 	ldw	at,8(sp)
        ldw   r2,  12(sp)
 80400bc:	d8800317 	ldw	r2,12(sp)
        ldw   r3,  16(sp)
 80400c0:	d8c00417 	ldw	r3,16(sp)
        ldw   r4,  20(sp)
 80400c4:	d9000517 	ldw	r4,20(sp)
        ldw   r5,  24(sp)
 80400c8:	d9400617 	ldw	r5,24(sp)
        ldw   r6,  28(sp)
 80400cc:	d9800717 	ldw	r6,28(sp)
        ldw   r7,  32(sp)
 80400d0:	d9c00817 	ldw	r7,32(sp)

#if defined(ALT_EXCEPTION_STACK) && defined(ALT_STACK_CHECK)
        ldw   et, %gprel(alt_exception_old_stack_limit)(gp)
#endif

        ldw   r8,  36(sp)
 80400d4:	da000917 	ldw	r8,36(sp)
        ldw   r9,  40(sp)
 80400d8:	da400a17 	ldw	r9,40(sp)
        ldw   r10, 44(sp)
 80400dc:	da800b17 	ldw	r10,44(sp)
        ldw   r11, 48(sp)
 80400e0:	dac00c17 	ldw	r11,48(sp)
        ldw   r12, 52(sp)
 80400e4:	db000d17 	ldw	r12,52(sp)
        ldw   r13, 56(sp)
 80400e8:	db400e17 	ldw	r13,56(sp)
        ldw   r14, 60(sp)
 80400ec:	db800f17 	ldw	r14,60(sp)
        ldw   r15, 64(sp)
 80400f0:	dbc01017 	ldw	r15,64(sp)
        stw   et, %gprel(alt_stack_limit_value)(gp)
        stw   zero, %gprel(alt_exception_old_stack_limit)(gp)
#endif /* ALT_STACK_CHECK */
        ldw   sp,  76(sp)
#else /* ALT_EXCEPTION_STACK disabled */
        addi  sp, sp, 76
 80400f4:	dec01304 	addi	sp,sp,76

        /*
         * Return to the interrupted instruction.
         */

        eret
 80400f8:	ef80083a 	eret

080400fc <alt_irq_handler>:
 * instruction is present if the macro ALT_CI_INTERRUPT_VECTOR defined.
 */

void alt_irq_handler (void) __attribute__ ((section (".exceptions")));
void alt_irq_handler (void)
{
 80400fc:	defff904 	addi	sp,sp,-28
 8040100:	dfc00615 	stw	ra,24(sp)
 8040104:	df000515 	stw	fp,20(sp)
 8040108:	df000504 	addi	fp,sp,20
  
  /*
   * Notify the operating system that we are at interrupt level.
   */ 
  
  ALT_OS_INT_ENTER();
 804010c:	0001883a 	nop
#ifndef NIOS2_EIC_PRESENT
static ALT_INLINE alt_u32 ALT_ALWAYS_INLINE alt_irq_pending (void)
{
  alt_u32 active;

  NIOS2_READ_IPENDING (active);
 8040110:	0005313a 	rdctl	r2,ipending
 8040114:	e0bffe15 	stw	r2,-8(fp)

  return active;
 8040118:	e0bffe17 	ldw	r2,-8(fp)
   * Consider the case where the high priority interupt is asserted during
   * the interrupt entry sequence for a lower priority interrupt to see why
   * this is the case.
   */

  active = alt_irq_pending ();
 804011c:	e0bffb15 	stw	r2,-20(fp)

  do
  {
    i = 0;
 8040120:	e03ffd15 	stw	zero,-12(fp)
    mask = 1;
 8040124:	00800044 	movi	r2,1
 8040128:	e0bffc15 	stw	r2,-16(fp)
     * called to clear the interrupt condition.
     */

    do
    {
      if (active & mask)
 804012c:	e0fffb17 	ldw	r3,-20(fp)
 8040130:	e0bffc17 	ldw	r2,-16(fp)
 8040134:	1884703a 	and	r2,r3,r2
 8040138:	10001426 	beq	r2,zero,804018c <alt_irq_handler+0x90>
      { 
#ifdef ALT_ENHANCED_INTERRUPT_API_PRESENT
        alt_irq[i].handler(alt_irq[i].context); 
 804013c:	00820174 	movhi	r2,2053
 8040140:	109d7004 	addi	r2,r2,30144
 8040144:	e0fffd17 	ldw	r3,-12(fp)
 8040148:	180690fa 	slli	r3,r3,3
 804014c:	10c5883a 	add	r2,r2,r3
 8040150:	10c00017 	ldw	r3,0(r2)
 8040154:	00820174 	movhi	r2,2053
 8040158:	109d7004 	addi	r2,r2,30144
 804015c:	e13ffd17 	ldw	r4,-12(fp)
 8040160:	200890fa 	slli	r4,r4,3
 8040164:	1105883a 	add	r2,r2,r4
 8040168:	10800104 	addi	r2,r2,4
 804016c:	10800017 	ldw	r2,0(r2)
 8040170:	1009883a 	mov	r4,r2
 8040174:	183ee83a 	callr	r3
#else
        alt_irq[i].handler(alt_irq[i].context, i); 
#endif
        break;
 8040178:	0001883a 	nop
#ifndef NIOS2_EIC_PRESENT
static ALT_INLINE alt_u32 ALT_ALWAYS_INLINE alt_irq_pending (void)
{
  alt_u32 active;

  NIOS2_READ_IPENDING (active);
 804017c:	0005313a 	rdctl	r2,ipending
 8040180:	e0bfff15 	stw	r2,-4(fp)

  return active;
 8040184:	e0bfff17 	ldw	r2,-4(fp)
 8040188:	00000706 	br	80401a8 <alt_irq_handler+0xac>
      }
      mask <<= 1;
 804018c:	e0bffc17 	ldw	r2,-16(fp)
 8040190:	1085883a 	add	r2,r2,r2
 8040194:	e0bffc15 	stw	r2,-16(fp)
      i++;
 8040198:	e0bffd17 	ldw	r2,-12(fp)
 804019c:	10800044 	addi	r2,r2,1
 80401a0:	e0bffd15 	stw	r2,-12(fp)

    } while (1);
 80401a4:	003fe106 	br	804012c <__alt_data_end+0xfffd808c>

    active = alt_irq_pending ();
 80401a8:	e0bffb15 	stw	r2,-20(fp)
    
  } while (active);
 80401ac:	e0bffb17 	ldw	r2,-20(fp)
 80401b0:	103fdb1e 	bne	r2,zero,8040120 <__alt_data_end+0xfffd8080>

  /*
   * Notify the operating system that interrupt processing is complete.
   */ 

  ALT_OS_INT_EXIT();
 80401b4:	0001883a 	nop
}
 80401b8:	0001883a 	nop
 80401bc:	e037883a 	mov	sp,fp
 80401c0:	dfc00117 	ldw	ra,4(sp)
 80401c4:	df000017 	ldw	fp,0(sp)
 80401c8:	dec00204 	addi	sp,sp,8
 80401cc:	f800283a 	ret

080401d0 <alt_instruction_exception_entry>:
 * that handler if it has been registered. Absent a handler, it will
 * break break or hang as discussed below.
 */
int 
alt_instruction_exception_entry (alt_u32 exception_pc)
{
 80401d0:	defffb04 	addi	sp,sp,-20
 80401d4:	dfc00415 	stw	ra,16(sp)
 80401d8:	df000315 	stw	fp,12(sp)
 80401dc:	df000304 	addi	fp,sp,12
 80401e0:	e13fff15 	stw	r4,-4(fp)
  cause = ( (cause & NIOS2_EXCEPTION_REG_CAUSE_MASK) >>
              NIOS2_EXCEPTION_REG_CAUSE_OFST );

  NIOS2_READ_BADADDR(badaddr);
#else
  cause = NIOS2_EXCEPTION_CAUSE_NOT_PRESENT;
 80401e4:	00bfffc4 	movi	r2,-1
 80401e8:	e0bffd15 	stw	r2,-12(fp)
  badaddr = 0;
 80401ec:	e03ffe15 	stw	zero,-8(fp)
#endif /* NIOS2_HAS_EXTRA_EXCEPTION_INFO */

  if(alt_instruction_exception_handler) {
 80401f0:	d0a71617 	ldw	r2,-25512(gp)
 80401f4:	10000726 	beq	r2,zero,8040214 <alt_instruction_exception_entry+0x44>
     * Call handler. Its return value indicates whether the exception-causing
     * instruction should be re-issued. The code that called us,
     * alt_eceptions_entry.S, will look at this value and adjust the ea
     * register as necessary
     */
    return alt_instruction_exception_handler(cause, exception_pc, badaddr);
 80401f8:	d0a71617 	ldw	r2,-25512(gp)
 80401fc:	e0fffd17 	ldw	r3,-12(fp)
 8040200:	e1bffe17 	ldw	r6,-8(fp)
 8040204:	e17fff17 	ldw	r5,-4(fp)
 8040208:	1809883a 	mov	r4,r3
 804020c:	103ee83a 	callr	r2
 8040210:	00000206 	br	804021c <alt_instruction_exception_entry+0x4c>
   *    (a peripheral which negates its interrupt output before its
   *    interrupt handler has been executed will cause spurious interrupts)
   */
  else {
#ifdef NIOS2_HAS_DEBUG_STUB
    NIOS2_BREAK();
 8040214:	003da03a 	break	0
      ;
#endif /* NIOS2_HAS_DEBUG_STUB */
  }

  /* We should not get here. Remove compiler warning. */
  return NIOS2_EXCEPTION_RETURN_REISSUE_INST;
 8040218:	0005883a 	mov	r2,zero
}
 804021c:	e037883a 	mov	sp,fp
 8040220:	dfc00117 	ldw	ra,4(sp)
 8040224:	df000017 	ldw	fp,0(sp)
 8040228:	dec00204 	addi	sp,sp,8
 804022c:	f800283a 	ret

Disassembly of section .text:

08040230 <_start>:

    /*
     * Now that the caches are initialized, set up the stack pointer and global pointer.
     * The values provided by the linker are assumed to be correctly aligned.
     */
    movhi sp, %hi(__alt_stack_pointer)
 8040230:	06c201b4 	movhi	sp,2054
    ori sp, sp, %lo(__alt_stack_pointer)
 8040234:	dee02814 	ori	sp,sp,32928
    movhi gp, %hi(_gp)
 8040238:	06820174 	movhi	gp,2053
    ori gp, gp, %lo(_gp)
 804023c:	d6b64914 	ori	gp,gp,55588
 */
#ifndef ALT_SIM_OPTIMIZE
    /* Log that the BSS is about to be cleared. */
    ALT_LOG_PUTS(alt_log_msg_bss)

    movhi r2, %hi(__bss_start)
 8040240:	00820174 	movhi	r2,2053
    ori r2, r2, %lo(__bss_start)
 8040244:	109d5014 	ori	r2,r2,30016

    movhi r3, %hi(__bss_end)
 8040248:	00c20174 	movhi	r3,2053
    ori r3, r3, %lo(__bss_end)
 804024c:	18ddb014 	ori	r3,r3,30400

    beq r2, r3, 1f
 8040250:	10c00326 	beq	r2,r3,8040260 <_start+0x30>

0:
    stw zero, (r2)
 8040254:	10000015 	stw	zero,0(r2)
    addi r2, r2, 4
 8040258:	10800104 	addi	r2,r2,4
    bltu r2, r3, 0b
 804025c:	10fffd36 	bltu	r2,r3,8040254 <__alt_data_end+0xfffd81b4>
     * section aren't defined until alt_load() has been called).
     */
    mov   et, zero
#endif

    call alt_load
 8040260:	80501840 	call	8050184 <alt_load>

    /* Log that alt_main is about to be called. */
    ALT_LOG_PUTS(alt_log_msg_alt_main)

    /* Call the C entry point. It should never return. */
    call alt_main
 8040264:	80503200 	call	8050320 <alt_main>

08040268 <alt_after_alt_main>:

    /* Wait in infinite loop in case alt_main does return. */
alt_after_alt_main:
    br alt_after_alt_main
 8040268:	003fff06 	br	8040268 <__alt_data_end+0xfffd81c8>

0804026c <pio_isr>:
int game_clear_flag = 0;
int game_flag = SNAKE_FLAG;

// Interrupt setup for PIO
static void pio_isr(void * context, alt_u32 id)    //this is the ISR
{
 804026c:	defffd04 	addi	sp,sp,-12
 8040270:	df000215 	stw	fp,8(sp)
 8040274:	df000204 	addi	fp,sp,8
 8040278:	e13ffe15 	stw	r4,-8(fp)
 804027c:	e17fff15 	stw	r5,-4(fp)
	pause_flag = !pause_flag;
 8040280:	d0a70717 	ldw	r2,-25572(gp)
 8040284:	1005003a 	cmpeq	r2,r2,zero
 8040288:	10803fcc 	andi	r2,r2,255
 804028c:	d0a70715 	stw	r2,-25572(gp)
	IOWR_ALTERA_AVALON_PIO_EDGE_CAP(SW_BASE, 0x0);    //resets edge capture register so interrupt can be triggered again
 8040290:	0007883a 	mov	r3,zero
 8040294:	00820234 	movhi	r2,2056
 8040298:	108c9f04 	addi	r2,r2,12924
 804029c:	10c00035 	stwio	r3,0(r2)
	                                                    //can write anything to the register to reset it, does not have to be 0x0
}
 80402a0:	0001883a 	nop
 80402a4:	e037883a 	mov	sp,fp
 80402a8:	df000017 	ldw	fp,0(sp)
 80402ac:	dec00104 	addi	sp,sp,4
 80402b0:	f800283a 	ret

080402b4 <init_pio_interrupt>:
void init_pio_interrupt()
{
 80402b4:	defffd04 	addi	sp,sp,-12
 80402b8:	dfc00215 	stw	ra,8(sp)
 80402bc:	df000115 	stw	fp,4(sp)
 80402c0:	df000104 	addi	fp,sp,4
	alt_ic_isr_register(SW_IRQ_INTERRUPT_CONTROLLER_ID, SW_IRQ, (void *)pio_isr, NULL, 0x0);    //connects the ISR with the IRQ. Also requires *context and can choose a flag?
 80402c4:	d8000015 	stw	zero,0(sp)
 80402c8:	000f883a 	mov	r7,zero
 80402cc:	01820134 	movhi	r6,2052
 80402d0:	31809b04 	addi	r6,r6,620
 80402d4:	01400084 	movi	r5,2
 80402d8:	0009883a 	mov	r4,zero
 80402dc:	804fd940 	call	804fd94 <alt_ic_isr_register>
	IOWR_ALTERA_AVALON_PIO_IRQ_MASK(SW_BASE, 0x20);    //0x20 = 0b0010_0000, so this will trigger an interrupt on rising edge of sw[2]
 80402e0:	00c00804 	movi	r3,32
 80402e4:	00820234 	movhi	r2,2056
 80402e8:	108c9e04 	addi	r2,r2,12920
 80402ec:	10c00035 	stwio	r3,0(r2)
	IOWR_ALTERA_AVALON_PIO_EDGE_CAP(SW_BASE, 0x0);    //resets edge capture register
 80402f0:	0007883a 	mov	r3,zero
 80402f4:	00820234 	movhi	r2,2056
 80402f8:	108c9f04 	addi	r2,r2,12924
 80402fc:	10c00035 	stwio	r3,0(r2)
}
 8040300:	0001883a 	nop
 8040304:	e037883a 	mov	sp,fp
 8040308:	dfc00117 	ldw	ra,4(sp)
 804030c:	df000017 	ldw	fp,0(sp)
 8040310:	dec00204 	addi	sp,sp,8
 8040314:	f800283a 	ret

08040318 <alarm_callback.3516>:
	char time_str[10];
	sprintf(time_str, "Time: %u", pong_game.time);
	char score_str[20];

	// Alarm setup - executes the callback function periodically (every second)
	alt_u32 alarm_callback(void *context) {
 8040318:	defffc04 	addi	sp,sp,-16
 804031c:	dfc00315 	stw	ra,12(sp)
 8040320:	df000215 	stw	fp,8(sp)
 8040324:	df000204 	addi	fp,sp,8
 8040328:	e13ffe15 	stw	r4,-8(fp)
 804032c:	6005883a 	mov	r2,r12
 8040330:	e33fff15 	stw	r12,-4(fp)
		pong_game.time += 1;
 8040334:	10c02717 	ldw	r3,156(r2)
 8040338:	18c00044 	addi	r3,r3,1
 804033c:	10c02715 	stw	r3,156(r2)
		sprintf(time_str, "Time: %u", pong_game.time);
 8040340:	10c02804 	addi	r3,r2,160
 8040344:	10802717 	ldw	r2,156(r2)
 8040348:	100d883a 	mov	r6,r2
 804034c:	01420174 	movhi	r5,2053
 8040350:	294e0004 	addi	r5,r5,14336
 8040354:	1809883a 	mov	r4,r3
 8040358:	8044b400 	call	8044b40 <sprintf>
 * Obtain the system clock rate in ticks/s. 
 */

static ALT_INLINE alt_u32 ALT_ALWAYS_INLINE alt_ticks_per_second (void)
{
  return _alt_tick_rate;
 804035c:	d0a71417 	ldw	r2,-25520(gp)
		return alt_ticks_per_second();
 8040360:	0001883a 	nop
	}
 8040364:	e037883a 	mov	sp,fp
 8040368:	dfc00117 	ldw	ra,4(sp)
 804036c:	df000017 	ldw	fp,0(sp)
 8040370:	dec00204 	addi	sp,sp,8
 8040374:	f800283a 	ret

08040378 <main>:
	IOWR_ALTERA_AVALON_PIO_IRQ_MASK(SW_BASE, 0x20);    //0x20 = 0b0010_0000, so this will trigger an interrupt on rising edge of sw[2]
	IOWR_ALTERA_AVALON_PIO_EDGE_CAP(SW_BASE, 0x0);    //resets edge capture register
}

int main()
{
 8040378:	defc8604 	addi	sp,sp,-3560
 804037c:	dfc37915 	stw	ra,3556(sp)
 8040380:	df037815 	stw	fp,3552(sp)
 8040384:	df037804 	addi	fp,sp,3552
	alt_ic_isr_register(SW_IRQ_INTERRUPT_CONTROLLER_ID, SW_IRQ, (void *)pio_isr, NULL, 0x0);    //connects the ISR with the IRQ. Also requires *context and can choose a flag?
	IOWR_ALTERA_AVALON_PIO_IRQ_MASK(SW_BASE, 0x20);    //0x20 = 0b0010_0000, so this will trigger an interrupt on rising edge of sw[2]
	IOWR_ALTERA_AVALON_PIO_EDGE_CAP(SW_BASE, 0x0);    //resets edge capture register
}

int main()
 8040388:	e0bc9b04 	addi	r2,fp,-3476
 804038c:	10802b04 	addi	r2,r2,172
 8040390:	e0fc9b04 	addi	r3,fp,-3476
 8040394:	180d883a 	mov	r6,r3
 8040398:	01420134 	movhi	r5,2052
 804039c:	2940c604 	addi	r5,r5,792
 80403a0:	1009883a 	mov	r4,r2
 80403a4:	8042d000 	call	8042d00 <__trampoline_setup>
{
	// Have to set up these pointers to open the device
	// Reference : https://faculty-web.msoe.edu/johnsontimoj/EE3921/files3921/nios_pixel_sw.pdf
	alt_up_pixel_buffer_dma_dev * pixel_buf_dma_dev;
	pixel_buf_dma_dev = alt_up_pixel_buffer_dma_open_dev(VIDEO_PIXEL_BUFFER_DMA_0_NAME);
 80403a8:	01020174 	movhi	r4,2053
 80403ac:	210e0304 	addi	r4,r4,14348
 80403b0:	805206c0 	call	805206c <alt_up_pixel_buffer_dma_open_dev>
 80403b4:	e0bc8e15 	stw	r2,-3528(fp)
	// Check for error
	if ( pixel_buf_dma_dev == NULL)
 80403b8:	e0bc8e17 	ldw	r2,-3528(fp)
 80403bc:	1000041e 	bne	r2,zero,80403d0 <main+0x58>
		printf ("Error: could not open pixel buffer device \n");
 80403c0:	01020174 	movhi	r4,2053
 80403c4:	210e0b04 	addi	r4,r4,14380
 80403c8:	8044a580 	call	8044a58 <puts>
 80403cc:	00000306 	br	80403dc <main+0x64>
	else
		printf ("Opened pixel buffer device \n");
 80403d0:	01020174 	movhi	r4,2053
 80403d4:	210e1604 	addi	r4,r4,14424
 80403d8:	8044a580 	call	8044a58 <puts>
	alt_up_char_buffer_dev * char_buf_dev;
	char_buf_dev = alt_up_char_buffer_open_dev("/dev/video_character_buffer_with_dma_0");
 80403dc:	01020174 	movhi	r4,2053
 80403e0:	210e1d04 	addi	r4,r4,14452
 80403e4:	8051e0c0 	call	8051e0c <alt_up_char_buffer_open_dev>
 80403e8:	e0bc8f15 	stw	r2,-3524(fp)
	if ( char_buf_dev == NULL)
 80403ec:	e0bc8f17 	ldw	r2,-3524(fp)
 80403f0:	1000041e 	bne	r2,zero,8040404 <main+0x8c>
		printf ("Error: could not open char buffer device \n");
 80403f4:	01020174 	movhi	r4,2053
 80403f8:	210e2704 	addi	r4,r4,14492
 80403fc:	8044a580 	call	8044a58 <puts>
 8040400:	00000306 	br	8040410 <main+0x98>
	else
		printf ("Opened char buffer device \n");
 8040404:	01020174 	movhi	r4,2053
 8040408:	210e3204 	addi	r4,r4,14536
 804040c:	8044a580 	call	8044a58 <puts>

	alt_up_char_buffer_init(char_buf_dev);
 8040410:	e13c8f17 	ldw	r4,-3524(fp)
 8040414:	8051d8c0 	call	8051d8c <alt_up_char_buffer_init>
	alt_up_char_buffer_init(char_buf_dev);
 8040418:	e13c8f17 	ldw	r4,-3524(fp)
 804041c:	8051d8c0 	call	8051d8c <alt_up_char_buffer_init>

	// Game objects
	Game pong_game = {SCREEN_WIDTH, SCREEN_HEIGHT, {0,0}, NUM_BALLS, NUM_PADDLES,
 8040420:	00820174 	movhi	r2,2053
 8040424:	108e5104 	addi	r2,r2,14660
 8040428:	e0fc9b04 	addi	r3,fp,-3476
 804042c:	1009883a 	mov	r4,r2
 8040430:	00802804 	movi	r2,160
 8040434:	100d883a 	mov	r6,r2
 8040438:	200b883a 	mov	r5,r4
 804043c:	1809883a 	mov	r4,r3
 8040440:	80447280 	call	8044728 <memcpy>
					{SCREEN_WIDTH-PADDLE_WIDTH, 0, 0, 0, PADDLE_WIDTH, PADDLE_HEIGHT, PADDLE_COLOUR}},
			0,0,0,0, // ADC values
			{0,0,0,0,0,0,0,0}, //User input
			0 // Game time in s
	};
	SnakeGame snake_game = {
 8040444:	e0bcf304 	addi	r2,fp,-3124
 8040448:	00c2d304 	movi	r3,2892
 804044c:	180d883a 	mov	r6,r3
 8040450:	000b883a 	mov	r5,zero
 8040454:	1009883a 	mov	r4,r2
 8040458:	80448700 	call	8044870 <memset>
 804045c:	00802804 	movi	r2,160
 8040460:	e0bcf315 	stw	r2,-3124(fp)
 8040464:	00801e04 	movi	r2,120
 8040468:	e0bcf415 	stw	r2,-3120(fp)
 804046c:	00800144 	movi	r2,5
 8040470:	e0bcf715 	stw	r2,-3108(fp)
 8040474:	00800144 	movi	r2,5
 8040478:	e0bcf815 	stw	r2,-3104(fp)
 804047c:	0083fc04 	movi	r2,4080
 8040480:	e0bcf915 	stw	r2,-3100(fp)
 8040484:	00800044 	movi	r2,1
 8040488:	e0bfaf15 	stw	r2,-324(fp)
 804048c:	00802d04 	movi	r2,180
 8040490:	e0bfb015 	stw	r2,-320(fp)
 8040494:	00801e04 	movi	r2,120
 8040498:	e0bfb115 	stw	r2,-316(fp)
 804049c:	00800144 	movi	r2,5
 80404a0:	e0bfb415 	stw	r2,-304(fp)
 80404a4:	00800144 	movi	r2,5
 80404a8:	e0bfb515 	stw	r2,-300(fp)
 80404ac:	00bc0014 	movui	r2,61440
 80404b0:	e0bfb615 	stw	r2,-296(fp)
 80404b4:	00800044 	movi	r2,1
 80404b8:	e0bfc215 	stw	r2,-248(fp)
 80404bc:	00800044 	movi	r2,1
 80404c0:	e0bfc315 	stw	r2,-244(fp)
			0 // Game over flag: 1=game over, 0=game running
	};

	//Display strings
	char time_str[10];
	sprintf(time_str, "Time: %u", pong_game.time);
 80404c4:	e0fcc217 	ldw	r3,-3320(fp)
 80404c8:	e0bc9b04 	addi	r2,fp,-3476
 80404cc:	10802804 	addi	r2,r2,160
 80404d0:	180d883a 	mov	r6,r3
 80404d4:	01420174 	movhi	r5,2053
 80404d8:	294e0004 	addi	r5,r5,14336
 80404dc:	1009883a 	mov	r4,r2
 80404e0:	8044b400 	call	8044b40 <sprintf>
 80404e4:	d0e71417 	ldw	r3,-25520(gp)
		sprintf(time_str, "Time: %u", pong_game.time);
		return alt_ticks_per_second();
	}
	static alt_alarm alarm;
	// Setup alarm to call the callback function every N_TICKS
	if (alt_alarm_start(&alarm, alt_ticks_per_second(), alarm_callback, NULL) < 0){
 80404e8:	e0bc9b04 	addi	r2,fp,-3476
 80404ec:	10802b04 	addi	r2,r2,172
 80404f0:	000f883a 	mov	r7,zero
 80404f4:	100d883a 	mov	r6,r2
 80404f8:	180b883a 	mov	r5,r3
 80404fc:	01020174 	movhi	r4,2053
 8040500:	211d6004 	addi	r4,r4,30080
 8040504:	804fa340 	call	804fa34 <alt_alarm_start>
 8040508:	1000030e 	bge	r2,zero,8040518 <main+0x1a0>
		printf ("No System Clock Available\n");
 804050c:	01020174 	movhi	r4,2053
 8040510:	210e3904 	addi	r4,r4,14564
 8040514:	8044a580 	call	8044a58 <puts>

	}
	// ****************

	// Clear screen
	clear(pixel_buf_dma_dev, char_buf_dev,0); // Current screen
 8040518:	e0bc9b04 	addi	r2,fp,-3476
 804051c:	1019883a 	mov	r12,r2
 8040520:	000d883a 	mov	r6,zero
 8040524:	e17c8f17 	ldw	r5,-3524(fp)
 8040528:	e13c8e17 	ldw	r4,-3528(fp)
 804052c:	8041a680 	call	8041a68 <clear.3557>
	//clear(pixel_buf_dma_dev, 0, char_buf_dev); // Char buffer

	// Initialize interrupts
	init_pio_interrupt();
 8040530:	80402b40 	call	80402b4 <init_pio_interrupt>

	// ADC setup
	adc_stop(MODULAR_ADC_0_SEQUENCER_CSR_BASE);
 8040534:	01020234 	movhi	r4,2056
 8040538:	210ca804 	addi	r4,r4,12960
 804053c:	8051ac00 	call	8051ac0 <adc_stop>
	adc_set_mode_run_once(MODULAR_ADC_0_SEQUENCER_CSR_BASE);
 8040540:	01020234 	movhi	r4,2056
 8040544:	210ca804 	addi	r4,r4,12960
 8040548:	8051b480 	call	8051b48 <adc_set_mode_run_once>

	int count = 0;
 804054c:	e03c8b15 	stw	zero,-3540(fp)
	int MAX_COUNT = 500;
 8040550:	00807d04 	movi	r2,500
 8040554:	e0bc9015 	stw	r2,-3520(fp)
	while(1) {
		int bt = IORD(GPIO_BASE, 0);
 8040558:	00820234 	movhi	r2,2056
 804055c:	108c9804 	addi	r2,r2,12896
 8040560:	10800037 	ldwio	r2,0(r2)
 8040564:	e0bc9115 	stw	r2,-3516(fp)
		int btns[4];
		for(int i = 0; i<4; i++) {
 8040568:	e03c8c15 	stw	zero,-3536(fp)
 804056c:	00000f06 	br	80405ac <main+0x234>
			btns[i] = bt & (0b1 << i);
 8040570:	00c00044 	movi	r3,1
 8040574:	e0bc8c17 	ldw	r2,-3536(fp)
 8040578:	1886983a 	sll	r3,r3,r2
 804057c:	e0bc9117 	ldw	r2,-3516(fp)
 8040580:	1886703a 	and	r3,r3,r2
 8040584:	e0bc8c17 	ldw	r2,-3536(fp)
 8040588:	1085883a 	add	r2,r2,r2
 804058c:	1085883a 	add	r2,r2,r2
 8040590:	e13c8b04 	addi	r4,fp,-3540
 8040594:	2085883a 	add	r2,r4,r2
 8040598:	10834304 	addi	r2,r2,3340
 804059c:	10c00015 	stw	r3,0(r2)
	int count = 0;
	int MAX_COUNT = 500;
	while(1) {
		int bt = IORD(GPIO_BASE, 0);
		int btns[4];
		for(int i = 0; i<4; i++) {
 80405a0:	e0bc8c17 	ldw	r2,-3536(fp)
 80405a4:	10800044 	addi	r2,r2,1
 80405a8:	e0bc8c15 	stw	r2,-3536(fp)
 80405ac:	e0bc8c17 	ldw	r2,-3536(fp)
 80405b0:	10800110 	cmplti	r2,r2,4
 80405b4:	103fee1e 	bne	r2,zero,8040570 <__alt_data_end+0xfffd84d0>
			btns[i] = bt & (0b1 << i);
		}
		if(!btns[0]){
 80405b8:	e0bfce17 	ldw	r2,-200(fp)
 80405bc:	1000021e 	bne	r2,zero,80405c8 <main+0x250>
			main_menu_flag=1;
 80405c0:	00800044 	movi	r2,1
 80405c4:	d0a00015 	stw	r2,-32768(gp)
		}
		if(main_menu_flag) { // Main menu
 80405c8:	d0a00017 	ldw	r2,-32768(gp)
 80405cc:	10013a26 	beq	r2,zero,8040ab8 <main+0x740>
			if(!game_clear_flag){
 80405d0:	d0a70817 	ldw	r2,-25568(gp)
 80405d4:	1000081e 	bne	r2,zero,80405f8 <main+0x280>
				clear(pixel_buf_dma_dev, char_buf_dev,0);
 80405d8:	e0bc9b04 	addi	r2,fp,-3476
 80405dc:	1019883a 	mov	r12,r2
 80405e0:	000d883a 	mov	r6,zero
 80405e4:	e17c8f17 	ldw	r5,-3524(fp)
 80405e8:	e13c8e17 	ldw	r4,-3528(fp)
 80405ec:	8041a680 	call	8041a68 <clear.3557>
				game_clear_flag = 1;
 80405f0:	00800044 	movi	r2,1
 80405f4:	d0a70815 	stw	r2,-25568(gp)
			}
			reset_game(&pong_game);
 80405f8:	e0bc9b04 	addi	r2,fp,-3476
 80405fc:	e0fc9b04 	addi	r3,fp,-3476
 8040600:	1819883a 	mov	r12,r3
 8040604:	1009883a 	mov	r4,r2
 8040608:	8041cbc0 	call	8041cbc <reset_game.3580>
			reset_game_snake(&snake_game, pixel_buf_dma_dev, char_buf_dev);
 804060c:	e0bcf304 	addi	r2,fp,-3124
 8040610:	e0fc9b04 	addi	r3,fp,-3476
 8040614:	1819883a 	mov	r12,r3
 8040618:	e1bc8f17 	ldw	r6,-3524(fp)
 804061c:	e17c8e17 	ldw	r5,-3528(fp)
 8040620:	1009883a 	mov	r4,r2
 8040624:	80426a40 	call	80426a4 <reset_game_snake.3652>
			alt_up_char_buffer_string(char_buf_dev, "PONGERS!!!!", 37, 8);
 8040628:	01c00204 	movi	r7,8
 804062c:	01800944 	movi	r6,37
 8040630:	01420174 	movhi	r5,2053
 8040634:	294e4004 	addi	r5,r5,14592
 8040638:	e13c8f17 	ldw	r4,-3524(fp)
 804063c:	8051f140 	call	8051f14 <alt_up_char_buffer_string>
			//Game selection Buttons
			//draw a white box at a specific location
			//Write text "Pong" to the white box
			//Clear and unclear the text by writing "		" to give blinking effect
			Rectangle pong_button = {149,120,	//x, y
 8040640:	00802544 	movi	r2,149
 8040644:	e0bfd215 	stw	r2,-184(fp)
 8040648:	00801e04 	movi	r2,120
 804064c:	e0bfd315 	stw	r2,-180(fp)
 8040650:	e03fd415 	stw	zero,-176(fp)
 8040654:	e03fd515 	stw	zero,-172(fp)
 8040658:	00800784 	movi	r2,30
 804065c:	e0bfd615 	stw	r2,-168(fp)
 8040660:	008003c4 	movi	r2,15
 8040664:	e0bfd715 	stw	r2,-164(fp)
 8040668:	009e0004 	movi	r2,30720
 804066c:	e0bfd815 	stw	r2,-160(fp)
									0,0,		//xspeed, yspeed
									30,15,	//width, height
									0x7800};	//colour
			Rectangle snake_button = {149,140,	//x, y
 8040670:	00802544 	movi	r2,149
 8040674:	e0bfd915 	stw	r2,-156(fp)
 8040678:	00802304 	movi	r2,140
 804067c:	e0bfda15 	stw	r2,-152(fp)
 8040680:	e03fdb15 	stw	zero,-148(fp)
 8040684:	e03fdc15 	stw	zero,-144(fp)
 8040688:	00800784 	movi	r2,30
 804068c:	e0bfdd15 	stw	r2,-140(fp)
 8040690:	008003c4 	movi	r2,15
 8040694:	e0bfde15 	stw	r2,-136(fp)
 8040698:	0080c004 	movi	r2,768
 804069c:	e0bfdf15 	stw	r2,-132(fp)
									0,0,		//xspeed, yspeed
									30,15,	//width, height
									0x0300};	//colour

			Rectangle menu_select_buttons[2] = {pong_button, snake_button};
 80406a0:	e0bfd217 	ldw	r2,-184(fp)
 80406a4:	e0bff215 	stw	r2,-56(fp)
 80406a8:	e0bfd317 	ldw	r2,-180(fp)
 80406ac:	e0bff315 	stw	r2,-52(fp)
 80406b0:	e0bfd417 	ldw	r2,-176(fp)
 80406b4:	e0bff415 	stw	r2,-48(fp)
 80406b8:	e0bfd517 	ldw	r2,-172(fp)
 80406bc:	e0bff515 	stw	r2,-44(fp)
 80406c0:	e0bfd617 	ldw	r2,-168(fp)
 80406c4:	e0bff615 	stw	r2,-40(fp)
 80406c8:	e0bfd717 	ldw	r2,-164(fp)
 80406cc:	e0bff715 	stw	r2,-36(fp)
 80406d0:	e0bfd817 	ldw	r2,-160(fp)
 80406d4:	e0bff815 	stw	r2,-32(fp)
 80406d8:	e0bfd917 	ldw	r2,-156(fp)
 80406dc:	e0bff915 	stw	r2,-28(fp)
 80406e0:	e0bfda17 	ldw	r2,-152(fp)
 80406e4:	e0bffa15 	stw	r2,-24(fp)
 80406e8:	e0bfdb17 	ldw	r2,-148(fp)
 80406ec:	e0bffb15 	stw	r2,-20(fp)
 80406f0:	e0bfdc17 	ldw	r2,-144(fp)
 80406f4:	e0bffc15 	stw	r2,-16(fp)
 80406f8:	e0bfdd17 	ldw	r2,-140(fp)
 80406fc:	e0bffd15 	stw	r2,-12(fp)
 8040700:	e0bfde17 	ldw	r2,-136(fp)
 8040704:	e0bffe15 	stw	r2,-8(fp)
 8040708:	e0bfdf17 	ldw	r2,-132(fp)
 804070c:	e0bfff15 	stw	r2,-4(fp)
			Rectangle ponge[1] = {pong_button};
 8040710:	e0bfd217 	ldw	r2,-184(fp)
 8040714:	e0bfe015 	stw	r2,-128(fp)
 8040718:	e0bfd317 	ldw	r2,-180(fp)
 804071c:	e0bfe115 	stw	r2,-124(fp)
 8040720:	e0bfd417 	ldw	r2,-176(fp)
 8040724:	e0bfe215 	stw	r2,-120(fp)
 8040728:	e0bfd517 	ldw	r2,-172(fp)
 804072c:	e0bfe315 	stw	r2,-116(fp)
 8040730:	e0bfd617 	ldw	r2,-168(fp)
 8040734:	e0bfe415 	stw	r2,-112(fp)
 8040738:	e0bfd717 	ldw	r2,-164(fp)
 804073c:	e0bfe515 	stw	r2,-108(fp)
 8040740:	e0bfd817 	ldw	r2,-160(fp)
 8040744:	e0bfe615 	stw	r2,-104(fp)
			Rectangle snock[1] = {snake_button};
 8040748:	e0bfd917 	ldw	r2,-156(fp)
 804074c:	e0bfe715 	stw	r2,-100(fp)
 8040750:	e0bfda17 	ldw	r2,-152(fp)
 8040754:	e0bfe815 	stw	r2,-96(fp)
 8040758:	e0bfdb17 	ldw	r2,-148(fp)
 804075c:	e0bfe915 	stw	r2,-92(fp)
 8040760:	e0bfdc17 	ldw	r2,-144(fp)
 8040764:	e0bfea15 	stw	r2,-88(fp)
 8040768:	e0bfdd17 	ldw	r2,-140(fp)
 804076c:	e0bfeb15 	stw	r2,-84(fp)
 8040770:	e0bfde17 	ldw	r2,-136(fp)
 8040774:	e0bfec15 	stw	r2,-80(fp)
 8040778:	e0bfdf17 	ldw	r2,-132(fp)
 804077c:	e0bfed15 	stw	r2,-76(fp)
			alt_up_pixel_buffer_dma_draw_box (pixel_buf_dma_dev,
 8040780:	e13fd917 	ldw	r4,-156(fp)
 8040784:	e17fda17 	ldw	r5,-152(fp)
						snake_button.x, snake_button.y, snake_button.x + snake_button.width - 1,
 8040788:	e0ffd917 	ldw	r3,-156(fp)
 804078c:	e0bfdd17 	ldw	r2,-140(fp)
 8040790:	1885883a 	add	r2,r3,r2
									0x0300};	//colour

			Rectangle menu_select_buttons[2] = {pong_button, snake_button};
			Rectangle ponge[1] = {pong_button};
			Rectangle snock[1] = {snake_button};
			alt_up_pixel_buffer_dma_draw_box (pixel_buf_dma_dev,
 8040794:	11bfffc4 	addi	r6,r2,-1
						snake_button.x, snake_button.y, snake_button.x + snake_button.width - 1,
						snake_button.y + snake_button.height - 1,
 8040798:	e0ffda17 	ldw	r3,-152(fp)
 804079c:	e0bfde17 	ldw	r2,-136(fp)
 80407a0:	1885883a 	add	r2,r3,r2
									0x0300};	//colour

			Rectangle menu_select_buttons[2] = {pong_button, snake_button};
			Rectangle ponge[1] = {pong_button};
			Rectangle snock[1] = {snake_button};
			alt_up_pixel_buffer_dma_draw_box (pixel_buf_dma_dev,
 80407a4:	10bfffc4 	addi	r2,r2,-1
 80407a8:	e0ffdf17 	ldw	r3,-132(fp)
 80407ac:	d8000215 	stw	zero,8(sp)
 80407b0:	d8c00115 	stw	r3,4(sp)
 80407b4:	d8800015 	stw	r2,0(sp)
 80407b8:	300f883a 	mov	r7,r6
 80407bc:	280d883a 	mov	r6,r5
 80407c0:	200b883a 	mov	r5,r4
 80407c4:	e13c8e17 	ldw	r4,-3528(fp)
 80407c8:	805247c0 	call	805247c <alt_up_pixel_buffer_dma_draw_box>
						snake_button.x, snake_button.y, snake_button.x + snake_button.width - 1,
						snake_button.y + snake_button.height - 1,
						snake_button.colour, 0);
			alt_up_pixel_buffer_dma_draw_box (pixel_buf_dma_dev,
 80407cc:	e13fd217 	ldw	r4,-184(fp)
 80407d0:	e17fd317 	ldw	r5,-180(fp)
							pong_button.x, pong_button.y, pong_button.x + pong_button.width - 1,
 80407d4:	e0ffd217 	ldw	r3,-184(fp)
 80407d8:	e0bfd617 	ldw	r2,-168(fp)
 80407dc:	1885883a 	add	r2,r3,r2
			Rectangle snock[1] = {snake_button};
			alt_up_pixel_buffer_dma_draw_box (pixel_buf_dma_dev,
						snake_button.x, snake_button.y, snake_button.x + snake_button.width - 1,
						snake_button.y + snake_button.height - 1,
						snake_button.colour, 0);
			alt_up_pixel_buffer_dma_draw_box (pixel_buf_dma_dev,
 80407e0:	11bfffc4 	addi	r6,r2,-1
							pong_button.x, pong_button.y, pong_button.x + pong_button.width - 1,
							pong_button.y + pong_button.height - 1,
 80407e4:	e0ffd317 	ldw	r3,-180(fp)
 80407e8:	e0bfd717 	ldw	r2,-164(fp)
 80407ec:	1885883a 	add	r2,r3,r2
			Rectangle snock[1] = {snake_button};
			alt_up_pixel_buffer_dma_draw_box (pixel_buf_dma_dev,
						snake_button.x, snake_button.y, snake_button.x + snake_button.width - 1,
						snake_button.y + snake_button.height - 1,
						snake_button.colour, 0);
			alt_up_pixel_buffer_dma_draw_box (pixel_buf_dma_dev,
 80407f0:	10bfffc4 	addi	r2,r2,-1
 80407f4:	e0ffd817 	ldw	r3,-160(fp)
 80407f8:	d8000215 	stw	zero,8(sp)
 80407fc:	d8c00115 	stw	r3,4(sp)
 8040800:	d8800015 	stw	r2,0(sp)
 8040804:	300f883a 	mov	r7,r6
 8040808:	280d883a 	mov	r6,r5
 804080c:	200b883a 	mov	r5,r4
 8040810:	e13c8e17 	ldw	r4,-3528(fp)
 8040814:	805247c0 	call	805247c <alt_up_pixel_buffer_dma_draw_box>
							pong_button.x, pong_button.y, pong_button.x + pong_button.width - 1,
							pong_button.y + pong_button.height - 1,
							pong_button.colour, 0);

			alt_up_char_buffer_string(char_buf_dev, "PONG", 39, 31);
 8040818:	01c007c4 	movi	r7,31
 804081c:	018009c4 	movi	r6,39
 8040820:	01420174 	movhi	r5,2053
 8040824:	294e4304 	addi	r5,r5,14604
 8040828:	e13c8f17 	ldw	r4,-3524(fp)
 804082c:	8051f140 	call	8051f14 <alt_up_char_buffer_string>
			alt_up_char_buffer_string(char_buf_dev, "SNAKE", 38, 36);
 8040830:	01c00904 	movi	r7,36
 8040834:	01800984 	movi	r6,38
 8040838:	01420174 	movhi	r5,2053
 804083c:	294e4504 	addi	r5,r5,14612
 8040840:	e13c8f17 	ldw	r4,-3524(fp)
 8040844:	8051f140 	call	8051f14 <alt_up_char_buffer_string>
			while(main_menu_flag) {
 8040848:	00009806 	br	8040aac <main+0x734>
				IOWR(SINE_WAVE_AUDIO_MODULE_0_BASE, 0, 0x5);	//play song 2
 804084c:	00c00144 	movi	r3,5
 8040850:	00820234 	movhi	r2,2056
 8040854:	108cb004 	addi	r2,r2,12992
 8040858:	10c00035 	stwio	r3,0(r2)
				// Read joystick
				// ADC
				adc_start(MODULAR_ADC_0_SEQUENCER_CSR_BASE);
 804085c:	01020234 	movhi	r4,2056
 8040860:	210ca804 	addi	r4,r4,12960
 8040864:	8051b100 	call	8051b10 <adc_start>
				alt_u32* adc_val_left = &(pong_game.adc_val_left);
 8040868:	e0bc9b04 	addi	r2,fp,-3476
 804086c:	10801b04 	addi	r2,r2,108
 8040870:	e0bc9215 	stw	r2,-3512(fp)
				float* adc_volt_left = &(pong_game.adc_volt_left);
 8040874:	e0bc9b04 	addi	r2,fp,-3476
 8040878:	10801d04 	addi	r2,r2,116
 804087c:	e0bc9315 	stw	r2,-3508(fp)
				// Read joystick values
				alt_adc_word_read(MODULAR_ADC_0_SAMPLE_STORE_CSR_BASE+4, adc_val_left, 1);
 8040880:	01800044 	movi	r6,1
 8040884:	e17c9217 	ldw	r5,-3512(fp)
 8040888:	01020234 	movhi	r4,2056
 804088c:	210c0104 	addi	r4,r4,12292
 8040890:	80518c80 	call	80518c8 <alt_adc_word_read>
				*adc_volt_left = (float)*adc_val_left * 5.0 / 4096.0;
 8040894:	e0bc9217 	ldw	r2,-3512(fp)
 8040898:	10800017 	ldw	r2,0(r2)
 804089c:	1009883a 	mov	r4,r2
 80408a0:	8042f100 	call	8042f10 <__floatunsisf>
 80408a4:	1007883a 	mov	r3,r2
 80408a8:	1809883a 	mov	r4,r3
 80408ac:	804440c0 	call	804440c <__extendsfdf2>
 80408b0:	1011883a 	mov	r8,r2
 80408b4:	1813883a 	mov	r9,r3
 80408b8:	000d883a 	mov	r6,zero
 80408bc:	01d00534 	movhi	r7,16404
 80408c0:	4009883a 	mov	r4,r8
 80408c4:	480b883a 	mov	r5,r9
 80408c8:	8043ba00 	call	8043ba0 <__muldf3>
 80408cc:	1009883a 	mov	r4,r2
 80408d0:	180b883a 	mov	r5,r3
 80408d4:	2005883a 	mov	r2,r4
 80408d8:	2807883a 	mov	r3,r5
 80408dc:	000d883a 	mov	r6,zero
 80408e0:	01d02c34 	movhi	r7,16560
 80408e4:	1009883a 	mov	r4,r2
 80408e8:	180b883a 	mov	r5,r3
 80408ec:	80430000 	call	8043000 <__divdf3>
 80408f0:	1009883a 	mov	r4,r2
 80408f4:	180b883a 	mov	r5,r3
 80408f8:	2005883a 	mov	r2,r4
 80408fc:	2807883a 	mov	r3,r5
 8040900:	1009883a 	mov	r4,r2
 8040904:	180b883a 	mov	r5,r3
 8040908:	804451c0 	call	804451c <__truncdfsf2>
 804090c:	1007883a 	mov	r3,r2
 8040910:	e0bc9317 	ldw	r2,-3508(fp)
 8040914:	10c00015 	stw	r3,0(r2)
				if(*adc_volt_left > 2.7) {
 8040918:	e0bc9317 	ldw	r2,-3508(fp)
 804091c:	10c00017 	ldw	r3,0(r2)
 8040920:	1809883a 	mov	r4,r3
 8040924:	804440c0 	call	804440c <__extendsfdf2>
 8040928:	1011883a 	mov	r8,r2
 804092c:	1813883a 	mov	r9,r3
 8040930:	01a666b4 	movhi	r6,39322
 8040934:	31a66684 	addi	r6,r6,-26214
 8040938:	01d001b4 	movhi	r7,16390
 804093c:	39e66644 	addi	r7,r7,-26215
 8040940:	4009883a 	mov	r4,r8
 8040944:	480b883a 	mov	r5,r9
 8040948:	80439d00 	call	80439d0 <__gedf2>
 804094c:	0080020e 	bge	zero,r2,8040958 <main+0x5e0>
					game_flag = PONG_FLAG;
 8040950:	d0200115 	stw	zero,-32764(gp)
 8040954:	00001006 	br	8040998 <main+0x620>
				}
				else if(*adc_volt_left < 2.3) {
 8040958:	e0bc9317 	ldw	r2,-3508(fp)
 804095c:	10c00017 	ldw	r3,0(r2)
 8040960:	1809883a 	mov	r4,r3
 8040964:	804440c0 	call	804440c <__extendsfdf2>
 8040968:	1011883a 	mov	r8,r2
 804096c:	1813883a 	mov	r9,r3
 8040970:	019999b4 	movhi	r6,26214
 8040974:	31999984 	addi	r6,r6,26214
 8040978:	01d000b4 	movhi	r7,16386
 804097c:	39d99984 	addi	r7,r7,26214
 8040980:	4009883a 	mov	r4,r8
 8040984:	480b883a 	mov	r5,r9
 8040988:	8043aac0 	call	8043aac <__ledf2>
 804098c:	1000020e 	bge	r2,zero,8040998 <main+0x620>
					game_flag = SNAKE_FLAG;
 8040990:	00800044 	movi	r2,1
 8040994:	d0a00115 	stw	r2,-32764(gp)
				}
				// ADC - end
				alt_up_char_buffer_string(char_buf_dev, " PONG", 39, 31);
 8040998:	01c007c4 	movi	r7,31
 804099c:	018009c4 	movi	r6,39
 80409a0:	01420174 	movhi	r5,2053
 80409a4:	294e4704 	addi	r5,r5,14620
 80409a8:	e13c8f17 	ldw	r4,-3524(fp)
 80409ac:	8051f140 	call	8051f14 <alt_up_char_buffer_string>
				alt_up_char_buffer_string(char_buf_dev, " SNAKE", 38, 36);
 80409b0:	01c00904 	movi	r7,36
 80409b4:	01800984 	movi	r6,38
 80409b8:	01420174 	movhi	r5,2053
 80409bc:	294e4904 	addi	r5,r5,14628
 80409c0:	e13c8f17 	ldw	r4,-3524(fp)
 80409c4:	8051f140 	call	8051f14 <alt_up_char_buffer_string>
				if(game_flag==PONG_FLAG) {
 80409c8:	d0a00117 	ldw	r2,-32764(gp)
 80409cc:	1000071e 	bne	r2,zero,80409ec <main+0x674>
					alt_up_char_buffer_string(char_buf_dev, ">PONG", 39, 31);
 80409d0:	01c007c4 	movi	r7,31
 80409d4:	018009c4 	movi	r6,39
 80409d8:	01420174 	movhi	r5,2053
 80409dc:	294e4b04 	addi	r5,r5,14636
 80409e0:	e13c8f17 	ldw	r4,-3524(fp)
 80409e4:	8051f140 	call	8051f14 <alt_up_char_buffer_string>
 80409e8:	00000906 	br	8040a10 <main+0x698>
				}
				else if(game_flag==SNAKE_FLAG) {
 80409ec:	d0a00117 	ldw	r2,-32764(gp)
 80409f0:	10800058 	cmpnei	r2,r2,1
 80409f4:	1000061e 	bne	r2,zero,8040a10 <main+0x698>
					alt_up_char_buffer_string(char_buf_dev, ">SNAKE", 38, 36);
 80409f8:	01c00904 	movi	r7,36
 80409fc:	01800984 	movi	r6,38
 8040a00:	01420174 	movhi	r5,2053
 8040a04:	294e4d04 	addi	r5,r5,14644
 8040a08:	e13c8f17 	ldw	r4,-3524(fp)
 8040a0c:	8051f140 	call	8051f14 <alt_up_char_buffer_string>
				}

				int botn = IORD(GPIO_BASE, 0);
 8040a10:	00820234 	movhi	r2,2056
 8040a14:	108c9804 	addi	r2,r2,12896
 8040a18:	10800037 	ldwio	r2,0(r2)
 8040a1c:	e0bc9415 	stw	r2,-3504(fp)
				int botns[4];
				for(int i = 0; i<4; i++) {
 8040a20:	e03c8d15 	stw	zero,-3532(fp)
 8040a24:	00000f06 	br	8040a64 <main+0x6ec>
					botns[i] = botn & (0b1 << i);
 8040a28:	00c00044 	movi	r3,1
 8040a2c:	e0bc8d17 	ldw	r2,-3532(fp)
 8040a30:	1886983a 	sll	r3,r3,r2
 8040a34:	e0bc9417 	ldw	r2,-3504(fp)
 8040a38:	1886703a 	and	r3,r3,r2
 8040a3c:	e0bc8d17 	ldw	r2,-3532(fp)
 8040a40:	1085883a 	add	r2,r2,r2
 8040a44:	1085883a 	add	r2,r2,r2
 8040a48:	e13c8b04 	addi	r4,fp,-3540
 8040a4c:	2085883a 	add	r2,r4,r2
 8040a50:	10836304 	addi	r2,r2,3468
 8040a54:	10c00015 	stw	r3,0(r2)
					alt_up_char_buffer_string(char_buf_dev, ">SNAKE", 38, 36);
				}

				int botn = IORD(GPIO_BASE, 0);
				int botns[4];
				for(int i = 0; i<4; i++) {
 8040a58:	e0bc8d17 	ldw	r2,-3532(fp)
 8040a5c:	10800044 	addi	r2,r2,1
 8040a60:	e0bc8d15 	stw	r2,-3532(fp)
 8040a64:	e0bc8d17 	ldw	r2,-3532(fp)
 8040a68:	10800110 	cmplti	r2,r2,4
 8040a6c:	103fee1e 	bne	r2,zero,8040a28 <__alt_data_end+0xfffd8988>
					botns[i] = botn & (0b1 << i);
				}
				if(!botns[1]) { // Start button
 8040a70:	e0bfef17 	ldw	r2,-68(fp)
 8040a74:	10000d1e 	bne	r2,zero,8040aac <main+0x734>
					main_menu_flag=0;
 8040a78:	d0200015 	stw	zero,-32768(gp)
					clear(pixel_buf_dma_dev, char_buf_dev, 0);
 8040a7c:	e0bc9b04 	addi	r2,fp,-3476
 8040a80:	1019883a 	mov	r12,r2
 8040a84:	000d883a 	mov	r6,zero
 8040a88:	e17c8f17 	ldw	r5,-3524(fp)
 8040a8c:	e13c8e17 	ldw	r4,-3528(fp)
 8040a90:	8041a680 	call	8041a68 <clear.3557>
					if(game_flag==SNAKE_FLAG) {
						//IOWR(SINE_WAVE_AUDIO_MODULE_0_BASE, 0, 0x1);	//play song 1
					}

					if(game_flag==PONG_FLAG) {
 8040a94:	d0a00117 	ldw	r2,-32764(gp)
 8040a98:	1000041e 	bne	r2,zero,8040aac <main+0x734>
						IOWR(SINE_WAVE_AUDIO_MODULE_0_BASE, 0, 0x0); // Music off
 8040a9c:	0007883a 	mov	r3,zero
 8040aa0:	00820234 	movhi	r2,2056
 8040aa4:	108cb004 	addi	r2,r2,12992
 8040aa8:	10c00035 	stwio	r3,0(r2)
							pong_button.y + pong_button.height - 1,
							pong_button.colour, 0);

			alt_up_char_buffer_string(char_buf_dev, "PONG", 39, 31);
			alt_up_char_buffer_string(char_buf_dev, "SNAKE", 38, 36);
			while(main_menu_flag) {
 8040aac:	d0a00017 	ldw	r2,-32768(gp)
 8040ab0:	103f661e 	bne	r2,zero,804084c <__alt_data_end+0xfffd87ac>
 8040ab4:	0000af06 	br	8040d74 <main+0x9fc>
					}
				}

			}
		}
		else if(pause_flag) { // Pause menu
 8040ab8:	d0a70717 	ldw	r2,-25572(gp)
 8040abc:	10000526 	beq	r2,zero,8040ad4 <main+0x75c>
			pause_menu(char_buf_dev);
 8040ac0:	e0bc9b04 	addi	r2,fp,-3476
 8040ac4:	1019883a 	mov	r12,r2
 8040ac8:	e13c8f17 	ldw	r4,-3524(fp)
 8040acc:	8041f640 	call	8041f64 <pause_menu.3603>
 8040ad0:	0000a806 	br	8040d74 <main+0x9fc>
		}
		else if(game_flag==PONG_FLAG){
 8040ad4:	d0a00117 	ldw	r2,-32764(gp)
 8040ad8:	10007e1e 	bne	r2,zero,8040cd4 <main+0x95c>
			clear_pause_menu(char_buf_dev);
 8040adc:	e0bc9b04 	addi	r2,fp,-3476
 8040ae0:	1019883a 	mov	r12,r2
 8040ae4:	e13c8f17 	ldw	r4,-3524(fp)
 8040ae8:	8041fc00 	call	8041fc0 <clear_pause_menu.3606>
			// Run Pong game
			// ADC
			adc_start(MODULAR_ADC_0_SEQUENCER_CSR_BASE);
 8040aec:	01020234 	movhi	r4,2056
 8040af0:	210ca804 	addi	r4,r4,12960
 8040af4:	8051b100 	call	8051b10 <adc_start>
			//usleep(10000);
			alt_u32* adc_val_left = &(pong_game.adc_val_left);
 8040af8:	e0bc9b04 	addi	r2,fp,-3476
 8040afc:	10801b04 	addi	r2,r2,108
 8040b00:	e0bc9515 	stw	r2,-3500(fp)
			alt_u32* adc_val_right = &(pong_game.adc_val_right);
 8040b04:	e0bc9b04 	addi	r2,fp,-3476
 8040b08:	10801c04 	addi	r2,r2,112
 8040b0c:	e0bc9615 	stw	r2,-3496(fp)
			float* adc_volt_left = &(pong_game.adc_volt_left);
 8040b10:	e0bc9b04 	addi	r2,fp,-3476
 8040b14:	10801d04 	addi	r2,r2,116
 8040b18:	e0bc9715 	stw	r2,-3492(fp)
			float* adc_volt_right = &(pong_game.adc_volt_right);
 8040b1c:	e0bc9b04 	addi	r2,fp,-3476
 8040b20:	10801e04 	addi	r2,r2,120
 8040b24:	e0bc9815 	stw	r2,-3488(fp)
			// Read joystick values
			alt_adc_word_read(MODULAR_ADC_0_SAMPLE_STORE_CSR_BASE+4, adc_val_left, 1);
 8040b28:	01800044 	movi	r6,1
 8040b2c:	e17c9517 	ldw	r5,-3500(fp)
 8040b30:	01020234 	movhi	r4,2056
 8040b34:	210c0104 	addi	r4,r4,12292
 8040b38:	80518c80 	call	80518c8 <alt_adc_word_read>
			alt_adc_word_read(MODULAR_ADC_0_SAMPLE_STORE_CSR_BASE+12, adc_val_right, 1);
 8040b3c:	01800044 	movi	r6,1
 8040b40:	e17c9617 	ldw	r5,-3496(fp)
 8040b44:	01020234 	movhi	r4,2056
 8040b48:	210c0304 	addi	r4,r4,12300
 8040b4c:	80518c80 	call	80518c8 <alt_adc_word_read>
			*adc_volt_left = (float)*adc_val_left * 5.0 / 4096.0;
 8040b50:	e0bc9517 	ldw	r2,-3500(fp)
 8040b54:	10800017 	ldw	r2,0(r2)
 8040b58:	1009883a 	mov	r4,r2
 8040b5c:	8042f100 	call	8042f10 <__floatunsisf>
 8040b60:	1007883a 	mov	r3,r2
 8040b64:	1809883a 	mov	r4,r3
 8040b68:	804440c0 	call	804440c <__extendsfdf2>
 8040b6c:	1011883a 	mov	r8,r2
 8040b70:	1813883a 	mov	r9,r3
 8040b74:	000d883a 	mov	r6,zero
 8040b78:	01d00534 	movhi	r7,16404
 8040b7c:	4009883a 	mov	r4,r8
 8040b80:	480b883a 	mov	r5,r9
 8040b84:	8043ba00 	call	8043ba0 <__muldf3>
 8040b88:	1009883a 	mov	r4,r2
 8040b8c:	180b883a 	mov	r5,r3
 8040b90:	2005883a 	mov	r2,r4
 8040b94:	2807883a 	mov	r3,r5
 8040b98:	000d883a 	mov	r6,zero
 8040b9c:	01d02c34 	movhi	r7,16560
 8040ba0:	1009883a 	mov	r4,r2
 8040ba4:	180b883a 	mov	r5,r3
 8040ba8:	80430000 	call	8043000 <__divdf3>
 8040bac:	1009883a 	mov	r4,r2
 8040bb0:	180b883a 	mov	r5,r3
 8040bb4:	2005883a 	mov	r2,r4
 8040bb8:	2807883a 	mov	r3,r5
 8040bbc:	1009883a 	mov	r4,r2
 8040bc0:	180b883a 	mov	r5,r3
 8040bc4:	804451c0 	call	804451c <__truncdfsf2>
 8040bc8:	1007883a 	mov	r3,r2
 8040bcc:	e0bc9717 	ldw	r2,-3492(fp)
 8040bd0:	10c00015 	stw	r3,0(r2)
			*adc_volt_right = (float)*adc_val_right * 5.0 / 4096.0;
 8040bd4:	e0bc9617 	ldw	r2,-3496(fp)
 8040bd8:	10800017 	ldw	r2,0(r2)
 8040bdc:	1009883a 	mov	r4,r2
 8040be0:	8042f100 	call	8042f10 <__floatunsisf>
 8040be4:	1007883a 	mov	r3,r2
 8040be8:	1809883a 	mov	r4,r3
 8040bec:	804440c0 	call	804440c <__extendsfdf2>
 8040bf0:	1011883a 	mov	r8,r2
 8040bf4:	1813883a 	mov	r9,r3
 8040bf8:	000d883a 	mov	r6,zero
 8040bfc:	01d00534 	movhi	r7,16404
 8040c00:	4009883a 	mov	r4,r8
 8040c04:	480b883a 	mov	r5,r9
 8040c08:	8043ba00 	call	8043ba0 <__muldf3>
 8040c0c:	1009883a 	mov	r4,r2
 8040c10:	180b883a 	mov	r5,r3
 8040c14:	2005883a 	mov	r2,r4
 8040c18:	2807883a 	mov	r3,r5
 8040c1c:	000d883a 	mov	r6,zero
 8040c20:	01d02c34 	movhi	r7,16560
 8040c24:	1009883a 	mov	r4,r2
 8040c28:	180b883a 	mov	r5,r3
 8040c2c:	80430000 	call	8043000 <__divdf3>
 8040c30:	1009883a 	mov	r4,r2
 8040c34:	180b883a 	mov	r5,r3
 8040c38:	2005883a 	mov	r2,r4
 8040c3c:	2807883a 	mov	r3,r5
 8040c40:	1009883a 	mov	r4,r2
 8040c44:	180b883a 	mov	r5,r3
 8040c48:	804451c0 	call	804451c <__truncdfsf2>
 8040c4c:	1007883a 	mov	r3,r2
 8040c50:	e0bc9817 	ldw	r2,-3488(fp)
 8040c54:	10c00015 	stw	r3,0(r2)
			// ADC - end
			run_game_tick(pixel_buf_dma_dev, char_buf_dev, 0, &pong_game);
 8040c58:	e0bc9b04 	addi	r2,fp,-3476
 8040c5c:	e0fc9b04 	addi	r3,fp,-3476
 8040c60:	1819883a 	mov	r12,r3
 8040c64:	100f883a 	mov	r7,r2
 8040c68:	000d883a 	mov	r6,zero
 8040c6c:	e17c8f17 	ldw	r5,-3524(fp)
 8040c70:	e13c8e17 	ldw	r4,-3528(fp)
 8040c74:	8041db00 	call	8041db0 <run_game_tick.3591>
			sprintf(score_str, "%u - %u", pong_game.scores[0], pong_game.scores[1]);
 8040c78:	e0fc9d17 	ldw	r3,-3468(fp)
 8040c7c:	e13c9e17 	ldw	r4,-3464(fp)
 8040c80:	e0bfc884 	addi	r2,fp,-222
 8040c84:	200f883a 	mov	r7,r4
 8040c88:	180d883a 	mov	r6,r3
 8040c8c:	01420174 	movhi	r5,2053
 8040c90:	294e4f04 	addi	r5,r5,14652
 8040c94:	1009883a 	mov	r4,r2
 8040c98:	8044b400 	call	8044b40 <sprintf>
			alt_up_char_buffer_string(char_buf_dev, score_str, 37, 2);
 8040c9c:	e0bfc884 	addi	r2,fp,-222
 8040ca0:	01c00084 	movi	r7,2
 8040ca4:	01800944 	movi	r6,37
 8040ca8:	100b883a 	mov	r5,r2
 8040cac:	e13c8f17 	ldw	r4,-3524(fp)
 8040cb0:	8051f140 	call	8051f14 <alt_up_char_buffer_string>
			alt_up_char_buffer_string(char_buf_dev, time_str, 65, 2);
 8040cb4:	e0bc9b04 	addi	r2,fp,-3476
 8040cb8:	10802804 	addi	r2,r2,160
 8040cbc:	01c00084 	movi	r7,2
 8040cc0:	01801044 	movi	r6,65
 8040cc4:	100b883a 	mov	r5,r2
 8040cc8:	e13c8f17 	ldw	r4,-3524(fp)
 8040ccc:	8051f140 	call	8051f14 <alt_up_char_buffer_string>
 8040cd0:	00002806 	br	8040d74 <main+0x9fc>

			//printf("%f\n", *adc_volt_right);
		}
		else if(game_flag==SNAKE_FLAG) {
 8040cd4:	d0a00117 	ldw	r2,-32764(gp)
 8040cd8:	10800058 	cmpnei	r2,r2,1
 8040cdc:	1000251e 	bne	r2,zero,8040d74 <main+0x9fc>

			//IOWR(SINE_WAVE_AUDIO_MODULE_0_BASE, 0, 0x5);	//play song 2
			clear_pause_menu(char_buf_dev);
 8040ce0:	e0bc9b04 	addi	r2,fp,-3476
 8040ce4:	1019883a 	mov	r12,r2
 8040ce8:	e13c8f17 	ldw	r4,-3524(fp)
 8040cec:	8041fc00 	call	8041fc0 <clear_pause_menu.3606>
			// ADC
			adc_start(MODULAR_ADC_0_SEQUENCER_CSR_BASE);
 8040cf0:	01020234 	movhi	r4,2056
 8040cf4:	210ca804 	addi	r4,r4,12960
 8040cf8:	8051b100 	call	8051b10 <adc_start>
			alt_u32* adc_val_horz = &(snake_game.adc_val_horz);
 8040cfc:	e0bcf304 	addi	r2,fp,-3124
 8040d00:	1082c504 	addi	r2,r2,2836
 8040d04:	e0bc9915 	stw	r2,-3484(fp)
			alt_u32* adc_val_vert = &(snake_game.adc_val_vert);
 8040d08:	e0bcf304 	addi	r2,fp,-3124
 8040d0c:	1082c604 	addi	r2,r2,2840
 8040d10:	e0bc9a15 	stw	r2,-3480(fp)
			// Read joystick values
			alt_adc_word_read(MODULAR_ADC_0_SAMPLE_STORE_CSR_BASE, adc_val_horz, 1);
 8040d14:	01800044 	movi	r6,1
 8040d18:	e17c9917 	ldw	r5,-3484(fp)
 8040d1c:	01020234 	movhi	r4,2056
 8040d20:	210c0004 	addi	r4,r4,12288
 8040d24:	80518c80 	call	80518c8 <alt_adc_word_read>
			alt_adc_word_read(MODULAR_ADC_0_SAMPLE_STORE_CSR_BASE + 4 * 1, adc_val_vert, 1);
 8040d28:	01800044 	movi	r6,1
 8040d2c:	e17c9a17 	ldw	r5,-3480(fp)
 8040d30:	01020234 	movhi	r4,2056
 8040d34:	210c0104 	addi	r4,r4,12292
 8040d38:	80518c80 	call	80518c8 <alt_adc_word_read>
			if(count==MAX_COUNT) {
 8040d3c:	e0fc8b17 	ldw	r3,-3540(fp)
 8040d40:	e0bc9017 	ldw	r2,-3520(fp)
 8040d44:	1880081e 	bne	r3,r2,8040d68 <main+0x9f0>
				run_game_tick_snake(&snake_game,pixel_buf_dma_dev, char_buf_dev);
 8040d48:	e0bcf304 	addi	r2,fp,-3124
 8040d4c:	e0fc9b04 	addi	r3,fp,-3476
 8040d50:	1819883a 	mov	r12,r3
 8040d54:	e1bc8f17 	ldw	r6,-3524(fp)
 8040d58:	e17c8e17 	ldw	r5,-3528(fp)
 8040d5c:	1009883a 	mov	r4,r2
 8040d60:	80428180 	call	8042818 <run_game_tick_snake.3665>
				count=0;
 8040d64:	e03c8b15 	stw	zero,-3540(fp)
			}
			count++;
 8040d68:	e0bc8b17 	ldw	r2,-3540(fp)
 8040d6c:	10800044 	addi	r2,r2,1
 8040d70:	e0bc8b15 	stw	r2,-3540(fp)
		}

		if(!main_menu_flag) {
 8040d74:	d0a00017 	ldw	r2,-32768(gp)
 8040d78:	103df71e 	bne	r2,zero,8040558 <__alt_data_end+0xfffd84b8>
			game_clear_flag = 0;
 8040d7c:	d0270815 	stw	zero,-25568(gp)
		}

	}
 8040d80:	003df506 	br	8040558 <__alt_data_end+0xfffd84b8>

08040d84 <cheat_code.3520>:
	}


	// The makefile is not working as intended so the linker is unable to link the dependencies.
	// As a result, we have to manually include the functions here ********
	void cheat_code(Game* game) {
 8040d84:	defffb04 	addi	sp,sp,-20
 8040d88:	df000415 	stw	fp,16(sp)
 8040d8c:	df000404 	addi	fp,sp,16
 8040d90:	e13ffe15 	stw	r4,-8(fp)
 8040d94:	e33fff15 	stw	r12,-4(fp)
		int* user_input = game->user_input;
 8040d98:	e0bffe17 	ldw	r2,-8(fp)
 8040d9c:	10801f04 	addi	r2,r2,124
 8040da0:	e0bffc15 	stw	r2,-16(fp)
		Rectangle* paddles = game ->paddles;
 8040da4:	e0bffe17 	ldw	r2,-8(fp)
 8040da8:	10800d04 	addi	r2,r2,52
 8040dac:	e0bffd15 	stw	r2,-12(fp)
		if(user_input[3]) {
 8040db0:	e0bffc17 	ldw	r2,-16(fp)
 8040db4:	10800304 	addi	r2,r2,12
 8040db8:	10800017 	ldw	r2,0(r2)
 8040dbc:	10000826 	beq	r2,zero,8040de0 <cheat_code.3520+0x5c>
			paddles[0].height=SCREEN_HEIGHT-1;
 8040dc0:	e0bffd17 	ldw	r2,-12(fp)
 8040dc4:	00c03bc4 	movi	r3,239
 8040dc8:	10c00515 	stw	r3,20(r2)
			paddles[0].y=0;
 8040dcc:	e0bffd17 	ldw	r2,-12(fp)
 8040dd0:	10000115 	stw	zero,4(r2)
			paddles[0].yspeed=0;
 8040dd4:	e0bffd17 	ldw	r2,-12(fp)
 8040dd8:	10000315 	stw	zero,12(r2)
 8040ddc:	00000306 	br	8040dec <cheat_code.3520+0x68>
		} else { paddles[0].height=PADDLE_HEIGHT-1;}
 8040de0:	e0bffd17 	ldw	r2,-12(fp)
 8040de4:	00c00c44 	movi	r3,49
 8040de8:	10c00515 	stw	r3,20(r2)
		if(user_input[4]) {
 8040dec:	e0bffc17 	ldw	r2,-16(fp)
 8040df0:	10800404 	addi	r2,r2,16
 8040df4:	10800017 	ldw	r2,0(r2)
 8040df8:	10000b26 	beq	r2,zero,8040e28 <cheat_code.3520+0xa4>
			paddles[1].height=SCREEN_HEIGHT-1;
 8040dfc:	e0bffd17 	ldw	r2,-12(fp)
 8040e00:	10800704 	addi	r2,r2,28
 8040e04:	00c03bc4 	movi	r3,239
 8040e08:	10c00515 	stw	r3,20(r2)
			paddles[1].y=0;
 8040e0c:	e0bffd17 	ldw	r2,-12(fp)
 8040e10:	10800704 	addi	r2,r2,28
 8040e14:	10000115 	stw	zero,4(r2)
			paddles[1].yspeed=0;
 8040e18:	e0bffd17 	ldw	r2,-12(fp)
 8040e1c:	10800704 	addi	r2,r2,28
 8040e20:	10000315 	stw	zero,12(r2)
		} else {paddles[1].height=PADDLE_HEIGHT-1;}
	}
 8040e24:	00000406 	br	8040e38 <cheat_code.3520+0xb4>
		} else { paddles[0].height=PADDLE_HEIGHT-1;}
		if(user_input[4]) {
			paddles[1].height=SCREEN_HEIGHT-1;
			paddles[1].y=0;
			paddles[1].yspeed=0;
		} else {paddles[1].height=PADDLE_HEIGHT-1;}
 8040e28:	e0bffd17 	ldw	r2,-12(fp)
 8040e2c:	10800704 	addi	r2,r2,28
 8040e30:	00c00c44 	movi	r3,49
 8040e34:	10c00515 	stw	r3,20(r2)
	}
 8040e38:	0001883a 	nop
 8040e3c:	e037883a 	mov	sp,fp
 8040e40:	df000017 	ldw	fp,0(sp)
 8040e44:	dec00104 	addi	sp,sp,4
 8040e48:	f800283a 	ret

08040e4c <update_paddle.3525>:
	// Updates paddle positions
	void update_paddle(Game* game) {
 8040e4c:	defff204 	addi	sp,sp,-56
 8040e50:	dfc00d15 	stw	ra,52(sp)
 8040e54:	df000c15 	stw	fp,48(sp)
 8040e58:	dc400b15 	stw	r17,44(sp)
 8040e5c:	dc000a15 	stw	r16,40(sp)
 8040e60:	df000c04 	addi	fp,sp,48
 8040e64:	e13ffc15 	stw	r4,-16(fp)
 8040e68:	e33ffd15 	stw	r12,-12(fp)
		int* user_input = (game -> user_input);
 8040e6c:	e0bffc17 	ldw	r2,-16(fp)
 8040e70:	10801f04 	addi	r2,r2,124
 8040e74:	e0bff515 	stw	r2,-44(fp)
		int len = (game->paddles_len);
 8040e78:	e0bffc17 	ldw	r2,-16(fp)
 8040e7c:	10800517 	ldw	r2,20(r2)
 8040e80:	e0bff615 	stw	r2,-40(fp)
		Rectangle* paddle = (game -> paddles);
 8040e84:	e0bffc17 	ldw	r2,-16(fp)
 8040e88:	10800d04 	addi	r2,r2,52
 8040e8c:	e0bff715 	stw	r2,-36(fp)
		float adc_volt_left = game->adc_volt_left;
 8040e90:	e0bffc17 	ldw	r2,-16(fp)
 8040e94:	10801d17 	ldw	r2,116(r2)
 8040e98:	e0bff815 	stw	r2,-32(fp)
		float adc_volt_right = game->adc_volt_right;
 8040e9c:	e0bffc17 	ldw	r2,-16(fp)
 8040ea0:	10801e17 	ldw	r2,120(r2)
 8040ea4:	e0bff915 	stw	r2,-28(fp)
		// Adjust speed according to user input
		int SW_0 = user_input[0];
 8040ea8:	e0bff517 	ldw	r2,-44(fp)
 8040eac:	10800017 	ldw	r2,0(r2)
 8040eb0:	e0bffa15 	stw	r2,-24(fp)
		int SW_1 = user_input[1];
 8040eb4:	e0bff517 	ldw	r2,-44(fp)
 8040eb8:	10800117 	ldw	r2,4(r2)
 8040ebc:	e0bffb15 	stw	r2,-20(fp)
		//TODO: fine tune the paddle speeds
		//TODO: fix right joystick deadzone to eliminate stick drift
		if(adc_volt_left <=2.1) {
 8040ec0:	e13ff817 	ldw	r4,-32(fp)
 8040ec4:	804440c0 	call	804440c <__extendsfdf2>
 8040ec8:	1011883a 	mov	r8,r2
 8040ecc:	1813883a 	mov	r9,r3
 8040ed0:	01b33374 	movhi	r6,52429
 8040ed4:	31b33344 	addi	r6,r6,-13107
 8040ed8:	01d00074 	movhi	r7,16385
 8040edc:	39f33304 	addi	r7,r7,-13108
 8040ee0:	4009883a 	mov	r4,r8
 8040ee4:	480b883a 	mov	r5,r9
 8040ee8:	8043aac0 	call	8043aac <__ledf2>
 8040eec:	00800416 	blt	zero,r2,8040f00 <update_paddle.3525+0xb4>
			paddle[0].yspeed = 3;
 8040ef0:	e0bff717 	ldw	r2,-36(fp)
 8040ef4:	00c000c4 	movi	r3,3
 8040ef8:	10c00315 	stw	r3,12(r2)
 8040efc:	00001206 	br	8040f48 <update_paddle.3525+0xfc>
		}
		else if(adc_volt_left >=2.6) {
 8040f00:	e13ff817 	ldw	r4,-32(fp)
 8040f04:	804440c0 	call	804440c <__extendsfdf2>
 8040f08:	1011883a 	mov	r8,r2
 8040f0c:	1813883a 	mov	r9,r3
 8040f10:	01b33374 	movhi	r6,52429
 8040f14:	31b33344 	addi	r6,r6,-13107
 8040f18:	01d00174 	movhi	r7,16389
 8040f1c:	39f33304 	addi	r7,r7,-13108
 8040f20:	4009883a 	mov	r4,r8
 8040f24:	480b883a 	mov	r5,r9
 8040f28:	80439d00 	call	80439d0 <__gedf2>
 8040f2c:	10000416 	blt	r2,zero,8040f40 <update_paddle.3525+0xf4>
			paddle[0].yspeed = -3;
 8040f30:	e0bff717 	ldw	r2,-36(fp)
 8040f34:	00ffff44 	movi	r3,-3
 8040f38:	10c00315 	stw	r3,12(r2)
 8040f3c:	00000206 	br	8040f48 <update_paddle.3525+0xfc>
		}
		else {
			paddle[0].yspeed = 0;
 8040f40:	e0bff717 	ldw	r2,-36(fp)
 8040f44:	10000315 	stw	zero,12(r2)
		}
		if(adc_volt_right <=1.0) // Player 2 moving down
 8040f48:	014fe034 	movhi	r5,16256
 8040f4c:	e13ff917 	ldw	r4,-28(fp)
 8040f50:	8042e480 	call	8042e48 <__lesf2>
 8040f54:	00800516 	blt	zero,r2,8040f6c <update_paddle.3525+0x120>
			paddle[1].yspeed = -3;
 8040f58:	e0bff717 	ldw	r2,-36(fp)
 8040f5c:	10800704 	addi	r2,r2,28
 8040f60:	00ffff44 	movi	r3,-3
 8040f64:	10c00315 	stw	r3,12(r2)
 8040f68:	00000c06 	br	8040f9c <update_paddle.3525+0x150>
		else if(adc_volt_right >=4.0) // Moving up
 8040f6c:	01502034 	movhi	r5,16512
 8040f70:	e13ff917 	ldw	r4,-28(fp)
 8040f74:	8042d8c0 	call	8042d8c <__gesf2>
 8040f78:	10000516 	blt	r2,zero,8040f90 <update_paddle.3525+0x144>
			paddle[1].yspeed = 3;
 8040f7c:	e0bff717 	ldw	r2,-36(fp)
 8040f80:	10800704 	addi	r2,r2,28
 8040f84:	00c000c4 	movi	r3,3
 8040f88:	10c00315 	stw	r3,12(r2)
 8040f8c:	00000306 	br	8040f9c <update_paddle.3525+0x150>
		else {
			paddle[1].yspeed = 0;
 8040f90:	e0bff717 	ldw	r2,-36(fp)
 8040f94:	10800704 	addi	r2,r2,28
 8040f98:	10000315 	stw	zero,12(r2)
		}
		// Adjust paddle positions
		for(int i = 0; i< len; i++) {
 8040f9c:	e03ff415 	stw	zero,-48(fp)
 8040fa0:	00006d06 	br	8041158 <update_paddle.3525+0x30c>
			// Update position
			paddle[i].y += paddle[i].yspeed;
 8040fa4:	e0bff417 	ldw	r2,-48(fp)
 8040fa8:	01400704 	movi	r5,28
 8040fac:	1009883a 	mov	r4,r2
 8040fb0:	8042cd80 	call	8042cd8 <__mulsi3>
 8040fb4:	1007883a 	mov	r3,r2
 8040fb8:	e0bff717 	ldw	r2,-36(fp)
 8040fbc:	10e1883a 	add	r16,r2,r3
 8040fc0:	e0bff417 	ldw	r2,-48(fp)
 8040fc4:	01400704 	movi	r5,28
 8040fc8:	1009883a 	mov	r4,r2
 8040fcc:	8042cd80 	call	8042cd8 <__mulsi3>
 8040fd0:	1007883a 	mov	r3,r2
 8040fd4:	e0bff717 	ldw	r2,-36(fp)
 8040fd8:	10c5883a 	add	r2,r2,r3
 8040fdc:	14400117 	ldw	r17,4(r2)
 8040fe0:	e0bff417 	ldw	r2,-48(fp)
 8040fe4:	01400704 	movi	r5,28
 8040fe8:	1009883a 	mov	r4,r2
 8040fec:	8042cd80 	call	8042cd8 <__mulsi3>
 8040ff0:	1007883a 	mov	r3,r2
 8040ff4:	e0bff717 	ldw	r2,-36(fp)
 8040ff8:	10c5883a 	add	r2,r2,r3
 8040ffc:	10800317 	ldw	r2,12(r2)
 8041000:	8885883a 	add	r2,r17,r2
 8041004:	80800115 	stw	r2,4(r16)
			paddle[0].x = 0;
 8041008:	e0bff717 	ldw	r2,-36(fp)
 804100c:	10000015 	stw	zero,0(r2)
			paddle[1].x = SCREEN_WIDTH - paddle[1].width;
 8041010:	e0bff717 	ldw	r2,-36(fp)
 8041014:	10800704 	addi	r2,r2,28
 8041018:	e0fff717 	ldw	r3,-36(fp)
 804101c:	18c00704 	addi	r3,r3,28
 8041020:	18c00417 	ldw	r3,16(r3)
 8041024:	01005004 	movi	r4,320
 8041028:	20c7c83a 	sub	r3,r4,r3
 804102c:	10c00015 	stw	r3,0(r2)
			// Check for collisions
			if (paddle[i].y + paddle[i].height >= SCREEN_HEIGHT) {
 8041030:	e0bff417 	ldw	r2,-48(fp)
 8041034:	01400704 	movi	r5,28
 8041038:	1009883a 	mov	r4,r2
 804103c:	8042cd80 	call	8042cd8 <__mulsi3>
 8041040:	1007883a 	mov	r3,r2
 8041044:	e0bff717 	ldw	r2,-36(fp)
 8041048:	10c5883a 	add	r2,r2,r3
 804104c:	14000117 	ldw	r16,4(r2)
 8041050:	e0bff417 	ldw	r2,-48(fp)
 8041054:	01400704 	movi	r5,28
 8041058:	1009883a 	mov	r4,r2
 804105c:	8042cd80 	call	8042cd8 <__mulsi3>
 8041060:	1007883a 	mov	r3,r2
 8041064:	e0bff717 	ldw	r2,-36(fp)
 8041068:	10c5883a 	add	r2,r2,r3
 804106c:	10800517 	ldw	r2,20(r2)
 8041070:	8085883a 	add	r2,r16,r2
 8041074:	10803c10 	cmplti	r2,r2,240
 8041078:	10001b1e 	bne	r2,zero,80410e8 <update_paddle.3525+0x29c>
				paddle[i].y = SCREEN_HEIGHT - paddle[i].height;
 804107c:	e0bff417 	ldw	r2,-48(fp)
 8041080:	01400704 	movi	r5,28
 8041084:	1009883a 	mov	r4,r2
 8041088:	8042cd80 	call	8042cd8 <__mulsi3>
 804108c:	1007883a 	mov	r3,r2
 8041090:	e0bff717 	ldw	r2,-36(fp)
 8041094:	10e1883a 	add	r16,r2,r3
 8041098:	e0bff417 	ldw	r2,-48(fp)
 804109c:	01400704 	movi	r5,28
 80410a0:	1009883a 	mov	r4,r2
 80410a4:	8042cd80 	call	8042cd8 <__mulsi3>
 80410a8:	1007883a 	mov	r3,r2
 80410ac:	e0bff717 	ldw	r2,-36(fp)
 80410b0:	10c5883a 	add	r2,r2,r3
 80410b4:	10800517 	ldw	r2,20(r2)
 80410b8:	00c03c04 	movi	r3,240
 80410bc:	1885c83a 	sub	r2,r3,r2
 80410c0:	80800115 	stw	r2,4(r16)
				paddle[i].yspeed = 0;
 80410c4:	e0bff417 	ldw	r2,-48(fp)
 80410c8:	01400704 	movi	r5,28
 80410cc:	1009883a 	mov	r4,r2
 80410d0:	8042cd80 	call	8042cd8 <__mulsi3>
 80410d4:	1007883a 	mov	r3,r2
 80410d8:	e0bff717 	ldw	r2,-36(fp)
 80410dc:	10c5883a 	add	r2,r2,r3
 80410e0:	10000315 	stw	zero,12(r2)
 80410e4:	00001906 	br	804114c <update_paddle.3525+0x300>
			}
			else if (paddle[i].y <= 0) {
 80410e8:	e0bff417 	ldw	r2,-48(fp)
 80410ec:	01400704 	movi	r5,28
 80410f0:	1009883a 	mov	r4,r2
 80410f4:	8042cd80 	call	8042cd8 <__mulsi3>
 80410f8:	1007883a 	mov	r3,r2
 80410fc:	e0bff717 	ldw	r2,-36(fp)
 8041100:	10c5883a 	add	r2,r2,r3
 8041104:	10800117 	ldw	r2,4(r2)
 8041108:	00801016 	blt	zero,r2,804114c <update_paddle.3525+0x300>
				paddle[i].y = 0;
 804110c:	e0bff417 	ldw	r2,-48(fp)
 8041110:	01400704 	movi	r5,28
 8041114:	1009883a 	mov	r4,r2
 8041118:	8042cd80 	call	8042cd8 <__mulsi3>
 804111c:	1007883a 	mov	r3,r2
 8041120:	e0bff717 	ldw	r2,-36(fp)
 8041124:	10c5883a 	add	r2,r2,r3
 8041128:	10000115 	stw	zero,4(r2)
				paddle[i].yspeed = 0;
 804112c:	e0bff417 	ldw	r2,-48(fp)
 8041130:	01400704 	movi	r5,28
 8041134:	1009883a 	mov	r4,r2
 8041138:	8042cd80 	call	8042cd8 <__mulsi3>
 804113c:	1007883a 	mov	r3,r2
 8041140:	e0bff717 	ldw	r2,-36(fp)
 8041144:	10c5883a 	add	r2,r2,r3
 8041148:	10000315 	stw	zero,12(r2)
			paddle[1].yspeed = 3;
		else {
			paddle[1].yspeed = 0;
		}
		// Adjust paddle positions
		for(int i = 0; i< len; i++) {
 804114c:	e0bff417 	ldw	r2,-48(fp)
 8041150:	10800044 	addi	r2,r2,1
 8041154:	e0bff415 	stw	r2,-48(fp)
 8041158:	e0fff417 	ldw	r3,-48(fp)
 804115c:	e0bff617 	ldw	r2,-40(fp)
 8041160:	18bf9016 	blt	r3,r2,8040fa4 <__alt_data_end+0xfffd8f04>
				paddle[i].y = 0;
				paddle[i].yspeed = 0;
			}
		}
		//printf("%f \n", adc_volt_right);
	}
 8041164:	0001883a 	nop
 8041168:	e6fffe04 	addi	sp,fp,-8
 804116c:	dfc00317 	ldw	ra,12(sp)
 8041170:	df000217 	ldw	fp,8(sp)
 8041174:	dc400117 	ldw	r17,4(sp)
 8041178:	dc000017 	ldw	r16,0(sp)
 804117c:	dec00404 	addi	sp,sp,16
 8041180:	f800283a 	ret

08041184 <sign.3539>:
	// Updates the position of each Rectangle object
	// "bounces" each object upon collision with screen top/bottom edges
	// or paddle objects
	int sign(int n) {
 8041184:	defffd04 	addi	sp,sp,-12
 8041188:	df000215 	stw	fp,8(sp)
 804118c:	df000204 	addi	fp,sp,8
 8041190:	e13ffe15 	stw	r4,-8(fp)
 8041194:	e33fff15 	stw	r12,-4(fp)
		if(n<0)
 8041198:	e0bffe17 	ldw	r2,-8(fp)
 804119c:	1000020e 	bge	r2,zero,80411a8 <sign.3539+0x24>
			return -1;
 80411a0:	00bfffc4 	movi	r2,-1
 80411a4:	00000106 	br	80411ac <sign.3539+0x28>
		return 1;
 80411a8:	00800044 	movi	r2,1
	}
 80411ac:	e037883a 	mov	sp,fp
 80411b0:	df000017 	ldw	fp,0(sp)
 80411b4:	dec00104 	addi	sp,sp,4
 80411b8:	f800283a 	ret

080411bc <collision_sound.3541>:

	void collision_sound(){
 80411bc:	defffd04 	addi	sp,sp,-12
 80411c0:	dfc00215 	stw	ra,8(sp)
 80411c4:	df000115 	stw	fp,4(sp)
 80411c8:	df000104 	addi	fp,sp,4
 80411cc:	e33fff15 	stw	r12,-4(fp)
			//play the some audio for 100us then stop playing it to make a 'beep' sound
			IOWR(SINE_WAVE_AUDIO_MODULE_0_BASE, 0, 0x1);
 80411d0:	00c00044 	movi	r3,1
 80411d4:	00820234 	movhi	r2,2056
 80411d8:	108cb004 	addi	r2,r2,12992
 80411dc:	10c00035 	stwio	r3,0(r2)
			usleep(1000);
 80411e0:	0100fa04 	movi	r4,1000
 80411e4:	80507e00 	call	80507e0 <usleep>
			IOWR(SINE_WAVE_AUDIO_MODULE_0_BASE, 0, 0x0);
 80411e8:	0007883a 	mov	r3,zero
 80411ec:	00820234 	movhi	r2,2056
 80411f0:	108cb004 	addi	r2,r2,12992
 80411f4:	10c00035 	stwio	r3,0(r2)
		};
 80411f8:	0001883a 	nop
 80411fc:	e037883a 	mov	sp,fp
 8041200:	dfc00117 	ldw	ra,4(sp)
 8041204:	df000017 	ldw	fp,0(sp)
 8041208:	dec00204 	addi	sp,sp,8
 804120c:	f800283a 	ret

08041210 <update_ball.3544>:

	void update_ball(Game* game) {
 8041210:	defff404 	addi	sp,sp,-48
 8041214:	dfc00b15 	stw	ra,44(sp)
 8041218:	df000a15 	stw	fp,40(sp)
 804121c:	dc800915 	stw	r18,36(sp)
 8041220:	dc400815 	stw	r17,32(sp)
 8041224:	dc000715 	stw	r16,28(sp)
 8041228:	df000a04 	addi	fp,sp,40
 804122c:	e13ffb15 	stw	r4,-20(fp)
 8041230:	6021883a 	mov	r16,r12
 8041234:	e33ffc15 	stw	r12,-16(fp)
		int rect_len = (game -> balls_len);
 8041238:	e0bffb17 	ldw	r2,-20(fp)
 804123c:	10800417 	ldw	r2,16(r2)
 8041240:	e0bff715 	stw	r2,-36(fp)
		Rectangle* rect = (game -> balls);
 8041244:	e0bffb17 	ldw	r2,-20(fp)
 8041248:	10800604 	addi	r2,r2,24
 804124c:	e0bff815 	stw	r2,-32(fp)
		Rectangle* paddles = (game -> paddles);
 8041250:	e0bffb17 	ldw	r2,-20(fp)
 8041254:	10800d04 	addi	r2,r2,52
 8041258:	e0bff915 	stw	r2,-28(fp)
		int* scores = (game -> scores);
 804125c:	e0bffb17 	ldw	r2,-20(fp)
 8041260:	10800204 	addi	r2,r2,8
 8041264:	e0bffa15 	stw	r2,-24(fp)
		for(int i = 0; i< rect_len; i++) {
 8041268:	e03ff615 	stw	zero,-40(fp)
 804126c:	0001f206 	br	8041a38 <update_ball.3544+0x828>
			// Update position
			rect[i].x += rect[i].xspeed;
 8041270:	e0bff617 	ldw	r2,-40(fp)
 8041274:	01400704 	movi	r5,28
 8041278:	1009883a 	mov	r4,r2
 804127c:	8042cd80 	call	8042cd8 <__mulsi3>
 8041280:	1007883a 	mov	r3,r2
 8041284:	e0bff817 	ldw	r2,-32(fp)
 8041288:	10e3883a 	add	r17,r2,r3
 804128c:	e0bff617 	ldw	r2,-40(fp)
 8041290:	01400704 	movi	r5,28
 8041294:	1009883a 	mov	r4,r2
 8041298:	8042cd80 	call	8042cd8 <__mulsi3>
 804129c:	1007883a 	mov	r3,r2
 80412a0:	e0bff817 	ldw	r2,-32(fp)
 80412a4:	10c5883a 	add	r2,r2,r3
 80412a8:	14800017 	ldw	r18,0(r2)
 80412ac:	e0bff617 	ldw	r2,-40(fp)
 80412b0:	01400704 	movi	r5,28
 80412b4:	1009883a 	mov	r4,r2
 80412b8:	8042cd80 	call	8042cd8 <__mulsi3>
 80412bc:	1007883a 	mov	r3,r2
 80412c0:	e0bff817 	ldw	r2,-32(fp)
 80412c4:	10c5883a 	add	r2,r2,r3
 80412c8:	10800217 	ldw	r2,8(r2)
 80412cc:	9085883a 	add	r2,r18,r2
 80412d0:	88800015 	stw	r2,0(r17)
			rect[i].y += rect[i].yspeed;
 80412d4:	e0bff617 	ldw	r2,-40(fp)
 80412d8:	01400704 	movi	r5,28
 80412dc:	1009883a 	mov	r4,r2
 80412e0:	8042cd80 	call	8042cd8 <__mulsi3>
 80412e4:	1007883a 	mov	r3,r2
 80412e8:	e0bff817 	ldw	r2,-32(fp)
 80412ec:	10e3883a 	add	r17,r2,r3
 80412f0:	e0bff617 	ldw	r2,-40(fp)
 80412f4:	01400704 	movi	r5,28
 80412f8:	1009883a 	mov	r4,r2
 80412fc:	8042cd80 	call	8042cd8 <__mulsi3>
 8041300:	1007883a 	mov	r3,r2
 8041304:	e0bff817 	ldw	r2,-32(fp)
 8041308:	10c5883a 	add	r2,r2,r3
 804130c:	14800117 	ldw	r18,4(r2)
 8041310:	e0bff617 	ldw	r2,-40(fp)
 8041314:	01400704 	movi	r5,28
 8041318:	1009883a 	mov	r4,r2
 804131c:	8042cd80 	call	8042cd8 <__mulsi3>
 8041320:	1007883a 	mov	r3,r2
 8041324:	e0bff817 	ldw	r2,-32(fp)
 8041328:	10c5883a 	add	r2,r2,r3
 804132c:	10800317 	ldw	r2,12(r2)
 8041330:	9085883a 	add	r2,r18,r2
 8041334:	88800115 	stw	r2,4(r17)
			// Check for collisions
			if(rect[i].x + rect[i].width >= SCREEN_WIDTH || rect[i].x + rect[i].width >= paddles[1].x) {
 8041338:	e0bff617 	ldw	r2,-40(fp)
 804133c:	01400704 	movi	r5,28
 8041340:	1009883a 	mov	r4,r2
 8041344:	8042cd80 	call	8042cd8 <__mulsi3>
 8041348:	1007883a 	mov	r3,r2
 804134c:	e0bff817 	ldw	r2,-32(fp)
 8041350:	10c5883a 	add	r2,r2,r3
 8041354:	14400017 	ldw	r17,0(r2)
 8041358:	e0bff617 	ldw	r2,-40(fp)
 804135c:	01400704 	movi	r5,28
 8041360:	1009883a 	mov	r4,r2
 8041364:	8042cd80 	call	8042cd8 <__mulsi3>
 8041368:	1007883a 	mov	r3,r2
 804136c:	e0bff817 	ldw	r2,-32(fp)
 8041370:	10c5883a 	add	r2,r2,r3
 8041374:	10800417 	ldw	r2,16(r2)
 8041378:	8885883a 	add	r2,r17,r2
 804137c:	10805008 	cmpgei	r2,r2,320
 8041380:	1000151e 	bne	r2,zero,80413d8 <update_ball.3544+0x1c8>
 8041384:	e0bff617 	ldw	r2,-40(fp)
 8041388:	01400704 	movi	r5,28
 804138c:	1009883a 	mov	r4,r2
 8041390:	8042cd80 	call	8042cd8 <__mulsi3>
 8041394:	1007883a 	mov	r3,r2
 8041398:	e0bff817 	ldw	r2,-32(fp)
 804139c:	10c5883a 	add	r2,r2,r3
 80413a0:	14400017 	ldw	r17,0(r2)
 80413a4:	e0bff617 	ldw	r2,-40(fp)
 80413a8:	01400704 	movi	r5,28
 80413ac:	1009883a 	mov	r4,r2
 80413b0:	8042cd80 	call	8042cd8 <__mulsi3>
 80413b4:	1007883a 	mov	r3,r2
 80413b8:	e0bff817 	ldw	r2,-32(fp)
 80413bc:	10c5883a 	add	r2,r2,r3
 80413c0:	10800417 	ldw	r2,16(r2)
 80413c4:	8887883a 	add	r3,r17,r2
 80413c8:	e0bff917 	ldw	r2,-28(fp)
 80413cc:	10800704 	addi	r2,r2,28
 80413d0:	10800017 	ldw	r2,0(r2)
 80413d4:	18809716 	blt	r3,r2,8041634 <update_ball.3544+0x424>
				// Collision with right paddle
				if(rect[i].y + rect[i].height >= paddles[1].y && rect[i].y <= paddles[1].y + paddles[1].height) {
 80413d8:	e0bff617 	ldw	r2,-40(fp)
 80413dc:	01400704 	movi	r5,28
 80413e0:	1009883a 	mov	r4,r2
 80413e4:	8042cd80 	call	8042cd8 <__mulsi3>
 80413e8:	1007883a 	mov	r3,r2
 80413ec:	e0bff817 	ldw	r2,-32(fp)
 80413f0:	10c5883a 	add	r2,r2,r3
 80413f4:	14400117 	ldw	r17,4(r2)
 80413f8:	e0bff617 	ldw	r2,-40(fp)
 80413fc:	01400704 	movi	r5,28
 8041400:	1009883a 	mov	r4,r2
 8041404:	8042cd80 	call	8042cd8 <__mulsi3>
 8041408:	1007883a 	mov	r3,r2
 804140c:	e0bff817 	ldw	r2,-32(fp)
 8041410:	10c5883a 	add	r2,r2,r3
 8041414:	10800517 	ldw	r2,20(r2)
 8041418:	8887883a 	add	r3,r17,r2
 804141c:	e0bff917 	ldw	r2,-28(fp)
 8041420:	10800704 	addi	r2,r2,28
 8041424:	10800117 	ldw	r2,4(r2)
 8041428:	18806016 	blt	r3,r2,80415ac <update_ball.3544+0x39c>
 804142c:	e0bff617 	ldw	r2,-40(fp)
 8041430:	01400704 	movi	r5,28
 8041434:	1009883a 	mov	r4,r2
 8041438:	8042cd80 	call	8042cd8 <__mulsi3>
 804143c:	1007883a 	mov	r3,r2
 8041440:	e0bff817 	ldw	r2,-32(fp)
 8041444:	10c5883a 	add	r2,r2,r3
 8041448:	10800117 	ldw	r2,4(r2)
 804144c:	e0fff917 	ldw	r3,-28(fp)
 8041450:	18c00704 	addi	r3,r3,28
 8041454:	19000117 	ldw	r4,4(r3)
 8041458:	e0fff917 	ldw	r3,-28(fp)
 804145c:	18c00704 	addi	r3,r3,28
 8041460:	18c00517 	ldw	r3,20(r3)
 8041464:	20c7883a 	add	r3,r4,r3
 8041468:	18805016 	blt	r3,r2,80415ac <update_ball.3544+0x39c>
					collision_sound(); //play the collision sound
 804146c:	8019883a 	mov	r12,r16
 8041470:	80411bc0 	call	80411bc <collision_sound.3541>
					rect[i].x = paddles[1].x - rect[i].width;
 8041474:	e0bff617 	ldw	r2,-40(fp)
 8041478:	01400704 	movi	r5,28
 804147c:	1009883a 	mov	r4,r2
 8041480:	8042cd80 	call	8042cd8 <__mulsi3>
 8041484:	1007883a 	mov	r3,r2
 8041488:	e0bff817 	ldw	r2,-32(fp)
 804148c:	10e3883a 	add	r17,r2,r3
 8041490:	e0bff917 	ldw	r2,-28(fp)
 8041494:	10800704 	addi	r2,r2,28
 8041498:	14800017 	ldw	r18,0(r2)
 804149c:	e0bff617 	ldw	r2,-40(fp)
 80414a0:	01400704 	movi	r5,28
 80414a4:	1009883a 	mov	r4,r2
 80414a8:	8042cd80 	call	8042cd8 <__mulsi3>
 80414ac:	1007883a 	mov	r3,r2
 80414b0:	e0bff817 	ldw	r2,-32(fp)
 80414b4:	10c5883a 	add	r2,r2,r3
 80414b8:	10800417 	ldw	r2,16(r2)
 80414bc:	9085c83a 	sub	r2,r18,r2
 80414c0:	88800015 	stw	r2,0(r17)
					rect[i].xspeed*=-1; // Bounce
 80414c4:	e0bff617 	ldw	r2,-40(fp)
 80414c8:	01400704 	movi	r5,28
 80414cc:	1009883a 	mov	r4,r2
 80414d0:	8042cd80 	call	8042cd8 <__mulsi3>
 80414d4:	1007883a 	mov	r3,r2
 80414d8:	e0bff817 	ldw	r2,-32(fp)
 80414dc:	10e3883a 	add	r17,r2,r3
 80414e0:	e0bff617 	ldw	r2,-40(fp)
 80414e4:	01400704 	movi	r5,28
 80414e8:	1009883a 	mov	r4,r2
 80414ec:	8042cd80 	call	8042cd8 <__mulsi3>
 80414f0:	1007883a 	mov	r3,r2
 80414f4:	e0bff817 	ldw	r2,-32(fp)
 80414f8:	10c5883a 	add	r2,r2,r3
 80414fc:	10800217 	ldw	r2,8(r2)
 8041500:	0085c83a 	sub	r2,zero,r2
 8041504:	88800215 	stw	r2,8(r17)
					if(sign(rect[i].yspeed)!=sign(paddles[1].yspeed)&& paddles[1].yspeed!=0) // Ball bounces in direction of paddle movement
 8041508:	e0bff617 	ldw	r2,-40(fp)
 804150c:	01400704 	movi	r5,28
 8041510:	1009883a 	mov	r4,r2
 8041514:	8042cd80 	call	8042cd8 <__mulsi3>
 8041518:	1007883a 	mov	r3,r2
 804151c:	e0bff817 	ldw	r2,-32(fp)
 8041520:	10c5883a 	add	r2,r2,r3
 8041524:	10800317 	ldw	r2,12(r2)
 8041528:	8019883a 	mov	r12,r16
 804152c:	1009883a 	mov	r4,r2
 8041530:	80411840 	call	8041184 <sign.3539>
 8041534:	1023883a 	mov	r17,r2
 8041538:	e0bff917 	ldw	r2,-28(fp)
 804153c:	10800704 	addi	r2,r2,28
 8041540:	10800317 	ldw	r2,12(r2)
 8041544:	8019883a 	mov	r12,r16
 8041548:	1009883a 	mov	r4,r2
 804154c:	80411840 	call	8041184 <sign.3539>
 8041550:	88803626 	beq	r17,r2,804162c <update_ball.3544+0x41c>
 8041554:	e0bff917 	ldw	r2,-28(fp)
 8041558:	10800704 	addi	r2,r2,28
 804155c:	10800317 	ldw	r2,12(r2)
 8041560:	10003226 	beq	r2,zero,804162c <update_ball.3544+0x41c>
						rect[i].yspeed*=-1;
 8041564:	e0bff617 	ldw	r2,-40(fp)
 8041568:	01400704 	movi	r5,28
 804156c:	1009883a 	mov	r4,r2
 8041570:	8042cd80 	call	8042cd8 <__mulsi3>
 8041574:	1007883a 	mov	r3,r2
 8041578:	e0bff817 	ldw	r2,-32(fp)
 804157c:	10e3883a 	add	r17,r2,r3
 8041580:	e0bff617 	ldw	r2,-40(fp)
 8041584:	01400704 	movi	r5,28
 8041588:	1009883a 	mov	r4,r2
 804158c:	8042cd80 	call	8042cd8 <__mulsi3>
 8041590:	1007883a 	mov	r3,r2
 8041594:	e0bff817 	ldw	r2,-32(fp)
 8041598:	10c5883a 	add	r2,r2,r3
 804159c:	10800317 	ldw	r2,12(r2)
 80415a0:	0085c83a 	sub	r2,zero,r2
 80415a4:	88800315 	stw	r2,12(r17)
				// Collision with right paddle
				if(rect[i].y + rect[i].height >= paddles[1].y && rect[i].y <= paddles[1].y + paddles[1].height) {
					collision_sound(); //play the collision sound
					rect[i].x = paddles[1].x - rect[i].width;
					rect[i].xspeed*=-1; // Bounce
					if(sign(rect[i].yspeed)!=sign(paddles[1].yspeed)&& paddles[1].yspeed!=0) // Ball bounces in direction of paddle movement
 80415a8:	00002006 	br	804162c <update_ball.3544+0x41c>
						rect[i].yspeed*=-1;
				}
				else { // Goal - player 1 scored
					// Reset ball position
					rect[i].x = BALL_XDEFAULT;
 80415ac:	e0bff617 	ldw	r2,-40(fp)
 80415b0:	01400704 	movi	r5,28
 80415b4:	1009883a 	mov	r4,r2
 80415b8:	8042cd80 	call	8042cd8 <__mulsi3>
 80415bc:	1007883a 	mov	r3,r2
 80415c0:	e0bff817 	ldw	r2,-32(fp)
 80415c4:	10c5883a 	add	r2,r2,r3
 80415c8:	00c02804 	movi	r3,160
 80415cc:	10c00015 	stw	r3,0(r2)
					rect[i].xspeed*=-1;
 80415d0:	e0bff617 	ldw	r2,-40(fp)
 80415d4:	01400704 	movi	r5,28
 80415d8:	1009883a 	mov	r4,r2
 80415dc:	8042cd80 	call	8042cd8 <__mulsi3>
 80415e0:	1007883a 	mov	r3,r2
 80415e4:	e0bff817 	ldw	r2,-32(fp)
 80415e8:	10e3883a 	add	r17,r2,r3
 80415ec:	e0bff617 	ldw	r2,-40(fp)
 80415f0:	01400704 	movi	r5,28
 80415f4:	1009883a 	mov	r4,r2
 80415f8:	8042cd80 	call	8042cd8 <__mulsi3>
 80415fc:	1007883a 	mov	r3,r2
 8041600:	e0bff817 	ldw	r2,-32(fp)
 8041604:	10c5883a 	add	r2,r2,r3
 8041608:	10800217 	ldw	r2,8(r2)
 804160c:	0085c83a 	sub	r2,zero,r2
 8041610:	88800215 	stw	r2,8(r17)
					// Add 1 to left player's score
					scores[0] += 1;
 8041614:	e0bffa17 	ldw	r2,-24(fp)
 8041618:	10800017 	ldw	r2,0(r2)
 804161c:	10c00044 	addi	r3,r2,1
 8041620:	e0bffa17 	ldw	r2,-24(fp)
 8041624:	10c00015 	stw	r3,0(r2)
			rect[i].x += rect[i].xspeed;
			rect[i].y += rect[i].yspeed;
			// Check for collisions
			if(rect[i].x + rect[i].width >= SCREEN_WIDTH || rect[i].x + rect[i].width >= paddles[1].x) {
				// Collision with right paddle
				if(rect[i].y + rect[i].height >= paddles[1].y && rect[i].y <= paddles[1].y + paddles[1].height) {
 8041628:	00010006 	br	8041a2c <update_ball.3544+0x81c>
					collision_sound(); //play the collision sound
					rect[i].x = paddles[1].x - rect[i].width;
					rect[i].xspeed*=-1; // Bounce
					if(sign(rect[i].yspeed)!=sign(paddles[1].yspeed)&& paddles[1].yspeed!=0) // Ball bounces in direction of paddle movement
 804162c:	0001883a 	nop
			rect[i].x += rect[i].xspeed;
			rect[i].y += rect[i].yspeed;
			// Check for collisions
			if(rect[i].x + rect[i].width >= SCREEN_WIDTH || rect[i].x + rect[i].width >= paddles[1].x) {
				// Collision with right paddle
				if(rect[i].y + rect[i].height >= paddles[1].y && rect[i].y <= paddles[1].y + paddles[1].height) {
 8041630:	0000fe06 	br	8041a2c <update_ball.3544+0x81c>
					rect[i].xspeed*=-1;
					// Add 1 to left player's score
					scores[0] += 1;
				}
			}
			else if (rect[i].x <= 0 || rect[i].x <= paddles[0].width) {
 8041634:	e0bff617 	ldw	r2,-40(fp)
 8041638:	01400704 	movi	r5,28
 804163c:	1009883a 	mov	r4,r2
 8041640:	8042cd80 	call	8042cd8 <__mulsi3>
 8041644:	1007883a 	mov	r3,r2
 8041648:	e0bff817 	ldw	r2,-32(fp)
 804164c:	10c5883a 	add	r2,r2,r3
 8041650:	10800017 	ldw	r2,0(r2)
 8041654:	00800b0e 	bge	zero,r2,8041684 <update_ball.3544+0x474>
 8041658:	e0bff617 	ldw	r2,-40(fp)
 804165c:	01400704 	movi	r5,28
 8041660:	1009883a 	mov	r4,r2
 8041664:	8042cd80 	call	8042cd8 <__mulsi3>
 8041668:	1007883a 	mov	r3,r2
 804166c:	e0bff817 	ldw	r2,-32(fp)
 8041670:	10c5883a 	add	r2,r2,r3
 8041674:	10800017 	ldw	r2,0(r2)
 8041678:	e0fff917 	ldw	r3,-28(fp)
 804167c:	18c00417 	ldw	r3,16(r3)
 8041680:	18808d16 	blt	r3,r2,80418b8 <update_ball.3544+0x6a8>
				// Collision with left paddle
				if(rect[i].y + rect[i].height >= paddles[0].y && rect[i].y <= paddles[0].y + paddles[0].height) {
 8041684:	e0bff617 	ldw	r2,-40(fp)
 8041688:	01400704 	movi	r5,28
 804168c:	1009883a 	mov	r4,r2
 8041690:	8042cd80 	call	8042cd8 <__mulsi3>
 8041694:	1007883a 	mov	r3,r2
 8041698:	e0bff817 	ldw	r2,-32(fp)
 804169c:	10c5883a 	add	r2,r2,r3
 80416a0:	14400117 	ldw	r17,4(r2)
 80416a4:	e0bff617 	ldw	r2,-40(fp)
 80416a8:	01400704 	movi	r5,28
 80416ac:	1009883a 	mov	r4,r2
 80416b0:	8042cd80 	call	8042cd8 <__mulsi3>
 80416b4:	1007883a 	mov	r3,r2
 80416b8:	e0bff817 	ldw	r2,-32(fp)
 80416bc:	10c5883a 	add	r2,r2,r3
 80416c0:	10800517 	ldw	r2,20(r2)
 80416c4:	8887883a 	add	r3,r17,r2
 80416c8:	e0bff917 	ldw	r2,-28(fp)
 80416cc:	10800117 	ldw	r2,4(r2)
 80416d0:	18805516 	blt	r3,r2,8041828 <update_ball.3544+0x618>
 80416d4:	e0bff617 	ldw	r2,-40(fp)
 80416d8:	01400704 	movi	r5,28
 80416dc:	1009883a 	mov	r4,r2
 80416e0:	8042cd80 	call	8042cd8 <__mulsi3>
 80416e4:	1007883a 	mov	r3,r2
 80416e8:	e0bff817 	ldw	r2,-32(fp)
 80416ec:	10c5883a 	add	r2,r2,r3
 80416f0:	10800117 	ldw	r2,4(r2)
 80416f4:	e0fff917 	ldw	r3,-28(fp)
 80416f8:	19000117 	ldw	r4,4(r3)
 80416fc:	e0fff917 	ldw	r3,-28(fp)
 8041700:	18c00517 	ldw	r3,20(r3)
 8041704:	20c7883a 	add	r3,r4,r3
 8041708:	18804716 	blt	r3,r2,8041828 <update_ball.3544+0x618>
					collision_sound(); //play the collision sound
 804170c:	8019883a 	mov	r12,r16
 8041710:	80411bc0 	call	80411bc <collision_sound.3541>
					rect[i].x = paddles[0].x + paddles[0].width;
 8041714:	e0bff617 	ldw	r2,-40(fp)
 8041718:	01400704 	movi	r5,28
 804171c:	1009883a 	mov	r4,r2
 8041720:	8042cd80 	call	8042cd8 <__mulsi3>
 8041724:	1007883a 	mov	r3,r2
 8041728:	e0bff817 	ldw	r2,-32(fp)
 804172c:	10c5883a 	add	r2,r2,r3
 8041730:	e0fff917 	ldw	r3,-28(fp)
 8041734:	19000017 	ldw	r4,0(r3)
 8041738:	e0fff917 	ldw	r3,-28(fp)
 804173c:	18c00417 	ldw	r3,16(r3)
 8041740:	20c7883a 	add	r3,r4,r3
 8041744:	10c00015 	stw	r3,0(r2)
					rect[i].xspeed*=-1; //Bounce
 8041748:	e0bff617 	ldw	r2,-40(fp)
 804174c:	01400704 	movi	r5,28
 8041750:	1009883a 	mov	r4,r2
 8041754:	8042cd80 	call	8042cd8 <__mulsi3>
 8041758:	1007883a 	mov	r3,r2
 804175c:	e0bff817 	ldw	r2,-32(fp)
 8041760:	10e3883a 	add	r17,r2,r3
 8041764:	e0bff617 	ldw	r2,-40(fp)
 8041768:	01400704 	movi	r5,28
 804176c:	1009883a 	mov	r4,r2
 8041770:	8042cd80 	call	8042cd8 <__mulsi3>
 8041774:	1007883a 	mov	r3,r2
 8041778:	e0bff817 	ldw	r2,-32(fp)
 804177c:	10c5883a 	add	r2,r2,r3
 8041780:	10800217 	ldw	r2,8(r2)
 8041784:	0085c83a 	sub	r2,zero,r2
 8041788:	88800215 	stw	r2,8(r17)
					if(sign(rect[i].yspeed)!=sign(paddles[0].yspeed) && paddles[0].yspeed!=0) // Ball bounces in direction of paddle movement
 804178c:	e0bff617 	ldw	r2,-40(fp)
 8041790:	01400704 	movi	r5,28
 8041794:	1009883a 	mov	r4,r2
 8041798:	8042cd80 	call	8042cd8 <__mulsi3>
 804179c:	1007883a 	mov	r3,r2
 80417a0:	e0bff817 	ldw	r2,-32(fp)
 80417a4:	10c5883a 	add	r2,r2,r3
 80417a8:	10800317 	ldw	r2,12(r2)
 80417ac:	8019883a 	mov	r12,r16
 80417b0:	1009883a 	mov	r4,r2
 80417b4:	80411840 	call	8041184 <sign.3539>
 80417b8:	1023883a 	mov	r17,r2
 80417bc:	e0bff917 	ldw	r2,-28(fp)
 80417c0:	10800317 	ldw	r2,12(r2)
 80417c4:	8019883a 	mov	r12,r16
 80417c8:	1009883a 	mov	r4,r2
 80417cc:	80411840 	call	8041184 <sign.3539>
 80417d0:	88803726 	beq	r17,r2,80418b0 <update_ball.3544+0x6a0>
 80417d4:	e0bff917 	ldw	r2,-28(fp)
 80417d8:	10800317 	ldw	r2,12(r2)
 80417dc:	10003426 	beq	r2,zero,80418b0 <update_ball.3544+0x6a0>
						rect[i].yspeed*=-1;
 80417e0:	e0bff617 	ldw	r2,-40(fp)
 80417e4:	01400704 	movi	r5,28
 80417e8:	1009883a 	mov	r4,r2
 80417ec:	8042cd80 	call	8042cd8 <__mulsi3>
 80417f0:	1007883a 	mov	r3,r2
 80417f4:	e0bff817 	ldw	r2,-32(fp)
 80417f8:	10e3883a 	add	r17,r2,r3
 80417fc:	e0bff617 	ldw	r2,-40(fp)
 8041800:	01400704 	movi	r5,28
 8041804:	1009883a 	mov	r4,r2
 8041808:	8042cd80 	call	8042cd8 <__mulsi3>
 804180c:	1007883a 	mov	r3,r2
 8041810:	e0bff817 	ldw	r2,-32(fp)
 8041814:	10c5883a 	add	r2,r2,r3
 8041818:	10800317 	ldw	r2,12(r2)
 804181c:	0085c83a 	sub	r2,zero,r2
 8041820:	88800315 	stw	r2,12(r17)
				// Collision with left paddle
				if(rect[i].y + rect[i].height >= paddles[0].y && rect[i].y <= paddles[0].y + paddles[0].height) {
					collision_sound(); //play the collision sound
					rect[i].x = paddles[0].x + paddles[0].width;
					rect[i].xspeed*=-1; //Bounce
					if(sign(rect[i].yspeed)!=sign(paddles[0].yspeed) && paddles[0].yspeed!=0) // Ball bounces in direction of paddle movement
 8041824:	00002206 	br	80418b0 <update_ball.3544+0x6a0>
						rect[i].yspeed*=-1;
				}
				else { // Goal - player 2 scored
					// Reset ball position
					rect[i].x = BALL_XDEFAULT;
 8041828:	e0bff617 	ldw	r2,-40(fp)
 804182c:	01400704 	movi	r5,28
 8041830:	1009883a 	mov	r4,r2
 8041834:	8042cd80 	call	8042cd8 <__mulsi3>
 8041838:	1007883a 	mov	r3,r2
 804183c:	e0bff817 	ldw	r2,-32(fp)
 8041840:	10c5883a 	add	r2,r2,r3
 8041844:	00c02804 	movi	r3,160
 8041848:	10c00015 	stw	r3,0(r2)
					rect[i].xspeed*=-1;
 804184c:	e0bff617 	ldw	r2,-40(fp)
 8041850:	01400704 	movi	r5,28
 8041854:	1009883a 	mov	r4,r2
 8041858:	8042cd80 	call	8042cd8 <__mulsi3>
 804185c:	1007883a 	mov	r3,r2
 8041860:	e0bff817 	ldw	r2,-32(fp)
 8041864:	10e3883a 	add	r17,r2,r3
 8041868:	e0bff617 	ldw	r2,-40(fp)
 804186c:	01400704 	movi	r5,28
 8041870:	1009883a 	mov	r4,r2
 8041874:	8042cd80 	call	8042cd8 <__mulsi3>
 8041878:	1007883a 	mov	r3,r2
 804187c:	e0bff817 	ldw	r2,-32(fp)
 8041880:	10c5883a 	add	r2,r2,r3
 8041884:	10800217 	ldw	r2,8(r2)
 8041888:	0085c83a 	sub	r2,zero,r2
 804188c:	88800215 	stw	r2,8(r17)
					// Add 1 to right player's score
					scores[1] += 1;
 8041890:	e0bffa17 	ldw	r2,-24(fp)
 8041894:	10800104 	addi	r2,r2,4
 8041898:	e0fffa17 	ldw	r3,-24(fp)
 804189c:	18c00104 	addi	r3,r3,4
 80418a0:	18c00017 	ldw	r3,0(r3)
 80418a4:	18c00044 	addi	r3,r3,1
 80418a8:	10c00015 	stw	r3,0(r2)
					scores[0] += 1;
				}
			}
			else if (rect[i].x <= 0 || rect[i].x <= paddles[0].width) {
				// Collision with left paddle
				if(rect[i].y + rect[i].height >= paddles[0].y && rect[i].y <= paddles[0].y + paddles[0].height) {
 80418ac:	00005f06 	br	8041a2c <update_ball.3544+0x81c>
					collision_sound(); //play the collision sound
					rect[i].x = paddles[0].x + paddles[0].width;
					rect[i].xspeed*=-1; //Bounce
					if(sign(rect[i].yspeed)!=sign(paddles[0].yspeed) && paddles[0].yspeed!=0) // Ball bounces in direction of paddle movement
 80418b0:	0001883a 	nop
					scores[0] += 1;
				}
			}
			else if (rect[i].x <= 0 || rect[i].x <= paddles[0].width) {
				// Collision with left paddle
				if(rect[i].y + rect[i].height >= paddles[0].y && rect[i].y <= paddles[0].y + paddles[0].height) {
 80418b4:	00005d06 	br	8041a2c <update_ball.3544+0x81c>
					rect[i].xspeed*=-1;
					// Add 1 to right player's score
					scores[1] += 1;
				}
			}
			else if (rect[i].y + rect[i].height >= SCREEN_HEIGHT) { // Collisions with top/bottom screen
 80418b8:	e0bff617 	ldw	r2,-40(fp)
 80418bc:	01400704 	movi	r5,28
 80418c0:	1009883a 	mov	r4,r2
 80418c4:	8042cd80 	call	8042cd8 <__mulsi3>
 80418c8:	1007883a 	mov	r3,r2
 80418cc:	e0bff817 	ldw	r2,-32(fp)
 80418d0:	10c5883a 	add	r2,r2,r3
 80418d4:	14400117 	ldw	r17,4(r2)
 80418d8:	e0bff617 	ldw	r2,-40(fp)
 80418dc:	01400704 	movi	r5,28
 80418e0:	1009883a 	mov	r4,r2
 80418e4:	8042cd80 	call	8042cd8 <__mulsi3>
 80418e8:	1007883a 	mov	r3,r2
 80418ec:	e0bff817 	ldw	r2,-32(fp)
 80418f0:	10c5883a 	add	r2,r2,r3
 80418f4:	10800517 	ldw	r2,20(r2)
 80418f8:	8885883a 	add	r2,r17,r2
 80418fc:	10803c10 	cmplti	r2,r2,240
 8041900:	1000261e 	bne	r2,zero,804199c <update_ball.3544+0x78c>
				rect[i].y = SCREEN_HEIGHT - rect[i].height;
 8041904:	e0bff617 	ldw	r2,-40(fp)
 8041908:	01400704 	movi	r5,28
 804190c:	1009883a 	mov	r4,r2
 8041910:	8042cd80 	call	8042cd8 <__mulsi3>
 8041914:	1007883a 	mov	r3,r2
 8041918:	e0bff817 	ldw	r2,-32(fp)
 804191c:	10e3883a 	add	r17,r2,r3
 8041920:	e0bff617 	ldw	r2,-40(fp)
 8041924:	01400704 	movi	r5,28
 8041928:	1009883a 	mov	r4,r2
 804192c:	8042cd80 	call	8042cd8 <__mulsi3>
 8041930:	1007883a 	mov	r3,r2
 8041934:	e0bff817 	ldw	r2,-32(fp)
 8041938:	10c5883a 	add	r2,r2,r3
 804193c:	10800517 	ldw	r2,20(r2)
 8041940:	00c03c04 	movi	r3,240
 8041944:	1885c83a 	sub	r2,r3,r2
 8041948:	88800115 	stw	r2,4(r17)
				rect[i].yspeed *= -1;
 804194c:	e0bff617 	ldw	r2,-40(fp)
 8041950:	01400704 	movi	r5,28
 8041954:	1009883a 	mov	r4,r2
 8041958:	8042cd80 	call	8042cd8 <__mulsi3>
 804195c:	1007883a 	mov	r3,r2
 8041960:	e0bff817 	ldw	r2,-32(fp)
 8041964:	10e3883a 	add	r17,r2,r3
 8041968:	e0bff617 	ldw	r2,-40(fp)
 804196c:	01400704 	movi	r5,28
 8041970:	1009883a 	mov	r4,r2
 8041974:	8042cd80 	call	8042cd8 <__mulsi3>
 8041978:	1007883a 	mov	r3,r2
 804197c:	e0bff817 	ldw	r2,-32(fp)
 8041980:	10c5883a 	add	r2,r2,r3
 8041984:	10800317 	ldw	r2,12(r2)
 8041988:	0085c83a 	sub	r2,zero,r2
 804198c:	88800315 	stw	r2,12(r17)
				collision_sound();
 8041990:	8019883a 	mov	r12,r16
 8041994:	80411bc0 	call	80411bc <collision_sound.3541>
 8041998:	00002406 	br	8041a2c <update_ball.3544+0x81c>
			}
			else if (rect[i].y <= 0) {
 804199c:	e0bff617 	ldw	r2,-40(fp)
 80419a0:	01400704 	movi	r5,28
 80419a4:	1009883a 	mov	r4,r2
 80419a8:	8042cd80 	call	8042cd8 <__mulsi3>
 80419ac:	1007883a 	mov	r3,r2
 80419b0:	e0bff817 	ldw	r2,-32(fp)
 80419b4:	10c5883a 	add	r2,r2,r3
 80419b8:	10800117 	ldw	r2,4(r2)
 80419bc:	00801b16 	blt	zero,r2,8041a2c <update_ball.3544+0x81c>
				rect[i].y = 0;
 80419c0:	e0bff617 	ldw	r2,-40(fp)
 80419c4:	01400704 	movi	r5,28
 80419c8:	1009883a 	mov	r4,r2
 80419cc:	8042cd80 	call	8042cd8 <__mulsi3>
 80419d0:	1007883a 	mov	r3,r2
 80419d4:	e0bff817 	ldw	r2,-32(fp)
 80419d8:	10c5883a 	add	r2,r2,r3
 80419dc:	10000115 	stw	zero,4(r2)
				rect[i].yspeed *= -1;
 80419e0:	e0bff617 	ldw	r2,-40(fp)
 80419e4:	01400704 	movi	r5,28
 80419e8:	1009883a 	mov	r4,r2
 80419ec:	8042cd80 	call	8042cd8 <__mulsi3>
 80419f0:	1007883a 	mov	r3,r2
 80419f4:	e0bff817 	ldw	r2,-32(fp)
 80419f8:	10e3883a 	add	r17,r2,r3
 80419fc:	e0bff617 	ldw	r2,-40(fp)
 8041a00:	01400704 	movi	r5,28
 8041a04:	1009883a 	mov	r4,r2
 8041a08:	8042cd80 	call	8042cd8 <__mulsi3>
 8041a0c:	1007883a 	mov	r3,r2
 8041a10:	e0bff817 	ldw	r2,-32(fp)
 8041a14:	10c5883a 	add	r2,r2,r3
 8041a18:	10800317 	ldw	r2,12(r2)
 8041a1c:	0085c83a 	sub	r2,zero,r2
 8041a20:	88800315 	stw	r2,12(r17)
				collision_sound();
 8041a24:	8019883a 	mov	r12,r16
 8041a28:	80411bc0 	call	80411bc <collision_sound.3541>
	void update_ball(Game* game) {
		int rect_len = (game -> balls_len);
		Rectangle* rect = (game -> balls);
		Rectangle* paddles = (game -> paddles);
		int* scores = (game -> scores);
		for(int i = 0; i< rect_len; i++) {
 8041a2c:	e0bff617 	ldw	r2,-40(fp)
 8041a30:	10800044 	addi	r2,r2,1
 8041a34:	e0bff615 	stw	r2,-40(fp)
 8041a38:	e0fff617 	ldw	r3,-40(fp)
 8041a3c:	e0bff717 	ldw	r2,-36(fp)
 8041a40:	18be0b16 	blt	r3,r2,8041270 <__alt_data_end+0xfffd91d0>
				rect[i].y = 0;
				rect[i].yspeed *= -1;
				collision_sound();
			}
		}
	}
 8041a44:	0001883a 	nop
 8041a48:	e6fffd04 	addi	sp,fp,-12
 8041a4c:	dfc00417 	ldw	ra,16(sp)
 8041a50:	df000317 	ldw	fp,12(sp)
 8041a54:	dc800217 	ldw	r18,8(sp)
 8041a58:	dc400117 	ldw	r17,4(sp)
 8041a5c:	dc000017 	ldw	r16,0(sp)
 8041a60:	dec00504 	addi	sp,sp,20
 8041a64:	f800283a 	ret

08041a68 <clear.3557>:
	void clear(alt_up_pixel_buffer_dma_dev * pixel_buf_dma_dev, alt_up_char_buffer_dev * char_buf_dev,int buffer) {
 8041a68:	defffa04 	addi	sp,sp,-24
 8041a6c:	dfc00515 	stw	ra,20(sp)
 8041a70:	df000415 	stw	fp,16(sp)
 8041a74:	df000404 	addi	fp,sp,16
 8041a78:	e13ffc15 	stw	r4,-16(fp)
 8041a7c:	e17ffd15 	stw	r5,-12(fp)
 8041a80:	e1bffe15 	stw	r6,-8(fp)
 8041a84:	e33fff15 	stw	r12,-4(fp)
		// Clear the screen
		alt_up_pixel_buffer_dma_clear_screen(pixel_buf_dma_dev, buffer);
 8041a88:	e17ffe17 	ldw	r5,-8(fp)
 8041a8c:	e13ffc17 	ldw	r4,-16(fp)
 8041a90:	80523400 	call	8052340 <alt_up_pixel_buffer_dma_clear_screen>
		alt_up_char_buffer_clear(char_buf_dev);
 8041a94:	e13ffd17 	ldw	r4,-12(fp)
 8041a98:	80520100 	call	8052010 <alt_up_char_buffer_clear>
	}
 8041a9c:	0001883a 	nop
 8041aa0:	e037883a 	mov	sp,fp
 8041aa4:	dfc00117 	ldw	ra,4(sp)
 8041aa8:	df000017 	ldw	fp,0(sp)
 8041aac:	dec00204 	addi	sp,sp,8
 8041ab0:	f800283a 	ret

08041ab4 <draw.3564>:
	// Renders game components on the screen
	void draw(alt_up_pixel_buffer_dma_dev * pixel_buf_dma_dev,int colour, int buffer, Rectangle rect[], int len) {
 8041ab4:	defff104 	addi	sp,sp,-60
 8041ab8:	dfc00e15 	stw	ra,56(sp)
 8041abc:	df000d15 	stw	fp,52(sp)
 8041ac0:	dcc00c15 	stw	r19,48(sp)
 8041ac4:	dc800b15 	stw	r18,44(sp)
 8041ac8:	dc400a15 	stw	r17,40(sp)
 8041acc:	dc000915 	stw	r16,36(sp)
 8041ad0:	df000d04 	addi	fp,sp,52
 8041ad4:	e13ff715 	stw	r4,-36(fp)
 8041ad8:	e17ff815 	stw	r5,-32(fp)
 8041adc:	e1bff915 	stw	r6,-28(fp)
 8041ae0:	e1fffa15 	stw	r7,-24(fp)
 8041ae4:	e33ffb15 	stw	r12,-20(fp)
		// Draw each rectangle
		for(int i = 0; i<len; i++) {
 8041ae8:	e03ff615 	stw	zero,-40(fp)
 8041aec:	00004106 	br	8041bf4 <draw.3564+0x140>

			alt_up_pixel_buffer_dma_draw_box (pixel_buf_dma_dev,
					rect[i].x, rect[i].y, rect[i].x + rect[i].width - 1,
 8041af0:	e0bff617 	ldw	r2,-40(fp)
 8041af4:	01400704 	movi	r5,28
 8041af8:	1009883a 	mov	r4,r2
 8041afc:	8042cd80 	call	8042cd8 <__mulsi3>
 8041b00:	1007883a 	mov	r3,r2
 8041b04:	e0bffa17 	ldw	r2,-24(fp)
 8041b08:	10c5883a 	add	r2,r2,r3
	// Renders game components on the screen
	void draw(alt_up_pixel_buffer_dma_dev * pixel_buf_dma_dev,int colour, int buffer, Rectangle rect[], int len) {
		// Draw each rectangle
		for(int i = 0; i<len; i++) {

			alt_up_pixel_buffer_dma_draw_box (pixel_buf_dma_dev,
 8041b0c:	14400017 	ldw	r17,0(r2)
					rect[i].x, rect[i].y, rect[i].x + rect[i].width - 1,
 8041b10:	e0bff617 	ldw	r2,-40(fp)
 8041b14:	01400704 	movi	r5,28
 8041b18:	1009883a 	mov	r4,r2
 8041b1c:	8042cd80 	call	8042cd8 <__mulsi3>
 8041b20:	1007883a 	mov	r3,r2
 8041b24:	e0bffa17 	ldw	r2,-24(fp)
 8041b28:	10c5883a 	add	r2,r2,r3
	// Renders game components on the screen
	void draw(alt_up_pixel_buffer_dma_dev * pixel_buf_dma_dev,int colour, int buffer, Rectangle rect[], int len) {
		// Draw each rectangle
		for(int i = 0; i<len; i++) {

			alt_up_pixel_buffer_dma_draw_box (pixel_buf_dma_dev,
 8041b2c:	14800117 	ldw	r18,4(r2)
					rect[i].x, rect[i].y, rect[i].x + rect[i].width - 1,
 8041b30:	e0bff617 	ldw	r2,-40(fp)
 8041b34:	01400704 	movi	r5,28
 8041b38:	1009883a 	mov	r4,r2
 8041b3c:	8042cd80 	call	8042cd8 <__mulsi3>
 8041b40:	1007883a 	mov	r3,r2
 8041b44:	e0bffa17 	ldw	r2,-24(fp)
 8041b48:	10c5883a 	add	r2,r2,r3
 8041b4c:	14000017 	ldw	r16,0(r2)
 8041b50:	e0bff617 	ldw	r2,-40(fp)
 8041b54:	01400704 	movi	r5,28
 8041b58:	1009883a 	mov	r4,r2
 8041b5c:	8042cd80 	call	8042cd8 <__mulsi3>
 8041b60:	1007883a 	mov	r3,r2
 8041b64:	e0bffa17 	ldw	r2,-24(fp)
 8041b68:	10c5883a 	add	r2,r2,r3
 8041b6c:	10800417 	ldw	r2,16(r2)
 8041b70:	8085883a 	add	r2,r16,r2
	// Renders game components on the screen
	void draw(alt_up_pixel_buffer_dma_dev * pixel_buf_dma_dev,int colour, int buffer, Rectangle rect[], int len) {
		// Draw each rectangle
		for(int i = 0; i<len; i++) {

			alt_up_pixel_buffer_dma_draw_box (pixel_buf_dma_dev,
 8041b74:	14ffffc4 	addi	r19,r2,-1
					rect[i].x, rect[i].y, rect[i].x + rect[i].width - 1,
					rect[i].y + rect[i].height - 1,
 8041b78:	e0bff617 	ldw	r2,-40(fp)
 8041b7c:	01400704 	movi	r5,28
 8041b80:	1009883a 	mov	r4,r2
 8041b84:	8042cd80 	call	8042cd8 <__mulsi3>
 8041b88:	1007883a 	mov	r3,r2
 8041b8c:	e0bffa17 	ldw	r2,-24(fp)
 8041b90:	10c5883a 	add	r2,r2,r3
 8041b94:	14000117 	ldw	r16,4(r2)
 8041b98:	e0bff617 	ldw	r2,-40(fp)
 8041b9c:	01400704 	movi	r5,28
 8041ba0:	1009883a 	mov	r4,r2
 8041ba4:	8042cd80 	call	8042cd8 <__mulsi3>
 8041ba8:	1007883a 	mov	r3,r2
 8041bac:	e0bffa17 	ldw	r2,-24(fp)
 8041bb0:	10c5883a 	add	r2,r2,r3
 8041bb4:	10800517 	ldw	r2,20(r2)
 8041bb8:	8085883a 	add	r2,r16,r2
	// Renders game components on the screen
	void draw(alt_up_pixel_buffer_dma_dev * pixel_buf_dma_dev,int colour, int buffer, Rectangle rect[], int len) {
		// Draw each rectangle
		for(int i = 0; i<len; i++) {

			alt_up_pixel_buffer_dma_draw_box (pixel_buf_dma_dev,
 8041bbc:	10bfffc4 	addi	r2,r2,-1
 8041bc0:	e0fff917 	ldw	r3,-28(fp)
 8041bc4:	d8c00215 	stw	r3,8(sp)
 8041bc8:	e0fff817 	ldw	r3,-32(fp)
 8041bcc:	d8c00115 	stw	r3,4(sp)
 8041bd0:	d8800015 	stw	r2,0(sp)
 8041bd4:	980f883a 	mov	r7,r19
 8041bd8:	900d883a 	mov	r6,r18
 8041bdc:	880b883a 	mov	r5,r17
 8041be0:	e13ff717 	ldw	r4,-36(fp)
 8041be4:	805247c0 	call	805247c <alt_up_pixel_buffer_dma_draw_box>
		alt_up_char_buffer_clear(char_buf_dev);
	}
	// Renders game components on the screen
	void draw(alt_up_pixel_buffer_dma_dev * pixel_buf_dma_dev,int colour, int buffer, Rectangle rect[], int len) {
		// Draw each rectangle
		for(int i = 0; i<len; i++) {
 8041be8:	e0bff617 	ldw	r2,-40(fp)
 8041bec:	10800044 	addi	r2,r2,1
 8041bf0:	e0bff615 	stw	r2,-40(fp)
 8041bf4:	e0fff617 	ldw	r3,-40(fp)
 8041bf8:	e0800217 	ldw	r2,8(fp)
 8041bfc:	18bfbc16 	blt	r3,r2,8041af0 <__alt_data_end+0xfffd9a50>
			alt_up_pixel_buffer_dma_draw_box (pixel_buf_dma_dev,
					rect[i].x, rect[i].y, rect[i].x + rect[i].width - 1,
					rect[i].y + rect[i].height - 1,
					colour, buffer);
		}
	}
 8041c00:	0001883a 	nop
 8041c04:	e6fffc04 	addi	sp,fp,-16
 8041c08:	dfc00517 	ldw	ra,20(sp)
 8041c0c:	df000417 	ldw	fp,16(sp)
 8041c10:	dcc00317 	ldw	r19,12(sp)
 8041c14:	dc800217 	ldw	r18,8(sp)
 8041c18:	dc400117 	ldw	r17,4(sp)
 8041c1c:	dc000017 	ldw	r16,0(sp)
 8041c20:	dec00604 	addi	sp,sp,24
 8041c24:	f800283a 	ret

08041c28 <get_user_input.3571>:
	void get_user_input(Game* game) {
 8041c28:	defffa04 	addi	sp,sp,-24
 8041c2c:	df000515 	stw	fp,20(sp)
 8041c30:	df000504 	addi	fp,sp,20
 8041c34:	e13ffe15 	stw	r4,-8(fp)
 8041c38:	e33fff15 	stw	r12,-4(fp)
		int SW = IORD(SW_BASE, 0);
 8041c3c:	00820234 	movhi	r2,2056
 8041c40:	108c9c04 	addi	r2,r2,12912
 8041c44:	10800037 	ldwio	r2,0(r2)
 8041c48:	e0bffc15 	stw	r2,-16(fp)
		int* user_input = game->user_input;
 8041c4c:	e0bffe17 	ldw	r2,-8(fp)
 8041c50:	10801f04 	addi	r2,r2,124
 8041c54:	e0bffd15 	stw	r2,-12(fp)
		for(int i = 0; i<8; i++) {
 8041c58:	e03ffb15 	stw	zero,-20(fp)
 8041c5c:	00000f06 	br	8041c9c <get_user_input.3571+0x74>
			user_input[i] = (0b1 << i) & SW;
 8041c60:	e0bffb17 	ldw	r2,-20(fp)
 8041c64:	1085883a 	add	r2,r2,r2
 8041c68:	1085883a 	add	r2,r2,r2
 8041c6c:	1007883a 	mov	r3,r2
 8041c70:	e0bffd17 	ldw	r2,-12(fp)
 8041c74:	10c5883a 	add	r2,r2,r3
 8041c78:	01000044 	movi	r4,1
 8041c7c:	e0fffb17 	ldw	r3,-20(fp)
 8041c80:	20c8983a 	sll	r4,r4,r3
 8041c84:	e0fffc17 	ldw	r3,-16(fp)
 8041c88:	20c6703a 	and	r3,r4,r3
 8041c8c:	10c00015 	stw	r3,0(r2)
		}
	}
	void get_user_input(Game* game) {
		int SW = IORD(SW_BASE, 0);
		int* user_input = game->user_input;
		for(int i = 0; i<8; i++) {
 8041c90:	e0bffb17 	ldw	r2,-20(fp)
 8041c94:	10800044 	addi	r2,r2,1
 8041c98:	e0bffb15 	stw	r2,-20(fp)
 8041c9c:	e0bffb17 	ldw	r2,-20(fp)
 8041ca0:	10800210 	cmplti	r2,r2,8
 8041ca4:	103fee1e 	bne	r2,zero,8041c60 <__alt_data_end+0xfffd9bc0>
			user_input[i] = (0b1 << i) & SW;
		}
	}
 8041ca8:	0001883a 	nop
 8041cac:	e037883a 	mov	sp,fp
 8041cb0:	df000017 	ldw	fp,0(sp)
 8041cb4:	dec00104 	addi	sp,sp,4
 8041cb8:	f800283a 	ret

08041cbc <reset_game.3580>:
	void reset_game(Game* game) {
 8041cbc:	defffb04 	addi	sp,sp,-20
 8041cc0:	dfc00415 	stw	ra,16(sp)
 8041cc4:	df000315 	stw	fp,12(sp)
 8041cc8:	df000304 	addi	fp,sp,12
 8041ccc:	e13ffe15 	stw	r4,-8(fp)
 8041cd0:	6007883a 	mov	r3,r12
 8041cd4:	e33fff15 	stw	r12,-4(fp)
		// Reset score
		int* scores = game -> scores;
 8041cd8:	e0bffe17 	ldw	r2,-8(fp)
 8041cdc:	10800204 	addi	r2,r2,8
 8041ce0:	e0bffd15 	stw	r2,-12(fp)
		scores[0] = 0;
 8041ce4:	e0bffd17 	ldw	r2,-12(fp)
 8041ce8:	10000015 	stw	zero,0(r2)
		scores[1] = 0;
 8041cec:	e0bffd17 	ldw	r2,-12(fp)
 8041cf0:	10800104 	addi	r2,r2,4
 8041cf4:	10000015 	stw	zero,0(r2)
		// Reset game time
		game -> time = 0;
 8041cf8:	e0bffe17 	ldw	r2,-8(fp)
 8041cfc:	10002715 	stw	zero,156(r2)
		sprintf(time_str, "Time: %u", game->time);
 8041d00:	18c02804 	addi	r3,r3,160
 8041d04:	e0bffe17 	ldw	r2,-8(fp)
 8041d08:	10802717 	ldw	r2,156(r2)
 8041d0c:	100d883a 	mov	r6,r2
 8041d10:	01420174 	movhi	r5,2053
 8041d14:	294e0004 	addi	r5,r5,14336
 8041d18:	1809883a 	mov	r4,r3
 8041d1c:	8044b400 	call	8044b40 <sprintf>
	}
 8041d20:	0001883a 	nop
 8041d24:	e037883a 	mov	sp,fp
 8041d28:	dfc00117 	ldw	ra,4(sp)
 8041d2c:	df000017 	ldw	fp,0(sp)
 8041d30:	dec00204 	addi	sp,sp,8
 8041d34:	f800283a 	ret

08041d38 <check_win.3584>:
	int check_win(Game* game) {
 8041d38:	defffb04 	addi	sp,sp,-20
 8041d3c:	dfc00415 	stw	ra,16(sp)
 8041d40:	df000315 	stw	fp,12(sp)
 8041d44:	df000304 	addi	fp,sp,12
 8041d48:	e13ffe15 	stw	r4,-8(fp)
 8041d4c:	6007883a 	mov	r3,r12
 8041d50:	e33fff15 	stw	r12,-4(fp)
		int* scores = game->scores;
 8041d54:	e0bffe17 	ldw	r2,-8(fp)
 8041d58:	10800204 	addi	r2,r2,8
 8041d5c:	e0bffd15 	stw	r2,-12(fp)
		if(scores[0]>=MAX_SCORE || scores[1]>=MAX_SCORE){
 8041d60:	e0bffd17 	ldw	r2,-12(fp)
 8041d64:	10800017 	ldw	r2,0(r2)
 8041d68:	10801148 	cmpgei	r2,r2,69
 8041d6c:	1000051e 	bne	r2,zero,8041d84 <check_win.3584+0x4c>
 8041d70:	e0bffd17 	ldw	r2,-12(fp)
 8041d74:	10800104 	addi	r2,r2,4
 8041d78:	10800017 	ldw	r2,0(r2)
 8041d7c:	10801150 	cmplti	r2,r2,69
 8041d80:	1000051e 	bne	r2,zero,8041d98 <check_win.3584+0x60>
			reset_game(game);
 8041d84:	1819883a 	mov	r12,r3
 8041d88:	e13ffe17 	ldw	r4,-8(fp)
 8041d8c:	8041cbc0 	call	8041cbc <reset_game.3580>
			return 1;
 8041d90:	00800044 	movi	r2,1
 8041d94:	00000106 	br	8041d9c <check_win.3584+0x64>
		}
		return 0;
 8041d98:	0005883a 	mov	r2,zero

	}
 8041d9c:	e037883a 	mov	sp,fp
 8041da0:	dfc00117 	ldw	ra,4(sp)
 8041da4:	df000017 	ldw	fp,0(sp)
 8041da8:	dec00204 	addi	sp,sp,8
 8041dac:	f800283a 	ret

08041db0 <run_game_tick.3591>:
	void run_game_tick(alt_up_pixel_buffer_dma_dev * pixel_buf_dma_dev, alt_up_char_buffer_dev * char_buf_dev, int buffer, Game* game) {
 8041db0:	defff504 	addi	sp,sp,-44
 8041db4:	dfc00a15 	stw	ra,40(sp)
 8041db8:	df000915 	stw	fp,36(sp)
 8041dbc:	dc000815 	stw	r16,32(sp)
 8041dc0:	df000904 	addi	fp,sp,36
 8041dc4:	e13ffa15 	stw	r4,-24(fp)
 8041dc8:	e17ffb15 	stw	r5,-20(fp)
 8041dcc:	e1bffc15 	stw	r6,-16(fp)
 8041dd0:	e1fffd15 	stw	r7,-12(fp)
 8041dd4:	6021883a 	mov	r16,r12
 8041dd8:	e33ffe15 	stw	r12,-8(fp)
		// Check for winner
		if(check_win(game)) {
 8041ddc:	8019883a 	mov	r12,r16
 8041de0:	e13ffd17 	ldw	r4,-12(fp)
 8041de4:	8041d380 	call	8041d38 <check_win.3584>
 8041de8:	10000526 	beq	r2,zero,8041e00 <run_game_tick.3591+0x50>
			clear(pixel_buf_dma_dev, char_buf_dev,0);
 8041dec:	8019883a 	mov	r12,r16
 8041df0:	000d883a 	mov	r6,zero
 8041df4:	e17ffb17 	ldw	r5,-20(fp)
 8041df8:	e13ffa17 	ldw	r4,-24(fp)
 8041dfc:	8041a680 	call	8041a68 <clear.3557>
		}
		Rectangle* balls = (game -> balls);
 8041e00:	e0bffd17 	ldw	r2,-12(fp)
 8041e04:	10800604 	addi	r2,r2,24
 8041e08:	e0bff815 	stw	r2,-32(fp)
		Rectangle* paddles = (game -> paddles);
 8041e0c:	e0bffd17 	ldw	r2,-12(fp)
 8041e10:	10800d04 	addi	r2,r2,52
 8041e14:	e0bff915 	stw	r2,-28(fp)
		// Wait for screen refresh
		alt_up_pixel_buffer_dma_swap_buffers(pixel_buf_dma_dev);
 8041e18:	e13ffa17 	ldw	r4,-24(fp)
 8041e1c:	80522ac0 	call	80522ac <alt_up_pixel_buffer_dma_swap_buffers>
		while(alt_up_pixel_buffer_dma_check_swap_buffers_status(pixel_buf_dma_dev));
 8041e20:	0001883a 	nop
 8041e24:	e13ffa17 	ldw	r4,-24(fp)
 8041e28:	805230c0 	call	805230c <alt_up_pixel_buffer_dma_check_swap_buffers_status>
 8041e2c:	103ffd1e 	bne	r2,zero,8041e24 <__alt_data_end+0xfffd9d84>

		// User input
		get_user_input(game);
 8041e30:	8019883a 	mov	r12,r16
 8041e34:	e13ffd17 	ldw	r4,-12(fp)
 8041e38:	8041c280 	call	8041c28 <get_user_input.3571>
		// Cleanup - erase old objects
		draw(pixel_buf_dma_dev, BACKGROUND_COLOUR,buffer, balls, NUM_BALLS);
 8041e3c:	00800044 	movi	r2,1
 8041e40:	d8800015 	stw	r2,0(sp)
 8041e44:	8019883a 	mov	r12,r16
 8041e48:	e1fff817 	ldw	r7,-32(fp)
 8041e4c:	e1bffc17 	ldw	r6,-16(fp)
 8041e50:	000b883a 	mov	r5,zero
 8041e54:	e13ffa17 	ldw	r4,-24(fp)
 8041e58:	8041ab40 	call	8041ab4 <draw.3564>
		draw(pixel_buf_dma_dev, BACKGROUND_COLOUR, buffer, paddles, NUM_PADDLES);
 8041e5c:	00800084 	movi	r2,2
 8041e60:	d8800015 	stw	r2,0(sp)
 8041e64:	8019883a 	mov	r12,r16
 8041e68:	e1fff917 	ldw	r7,-28(fp)
 8041e6c:	e1bffc17 	ldw	r6,-16(fp)
 8041e70:	000b883a 	mov	r5,zero
 8041e74:	e13ffa17 	ldw	r4,-24(fp)
 8041e78:	8041ab40 	call	8041ab4 <draw.3564>
		// Game logic
		cheat_code(game); // Checks for cheat code input
 8041e7c:	8019883a 	mov	r12,r16
 8041e80:	e13ffd17 	ldw	r4,-12(fp)
 8041e84:	8040d840 	call	8040d84 <cheat_code.3520>
		update_ball(game);
 8041e88:	8019883a 	mov	r12,r16
 8041e8c:	e13ffd17 	ldw	r4,-12(fp)
 8041e90:	80412100 	call	8041210 <update_ball.3544>
		update_paddle(game);
 8041e94:	8019883a 	mov	r12,r16
 8041e98:	e13ffd17 	ldw	r4,-12(fp)
 8041e9c:	8040e4c0 	call	8040e4c <update_paddle.3525>
		// Render the screen
		draw(pixel_buf_dma_dev, BALL_COLOUR, buffer, balls, NUM_BALLS);
 8041ea0:	00800044 	movi	r2,1
 8041ea4:	d8800015 	stw	r2,0(sp)
 8041ea8:	8019883a 	mov	r12,r16
 8041eac:	e1fff817 	ldw	r7,-32(fp)
 8041eb0:	e1bffc17 	ldw	r6,-16(fp)
 8041eb4:	017fffd4 	movui	r5,65535
 8041eb8:	e13ffa17 	ldw	r4,-24(fp)
 8041ebc:	8041ab40 	call	8041ab4 <draw.3564>
		draw(pixel_buf_dma_dev, PADDLE_COLOUR, buffer, paddles, NUM_PADDLES);
 8041ec0:	00800084 	movi	r2,2
 8041ec4:	d8800015 	stw	r2,0(sp)
 8041ec8:	8019883a 	mov	r12,r16
 8041ecc:	e1fff917 	ldw	r7,-28(fp)
 8041ed0:	e1bffc17 	ldw	r6,-16(fp)
 8041ed4:	017fffd4 	movui	r5,65535
 8041ed8:	e13ffa17 	ldw	r4,-24(fp)
 8041edc:	8041ab40 	call	8041ab4 <draw.3564>
	}
 8041ee0:	0001883a 	nop
 8041ee4:	e6ffff04 	addi	sp,fp,-4
 8041ee8:	dfc00217 	ldw	ra,8(sp)
 8041eec:	df000117 	ldw	fp,4(sp)
 8041ef0:	dc000017 	ldw	r16,0(sp)
 8041ef4:	dec00304 	addi	sp,sp,12
 8041ef8:	f800283a 	ret

08041efc <music_on.3598>:
	void music_on(){
 8041efc:	defffe04 	addi	sp,sp,-8
 8041f00:	df000115 	stw	fp,4(sp)
 8041f04:	df000104 	addi	fp,sp,4
 8041f08:	e33fff15 	stw	r12,-4(fp)
			IOWR(SINE_WAVE_AUDIO_MODULE_0_BASE, 0, 0x1);
 8041f0c:	00c00044 	movi	r3,1
 8041f10:	00820234 	movhi	r2,2056
 8041f14:	108cb004 	addi	r2,r2,12992
 8041f18:	10c00035 	stwio	r3,0(r2)
		}
 8041f1c:	0001883a 	nop
 8041f20:	e037883a 	mov	sp,fp
 8041f24:	df000017 	ldw	fp,0(sp)
 8041f28:	dec00104 	addi	sp,sp,4
 8041f2c:	f800283a 	ret

08041f30 <music_off.3600>:
	void music_off(){
 8041f30:	defffe04 	addi	sp,sp,-8
 8041f34:	df000115 	stw	fp,4(sp)
 8041f38:	df000104 	addi	fp,sp,4
 8041f3c:	e33fff15 	stw	r12,-4(fp)
			IOWR(SINE_WAVE_AUDIO_MODULE_0_BASE, 0, 0x0);
 8041f40:	0007883a 	mov	r3,zero
 8041f44:	00820234 	movhi	r2,2056
 8041f48:	108cb004 	addi	r2,r2,12992
 8041f4c:	10c00035 	stwio	r3,0(r2)
		}
 8041f50:	0001883a 	nop
 8041f54:	e037883a 	mov	sp,fp
 8041f58:	df000017 	ldw	fp,0(sp)
 8041f5c:	dec00104 	addi	sp,sp,4
 8041f60:	f800283a 	ret

08041f64 <pause_menu.3603>:

	void pause_menu(alt_up_char_buffer_dev * char_buf_dev) {
 8041f64:	defffb04 	addi	sp,sp,-20
 8041f68:	dfc00415 	stw	ra,16(sp)
 8041f6c:	df000315 	stw	fp,12(sp)
 8041f70:	dc000215 	stw	r16,8(sp)
 8041f74:	df000304 	addi	fp,sp,12
 8041f78:	e13ffd15 	stw	r4,-12(fp)
 8041f7c:	6021883a 	mov	r16,r12
 8041f80:	e33ffe15 	stw	r12,-8(fp)
		alt_up_char_buffer_string(char_buf_dev, "Pain Pong", 37, 8);
 8041f84:	01c00204 	movi	r7,8
 8041f88:	01800944 	movi	r6,37
 8041f8c:	01420174 	movhi	r5,2053
 8041f90:	294e7904 	addi	r5,r5,14820
 8041f94:	e13ffd17 	ldw	r4,-12(fp)
 8041f98:	8051f140 	call	8051f14 <alt_up_char_buffer_string>
		//Play music
		music_on();
 8041f9c:	8019883a 	mov	r12,r16
 8041fa0:	8041efc0 	call	8041efc <music_on.3598>

	}
 8041fa4:	0001883a 	nop
 8041fa8:	e6ffff04 	addi	sp,fp,-4
 8041fac:	dfc00217 	ldw	ra,8(sp)
 8041fb0:	df000117 	ldw	fp,4(sp)
 8041fb4:	dc000017 	ldw	r16,0(sp)
 8041fb8:	dec00304 	addi	sp,sp,12
 8041fbc:	f800283a 	ret

08041fc0 <clear_pause_menu.3606>:
	void clear_pause_menu(alt_up_char_buffer_dev * char_buf_dev) {
 8041fc0:	defffb04 	addi	sp,sp,-20
 8041fc4:	dfc00415 	stw	ra,16(sp)
 8041fc8:	df000315 	stw	fp,12(sp)
 8041fcc:	dc000215 	stw	r16,8(sp)
 8041fd0:	df000304 	addi	fp,sp,12
 8041fd4:	e13ffd15 	stw	r4,-12(fp)
 8041fd8:	6021883a 	mov	r16,r12
 8041fdc:	e33ffe15 	stw	r12,-8(fp)
		alt_up_char_buffer_string(char_buf_dev, "         ", 37, 8);
 8041fe0:	01c00204 	movi	r7,8
 8041fe4:	01800944 	movi	r6,37
 8041fe8:	01420174 	movhi	r5,2053
 8041fec:	294e7c04 	addi	r5,r5,14832
 8041ff0:	e13ffd17 	ldw	r4,-12(fp)
 8041ff4:	8051f140 	call	8051f14 <alt_up_char_buffer_string>
		//Stop Music
		music_off();
 8041ff8:	8019883a 	mov	r12,r16
 8041ffc:	8041f300 	call	8041f30 <music_off.3600>

	}
 8042000:	0001883a 	nop
 8042004:	e6ffff04 	addi	sp,fp,-4
 8042008:	dfc00217 	ldw	ra,8(sp)
 804200c:	df000117 	ldw	fp,4(sp)
 8042010:	dc000017 	ldw	r16,0(sp)
 8042014:	dec00304 	addi	sp,sp,12
 8042018:	f800283a 	ret

0804201c <generate_fruit.3609>:

	// Snake game functions ---
	void generate_fruit(SnakeGame* game) {
 804201c:	defffc04 	addi	sp,sp,-16
 8042020:	dfc00315 	stw	ra,12(sp)
 8042024:	df000215 	stw	fp,8(sp)
 8042028:	df000204 	addi	fp,sp,8
 804202c:	e13ffe15 	stw	r4,-8(fp)
 8042030:	e33fff15 	stw	r12,-4(fp)
		// Generate random coordinates for the fruit
		game->fruit.x = ( rand() % (SCREEN_WIDTH / SNAKE_PIXEL_SIZE) ) * SNAKE_PIXEL_SIZE;
 8042034:	8044a840 	call	8044a84 <rand>
 8042038:	1007883a 	mov	r3,r2
 804203c:	00a00034 	movhi	r2,32768
 8042040:	10800fc4 	addi	r2,r2,63
 8042044:	1884703a 	and	r2,r3,r2
 8042048:	1000040e 	bge	r2,zero,804205c <generate_fruit.3609+0x40>
 804204c:	10bfffc4 	addi	r2,r2,-1
 8042050:	00fff004 	movi	r3,-64
 8042054:	10c4b03a 	or	r2,r2,r3
 8042058:	10800044 	addi	r2,r2,1
 804205c:	01400144 	movi	r5,5
 8042060:	1009883a 	mov	r4,r2
 8042064:	8042cd80 	call	8042cd8 <__mulsi3>
 8042068:	1007883a 	mov	r3,r2
 804206c:	e0bffe17 	ldw	r2,-8(fp)
 8042070:	10c2bd15 	stw	r3,2804(r2)
		game->fruit.y = ( rand() % (SCREEN_HEIGHT / SNAKE_PIXEL_SIZE) ) * SNAKE_PIXEL_SIZE;
 8042074:	8044a840 	call	8044a84 <rand>
 8042078:	01400c04 	movi	r5,48
 804207c:	1009883a 	mov	r4,r2
 8042080:	8042ba80 	call	8042ba8 <__modsi3>
 8042084:	01400144 	movi	r5,5
 8042088:	1009883a 	mov	r4,r2
 804208c:	8042cd80 	call	8042cd8 <__mulsi3>
 8042090:	1007883a 	mov	r3,r2
 8042094:	e0bffe17 	ldw	r2,-8(fp)
 8042098:	10c2be15 	stw	r3,2808(r2)
		if(game->fruit.x==0) {
 804209c:	e0bffe17 	ldw	r2,-8(fp)
 80420a0:	1082bd17 	ldw	r2,2804(r2)
 80420a4:	1000051e 	bne	r2,zero,80420bc <generate_fruit.3609+0xa0>
			game->fruit.x += 1;
 80420a8:	e0bffe17 	ldw	r2,-8(fp)
 80420ac:	1082bd17 	ldw	r2,2804(r2)
 80420b0:	10c00044 	addi	r3,r2,1
 80420b4:	e0bffe17 	ldw	r2,-8(fp)
 80420b8:	10c2bd15 	stw	r3,2804(r2)
		}
		if(game->fruit.y==0) {
 80420bc:	e0bffe17 	ldw	r2,-8(fp)
 80420c0:	1082be17 	ldw	r2,2808(r2)
 80420c4:	1000051e 	bne	r2,zero,80420dc <generate_fruit.3609+0xc0>
			game->fruit.y += 1;
 80420c8:	e0bffe17 	ldw	r2,-8(fp)
 80420cc:	1082be17 	ldw	r2,2808(r2)
 80420d0:	10c00044 	addi	r3,r2,1
 80420d4:	e0bffe17 	ldw	r2,-8(fp)
 80420d8:	10c2be15 	stw	r3,2808(r2)
		}
	}
 80420dc:	0001883a 	nop
 80420e0:	e037883a 	mov	sp,fp
 80420e4:	dfc00117 	ldw	ra,4(sp)
 80420e8:	df000017 	ldw	fp,0(sp)
 80420ec:	dec00204 	addi	sp,sp,8
 80420f0:	f800283a 	ret

080420f4 <check_opposite_direction.3613>:
	int check_opposite_direction(int previous_direction, int current_direction) {
 80420f4:	defffc04 	addi	sp,sp,-16
 80420f8:	df000315 	stw	fp,12(sp)
 80420fc:	df000304 	addi	fp,sp,12
 8042100:	e13ffd15 	stw	r4,-12(fp)
 8042104:	e17ffe15 	stw	r5,-8(fp)
 8042108:	e33fff15 	stw	r12,-4(fp)
		// If previous direction is in the opposite direction (an illegal move)
		// of the current direction, return 1. Otherwise, return 0.
		if(
 804210c:	e0bffd17 	ldw	r2,-12(fp)
 8042110:	1000031e 	bne	r2,zero,8042120 <check_opposite_direction.3613+0x2c>
			(previous_direction==JOYSTICK_LEFT && current_direction == JOYSTICK_RIGHT)
 8042114:	e0bffe17 	ldw	r2,-8(fp)
 8042118:	10800060 	cmpeqi	r2,r2,1
 804211c:	1000111e 	bne	r2,zero,8042164 <check_opposite_direction.3613+0x70>
			|| (previous_direction==JOYSTICK_RIGHT && current_direction == JOYSTICK_LEFT)
 8042120:	e0bffd17 	ldw	r2,-12(fp)
 8042124:	10800058 	cmpnei	r2,r2,1
 8042128:	1000021e 	bne	r2,zero,8042134 <check_opposite_direction.3613+0x40>
 804212c:	e0bffe17 	ldw	r2,-8(fp)
 8042130:	10000c26 	beq	r2,zero,8042164 <check_opposite_direction.3613+0x70>
			|| (previous_direction==JOYSTICK_UP && current_direction == JOYSTICK_DOWN)
 8042134:	e0bffd17 	ldw	r2,-12(fp)
 8042138:	10800098 	cmpnei	r2,r2,2
 804213c:	1000031e 	bne	r2,zero,804214c <check_opposite_direction.3613+0x58>
 8042140:	e0bffe17 	ldw	r2,-8(fp)
 8042144:	108000e0 	cmpeqi	r2,r2,3
 8042148:	1000061e 	bne	r2,zero,8042164 <check_opposite_direction.3613+0x70>
			|| (previous_direction==JOYSTICK_DOWN && current_direction == JOYSTICK_UP)
 804214c:	e0bffd17 	ldw	r2,-12(fp)
 8042150:	108000d8 	cmpnei	r2,r2,3
 8042154:	1000051e 	bne	r2,zero,804216c <check_opposite_direction.3613+0x78>
 8042158:	e0bffe17 	ldw	r2,-8(fp)
 804215c:	10800098 	cmpnei	r2,r2,2
 8042160:	1000021e 	bne	r2,zero,804216c <check_opposite_direction.3613+0x78>
		) {
			return 1;
 8042164:	00800044 	movi	r2,1
 8042168:	00000106 	br	8042170 <check_opposite_direction.3613+0x7c>
		}
		return 0;
 804216c:	0005883a 	mov	r2,zero
	}
 8042170:	e037883a 	mov	sp,fp
 8042174:	df000017 	ldw	fp,0(sp)
 8042178:	dec00104 	addi	sp,sp,4
 804217c:	f800283a 	ret

08042180 <check_fruit_eaten.3616>:
	int check_fruit_eaten(SnakeGame* game) {
 8042180:	defffc04 	addi	sp,sp,-16
 8042184:	df000315 	stw	fp,12(sp)
 8042188:	df000304 	addi	fp,sp,12
 804218c:	e13ffe15 	stw	r4,-8(fp)
 8042190:	e33fff15 	stw	r12,-4(fp)
		Rectangle* snake = game->snake;
 8042194:	e0bffe17 	ldw	r2,-8(fp)
 8042198:	e0bffd15 	stw	r2,-12(fp)
		if(snake[0].x==game->fruit.x && snake[0].y==game->fruit.y) {
 804219c:	e0bffd17 	ldw	r2,-12(fp)
 80421a0:	10c00017 	ldw	r3,0(r2)
 80421a4:	e0bffe17 	ldw	r2,-8(fp)
 80421a8:	1082bd17 	ldw	r2,2804(r2)
 80421ac:	1880071e 	bne	r3,r2,80421cc <check_fruit_eaten.3616+0x4c>
 80421b0:	e0bffd17 	ldw	r2,-12(fp)
 80421b4:	10c00117 	ldw	r3,4(r2)
 80421b8:	e0bffe17 	ldw	r2,-8(fp)
 80421bc:	1082be17 	ldw	r2,2808(r2)
 80421c0:	1880021e 	bne	r3,r2,80421cc <check_fruit_eaten.3616+0x4c>
			return 1;
 80421c4:	00800044 	movi	r2,1
 80421c8:	00000106 	br	80421d0 <check_fruit_eaten.3616+0x50>
		}
		return 0;
 80421cc:	0005883a 	mov	r2,zero
	}
 80421d0:	e037883a 	mov	sp,fp
 80421d4:	df000017 	ldw	fp,0(sp)
 80421d8:	dec00104 	addi	sp,sp,4
 80421dc:	f800283a 	ret

080421e0 <update_snake.3620>:
	void update_snake(SnakeGame* game) {
 80421e0:	deffeb04 	addi	sp,sp,-84
 80421e4:	dfc01415 	stw	ra,80(sp)
 80421e8:	df001315 	stw	fp,76(sp)
 80421ec:	dc401215 	stw	r17,72(sp)
 80421f0:	dc001115 	stw	r16,68(sp)
 80421f4:	df001304 	addi	fp,sp,76
 80421f8:	e13ffc15 	stw	r4,-16(fp)
 80421fc:	6023883a 	mov	r17,r12
 8042200:	e33ffd15 	stw	r12,-12(fp)
		// Update joystick input values
		alt_u32 adc_val_horz = game->adc_val_horz;
 8042204:	e0bffc17 	ldw	r2,-16(fp)
 8042208:	1082c517 	ldw	r2,2836(r2)
 804220c:	e0bfee15 	stw	r2,-72(fp)
		alt_u32 adc_val_vert = game-> adc_val_vert;
 8042210:	e0bffc17 	ldw	r2,-16(fp)
 8042214:	1082c617 	ldw	r2,2840(r2)
 8042218:	e0bfef15 	stw	r2,-68(fp)

		game->previous_joystick_direction = game->current_joystick_direction;
 804221c:	e0bffc17 	ldw	r2,-16(fp)
 8042220:	10c2cf17 	ldw	r3,2876(r2)
 8042224:	e0bffc17 	ldw	r2,-16(fp)
 8042228:	10c2d015 	stw	r3,2880(r2)
		if(adc_val_horz > 2500) { // Left joystick input
 804222c:	e0bfee17 	ldw	r2,-72(fp)
 8042230:	10827170 	cmpltui	r2,r2,2501
 8042234:	1000021e 	bne	r2,zero,8042240 <update_snake.3620+0x60>
			game-> current_joystick_direction = JOYSTICK_LEFT;
 8042238:	e0bffc17 	ldw	r2,-16(fp)
 804223c:	1002cf15 	stw	zero,2876(r2)
		}
		if(adc_val_horz < 1500) { // Right
 8042240:	e0bfee17 	ldw	r2,-72(fp)
 8042244:	10817728 	cmpgeui	r2,r2,1500
 8042248:	1000031e 	bne	r2,zero,8042258 <update_snake.3620+0x78>
			game-> current_joystick_direction = JOYSTICK_RIGHT;
 804224c:	e0bffc17 	ldw	r2,-16(fp)
 8042250:	00c00044 	movi	r3,1
 8042254:	10c2cf15 	stw	r3,2876(r2)
		}
		if(adc_val_vert > 2500) { // Up
 8042258:	e0bfef17 	ldw	r2,-68(fp)
 804225c:	10827170 	cmpltui	r2,r2,2501
 8042260:	1000031e 	bne	r2,zero,8042270 <update_snake.3620+0x90>
			game-> current_joystick_direction=JOYSTICK_UP;
 8042264:	e0bffc17 	ldw	r2,-16(fp)
 8042268:	00c00084 	movi	r3,2
 804226c:	10c2cf15 	stw	r3,2876(r2)
		}
		if(adc_val_vert < 1500) { // Down
 8042270:	e0bfef17 	ldw	r2,-68(fp)
 8042274:	10817728 	cmpgeui	r2,r2,1500
 8042278:	1000031e 	bne	r2,zero,8042288 <update_snake.3620+0xa8>
			game-> current_joystick_direction=JOYSTICK_DOWN;
 804227c:	e0bffc17 	ldw	r2,-16(fp)
 8042280:	00c000c4 	movi	r3,3
 8042284:	10c2cf15 	stw	r3,2876(r2)
		}
		// If user tries to turn snake 180 degrees, override with the most recent direction input
		if(check_opposite_direction(game->previous_joystick_direction, game->current_joystick_direction)) {
 8042288:	e0bffc17 	ldw	r2,-16(fp)
 804228c:	10c2d017 	ldw	r3,2880(r2)
 8042290:	e0bffc17 	ldw	r2,-16(fp)
 8042294:	1082cf17 	ldw	r2,2876(r2)
 8042298:	8819883a 	mov	r12,r17
 804229c:	100b883a 	mov	r5,r2
 80422a0:	1809883a 	mov	r4,r3
 80422a4:	80420f40 	call	80420f4 <check_opposite_direction.3613>
 80422a8:	10000426 	beq	r2,zero,80422bc <update_snake.3620+0xdc>
			game-> current_joystick_direction=game->previous_joystick_direction;
 80422ac:	e0bffc17 	ldw	r2,-16(fp)
 80422b0:	10c2d017 	ldw	r3,2880(r2)
 80422b4:	e0bffc17 	ldw	r2,-16(fp)
 80422b8:	10c2cf15 	stw	r3,2876(r2)
		}
		// Update speed of head based off of user input
		Rectangle* snake = game->snake;
 80422bc:	e0bffc17 	ldw	r2,-16(fp)
 80422c0:	e0bff015 	stw	r2,-64(fp)
		switch(game->current_joystick_direction) {
 80422c4:	e0bffc17 	ldw	r2,-16(fp)
 80422c8:	1082cf17 	ldw	r2,2876(r2)
 80422cc:	10c00060 	cmpeqi	r3,r2,1
 80422d0:	18000f1e 	bne	r3,zero,8042310 <update_snake.3620+0x130>
 80422d4:	10c00088 	cmpgei	r3,r2,2
 80422d8:	1800021e 	bne	r3,zero,80422e4 <update_snake.3620+0x104>
 80422dc:	10000626 	beq	r2,zero,80422f8 <update_snake.3620+0x118>
 80422e0:	00001d06 	br	8042358 <update_snake.3620+0x178>
 80422e4:	10c000a0 	cmpeqi	r3,r2,2
 80422e8:	18000f1e 	bne	r3,zero,8042328 <update_snake.3620+0x148>
 80422ec:	108000e0 	cmpeqi	r2,r2,3
 80422f0:	1000131e 	bne	r2,zero,8042340 <update_snake.3620+0x160>
 80422f4:	00001806 	br	8042358 <update_snake.3620+0x178>
			case(JOYSTICK_LEFT): {
				snake[0].xspeed = -1 * SNAKE_PIXEL_SIZE;
 80422f8:	e0bff017 	ldw	r2,-64(fp)
 80422fc:	00fffec4 	movi	r3,-5
 8042300:	10c00215 	stw	r3,8(r2)
				snake[0].yspeed = 0;
 8042304:	e0bff017 	ldw	r2,-64(fp)
 8042308:	10000315 	stw	zero,12(r2)
				break;
 804230c:	00001806 	br	8042370 <update_snake.3620+0x190>
			}
			case(JOYSTICK_RIGHT): {
				snake[0].xspeed = 1 * SNAKE_PIXEL_SIZE;
 8042310:	e0bff017 	ldw	r2,-64(fp)
 8042314:	00c00144 	movi	r3,5
 8042318:	10c00215 	stw	r3,8(r2)
				snake[0].yspeed = 0;
 804231c:	e0bff017 	ldw	r2,-64(fp)
 8042320:	10000315 	stw	zero,12(r2)
				break;
 8042324:	00001206 	br	8042370 <update_snake.3620+0x190>
			}
			case(JOYSTICK_UP): {
				snake[0].xspeed = 0;
 8042328:	e0bff017 	ldw	r2,-64(fp)
 804232c:	10000215 	stw	zero,8(r2)
				snake[0].yspeed = -1 * SNAKE_PIXEL_SIZE;
 8042330:	e0bff017 	ldw	r2,-64(fp)
 8042334:	00fffec4 	movi	r3,-5
 8042338:	10c00315 	stw	r3,12(r2)
				break;
 804233c:	00000c06 	br	8042370 <update_snake.3620+0x190>
			}
			case(JOYSTICK_DOWN): {
				snake[0].xspeed = 0;
 8042340:	e0bff017 	ldw	r2,-64(fp)
 8042344:	10000215 	stw	zero,8(r2)
				snake[0].yspeed = 1 * SNAKE_PIXEL_SIZE;
 8042348:	e0bff017 	ldw	r2,-64(fp)
 804234c:	00c00144 	movi	r3,5
 8042350:	10c00315 	stw	r3,12(r2)
				break;
 8042354:	00000606 	br	8042370 <update_snake.3620+0x190>
			}
			default: { // Default to JOYSTICK_RIGHT
				snake[0].xspeed = 1 * SNAKE_PIXEL_SIZE;
 8042358:	e0bff017 	ldw	r2,-64(fp)
 804235c:	00c00144 	movi	r3,5
 8042360:	10c00215 	stw	r3,8(r2)
				snake[0].yspeed = 0;
 8042364:	e0bff017 	ldw	r2,-64(fp)
 8042368:	10000315 	stw	zero,12(r2)
				break;
 804236c:	0001883a 	nop
			}
		}
		// Update position of head and body segments
		int snake_size = game->snake_size;
 8042370:	e0bffc17 	ldw	r2,-16(fp)
 8042374:	1082bc17 	ldw	r2,2800(r2)
 8042378:	e0bff115 	stw	r2,-60(fp)
		int old_tail_x = snake[snake_size-1].x;
 804237c:	e0bff117 	ldw	r2,-60(fp)
 8042380:	01400704 	movi	r5,28
 8042384:	1009883a 	mov	r4,r2
 8042388:	8042cd80 	call	8042cd8 <__mulsi3>
 804238c:	10bff904 	addi	r2,r2,-28
 8042390:	e0fff017 	ldw	r3,-64(fp)
 8042394:	1885883a 	add	r2,r3,r2
 8042398:	10800017 	ldw	r2,0(r2)
 804239c:	e0bff215 	stw	r2,-56(fp)
		int old_tail_y = snake[snake_size-1].y;
 80423a0:	e0bff117 	ldw	r2,-60(fp)
 80423a4:	01400704 	movi	r5,28
 80423a8:	1009883a 	mov	r4,r2
 80423ac:	8042cd80 	call	8042cd8 <__mulsi3>
 80423b0:	10bff904 	addi	r2,r2,-28
 80423b4:	e0fff017 	ldw	r3,-64(fp)
 80423b8:	1885883a 	add	r2,r3,r2
 80423bc:	10800117 	ldw	r2,4(r2)
 80423c0:	e0bff315 	stw	r2,-52(fp)
		int score = game-> score;
 80423c4:	e0bffc17 	ldw	r2,-16(fp)
 80423c8:	1082c417 	ldw	r2,2832(r2)
 80423cc:	e0bff415 	stw	r2,-48(fp)
		// Shift the position of every body segment "up by one"
		for(int i = snake_size-1; i>0; i--) {
 80423d0:	e0bff117 	ldw	r2,-60(fp)
 80423d4:	10bfffc4 	addi	r2,r2,-1
 80423d8:	e0bfed15 	stw	r2,-76(fp)
 80423dc:	00002306 	br	804246c <update_snake.3620+0x28c>
			snake[i].x = snake[i-1].x;
 80423e0:	e0bfed17 	ldw	r2,-76(fp)
 80423e4:	01400704 	movi	r5,28
 80423e8:	1009883a 	mov	r4,r2
 80423ec:	8042cd80 	call	8042cd8 <__mulsi3>
 80423f0:	1007883a 	mov	r3,r2
 80423f4:	e0bff017 	ldw	r2,-64(fp)
 80423f8:	10e1883a 	add	r16,r2,r3
 80423fc:	e0bfed17 	ldw	r2,-76(fp)
 8042400:	01400704 	movi	r5,28
 8042404:	1009883a 	mov	r4,r2
 8042408:	8042cd80 	call	8042cd8 <__mulsi3>
 804240c:	10bff904 	addi	r2,r2,-28
 8042410:	e0fff017 	ldw	r3,-64(fp)
 8042414:	1885883a 	add	r2,r3,r2
 8042418:	10800017 	ldw	r2,0(r2)
 804241c:	80800015 	stw	r2,0(r16)
			snake[i].y = snake[i-1].y;
 8042420:	e0bfed17 	ldw	r2,-76(fp)
 8042424:	01400704 	movi	r5,28
 8042428:	1009883a 	mov	r4,r2
 804242c:	8042cd80 	call	8042cd8 <__mulsi3>
 8042430:	1007883a 	mov	r3,r2
 8042434:	e0bff017 	ldw	r2,-64(fp)
 8042438:	10e1883a 	add	r16,r2,r3
 804243c:	e0bfed17 	ldw	r2,-76(fp)
 8042440:	01400704 	movi	r5,28
 8042444:	1009883a 	mov	r4,r2
 8042448:	8042cd80 	call	8042cd8 <__mulsi3>
 804244c:	10bff904 	addi	r2,r2,-28
 8042450:	e0fff017 	ldw	r3,-64(fp)
 8042454:	1885883a 	add	r2,r3,r2
 8042458:	10800117 	ldw	r2,4(r2)
 804245c:	80800115 	stw	r2,4(r16)
		int snake_size = game->snake_size;
		int old_tail_x = snake[snake_size-1].x;
		int old_tail_y = snake[snake_size-1].y;
		int score = game-> score;
		// Shift the position of every body segment "up by one"
		for(int i = snake_size-1; i>0; i--) {
 8042460:	e0bfed17 	ldw	r2,-76(fp)
 8042464:	10bfffc4 	addi	r2,r2,-1
 8042468:	e0bfed15 	stw	r2,-76(fp)
 804246c:	e0bfed17 	ldw	r2,-76(fp)
 8042470:	00bfdb16 	blt	zero,r2,80423e0 <__alt_data_end+0xfffda340>
			snake[i].x = snake[i-1].x;
			snake[i].y = snake[i-1].y;
		}
		snake[0].x += snake[0].xspeed;
 8042474:	e0bff017 	ldw	r2,-64(fp)
 8042478:	10c00017 	ldw	r3,0(r2)
 804247c:	e0bff017 	ldw	r2,-64(fp)
 8042480:	10800217 	ldw	r2,8(r2)
 8042484:	1887883a 	add	r3,r3,r2
 8042488:	e0bff017 	ldw	r2,-64(fp)
 804248c:	10c00015 	stw	r3,0(r2)
		snake[0].y += snake[0].yspeed;
 8042490:	e0bff017 	ldw	r2,-64(fp)
 8042494:	10c00117 	ldw	r3,4(r2)
 8042498:	e0bff017 	ldw	r2,-64(fp)
 804249c:	10800317 	ldw	r2,12(r2)
 80424a0:	1887883a 	add	r3,r3,r2
 80424a4:	e0bff017 	ldw	r2,-64(fp)
 80424a8:	10c00115 	stw	r3,4(r2)
		// If fruit eaten, add a body segment at the last segment's previous position
		if(check_fruit_eaten(game)) {
 80424ac:	8819883a 	mov	r12,r17
 80424b0:	e13ffc17 	ldw	r4,-16(fp)
 80424b4:	80421800 	call	8042180 <check_fruit_eaten.3616>
 80424b8:	10002e26 	beq	r2,zero,8042574 <update_snake.3620+0x394>
			(game->snake_size)++;
 80424bc:	e0bffc17 	ldw	r2,-16(fp)
 80424c0:	1082bc17 	ldw	r2,2800(r2)
 80424c4:	10c00044 	addi	r3,r2,1
 80424c8:	e0bffc17 	ldw	r2,-16(fp)
 80424cc:	10c2bc15 	stw	r3,2800(r2)
			(game->score)++;
 80424d0:	e0bffc17 	ldw	r2,-16(fp)
 80424d4:	1082c417 	ldw	r2,2832(r2)
 80424d8:	10c00044 	addi	r3,r2,1
 80424dc:	e0bffc17 	ldw	r2,-16(fp)
 80424e0:	10c2c415 	stw	r3,2832(r2)
			Rectangle new_tail = {old_tail_x, old_tail_y, 0, 0, SNAKE_PIXEL_SIZE, SNAKE_PIXEL_SIZE, SNAKE_COLOUR};
 80424e4:	e0bff217 	ldw	r2,-56(fp)
 80424e8:	e0bff515 	stw	r2,-44(fp)
 80424ec:	e0bff317 	ldw	r2,-52(fp)
 80424f0:	e0bff615 	stw	r2,-40(fp)
 80424f4:	e03ff715 	stw	zero,-36(fp)
 80424f8:	e03ff815 	stw	zero,-32(fp)
 80424fc:	00800144 	movi	r2,5
 8042500:	e0bff915 	stw	r2,-28(fp)
 8042504:	00800144 	movi	r2,5
 8042508:	e0bffa15 	stw	r2,-24(fp)
 804250c:	0083fc04 	movi	r2,4080
 8042510:	e0bffb15 	stw	r2,-20(fp)
			snake[snake_size-1] = new_tail;
 8042514:	e0bff117 	ldw	r2,-60(fp)
 8042518:	01400704 	movi	r5,28
 804251c:	1009883a 	mov	r4,r2
 8042520:	8042cd80 	call	8042cd8 <__mulsi3>
 8042524:	10bff904 	addi	r2,r2,-28
 8042528:	e0fff017 	ldw	r3,-64(fp)
 804252c:	1885883a 	add	r2,r3,r2
 8042530:	e0fff517 	ldw	r3,-44(fp)
 8042534:	10c00015 	stw	r3,0(r2)
 8042538:	e0fff617 	ldw	r3,-40(fp)
 804253c:	10c00115 	stw	r3,4(r2)
 8042540:	e0fff717 	ldw	r3,-36(fp)
 8042544:	10c00215 	stw	r3,8(r2)
 8042548:	e0fff817 	ldw	r3,-32(fp)
 804254c:	10c00315 	stw	r3,12(r2)
 8042550:	e0fff917 	ldw	r3,-28(fp)
 8042554:	10c00415 	stw	r3,16(r2)
 8042558:	e0fffa17 	ldw	r3,-24(fp)
 804255c:	10c00515 	stw	r3,20(r2)
 8042560:	e0fffb17 	ldw	r3,-20(fp)
 8042564:	10c00615 	stw	r3,24(r2)
			// Move fruit to new location
			generate_fruit(game);
 8042568:	8819883a 	mov	r12,r17
 804256c:	e13ffc17 	ldw	r4,-16(fp)
 8042570:	804201c0 	call	804201c <generate_fruit.3609>
		}
	}
 8042574:	0001883a 	nop
 8042578:	e6fffe04 	addi	sp,fp,-8
 804257c:	dfc00317 	ldw	ra,12(sp)
 8042580:	df000217 	ldw	fp,8(sp)
 8042584:	dc400117 	ldw	r17,4(sp)
 8042588:	dc000017 	ldw	r16,0(sp)
 804258c:	dec00404 	addi	sp,sp,16
 8042590:	f800283a 	ret

08042594 <check_snake_collision.3641>:
	int check_snake_collision(SnakeGame* game) {
 8042594:	defff804 	addi	sp,sp,-32
 8042598:	dfc00715 	stw	ra,28(sp)
 804259c:	df000615 	stw	fp,24(sp)
 80425a0:	dc000515 	stw	r16,20(sp)
 80425a4:	df000604 	addi	fp,sp,24
 80425a8:	e13ffd15 	stw	r4,-12(fp)
 80425ac:	e33ffe15 	stw	r12,-8(fp)
		Rectangle* snake = game->snake;
 80425b0:	e0bffd17 	ldw	r2,-12(fp)
 80425b4:	e0bffb15 	stw	r2,-20(fp)
		int snake_size = game->snake_size;
 80425b8:	e0bffd17 	ldw	r2,-12(fp)
 80425bc:	1082bc17 	ldw	r2,2800(r2)
 80425c0:	e0bffc15 	stw	r2,-16(fp)
		for(int i = 1; i<snake_size; i++) {
 80425c4:	00800044 	movi	r2,1
 80425c8:	e0bffa15 	stw	r2,-24(fp)
 80425cc:	00001b06 	br	804263c <check_snake_collision.3641+0xa8>
			// Snake head collides with one of its body segments
			if(snake[0].x==snake[i].x && snake[0].y==snake[i].y) {
 80425d0:	e0bffb17 	ldw	r2,-20(fp)
 80425d4:	14000017 	ldw	r16,0(r2)
 80425d8:	e0bffa17 	ldw	r2,-24(fp)
 80425dc:	01400704 	movi	r5,28
 80425e0:	1009883a 	mov	r4,r2
 80425e4:	8042cd80 	call	8042cd8 <__mulsi3>
 80425e8:	1007883a 	mov	r3,r2
 80425ec:	e0bffb17 	ldw	r2,-20(fp)
 80425f0:	10c5883a 	add	r2,r2,r3
 80425f4:	10800017 	ldw	r2,0(r2)
 80425f8:	80800d1e 	bne	r16,r2,8042630 <check_snake_collision.3641+0x9c>
 80425fc:	e0bffb17 	ldw	r2,-20(fp)
 8042600:	14000117 	ldw	r16,4(r2)
 8042604:	e0bffa17 	ldw	r2,-24(fp)
 8042608:	01400704 	movi	r5,28
 804260c:	1009883a 	mov	r4,r2
 8042610:	8042cd80 	call	8042cd8 <__mulsi3>
 8042614:	1007883a 	mov	r3,r2
 8042618:	e0bffb17 	ldw	r2,-20(fp)
 804261c:	10c5883a 	add	r2,r2,r3
 8042620:	10800117 	ldw	r2,4(r2)
 8042624:	8080021e 	bne	r16,r2,8042630 <check_snake_collision.3641+0x9c>
				return 1;
 8042628:	00800044 	movi	r2,1
 804262c:	00001706 	br	804268c <check_snake_collision.3641+0xf8>
		}
	}
	int check_snake_collision(SnakeGame* game) {
		Rectangle* snake = game->snake;
		int snake_size = game->snake_size;
		for(int i = 1; i<snake_size; i++) {
 8042630:	e0bffa17 	ldw	r2,-24(fp)
 8042634:	10800044 	addi	r2,r2,1
 8042638:	e0bffa15 	stw	r2,-24(fp)
 804263c:	e0fffa17 	ldw	r3,-24(fp)
 8042640:	e0bffc17 	ldw	r2,-16(fp)
 8042644:	18bfe216 	blt	r3,r2,80425d0 <__alt_data_end+0xfffda530>
				return 1;
				game->game_over_flag = 1;
			}
		}
		// Snake head collides with edge of screen
		if(snake[0].x<=0 || snake[0].x>=SCREEN_WIDTH || snake[0].y<=0 || snake[0].y>=SCREEN_HEIGHT) {
 8042648:	e0bffb17 	ldw	r2,-20(fp)
 804264c:	10800017 	ldw	r2,0(r2)
 8042650:	00800b0e 	bge	zero,r2,8042680 <check_snake_collision.3641+0xec>
 8042654:	e0bffb17 	ldw	r2,-20(fp)
 8042658:	10800017 	ldw	r2,0(r2)
 804265c:	10805008 	cmpgei	r2,r2,320
 8042660:	1000071e 	bne	r2,zero,8042680 <check_snake_collision.3641+0xec>
 8042664:	e0bffb17 	ldw	r2,-20(fp)
 8042668:	10800117 	ldw	r2,4(r2)
 804266c:	0080040e 	bge	zero,r2,8042680 <check_snake_collision.3641+0xec>
 8042670:	e0bffb17 	ldw	r2,-20(fp)
 8042674:	10800117 	ldw	r2,4(r2)
 8042678:	10803c10 	cmplti	r2,r2,240
 804267c:	1000021e 	bne	r2,zero,8042688 <check_snake_collision.3641+0xf4>
			return 1;
 8042680:	00800044 	movi	r2,1
 8042684:	00000106 	br	804268c <check_snake_collision.3641+0xf8>
			game->game_over_flag = 1;
		}
		return 0;
 8042688:	0005883a 	mov	r2,zero
	}
 804268c:	e6ffff04 	addi	sp,fp,-4
 8042690:	dfc00217 	ldw	ra,8(sp)
 8042694:	df000117 	ldw	fp,4(sp)
 8042698:	dc000017 	ldw	r16,0(sp)
 804269c:	dec00304 	addi	sp,sp,12
 80426a0:	f800283a 	ret

080426a4 <reset_game_snake.3652>:
	void reset_game_snake(SnakeGame* game, alt_up_pixel_buffer_dma_dev * pixel_buf_dma_dev, alt_up_char_buffer_dev * char_buf_dev) {
 80426a4:	defff804 	addi	sp,sp,-32
 80426a8:	dfc00715 	stw	ra,28(sp)
 80426ac:	df000615 	stw	fp,24(sp)
 80426b0:	dc000515 	stw	r16,20(sp)
 80426b4:	df000604 	addi	fp,sp,24
 80426b8:	e13ffb15 	stw	r4,-20(fp)
 80426bc:	e17ffc15 	stw	r5,-16(fp)
 80426c0:	e1bffd15 	stw	r6,-12(fp)
 80426c4:	6021883a 	mov	r16,r12
 80426c8:	e33ffe15 	stw	r12,-8(fp)
		clear(pixel_buf_dma_dev, char_buf_dev,0);
 80426cc:	8019883a 	mov	r12,r16
 80426d0:	000d883a 	mov	r6,zero
 80426d4:	e17ffd17 	ldw	r5,-12(fp)
 80426d8:	e13ffc17 	ldw	r4,-16(fp)
 80426dc:	8041a680 	call	8041a68 <clear.3557>
		// Reset game parameters to default values
		game-> snake_size = 1;
 80426e0:	e0bffb17 	ldw	r2,-20(fp)
 80426e4:	00c00044 	movi	r3,1
 80426e8:	10c2bc15 	stw	r3,2800(r2)
		Rectangle* snake = game-> snake;
 80426ec:	e0bffb17 	ldw	r2,-20(fp)
 80426f0:	e0bffa15 	stw	r2,-24(fp)
		game->snake[0].x = SNAKE_DEFAULT_X;
 80426f4:	e0bffb17 	ldw	r2,-20(fp)
 80426f8:	00c02804 	movi	r3,160
 80426fc:	10c00015 	stw	r3,0(r2)
		game->snake[0].y = SNAKE_DEFAULT_Y;
 8042700:	e0bffb17 	ldw	r2,-20(fp)
 8042704:	00c01e04 	movi	r3,120
 8042708:	10c00115 	stw	r3,4(r2)
		game->snake[0].xspeed = 0;
 804270c:	e0bffb17 	ldw	r2,-20(fp)
 8042710:	10000215 	stw	zero,8(r2)
		game->snake[0].yspeed = 0;
 8042714:	e0bffb17 	ldw	r2,-20(fp)
 8042718:	10000315 	stw	zero,12(r2)
		game-> score = 0;
 804271c:	e0bffb17 	ldw	r2,-20(fp)
 8042720:	1002c415 	stw	zero,2832(r2)
		game-> current_joystick_direction = JOYSTICK_RIGHT;
 8042724:	e0bffb17 	ldw	r2,-20(fp)
 8042728:	00c00044 	movi	r3,1
 804272c:	10c2cf15 	stw	r3,2876(r2)
		game-> previous_joystick_direction= JOYSTICK_RIGHT;
 8042730:	e0bffb17 	ldw	r2,-20(fp)
 8042734:	00c00044 	movi	r3,1
 8042738:	10c2d015 	stw	r3,2880(r2)
		game-> time= 0;
 804273c:	e0bffb17 	ldw	r2,-20(fp)
 8042740:	1002d115 	stw	zero,2884(r2)
		game-> game_over_flag = 0;
 8042744:	e0bffb17 	ldw	r2,-20(fp)
 8042748:	1002d215 	stw	zero,2888(r2)
		// Generate a random location for the fruit
		generate_fruit(game);
 804274c:	8019883a 	mov	r12,r16
 8042750:	e13ffb17 	ldw	r4,-20(fp)
 8042754:	804201c0 	call	804201c <generate_fruit.3609>
	}
 8042758:	0001883a 	nop
 804275c:	e6ffff04 	addi	sp,fp,-4
 8042760:	dfc00217 	ldw	ra,8(sp)
 8042764:	df000117 	ldw	fp,4(sp)
 8042768:	dc000017 	ldw	r16,0(sp)
 804276c:	dec00304 	addi	sp,sp,12
 8042770:	f800283a 	ret

08042774 <snake_game_over.3658>:
	void snake_game_over(SnakeGame* game, alt_up_pixel_buffer_dma_dev * pixel_buf_dma_dev, alt_up_char_buffer_dev * char_buf_dev) {
 8042774:	defff704 	addi	sp,sp,-36
 8042778:	dfc00815 	stw	ra,32(sp)
 804277c:	df000715 	stw	fp,28(sp)
 8042780:	df000704 	addi	fp,sp,28
 8042784:	e13ffc15 	stw	r4,-16(fp)
 8042788:	e17ffd15 	stw	r5,-12(fp)
 804278c:	e1bffe15 	stw	r6,-8(fp)
 8042790:	6005883a 	mov	r2,r12
 8042794:	e33fff15 	stw	r12,-4(fp)
		// Display game over screen
		clear(pixel_buf_dma_dev, char_buf_dev,0);
 8042798:	1019883a 	mov	r12,r2
 804279c:	000d883a 	mov	r6,zero
 80427a0:	e17ffe17 	ldw	r5,-8(fp)
 80427a4:	e13ffd17 	ldw	r4,-12(fp)
 80427a8:	8041a680 	call	8041a68 <clear.3557>
		char score_str[5];
		int score = game-> score;
 80427ac:	e0bffc17 	ldw	r2,-16(fp)
 80427b0:	1082c417 	ldw	r2,2832(r2)
 80427b4:	e0bff915 	stw	r2,-28(fp)
	    sprintf(score_str, "Score: %u", score);
 80427b8:	e0bffa04 	addi	r2,fp,-24
 80427bc:	e1bff917 	ldw	r6,-28(fp)
 80427c0:	01420174 	movhi	r5,2053
 80427c4:	294e7f04 	addi	r5,r5,14844
 80427c8:	1009883a 	mov	r4,r2
 80427cc:	8044b400 	call	8044b40 <sprintf>
	    alt_up_char_buffer_string(char_buf_dev, "Game Over", 37, 8);
 80427d0:	01c00204 	movi	r7,8
 80427d4:	01800944 	movi	r6,37
 80427d8:	01420174 	movhi	r5,2053
 80427dc:	294e8204 	addi	r5,r5,14856
 80427e0:	e13ffe17 	ldw	r4,-8(fp)
 80427e4:	8051f140 	call	8051f14 <alt_up_char_buffer_string>
	    alt_up_char_buffer_string(char_buf_dev, score_str, 37, 20);
 80427e8:	e0bffa04 	addi	r2,fp,-24
 80427ec:	01c00504 	movi	r7,20
 80427f0:	01800944 	movi	r6,37
 80427f4:	100b883a 	mov	r5,r2
 80427f8:	e13ffe17 	ldw	r4,-8(fp)
 80427fc:	8051f140 	call	8051f14 <alt_up_char_buffer_string>
	}
 8042800:	0001883a 	nop
 8042804:	e037883a 	mov	sp,fp
 8042808:	dfc00117 	ldw	ra,4(sp)
 804280c:	df000017 	ldw	fp,0(sp)
 8042810:	dec00204 	addi	sp,sp,8
 8042814:	f800283a 	ret

08042818 <run_game_tick_snake.3665>:
	void run_game_tick_snake(SnakeGame* game, alt_up_pixel_buffer_dma_dev* pixel_buf_dma_dev, alt_up_char_buffer_dev* char_buf_dev) {
 8042818:	deffe804 	addi	sp,sp,-96
 804281c:	dfc01715 	stw	ra,92(sp)
 8042820:	df001615 	stw	fp,88(sp)
 8042824:	dcc01515 	stw	r19,84(sp)
 8042828:	dc801415 	stw	r18,80(sp)
 804282c:	dc401315 	stw	r17,76(sp)
 8042830:	dc001215 	stw	r16,72(sp)
 8042834:	df001604 	addi	fp,sp,88
 8042838:	e13ff815 	stw	r4,-32(fp)
 804283c:	e17ff915 	stw	r5,-28(fp)
 8042840:	e1bffa15 	stw	r6,-24(fp)
 8042844:	6021883a 	mov	r16,r12
 8042848:	e33ffb15 	stw	r12,-20(fp)
		Rectangle* snake = game->snake;
 804284c:	e0bff817 	ldw	r2,-32(fp)
 8042850:	e0bfef15 	stw	r2,-68(fp)
		Rectangle fruit = game->fruit;
 8042854:	e0bff817 	ldw	r2,-32(fp)
 8042858:	10c2bd17 	ldw	r3,2804(r2)
 804285c:	e0fff115 	stw	r3,-60(fp)
 8042860:	10c2be17 	ldw	r3,2808(r2)
 8042864:	e0fff215 	stw	r3,-56(fp)
 8042868:	10c2bf17 	ldw	r3,2812(r2)
 804286c:	e0fff315 	stw	r3,-52(fp)
 8042870:	10c2c017 	ldw	r3,2816(r2)
 8042874:	e0fff415 	stw	r3,-48(fp)
 8042878:	10c2c117 	ldw	r3,2820(r2)
 804287c:	e0fff515 	stw	r3,-44(fp)
 8042880:	10c2c217 	ldw	r3,2824(r2)
 8042884:	e0fff615 	stw	r3,-40(fp)
 8042888:	1082c317 	ldw	r2,2828(r2)
 804288c:	e0bff715 	stw	r2,-36(fp)
		int snake_size = game->snake_size;
 8042890:	e0bff817 	ldw	r2,-32(fp)
 8042894:	1082bc17 	ldw	r2,2800(r2)
 8042898:	e0bff015 	stw	r2,-64(fp)
		// Check for game over
		if((game->game_over_flag) || check_snake_collision(game)) {
 804289c:	e0bff817 	ldw	r2,-32(fp)
 80428a0:	1082d217 	ldw	r2,2888(r2)
 80428a4:	1000041e 	bne	r2,zero,80428b8 <run_game_tick_snake.3665+0xa0>
 80428a8:	8019883a 	mov	r12,r16
 80428ac:	e13ff817 	ldw	r4,-32(fp)
 80428b0:	80425940 	call	8042594 <check_snake_collision.3641>
 80428b4:	10000626 	beq	r2,zero,80428d0 <run_game_tick_snake.3665+0xb8>
			// Display game over screen
			snake_game_over(game, pixel_buf_dma_dev, char_buf_dev);
 80428b8:	8019883a 	mov	r12,r16
 80428bc:	e1bffa17 	ldw	r6,-24(fp)
 80428c0:	e17ff917 	ldw	r5,-28(fp)
 80428c4:	e13ff817 	ldw	r4,-32(fp)
 80428c8:	80427740 	call	8042774 <snake_game_over.3658>
 80428cc:	00008b06 	br	8042afc <run_game_tick_snake.3665+0x2e4>

		}
		else {
			// Wait for screen refresh
			alt_up_pixel_buffer_dma_swap_buffers(pixel_buf_dma_dev);
 80428d0:	e13ff917 	ldw	r4,-28(fp)
 80428d4:	80522ac0 	call	80522ac <alt_up_pixel_buffer_dma_swap_buffers>
			while(alt_up_pixel_buffer_dma_check_swap_buffers_status(pixel_buf_dma_dev));
 80428d8:	0001883a 	nop
 80428dc:	e13ff917 	ldw	r4,-28(fp)
 80428e0:	805230c0 	call	805230c <alt_up_pixel_buffer_dma_check_swap_buffers_status>
 80428e4:	103ffd1e 	bne	r2,zero,80428dc <__alt_data_end+0xfffda83c>
			// Cleanup old game objects
			alt_up_pixel_buffer_dma_draw_box (pixel_buf_dma_dev,
 80428e8:	e0fff117 	ldw	r3,-60(fp)
 80428ec:	e13ff217 	ldw	r4,-56(fp)
						fruit.x, fruit.y, fruit.x+SNAKE_PIXEL_SIZE, fruit.y+SNAKE_PIXEL_SIZE,
 80428f0:	e0bff117 	ldw	r2,-60(fp)
		else {
			// Wait for screen refresh
			alt_up_pixel_buffer_dma_swap_buffers(pixel_buf_dma_dev);
			while(alt_up_pixel_buffer_dma_check_swap_buffers_status(pixel_buf_dma_dev));
			// Cleanup old game objects
			alt_up_pixel_buffer_dma_draw_box (pixel_buf_dma_dev,
 80428f4:	11400144 	addi	r5,r2,5
						fruit.x, fruit.y, fruit.x+SNAKE_PIXEL_SIZE, fruit.y+SNAKE_PIXEL_SIZE,
 80428f8:	e0bff217 	ldw	r2,-56(fp)
		else {
			// Wait for screen refresh
			alt_up_pixel_buffer_dma_swap_buffers(pixel_buf_dma_dev);
			while(alt_up_pixel_buffer_dma_check_swap_buffers_status(pixel_buf_dma_dev));
			// Cleanup old game objects
			alt_up_pixel_buffer_dma_draw_box (pixel_buf_dma_dev,
 80428fc:	10800144 	addi	r2,r2,5
 8042900:	d8000215 	stw	zero,8(sp)
 8042904:	d8000115 	stw	zero,4(sp)
 8042908:	d8800015 	stw	r2,0(sp)
 804290c:	280f883a 	mov	r7,r5
 8042910:	200d883a 	mov	r6,r4
 8042914:	180b883a 	mov	r5,r3
 8042918:	e13ff917 	ldw	r4,-28(fp)
 804291c:	805247c0 	call	805247c <alt_up_pixel_buffer_dma_draw_box>
						fruit.x, fruit.y, fruit.x+SNAKE_PIXEL_SIZE, fruit.y+SNAKE_PIXEL_SIZE,
						BACKGROUND_COLOUR, 0);
			for(int i = 0; i<snake_size; i++) {
 8042920:	e03fed15 	stw	zero,-76(fp)
 8042924:	00002d06 	br	80429dc <run_game_tick_snake.3665+0x1c4>
				alt_up_pixel_buffer_dma_draw_box (pixel_buf_dma_dev,
						snake[i].x, snake[i].y, snake[i].x+SNAKE_PIXEL_SIZE, snake[i].y+SNAKE_PIXEL_SIZE,
 8042928:	e0bfed17 	ldw	r2,-76(fp)
 804292c:	01400704 	movi	r5,28
 8042930:	1009883a 	mov	r4,r2
 8042934:	8042cd80 	call	8042cd8 <__mulsi3>
 8042938:	1007883a 	mov	r3,r2
 804293c:	e0bfef17 	ldw	r2,-68(fp)
 8042940:	10c5883a 	add	r2,r2,r3
			// Cleanup old game objects
			alt_up_pixel_buffer_dma_draw_box (pixel_buf_dma_dev,
						fruit.x, fruit.y, fruit.x+SNAKE_PIXEL_SIZE, fruit.y+SNAKE_PIXEL_SIZE,
						BACKGROUND_COLOUR, 0);
			for(int i = 0; i<snake_size; i++) {
				alt_up_pixel_buffer_dma_draw_box (pixel_buf_dma_dev,
 8042944:	14400017 	ldw	r17,0(r2)
						snake[i].x, snake[i].y, snake[i].x+SNAKE_PIXEL_SIZE, snake[i].y+SNAKE_PIXEL_SIZE,
 8042948:	e0bfed17 	ldw	r2,-76(fp)
 804294c:	01400704 	movi	r5,28
 8042950:	1009883a 	mov	r4,r2
 8042954:	8042cd80 	call	8042cd8 <__mulsi3>
 8042958:	1007883a 	mov	r3,r2
 804295c:	e0bfef17 	ldw	r2,-68(fp)
 8042960:	10c5883a 	add	r2,r2,r3
			// Cleanup old game objects
			alt_up_pixel_buffer_dma_draw_box (pixel_buf_dma_dev,
						fruit.x, fruit.y, fruit.x+SNAKE_PIXEL_SIZE, fruit.y+SNAKE_PIXEL_SIZE,
						BACKGROUND_COLOUR, 0);
			for(int i = 0; i<snake_size; i++) {
				alt_up_pixel_buffer_dma_draw_box (pixel_buf_dma_dev,
 8042964:	14800117 	ldw	r18,4(r2)
						snake[i].x, snake[i].y, snake[i].x+SNAKE_PIXEL_SIZE, snake[i].y+SNAKE_PIXEL_SIZE,
 8042968:	e0bfed17 	ldw	r2,-76(fp)
 804296c:	01400704 	movi	r5,28
 8042970:	1009883a 	mov	r4,r2
 8042974:	8042cd80 	call	8042cd8 <__mulsi3>
 8042978:	1007883a 	mov	r3,r2
 804297c:	e0bfef17 	ldw	r2,-68(fp)
 8042980:	10c5883a 	add	r2,r2,r3
 8042984:	10800017 	ldw	r2,0(r2)
			// Cleanup old game objects
			alt_up_pixel_buffer_dma_draw_box (pixel_buf_dma_dev,
						fruit.x, fruit.y, fruit.x+SNAKE_PIXEL_SIZE, fruit.y+SNAKE_PIXEL_SIZE,
						BACKGROUND_COLOUR, 0);
			for(int i = 0; i<snake_size; i++) {
				alt_up_pixel_buffer_dma_draw_box (pixel_buf_dma_dev,
 8042988:	14c00144 	addi	r19,r2,5
						snake[i].x, snake[i].y, snake[i].x+SNAKE_PIXEL_SIZE, snake[i].y+SNAKE_PIXEL_SIZE,
 804298c:	e0bfed17 	ldw	r2,-76(fp)
 8042990:	01400704 	movi	r5,28
 8042994:	1009883a 	mov	r4,r2
 8042998:	8042cd80 	call	8042cd8 <__mulsi3>
 804299c:	1007883a 	mov	r3,r2
 80429a0:	e0bfef17 	ldw	r2,-68(fp)
 80429a4:	10c5883a 	add	r2,r2,r3
 80429a8:	10800117 	ldw	r2,4(r2)
			// Cleanup old game objects
			alt_up_pixel_buffer_dma_draw_box (pixel_buf_dma_dev,
						fruit.x, fruit.y, fruit.x+SNAKE_PIXEL_SIZE, fruit.y+SNAKE_PIXEL_SIZE,
						BACKGROUND_COLOUR, 0);
			for(int i = 0; i<snake_size; i++) {
				alt_up_pixel_buffer_dma_draw_box (pixel_buf_dma_dev,
 80429ac:	10800144 	addi	r2,r2,5
 80429b0:	d8000215 	stw	zero,8(sp)
 80429b4:	d8000115 	stw	zero,4(sp)
 80429b8:	d8800015 	stw	r2,0(sp)
 80429bc:	980f883a 	mov	r7,r19
 80429c0:	900d883a 	mov	r6,r18
 80429c4:	880b883a 	mov	r5,r17
 80429c8:	e13ff917 	ldw	r4,-28(fp)
 80429cc:	805247c0 	call	805247c <alt_up_pixel_buffer_dma_draw_box>
			while(alt_up_pixel_buffer_dma_check_swap_buffers_status(pixel_buf_dma_dev));
			// Cleanup old game objects
			alt_up_pixel_buffer_dma_draw_box (pixel_buf_dma_dev,
						fruit.x, fruit.y, fruit.x+SNAKE_PIXEL_SIZE, fruit.y+SNAKE_PIXEL_SIZE,
						BACKGROUND_COLOUR, 0);
			for(int i = 0; i<snake_size; i++) {
 80429d0:	e0bfed17 	ldw	r2,-76(fp)
 80429d4:	10800044 	addi	r2,r2,1
 80429d8:	e0bfed15 	stw	r2,-76(fp)
 80429dc:	e0ffed17 	ldw	r3,-76(fp)
 80429e0:	e0bff017 	ldw	r2,-64(fp)
 80429e4:	18bfd016 	blt	r3,r2,8042928 <__alt_data_end+0xfffda888>
				alt_up_pixel_buffer_dma_draw_box (pixel_buf_dma_dev,
						snake[i].x, snake[i].y, snake[i].x+SNAKE_PIXEL_SIZE, snake[i].y+SNAKE_PIXEL_SIZE,
						BACKGROUND_COLOUR, 0);
			}
			// Game logic - update
			update_snake(game);
 80429e8:	8019883a 	mov	r12,r16
 80429ec:	e13ff817 	ldw	r4,-32(fp)
 80429f0:	80421e00 	call	80421e0 <update_snake.3620>
			// Draw screen
			alt_up_pixel_buffer_dma_draw_box (pixel_buf_dma_dev,
 80429f4:	e13ff117 	ldw	r4,-60(fp)
 80429f8:	e17ff217 	ldw	r5,-56(fp)
						fruit.x, fruit.y, fruit.x+SNAKE_PIXEL_SIZE, fruit.y+SNAKE_PIXEL_SIZE,
 80429fc:	e0bff117 	ldw	r2,-60(fp)
						BACKGROUND_COLOUR, 0);
			}
			// Game logic - update
			update_snake(game);
			// Draw screen
			alt_up_pixel_buffer_dma_draw_box (pixel_buf_dma_dev,
 8042a00:	11800144 	addi	r6,r2,5
						fruit.x, fruit.y, fruit.x+SNAKE_PIXEL_SIZE, fruit.y+SNAKE_PIXEL_SIZE,
 8042a04:	e0bff217 	ldw	r2,-56(fp)
						BACKGROUND_COLOUR, 0);
			}
			// Game logic - update
			update_snake(game);
			// Draw screen
			alt_up_pixel_buffer_dma_draw_box (pixel_buf_dma_dev,
 8042a08:	10800144 	addi	r2,r2,5
 8042a0c:	d8000215 	stw	zero,8(sp)
 8042a10:	00fc0014 	movui	r3,61440
 8042a14:	d8c00115 	stw	r3,4(sp)
 8042a18:	d8800015 	stw	r2,0(sp)
 8042a1c:	300f883a 	mov	r7,r6
 8042a20:	280d883a 	mov	r6,r5
 8042a24:	200b883a 	mov	r5,r4
 8042a28:	e13ff917 	ldw	r4,-28(fp)
 8042a2c:	805247c0 	call	805247c <alt_up_pixel_buffer_dma_draw_box>
						fruit.x, fruit.y, fruit.x+SNAKE_PIXEL_SIZE, fruit.y+SNAKE_PIXEL_SIZE,
						FRUIT_COLOUR, 0);
			for(int i = 0; i<snake_size; i++) {
 8042a30:	e03fee15 	stw	zero,-72(fp)
 8042a34:	00002e06 	br	8042af0 <run_game_tick_snake.3665+0x2d8>
				alt_up_pixel_buffer_dma_draw_box (pixel_buf_dma_dev,
						snake[i].x, snake[i].y, snake[i].x+SNAKE_PIXEL_SIZE, snake[i].y+SNAKE_PIXEL_SIZE,
 8042a38:	e0bfee17 	ldw	r2,-72(fp)
 8042a3c:	01400704 	movi	r5,28
 8042a40:	1009883a 	mov	r4,r2
 8042a44:	8042cd80 	call	8042cd8 <__mulsi3>
 8042a48:	1007883a 	mov	r3,r2
 8042a4c:	e0bfef17 	ldw	r2,-68(fp)
 8042a50:	10c5883a 	add	r2,r2,r3
			// Draw screen
			alt_up_pixel_buffer_dma_draw_box (pixel_buf_dma_dev,
						fruit.x, fruit.y, fruit.x+SNAKE_PIXEL_SIZE, fruit.y+SNAKE_PIXEL_SIZE,
						FRUIT_COLOUR, 0);
			for(int i = 0; i<snake_size; i++) {
				alt_up_pixel_buffer_dma_draw_box (pixel_buf_dma_dev,
 8042a54:	14000017 	ldw	r16,0(r2)
						snake[i].x, snake[i].y, snake[i].x+SNAKE_PIXEL_SIZE, snake[i].y+SNAKE_PIXEL_SIZE,
 8042a58:	e0bfee17 	ldw	r2,-72(fp)
 8042a5c:	01400704 	movi	r5,28
 8042a60:	1009883a 	mov	r4,r2
 8042a64:	8042cd80 	call	8042cd8 <__mulsi3>
 8042a68:	1007883a 	mov	r3,r2
 8042a6c:	e0bfef17 	ldw	r2,-68(fp)
 8042a70:	10c5883a 	add	r2,r2,r3
			// Draw screen
			alt_up_pixel_buffer_dma_draw_box (pixel_buf_dma_dev,
						fruit.x, fruit.y, fruit.x+SNAKE_PIXEL_SIZE, fruit.y+SNAKE_PIXEL_SIZE,
						FRUIT_COLOUR, 0);
			for(int i = 0; i<snake_size; i++) {
				alt_up_pixel_buffer_dma_draw_box (pixel_buf_dma_dev,
 8042a74:	14400117 	ldw	r17,4(r2)
						snake[i].x, snake[i].y, snake[i].x+SNAKE_PIXEL_SIZE, snake[i].y+SNAKE_PIXEL_SIZE,
 8042a78:	e0bfee17 	ldw	r2,-72(fp)
 8042a7c:	01400704 	movi	r5,28
 8042a80:	1009883a 	mov	r4,r2
 8042a84:	8042cd80 	call	8042cd8 <__mulsi3>
 8042a88:	1007883a 	mov	r3,r2
 8042a8c:	e0bfef17 	ldw	r2,-68(fp)
 8042a90:	10c5883a 	add	r2,r2,r3
 8042a94:	10800017 	ldw	r2,0(r2)
			// Draw screen
			alt_up_pixel_buffer_dma_draw_box (pixel_buf_dma_dev,
						fruit.x, fruit.y, fruit.x+SNAKE_PIXEL_SIZE, fruit.y+SNAKE_PIXEL_SIZE,
						FRUIT_COLOUR, 0);
			for(int i = 0; i<snake_size; i++) {
				alt_up_pixel_buffer_dma_draw_box (pixel_buf_dma_dev,
 8042a98:	14800144 	addi	r18,r2,5
						snake[i].x, snake[i].y, snake[i].x+SNAKE_PIXEL_SIZE, snake[i].y+SNAKE_PIXEL_SIZE,
 8042a9c:	e0bfee17 	ldw	r2,-72(fp)
 8042aa0:	01400704 	movi	r5,28
 8042aa4:	1009883a 	mov	r4,r2
 8042aa8:	8042cd80 	call	8042cd8 <__mulsi3>
 8042aac:	1007883a 	mov	r3,r2
 8042ab0:	e0bfef17 	ldw	r2,-68(fp)
 8042ab4:	10c5883a 	add	r2,r2,r3
 8042ab8:	10800117 	ldw	r2,4(r2)
			// Draw screen
			alt_up_pixel_buffer_dma_draw_box (pixel_buf_dma_dev,
						fruit.x, fruit.y, fruit.x+SNAKE_PIXEL_SIZE, fruit.y+SNAKE_PIXEL_SIZE,
						FRUIT_COLOUR, 0);
			for(int i = 0; i<snake_size; i++) {
				alt_up_pixel_buffer_dma_draw_box (pixel_buf_dma_dev,
 8042abc:	10800144 	addi	r2,r2,5
 8042ac0:	d8000215 	stw	zero,8(sp)
 8042ac4:	00c3fc04 	movi	r3,4080
 8042ac8:	d8c00115 	stw	r3,4(sp)
 8042acc:	d8800015 	stw	r2,0(sp)
 8042ad0:	900f883a 	mov	r7,r18
 8042ad4:	880d883a 	mov	r6,r17
 8042ad8:	800b883a 	mov	r5,r16
 8042adc:	e13ff917 	ldw	r4,-28(fp)
 8042ae0:	805247c0 	call	805247c <alt_up_pixel_buffer_dma_draw_box>
			update_snake(game);
			// Draw screen
			alt_up_pixel_buffer_dma_draw_box (pixel_buf_dma_dev,
						fruit.x, fruit.y, fruit.x+SNAKE_PIXEL_SIZE, fruit.y+SNAKE_PIXEL_SIZE,
						FRUIT_COLOUR, 0);
			for(int i = 0; i<snake_size; i++) {
 8042ae4:	e0bfee17 	ldw	r2,-72(fp)
 8042ae8:	10800044 	addi	r2,r2,1
 8042aec:	e0bfee15 	stw	r2,-72(fp)
 8042af0:	e0ffee17 	ldw	r3,-72(fp)
 8042af4:	e0bff017 	ldw	r2,-64(fp)
 8042af8:	18bfcf16 	blt	r3,r2,8042a38 <__alt_data_end+0xfffda998>
						snake[i].x, snake[i].y, snake[i].x+SNAKE_PIXEL_SIZE, snake[i].y+SNAKE_PIXEL_SIZE,
						SNAKE_COLOUR, 0);
			}
		}

	}
 8042afc:	0001883a 	nop
 8042b00:	e6fffc04 	addi	sp,fp,-16
 8042b04:	dfc00517 	ldw	ra,20(sp)
 8042b08:	df000417 	ldw	fp,16(sp)
 8042b0c:	dcc00317 	ldw	r19,12(sp)
 8042b10:	dc800217 	ldw	r18,8(sp)
 8042b14:	dc400117 	ldw	r17,4(sp)
 8042b18:	dc000017 	ldw	r16,0(sp)
 8042b1c:	dec00604 	addi	sp,sp,24
 8042b20:	f800283a 	ret

08042b24 <__divsi3>:
 8042b24:	20001b16 	blt	r4,zero,8042b94 <__divsi3+0x70>
 8042b28:	000f883a 	mov	r7,zero
 8042b2c:	28001616 	blt	r5,zero,8042b88 <__divsi3+0x64>
 8042b30:	200d883a 	mov	r6,r4
 8042b34:	29001a2e 	bgeu	r5,r4,8042ba0 <__divsi3+0x7c>
 8042b38:	00800804 	movi	r2,32
 8042b3c:	00c00044 	movi	r3,1
 8042b40:	00000106 	br	8042b48 <__divsi3+0x24>
 8042b44:	10000d26 	beq	r2,zero,8042b7c <__divsi3+0x58>
 8042b48:	294b883a 	add	r5,r5,r5
 8042b4c:	10bfffc4 	addi	r2,r2,-1
 8042b50:	18c7883a 	add	r3,r3,r3
 8042b54:	293ffb36 	bltu	r5,r4,8042b44 <__alt_data_end+0xfffdaaa4>
 8042b58:	0005883a 	mov	r2,zero
 8042b5c:	18000726 	beq	r3,zero,8042b7c <__divsi3+0x58>
 8042b60:	0005883a 	mov	r2,zero
 8042b64:	31400236 	bltu	r6,r5,8042b70 <__divsi3+0x4c>
 8042b68:	314dc83a 	sub	r6,r6,r5
 8042b6c:	10c4b03a 	or	r2,r2,r3
 8042b70:	1806d07a 	srli	r3,r3,1
 8042b74:	280ad07a 	srli	r5,r5,1
 8042b78:	183ffa1e 	bne	r3,zero,8042b64 <__alt_data_end+0xfffdaac4>
 8042b7c:	38000126 	beq	r7,zero,8042b84 <__divsi3+0x60>
 8042b80:	0085c83a 	sub	r2,zero,r2
 8042b84:	f800283a 	ret
 8042b88:	014bc83a 	sub	r5,zero,r5
 8042b8c:	39c0005c 	xori	r7,r7,1
 8042b90:	003fe706 	br	8042b30 <__alt_data_end+0xfffdaa90>
 8042b94:	0109c83a 	sub	r4,zero,r4
 8042b98:	01c00044 	movi	r7,1
 8042b9c:	003fe306 	br	8042b2c <__alt_data_end+0xfffdaa8c>
 8042ba0:	00c00044 	movi	r3,1
 8042ba4:	003fee06 	br	8042b60 <__alt_data_end+0xfffdaac0>

08042ba8 <__modsi3>:
 8042ba8:	20001716 	blt	r4,zero,8042c08 <__modsi3+0x60>
 8042bac:	000f883a 	mov	r7,zero
 8042bb0:	2005883a 	mov	r2,r4
 8042bb4:	28001216 	blt	r5,zero,8042c00 <__modsi3+0x58>
 8042bb8:	2900162e 	bgeu	r5,r4,8042c14 <__modsi3+0x6c>
 8042bbc:	01800804 	movi	r6,32
 8042bc0:	00c00044 	movi	r3,1
 8042bc4:	00000106 	br	8042bcc <__modsi3+0x24>
 8042bc8:	30000a26 	beq	r6,zero,8042bf4 <__modsi3+0x4c>
 8042bcc:	294b883a 	add	r5,r5,r5
 8042bd0:	31bfffc4 	addi	r6,r6,-1
 8042bd4:	18c7883a 	add	r3,r3,r3
 8042bd8:	293ffb36 	bltu	r5,r4,8042bc8 <__alt_data_end+0xfffdab28>
 8042bdc:	18000526 	beq	r3,zero,8042bf4 <__modsi3+0x4c>
 8042be0:	1806d07a 	srli	r3,r3,1
 8042be4:	11400136 	bltu	r2,r5,8042bec <__modsi3+0x44>
 8042be8:	1145c83a 	sub	r2,r2,r5
 8042bec:	280ad07a 	srli	r5,r5,1
 8042bf0:	183ffb1e 	bne	r3,zero,8042be0 <__alt_data_end+0xfffdab40>
 8042bf4:	38000126 	beq	r7,zero,8042bfc <__modsi3+0x54>
 8042bf8:	0085c83a 	sub	r2,zero,r2
 8042bfc:	f800283a 	ret
 8042c00:	014bc83a 	sub	r5,zero,r5
 8042c04:	003fec06 	br	8042bb8 <__alt_data_end+0xfffdab18>
 8042c08:	0109c83a 	sub	r4,zero,r4
 8042c0c:	01c00044 	movi	r7,1
 8042c10:	003fe706 	br	8042bb0 <__alt_data_end+0xfffdab10>
 8042c14:	00c00044 	movi	r3,1
 8042c18:	003ff106 	br	8042be0 <__alt_data_end+0xfffdab40>

08042c1c <__udivsi3>:
 8042c1c:	200d883a 	mov	r6,r4
 8042c20:	2900152e 	bgeu	r5,r4,8042c78 <__udivsi3+0x5c>
 8042c24:	28001416 	blt	r5,zero,8042c78 <__udivsi3+0x5c>
 8042c28:	00800804 	movi	r2,32
 8042c2c:	00c00044 	movi	r3,1
 8042c30:	00000206 	br	8042c3c <__udivsi3+0x20>
 8042c34:	10000e26 	beq	r2,zero,8042c70 <__udivsi3+0x54>
 8042c38:	28000516 	blt	r5,zero,8042c50 <__udivsi3+0x34>
 8042c3c:	294b883a 	add	r5,r5,r5
 8042c40:	10bfffc4 	addi	r2,r2,-1
 8042c44:	18c7883a 	add	r3,r3,r3
 8042c48:	293ffa36 	bltu	r5,r4,8042c34 <__alt_data_end+0xfffdab94>
 8042c4c:	18000826 	beq	r3,zero,8042c70 <__udivsi3+0x54>
 8042c50:	0005883a 	mov	r2,zero
 8042c54:	31400236 	bltu	r6,r5,8042c60 <__udivsi3+0x44>
 8042c58:	314dc83a 	sub	r6,r6,r5
 8042c5c:	10c4b03a 	or	r2,r2,r3
 8042c60:	1806d07a 	srli	r3,r3,1
 8042c64:	280ad07a 	srli	r5,r5,1
 8042c68:	183ffa1e 	bne	r3,zero,8042c54 <__alt_data_end+0xfffdabb4>
 8042c6c:	f800283a 	ret
 8042c70:	0005883a 	mov	r2,zero
 8042c74:	f800283a 	ret
 8042c78:	00c00044 	movi	r3,1
 8042c7c:	003ff406 	br	8042c50 <__alt_data_end+0xfffdabb0>

08042c80 <__umodsi3>:
 8042c80:	2005883a 	mov	r2,r4
 8042c84:	2900122e 	bgeu	r5,r4,8042cd0 <__umodsi3+0x50>
 8042c88:	28001116 	blt	r5,zero,8042cd0 <__umodsi3+0x50>
 8042c8c:	01800804 	movi	r6,32
 8042c90:	00c00044 	movi	r3,1
 8042c94:	00000206 	br	8042ca0 <__umodsi3+0x20>
 8042c98:	30000c26 	beq	r6,zero,8042ccc <__umodsi3+0x4c>
 8042c9c:	28000516 	blt	r5,zero,8042cb4 <__umodsi3+0x34>
 8042ca0:	294b883a 	add	r5,r5,r5
 8042ca4:	31bfffc4 	addi	r6,r6,-1
 8042ca8:	18c7883a 	add	r3,r3,r3
 8042cac:	293ffa36 	bltu	r5,r4,8042c98 <__alt_data_end+0xfffdabf8>
 8042cb0:	18000626 	beq	r3,zero,8042ccc <__umodsi3+0x4c>
 8042cb4:	1806d07a 	srli	r3,r3,1
 8042cb8:	11400136 	bltu	r2,r5,8042cc0 <__umodsi3+0x40>
 8042cbc:	1145c83a 	sub	r2,r2,r5
 8042cc0:	280ad07a 	srli	r5,r5,1
 8042cc4:	183ffb1e 	bne	r3,zero,8042cb4 <__alt_data_end+0xfffdac14>
 8042cc8:	f800283a 	ret
 8042ccc:	f800283a 	ret
 8042cd0:	00c00044 	movi	r3,1
 8042cd4:	003ff706 	br	8042cb4 <__alt_data_end+0xfffdac14>

08042cd8 <__mulsi3>:
 8042cd8:	0005883a 	mov	r2,zero
 8042cdc:	20000726 	beq	r4,zero,8042cfc <__mulsi3+0x24>
 8042ce0:	20c0004c 	andi	r3,r4,1
 8042ce4:	2008d07a 	srli	r4,r4,1
 8042ce8:	18000126 	beq	r3,zero,8042cf0 <__mulsi3+0x18>
 8042cec:	1145883a 	add	r2,r2,r5
 8042cf0:	294b883a 	add	r5,r5,r5
 8042cf4:	203ffa1e 	bne	r4,zero,8042ce0 <__alt_data_end+0xfffdac40>
 8042cf8:	f800283a 	ret
 8042cfc:	f800283a 	ret

08042d00 <__trampoline_setup>:
 8042d00:	300ed43a 	srli	r7,r6,16
 8042d04:	2806d43a 	srli	r3,r5,16
 8042d08:	31bfffcc 	andi	r6,r6,65535
 8042d0c:	380e91ba 	slli	r7,r7,6
 8042d10:	0080c034 	movhi	r2,768
 8042d14:	10800d04 	addi	r2,r2,52
 8042d18:	300c91ba 	slli	r6,r6,6
 8042d1c:	388eb03a 	or	r7,r7,r2
 8042d20:	0098c034 	movhi	r2,25344
 8042d24:	10800504 	addi	r2,r2,20
 8042d28:	180691ba 	slli	r3,r3,6
 8042d2c:	308cb03a 	or	r6,r6,r2
 8042d30:	297fffcc 	andi	r5,r5,65535
 8042d34:	00802034 	movhi	r2,128
 8042d38:	10800d04 	addi	r2,r2,52
 8042d3c:	280a91ba 	slli	r5,r5,6
 8042d40:	1886b03a 	or	r3,r3,r2
 8042d44:	00842034 	movhi	r2,4224
 8042d48:	10800504 	addi	r2,r2,20
 8042d4c:	20c00215 	stw	r3,8(r4)
 8042d50:	00c40034 	movhi	r3,4096
 8042d54:	288ab03a 	or	r5,r5,r2
 8042d58:	18da0e84 	addi	r3,r3,26682
 8042d5c:	20c00415 	stw	r3,16(r4)
 8042d60:	2005883a 	mov	r2,r4
 8042d64:	21c00015 	stw	r7,0(r4)
 8042d68:	21800115 	stw	r6,4(r4)
 8042d6c:	21400315 	stw	r5,12(r4)
 8042d70:	20c00504 	addi	r3,r4,20
 8042d74:	1000003b 	flushd	0(r2)
 8042d78:	1000603a 	flushi	r2
 8042d7c:	10800104 	addi	r2,r2,4
 8042d80:	10fffc1e 	bne	r2,r3,8042d74 <__alt_data_end+0xfffdacd4>
 8042d84:	0000203a 	flushp
 8042d88:	f800283a 	ret

08042d8c <__gesf2>:
 8042d8c:	2004d5fa 	srli	r2,r4,23
 8042d90:	2806d5fa 	srli	r3,r5,23
 8042d94:	01802034 	movhi	r6,128
 8042d98:	31bfffc4 	addi	r6,r6,-1
 8042d9c:	10803fcc 	andi	r2,r2,255
 8042da0:	01c03fc4 	movi	r7,255
 8042da4:	3110703a 	and	r8,r6,r4
 8042da8:	18c03fcc 	andi	r3,r3,255
 8042dac:	314c703a 	and	r6,r6,r5
 8042db0:	2008d7fa 	srli	r4,r4,31
 8042db4:	280ad7fa 	srli	r5,r5,31
 8042db8:	11c01926 	beq	r2,r7,8042e20 <__gesf2+0x94>
 8042dbc:	01c03fc4 	movi	r7,255
 8042dc0:	19c00f26 	beq	r3,r7,8042e00 <__gesf2+0x74>
 8042dc4:	1000061e 	bne	r2,zero,8042de0 <__gesf2+0x54>
 8042dc8:	400f003a 	cmpeq	r7,r8,zero
 8042dcc:	1800071e 	bne	r3,zero,8042dec <__gesf2+0x60>
 8042dd0:	3000061e 	bne	r6,zero,8042dec <__gesf2+0x60>
 8042dd4:	0005883a 	mov	r2,zero
 8042dd8:	40000e1e 	bne	r8,zero,8042e14 <__gesf2+0x88>
 8042ddc:	f800283a 	ret
 8042de0:	18000a1e 	bne	r3,zero,8042e0c <__gesf2+0x80>
 8042de4:	30000b26 	beq	r6,zero,8042e14 <__gesf2+0x88>
 8042de8:	000f883a 	mov	r7,zero
 8042dec:	29403fcc 	andi	r5,r5,255
 8042df0:	38000726 	beq	r7,zero,8042e10 <__gesf2+0x84>
 8042df4:	28000826 	beq	r5,zero,8042e18 <__gesf2+0x8c>
 8042df8:	00800044 	movi	r2,1
 8042dfc:	f800283a 	ret
 8042e00:	303ff026 	beq	r6,zero,8042dc4 <__alt_data_end+0xfffdad24>
 8042e04:	00bfff84 	movi	r2,-2
 8042e08:	f800283a 	ret
 8042e0c:	29403fcc 	andi	r5,r5,255
 8042e10:	21400526 	beq	r4,r5,8042e28 <__gesf2+0x9c>
 8042e14:	203ff826 	beq	r4,zero,8042df8 <__alt_data_end+0xfffdad58>
 8042e18:	00bfffc4 	movi	r2,-1
 8042e1c:	f800283a 	ret
 8042e20:	403fe626 	beq	r8,zero,8042dbc <__alt_data_end+0xfffdad1c>
 8042e24:	003ff706 	br	8042e04 <__alt_data_end+0xfffdad64>
 8042e28:	18bffa16 	blt	r3,r2,8042e14 <__alt_data_end+0xfffdad74>
 8042e2c:	10c00216 	blt	r2,r3,8042e38 <__gesf2+0xac>
 8042e30:	323ff836 	bltu	r6,r8,8042e14 <__alt_data_end+0xfffdad74>
 8042e34:	4180022e 	bgeu	r8,r6,8042e40 <__gesf2+0xb4>
 8042e38:	203fef1e 	bne	r4,zero,8042df8 <__alt_data_end+0xfffdad58>
 8042e3c:	003ff606 	br	8042e18 <__alt_data_end+0xfffdad78>
 8042e40:	0005883a 	mov	r2,zero
 8042e44:	f800283a 	ret

08042e48 <__lesf2>:
 8042e48:	2004d5fa 	srli	r2,r4,23
 8042e4c:	280cd5fa 	srli	r6,r5,23
 8042e50:	00c02034 	movhi	r3,128
 8042e54:	18ffffc4 	addi	r3,r3,-1
 8042e58:	10803fcc 	andi	r2,r2,255
 8042e5c:	01c03fc4 	movi	r7,255
 8042e60:	1910703a 	and	r8,r3,r4
 8042e64:	31803fcc 	andi	r6,r6,255
 8042e68:	1946703a 	and	r3,r3,r5
 8042e6c:	2008d7fa 	srli	r4,r4,31
 8042e70:	280ad7fa 	srli	r5,r5,31
 8042e74:	11c01b26 	beq	r2,r7,8042ee4 <__lesf2+0x9c>
 8042e78:	01c03fc4 	movi	r7,255
 8042e7c:	31c01126 	beq	r6,r7,8042ec4 <__lesf2+0x7c>
 8042e80:	1000071e 	bne	r2,zero,8042ea0 <__lesf2+0x58>
 8042e84:	400f003a 	cmpeq	r7,r8,zero
 8042e88:	21003fcc 	andi	r4,r4,255
 8042e8c:	3000081e 	bne	r6,zero,8042eb0 <__lesf2+0x68>
 8042e90:	1800071e 	bne	r3,zero,8042eb0 <__lesf2+0x68>
 8042e94:	0005883a 	mov	r2,zero
 8042e98:	40000f1e 	bne	r8,zero,8042ed8 <__lesf2+0x90>
 8042e9c:	f800283a 	ret
 8042ea0:	21003fcc 	andi	r4,r4,255
 8042ea4:	30000a1e 	bne	r6,zero,8042ed0 <__lesf2+0x88>
 8042ea8:	18000b26 	beq	r3,zero,8042ed8 <__lesf2+0x90>
 8042eac:	000f883a 	mov	r7,zero
 8042eb0:	29403fcc 	andi	r5,r5,255
 8042eb4:	38000726 	beq	r7,zero,8042ed4 <__lesf2+0x8c>
 8042eb8:	28000826 	beq	r5,zero,8042edc <__lesf2+0x94>
 8042ebc:	00800044 	movi	r2,1
 8042ec0:	f800283a 	ret
 8042ec4:	183fee26 	beq	r3,zero,8042e80 <__alt_data_end+0xfffdade0>
 8042ec8:	00800084 	movi	r2,2
 8042ecc:	f800283a 	ret
 8042ed0:	29403fcc 	andi	r5,r5,255
 8042ed4:	21400626 	beq	r4,r5,8042ef0 <__lesf2+0xa8>
 8042ed8:	203ff826 	beq	r4,zero,8042ebc <__alt_data_end+0xfffdae1c>
 8042edc:	00bfffc4 	movi	r2,-1
 8042ee0:	f800283a 	ret
 8042ee4:	403fe426 	beq	r8,zero,8042e78 <__alt_data_end+0xfffdadd8>
 8042ee8:	00800084 	movi	r2,2
 8042eec:	f800283a 	ret
 8042ef0:	30bff916 	blt	r6,r2,8042ed8 <__alt_data_end+0xfffdae38>
 8042ef4:	11800216 	blt	r2,r6,8042f00 <__lesf2+0xb8>
 8042ef8:	1a3ff736 	bltu	r3,r8,8042ed8 <__alt_data_end+0xfffdae38>
 8042efc:	40c0022e 	bgeu	r8,r3,8042f08 <__lesf2+0xc0>
 8042f00:	203fee1e 	bne	r4,zero,8042ebc <__alt_data_end+0xfffdae1c>
 8042f04:	003ff506 	br	8042edc <__alt_data_end+0xfffdae3c>
 8042f08:	0005883a 	mov	r2,zero
 8042f0c:	f800283a 	ret

08042f10 <__floatunsisf>:
 8042f10:	defffe04 	addi	sp,sp,-8
 8042f14:	dfc00115 	stw	ra,4(sp)
 8042f18:	dc000015 	stw	r16,0(sp)
 8042f1c:	20002c26 	beq	r4,zero,8042fd0 <__floatunsisf+0xc0>
 8042f20:	2021883a 	mov	r16,r4
 8042f24:	80446c40 	call	80446c4 <__clzsi2>
 8042f28:	00c02784 	movi	r3,158
 8042f2c:	1887c83a 	sub	r3,r3,r2
 8042f30:	01002584 	movi	r4,150
 8042f34:	20c00f16 	blt	r4,r3,8042f74 <__floatunsisf+0x64>
 8042f38:	20c9c83a 	sub	r4,r4,r3
 8042f3c:	8108983a 	sll	r4,r16,r4
 8042f40:	00802034 	movhi	r2,128
 8042f44:	10bfffc4 	addi	r2,r2,-1
 8042f48:	2088703a 	and	r4,r4,r2
 8042f4c:	18803fcc 	andi	r2,r3,255
 8042f50:	100695fa 	slli	r3,r2,23
 8042f54:	00802034 	movhi	r2,128
 8042f58:	10bfffc4 	addi	r2,r2,-1
 8042f5c:	2084703a 	and	r2,r4,r2
 8042f60:	10c4b03a 	or	r2,r2,r3
 8042f64:	dfc00117 	ldw	ra,4(sp)
 8042f68:	dc000017 	ldw	r16,0(sp)
 8042f6c:	dec00204 	addi	sp,sp,8
 8042f70:	f800283a 	ret
 8042f74:	01002644 	movi	r4,153
 8042f78:	20c01816 	blt	r4,r3,8042fdc <__floatunsisf+0xcc>
 8042f7c:	20c9c83a 	sub	r4,r4,r3
 8042f80:	8108983a 	sll	r4,r16,r4
 8042f84:	017f0034 	movhi	r5,64512
 8042f88:	297fffc4 	addi	r5,r5,-1
 8042f8c:	218001cc 	andi	r6,r4,7
 8042f90:	214a703a 	and	r5,r4,r5
 8042f94:	30000426 	beq	r6,zero,8042fa8 <__floatunsisf+0x98>
 8042f98:	210003cc 	andi	r4,r4,15
 8042f9c:	01800104 	movi	r6,4
 8042fa0:	21800126 	beq	r4,r6,8042fa8 <__floatunsisf+0x98>
 8042fa4:	298b883a 	add	r5,r5,r6
 8042fa8:	2901002c 	andhi	r4,r5,1024
 8042fac:	20000526 	beq	r4,zero,8042fc4 <__floatunsisf+0xb4>
 8042fb0:	00c027c4 	movi	r3,159
 8042fb4:	1887c83a 	sub	r3,r3,r2
 8042fb8:	00bf0034 	movhi	r2,64512
 8042fbc:	10bfffc4 	addi	r2,r2,-1
 8042fc0:	288a703a 	and	r5,r5,r2
 8042fc4:	280891ba 	slli	r4,r5,6
 8042fc8:	2008d27a 	srli	r4,r4,9
 8042fcc:	003fdf06 	br	8042f4c <__alt_data_end+0xfffdaeac>
 8042fd0:	0007883a 	mov	r3,zero
 8042fd4:	0009883a 	mov	r4,zero
 8042fd8:	003fdc06 	br	8042f4c <__alt_data_end+0xfffdaeac>
 8042fdc:	01402e44 	movi	r5,185
 8042fe0:	28cbc83a 	sub	r5,r5,r3
 8042fe4:	01000144 	movi	r4,5
 8042fe8:	2089c83a 	sub	r4,r4,r2
 8042fec:	814a983a 	sll	r5,r16,r5
 8042ff0:	8108d83a 	srl	r4,r16,r4
 8042ff4:	2820c03a 	cmpne	r16,r5,zero
 8042ff8:	2408b03a 	or	r4,r4,r16
 8042ffc:	003fe106 	br	8042f84 <__alt_data_end+0xfffdaee4>

08043000 <__divdf3>:
 8043000:	defff004 	addi	sp,sp,-64
 8043004:	dc800815 	stw	r18,32(sp)
 8043008:	2824d53a 	srli	r18,r5,20
 804300c:	dd800c15 	stw	r22,48(sp)
 8043010:	282cd7fa 	srli	r22,r5,31
 8043014:	dc000615 	stw	r16,24(sp)
 8043018:	04000434 	movhi	r16,16
 804301c:	843fffc4 	addi	r16,r16,-1
 8043020:	dfc00f15 	stw	ra,60(sp)
 8043024:	df000e15 	stw	fp,56(sp)
 8043028:	ddc00d15 	stw	r23,52(sp)
 804302c:	dd400b15 	stw	r21,44(sp)
 8043030:	dd000a15 	stw	r20,40(sp)
 8043034:	dcc00915 	stw	r19,36(sp)
 8043038:	dc400715 	stw	r17,28(sp)
 804303c:	9481ffcc 	andi	r18,r18,2047
 8043040:	2c20703a 	and	r16,r5,r16
 8043044:	b2003fcc 	andi	r8,r22,255
 8043048:	90006126 	beq	r18,zero,80431d0 <__divdf3+0x1d0>
 804304c:	0081ffc4 	movi	r2,2047
 8043050:	202b883a 	mov	r21,r4
 8043054:	90803726 	beq	r18,r2,8043134 <__divdf3+0x134>
 8043058:	80800434 	orhi	r2,r16,16
 804305c:	100490fa 	slli	r2,r2,3
 8043060:	2020d77a 	srli	r16,r4,29
 8043064:	202a90fa 	slli	r21,r4,3
 8043068:	94bf0044 	addi	r18,r18,-1023
 804306c:	80a0b03a 	or	r16,r16,r2
 8043070:	0013883a 	mov	r9,zero
 8043074:	000b883a 	mov	r5,zero
 8043078:	3806d53a 	srli	r3,r7,20
 804307c:	382ed7fa 	srli	r23,r7,31
 8043080:	04400434 	movhi	r17,16
 8043084:	8c7fffc4 	addi	r17,r17,-1
 8043088:	18c1ffcc 	andi	r3,r3,2047
 804308c:	3029883a 	mov	r20,r6
 8043090:	3c62703a 	and	r17,r7,r17
 8043094:	bf003fcc 	andi	fp,r23,255
 8043098:	18006e26 	beq	r3,zero,8043254 <__divdf3+0x254>
 804309c:	0081ffc4 	movi	r2,2047
 80430a0:	18806626 	beq	r3,r2,804323c <__divdf3+0x23c>
 80430a4:	88800434 	orhi	r2,r17,16
 80430a8:	100490fa 	slli	r2,r2,3
 80430ac:	3022d77a 	srli	r17,r6,29
 80430b0:	302890fa 	slli	r20,r6,3
 80430b4:	18ff0044 	addi	r3,r3,-1023
 80430b8:	88a2b03a 	or	r17,r17,r2
 80430bc:	000f883a 	mov	r7,zero
 80430c0:	b5e6f03a 	xor	r19,r22,r23
 80430c4:	3a4cb03a 	or	r6,r7,r9
 80430c8:	008003c4 	movi	r2,15
 80430cc:	9809883a 	mov	r4,r19
 80430d0:	90c7c83a 	sub	r3,r18,r3
 80430d4:	9cc03fcc 	andi	r19,r19,255
 80430d8:	11809636 	bltu	r2,r6,8043334 <__divdf3+0x334>
 80430dc:	300c90ba 	slli	r6,r6,2
 80430e0:	00820134 	movhi	r2,2052
 80430e4:	108c3d04 	addi	r2,r2,12532
 80430e8:	308d883a 	add	r6,r6,r2
 80430ec:	30800017 	ldw	r2,0(r6)
 80430f0:	1000683a 	jmp	r2
 80430f4:	08043334 	orhi	zero,at,4300
 80430f8:	0804316c 	andhi	zero,at,4293
 80430fc:	08043324 	muli	zero,at,4300
 8043100:	08043160 	cmpeqi	zero,at,4293
 8043104:	08043324 	muli	zero,at,4300
 8043108:	080432f8 	rdprs	zero,at,4299
 804310c:	08043324 	muli	zero,at,4300
 8043110:	08043160 	cmpeqi	zero,at,4293
 8043114:	0804316c 	andhi	zero,at,4293
 8043118:	0804316c 	andhi	zero,at,4293
 804311c:	080432f8 	rdprs	zero,at,4299
 8043120:	08043160 	cmpeqi	zero,at,4293
 8043124:	08043150 	cmplti	zero,at,4293
 8043128:	08043150 	cmplti	zero,at,4293
 804312c:	08043150 	cmplti	zero,at,4293
 8043130:	080436bc 	xorhi	zero,at,4314
 8043134:	2404b03a 	or	r2,r4,r16
 8043138:	10006c1e 	bne	r2,zero,80432ec <__divdf3+0x2ec>
 804313c:	02400204 	movi	r9,8
 8043140:	0021883a 	mov	r16,zero
 8043144:	002b883a 	mov	r21,zero
 8043148:	01400084 	movi	r5,2
 804314c:	003fca06 	br	8043078 <__alt_data_end+0xfffdafd8>
 8043150:	8023883a 	mov	r17,r16
 8043154:	a829883a 	mov	r20,r21
 8043158:	4039883a 	mov	fp,r8
 804315c:	280f883a 	mov	r7,r5
 8043160:	00800084 	movi	r2,2
 8043164:	3881601e 	bne	r7,r2,80436e8 <__divdf3+0x6e8>
 8043168:	e027883a 	mov	r19,fp
 804316c:	9900004c 	andi	r4,r19,1
 8043170:	0081ffc4 	movi	r2,2047
 8043174:	0021883a 	mov	r16,zero
 8043178:	002b883a 	mov	r21,zero
 804317c:	1004953a 	slli	r2,r2,20
 8043180:	20c03fcc 	andi	r3,r4,255
 8043184:	01400434 	movhi	r5,16
 8043188:	297fffc4 	addi	r5,r5,-1
 804318c:	180697fa 	slli	r3,r3,31
 8043190:	8160703a 	and	r16,r16,r5
 8043194:	80a0b03a 	or	r16,r16,r2
 8043198:	80c6b03a 	or	r3,r16,r3
 804319c:	a805883a 	mov	r2,r21
 80431a0:	dfc00f17 	ldw	ra,60(sp)
 80431a4:	df000e17 	ldw	fp,56(sp)
 80431a8:	ddc00d17 	ldw	r23,52(sp)
 80431ac:	dd800c17 	ldw	r22,48(sp)
 80431b0:	dd400b17 	ldw	r21,44(sp)
 80431b4:	dd000a17 	ldw	r20,40(sp)
 80431b8:	dcc00917 	ldw	r19,36(sp)
 80431bc:	dc800817 	ldw	r18,32(sp)
 80431c0:	dc400717 	ldw	r17,28(sp)
 80431c4:	dc000617 	ldw	r16,24(sp)
 80431c8:	dec01004 	addi	sp,sp,64
 80431cc:	f800283a 	ret
 80431d0:	2404b03a 	or	r2,r4,r16
 80431d4:	2023883a 	mov	r17,r4
 80431d8:	10003f26 	beq	r2,zero,80432d8 <__divdf3+0x2d8>
 80431dc:	80015e26 	beq	r16,zero,8043758 <__divdf3+0x758>
 80431e0:	8009883a 	mov	r4,r16
 80431e4:	d9800215 	stw	r6,8(sp)
 80431e8:	d9c00515 	stw	r7,20(sp)
 80431ec:	da000415 	stw	r8,16(sp)
 80431f0:	80446c40 	call	80446c4 <__clzsi2>
 80431f4:	d9800217 	ldw	r6,8(sp)
 80431f8:	d9c00517 	ldw	r7,20(sp)
 80431fc:	da000417 	ldw	r8,16(sp)
 8043200:	113ffd44 	addi	r4,r2,-11
 8043204:	00c00704 	movi	r3,28
 8043208:	19014f16 	blt	r3,r4,8043748 <__divdf3+0x748>
 804320c:	00c00744 	movi	r3,29
 8043210:	157ffe04 	addi	r21,r2,-8
 8043214:	1907c83a 	sub	r3,r3,r4
 8043218:	8560983a 	sll	r16,r16,r21
 804321c:	88c6d83a 	srl	r3,r17,r3
 8043220:	8d6a983a 	sll	r21,r17,r21
 8043224:	1c20b03a 	or	r16,r3,r16
 8043228:	1080fcc4 	addi	r2,r2,1011
 804322c:	00a5c83a 	sub	r18,zero,r2
 8043230:	0013883a 	mov	r9,zero
 8043234:	000b883a 	mov	r5,zero
 8043238:	003f8f06 	br	8043078 <__alt_data_end+0xfffdafd8>
 804323c:	3444b03a 	or	r2,r6,r17
 8043240:	1000231e 	bne	r2,zero,80432d0 <__divdf3+0x2d0>
 8043244:	0023883a 	mov	r17,zero
 8043248:	0029883a 	mov	r20,zero
 804324c:	01c00084 	movi	r7,2
 8043250:	003f9b06 	br	80430c0 <__alt_data_end+0xfffdb020>
 8043254:	3444b03a 	or	r2,r6,r17
 8043258:	10001926 	beq	r2,zero,80432c0 <__divdf3+0x2c0>
 804325c:	88014b26 	beq	r17,zero,804378c <__divdf3+0x78c>
 8043260:	8809883a 	mov	r4,r17
 8043264:	d9400115 	stw	r5,4(sp)
 8043268:	d9800215 	stw	r6,8(sp)
 804326c:	da000415 	stw	r8,16(sp)
 8043270:	da400315 	stw	r9,12(sp)
 8043274:	80446c40 	call	80446c4 <__clzsi2>
 8043278:	d9400117 	ldw	r5,4(sp)
 804327c:	d9800217 	ldw	r6,8(sp)
 8043280:	da000417 	ldw	r8,16(sp)
 8043284:	da400317 	ldw	r9,12(sp)
 8043288:	113ffd44 	addi	r4,r2,-11
 804328c:	00c00704 	movi	r3,28
 8043290:	19013a16 	blt	r3,r4,804377c <__divdf3+0x77c>
 8043294:	00c00744 	movi	r3,29
 8043298:	153ffe04 	addi	r20,r2,-8
 804329c:	1907c83a 	sub	r3,r3,r4
 80432a0:	8d22983a 	sll	r17,r17,r20
 80432a4:	30c6d83a 	srl	r3,r6,r3
 80432a8:	3528983a 	sll	r20,r6,r20
 80432ac:	1c62b03a 	or	r17,r3,r17
 80432b0:	1080fcc4 	addi	r2,r2,1011
 80432b4:	0087c83a 	sub	r3,zero,r2
 80432b8:	000f883a 	mov	r7,zero
 80432bc:	003f8006 	br	80430c0 <__alt_data_end+0xfffdb020>
 80432c0:	0023883a 	mov	r17,zero
 80432c4:	0029883a 	mov	r20,zero
 80432c8:	01c00044 	movi	r7,1
 80432cc:	003f7c06 	br	80430c0 <__alt_data_end+0xfffdb020>
 80432d0:	01c000c4 	movi	r7,3
 80432d4:	003f7a06 	br	80430c0 <__alt_data_end+0xfffdb020>
 80432d8:	02400104 	movi	r9,4
 80432dc:	0021883a 	mov	r16,zero
 80432e0:	002b883a 	mov	r21,zero
 80432e4:	01400044 	movi	r5,1
 80432e8:	003f6306 	br	8043078 <__alt_data_end+0xfffdafd8>
 80432ec:	02400304 	movi	r9,12
 80432f0:	014000c4 	movi	r5,3
 80432f4:	003f6006 	br	8043078 <__alt_data_end+0xfffdafd8>
 80432f8:	04000434 	movhi	r16,16
 80432fc:	0009883a 	mov	r4,zero
 8043300:	843fffc4 	addi	r16,r16,-1
 8043304:	057fffc4 	movi	r21,-1
 8043308:	0081ffc4 	movi	r2,2047
 804330c:	003f9b06 	br	804317c <__alt_data_end+0xfffdb0dc>
 8043310:	00c00044 	movi	r3,1
 8043314:	1887c83a 	sub	r3,r3,r2
 8043318:	01000e04 	movi	r4,56
 804331c:	20c1530e 	bge	r4,r3,804386c <__divdf3+0x86c>
 8043320:	9900004c 	andi	r4,r19,1
 8043324:	0005883a 	mov	r2,zero
 8043328:	0021883a 	mov	r16,zero
 804332c:	002b883a 	mov	r21,zero
 8043330:	003f9206 	br	804317c <__alt_data_end+0xfffdb0dc>
 8043334:	8c012e36 	bltu	r17,r16,80437f0 <__divdf3+0x7f0>
 8043338:	84412c26 	beq	r16,r17,80437ec <__divdf3+0x7ec>
 804333c:	a82f883a 	mov	r23,r21
 8043340:	18ffffc4 	addi	r3,r3,-1
 8043344:	002b883a 	mov	r21,zero
 8043348:	a004d63a 	srli	r2,r20,24
 804334c:	8822923a 	slli	r17,r17,8
 8043350:	a028923a 	slli	r20,r20,8
 8043354:	8009883a 	mov	r4,r16
 8043358:	88acb03a 	or	r22,r17,r2
 804335c:	dd000015 	stw	r20,0(sp)
 8043360:	b028d43a 	srli	r20,r22,16
 8043364:	d8c00215 	stw	r3,8(sp)
 8043368:	b4bfffcc 	andi	r18,r22,65535
 804336c:	a00b883a 	mov	r5,r20
 8043370:	8042c1c0 	call	8042c1c <__udivsi3>
 8043374:	100b883a 	mov	r5,r2
 8043378:	9009883a 	mov	r4,r18
 804337c:	1023883a 	mov	r17,r2
 8043380:	8042cd80 	call	8042cd8 <__mulsi3>
 8043384:	8009883a 	mov	r4,r16
 8043388:	a00b883a 	mov	r5,r20
 804338c:	1039883a 	mov	fp,r2
 8043390:	8042c800 	call	8042c80 <__umodsi3>
 8043394:	1004943a 	slli	r2,r2,16
 8043398:	b808d43a 	srli	r4,r23,16
 804339c:	d8c00217 	ldw	r3,8(sp)
 80433a0:	2084b03a 	or	r2,r4,r2
 80433a4:	1700062e 	bgeu	r2,fp,80433c0 <__divdf3+0x3c0>
 80433a8:	1585883a 	add	r2,r2,r22
 80433ac:	893fffc4 	addi	r4,r17,-1
 80433b0:	15811d36 	bltu	r2,r22,8043828 <__divdf3+0x828>
 80433b4:	17011c2e 	bgeu	r2,fp,8043828 <__divdf3+0x828>
 80433b8:	8c7fff84 	addi	r17,r17,-2
 80433bc:	1585883a 	add	r2,r2,r22
 80433c0:	1739c83a 	sub	fp,r2,fp
 80433c4:	a00b883a 	mov	r5,r20
 80433c8:	e009883a 	mov	r4,fp
 80433cc:	d8c00215 	stw	r3,8(sp)
 80433d0:	8042c1c0 	call	8042c1c <__udivsi3>
 80433d4:	100b883a 	mov	r5,r2
 80433d8:	9009883a 	mov	r4,r18
 80433dc:	1021883a 	mov	r16,r2
 80433e0:	8042cd80 	call	8042cd8 <__mulsi3>
 80433e4:	a00b883a 	mov	r5,r20
 80433e8:	e009883a 	mov	r4,fp
 80433ec:	d8800415 	stw	r2,16(sp)
 80433f0:	8042c800 	call	8042c80 <__umodsi3>
 80433f4:	1004943a 	slli	r2,r2,16
 80433f8:	da000417 	ldw	r8,16(sp)
 80433fc:	bdffffcc 	andi	r23,r23,65535
 8043400:	b884b03a 	or	r2,r23,r2
 8043404:	d8c00217 	ldw	r3,8(sp)
 8043408:	1200062e 	bgeu	r2,r8,8043424 <__divdf3+0x424>
 804340c:	1585883a 	add	r2,r2,r22
 8043410:	813fffc4 	addi	r4,r16,-1
 8043414:	15810236 	bltu	r2,r22,8043820 <__divdf3+0x820>
 8043418:	1201012e 	bgeu	r2,r8,8043820 <__divdf3+0x820>
 804341c:	843fff84 	addi	r16,r16,-2
 8043420:	1585883a 	add	r2,r2,r22
 8043424:	8822943a 	slli	r17,r17,16
 8043428:	d9800017 	ldw	r6,0(sp)
 804342c:	1211c83a 	sub	r8,r2,r8
 8043430:	8c22b03a 	or	r17,r17,r16
 8043434:	373fffcc 	andi	fp,r6,65535
 8043438:	8abfffcc 	andi	r10,r17,65535
 804343c:	8820d43a 	srli	r16,r17,16
 8043440:	5009883a 	mov	r4,r10
 8043444:	e00b883a 	mov	r5,fp
 8043448:	302ed43a 	srli	r23,r6,16
 804344c:	d8c00215 	stw	r3,8(sp)
 8043450:	da000415 	stw	r8,16(sp)
 8043454:	da800115 	stw	r10,4(sp)
 8043458:	8042cd80 	call	8042cd8 <__mulsi3>
 804345c:	800b883a 	mov	r5,r16
 8043460:	e009883a 	mov	r4,fp
 8043464:	d8800515 	stw	r2,20(sp)
 8043468:	8042cd80 	call	8042cd8 <__mulsi3>
 804346c:	8009883a 	mov	r4,r16
 8043470:	b80b883a 	mov	r5,r23
 8043474:	d8800315 	stw	r2,12(sp)
 8043478:	8042cd80 	call	8042cd8 <__mulsi3>
 804347c:	da800117 	ldw	r10,4(sp)
 8043480:	b80b883a 	mov	r5,r23
 8043484:	1021883a 	mov	r16,r2
 8043488:	5009883a 	mov	r4,r10
 804348c:	8042cd80 	call	8042cd8 <__mulsi3>
 8043490:	d9c00517 	ldw	r7,20(sp)
 8043494:	da400317 	ldw	r9,12(sp)
 8043498:	d8c00217 	ldw	r3,8(sp)
 804349c:	3808d43a 	srli	r4,r7,16
 80434a0:	1245883a 	add	r2,r2,r9
 80434a4:	da000417 	ldw	r8,16(sp)
 80434a8:	2085883a 	add	r2,r4,r2
 80434ac:	1240022e 	bgeu	r2,r9,80434b8 <__divdf3+0x4b8>
 80434b0:	01000074 	movhi	r4,1
 80434b4:	8121883a 	add	r16,r16,r4
 80434b8:	1008d43a 	srli	r4,r2,16
 80434bc:	1004943a 	slli	r2,r2,16
 80434c0:	39ffffcc 	andi	r7,r7,65535
 80434c4:	2409883a 	add	r4,r4,r16
 80434c8:	11c5883a 	add	r2,r2,r7
 80434cc:	4100bb36 	bltu	r8,r4,80437bc <__divdf3+0x7bc>
 80434d0:	4100d726 	beq	r8,r4,8043830 <__divdf3+0x830>
 80434d4:	4109c83a 	sub	r4,r8,r4
 80434d8:	a8a1c83a 	sub	r16,r21,r2
 80434dc:	ac2b803a 	cmpltu	r21,r21,r16
 80434e0:	256bc83a 	sub	r21,r4,r21
 80434e4:	b540d926 	beq	r22,r21,804384c <__divdf3+0x84c>
 80434e8:	a00b883a 	mov	r5,r20
 80434ec:	a809883a 	mov	r4,r21
 80434f0:	d8c00215 	stw	r3,8(sp)
 80434f4:	8042c1c0 	call	8042c1c <__udivsi3>
 80434f8:	100b883a 	mov	r5,r2
 80434fc:	9009883a 	mov	r4,r18
 8043500:	d8800515 	stw	r2,20(sp)
 8043504:	8042cd80 	call	8042cd8 <__mulsi3>
 8043508:	a809883a 	mov	r4,r21
 804350c:	a00b883a 	mov	r5,r20
 8043510:	d8800415 	stw	r2,16(sp)
 8043514:	8042c800 	call	8042c80 <__umodsi3>
 8043518:	1004943a 	slli	r2,r2,16
 804351c:	8008d43a 	srli	r4,r16,16
 8043520:	da000417 	ldw	r8,16(sp)
 8043524:	d8c00217 	ldw	r3,8(sp)
 8043528:	2084b03a 	or	r2,r4,r2
 804352c:	d9c00517 	ldw	r7,20(sp)
 8043530:	1200062e 	bgeu	r2,r8,804354c <__divdf3+0x54c>
 8043534:	1585883a 	add	r2,r2,r22
 8043538:	393fffc4 	addi	r4,r7,-1
 804353c:	1580c536 	bltu	r2,r22,8043854 <__divdf3+0x854>
 8043540:	1200c42e 	bgeu	r2,r8,8043854 <__divdf3+0x854>
 8043544:	39ffff84 	addi	r7,r7,-2
 8043548:	1585883a 	add	r2,r2,r22
 804354c:	122bc83a 	sub	r21,r2,r8
 8043550:	a00b883a 	mov	r5,r20
 8043554:	a809883a 	mov	r4,r21
 8043558:	d8c00215 	stw	r3,8(sp)
 804355c:	d9c00515 	stw	r7,20(sp)
 8043560:	8042c1c0 	call	8042c1c <__udivsi3>
 8043564:	9009883a 	mov	r4,r18
 8043568:	100b883a 	mov	r5,r2
 804356c:	d8800415 	stw	r2,16(sp)
 8043570:	8042cd80 	call	8042cd8 <__mulsi3>
 8043574:	a809883a 	mov	r4,r21
 8043578:	a00b883a 	mov	r5,r20
 804357c:	1025883a 	mov	r18,r2
 8043580:	8042c800 	call	8042c80 <__umodsi3>
 8043584:	1004943a 	slli	r2,r2,16
 8043588:	813fffcc 	andi	r4,r16,65535
 804358c:	d8c00217 	ldw	r3,8(sp)
 8043590:	20a0b03a 	or	r16,r4,r2
 8043594:	d9c00517 	ldw	r7,20(sp)
 8043598:	da000417 	ldw	r8,16(sp)
 804359c:	8480062e 	bgeu	r16,r18,80435b8 <__divdf3+0x5b8>
 80435a0:	85a1883a 	add	r16,r16,r22
 80435a4:	40bfffc4 	addi	r2,r8,-1
 80435a8:	8580ac36 	bltu	r16,r22,804385c <__divdf3+0x85c>
 80435ac:	8480ab2e 	bgeu	r16,r18,804385c <__divdf3+0x85c>
 80435b0:	423fff84 	addi	r8,r8,-2
 80435b4:	85a1883a 	add	r16,r16,r22
 80435b8:	3804943a 	slli	r2,r7,16
 80435bc:	84a1c83a 	sub	r16,r16,r18
 80435c0:	e009883a 	mov	r4,fp
 80435c4:	1228b03a 	or	r20,r2,r8
 80435c8:	a1ffffcc 	andi	r7,r20,65535
 80435cc:	a024d43a 	srli	r18,r20,16
 80435d0:	380b883a 	mov	r5,r7
 80435d4:	d8c00215 	stw	r3,8(sp)
 80435d8:	d9c00515 	stw	r7,20(sp)
 80435dc:	8042cd80 	call	8042cd8 <__mulsi3>
 80435e0:	900b883a 	mov	r5,r18
 80435e4:	e009883a 	mov	r4,fp
 80435e8:	102b883a 	mov	r21,r2
 80435ec:	8042cd80 	call	8042cd8 <__mulsi3>
 80435f0:	900b883a 	mov	r5,r18
 80435f4:	b809883a 	mov	r4,r23
 80435f8:	1039883a 	mov	fp,r2
 80435fc:	8042cd80 	call	8042cd8 <__mulsi3>
 8043600:	d9c00517 	ldw	r7,20(sp)
 8043604:	b80b883a 	mov	r5,r23
 8043608:	1025883a 	mov	r18,r2
 804360c:	3809883a 	mov	r4,r7
 8043610:	8042cd80 	call	8042cd8 <__mulsi3>
 8043614:	a808d43a 	srli	r4,r21,16
 8043618:	1705883a 	add	r2,r2,fp
 804361c:	d8c00217 	ldw	r3,8(sp)
 8043620:	2085883a 	add	r2,r4,r2
 8043624:	1700022e 	bgeu	r2,fp,8043630 <__divdf3+0x630>
 8043628:	01000074 	movhi	r4,1
 804362c:	9125883a 	add	r18,r18,r4
 8043630:	1008d43a 	srli	r4,r2,16
 8043634:	1004943a 	slli	r2,r2,16
 8043638:	ad7fffcc 	andi	r21,r21,65535
 804363c:	2489883a 	add	r4,r4,r18
 8043640:	1545883a 	add	r2,r2,r21
 8043644:	81003836 	bltu	r16,r4,8043728 <__divdf3+0x728>
 8043648:	81003626 	beq	r16,r4,8043724 <__divdf3+0x724>
 804364c:	a5000054 	ori	r20,r20,1
 8043650:	1880ffc4 	addi	r2,r3,1023
 8043654:	00bf2e0e 	bge	zero,r2,8043310 <__alt_data_end+0xfffdb270>
 8043658:	a10001cc 	andi	r4,r20,7
 804365c:	20000726 	beq	r4,zero,804367c <__divdf3+0x67c>
 8043660:	a10003cc 	andi	r4,r20,15
 8043664:	01400104 	movi	r5,4
 8043668:	21400426 	beq	r4,r5,804367c <__divdf3+0x67c>
 804366c:	a149883a 	add	r4,r20,r5
 8043670:	2529803a 	cmpltu	r20,r4,r20
 8043674:	8d23883a 	add	r17,r17,r20
 8043678:	2029883a 	mov	r20,r4
 804367c:	8900402c 	andhi	r4,r17,256
 8043680:	20000426 	beq	r4,zero,8043694 <__divdf3+0x694>
 8043684:	18810004 	addi	r2,r3,1024
 8043688:	00ffc034 	movhi	r3,65280
 804368c:	18ffffc4 	addi	r3,r3,-1
 8043690:	88e2703a 	and	r17,r17,r3
 8043694:	00c1ff84 	movi	r3,2046
 8043698:	18beb416 	blt	r3,r2,804316c <__alt_data_end+0xfffdb0cc>
 804369c:	a028d0fa 	srli	r20,r20,3
 80436a0:	882a977a 	slli	r21,r17,29
 80436a4:	8820927a 	slli	r16,r17,9
 80436a8:	1081ffcc 	andi	r2,r2,2047
 80436ac:	ad2ab03a 	or	r21,r21,r20
 80436b0:	8020d33a 	srli	r16,r16,12
 80436b4:	9900004c 	andi	r4,r19,1
 80436b8:	003eb006 	br	804317c <__alt_data_end+0xfffdb0dc>
 80436bc:	8080022c 	andhi	r2,r16,8
 80436c0:	10001226 	beq	r2,zero,804370c <__divdf3+0x70c>
 80436c4:	8880022c 	andhi	r2,r17,8
 80436c8:	1000101e 	bne	r2,zero,804370c <__divdf3+0x70c>
 80436cc:	00800434 	movhi	r2,16
 80436d0:	8c000234 	orhi	r16,r17,8
 80436d4:	10bfffc4 	addi	r2,r2,-1
 80436d8:	b809883a 	mov	r4,r23
 80436dc:	80a0703a 	and	r16,r16,r2
 80436e0:	a02b883a 	mov	r21,r20
 80436e4:	003f0806 	br	8043308 <__alt_data_end+0xfffdb268>
 80436e8:	008000c4 	movi	r2,3
 80436ec:	3880b126 	beq	r7,r2,80439b4 <__divdf3+0x9b4>
 80436f0:	00800044 	movi	r2,1
 80436f4:	38805b1e 	bne	r7,r2,8043864 <__divdf3+0x864>
 80436f8:	e009883a 	mov	r4,fp
 80436fc:	0005883a 	mov	r2,zero
 8043700:	0021883a 	mov	r16,zero
 8043704:	002b883a 	mov	r21,zero
 8043708:	003e9c06 	br	804317c <__alt_data_end+0xfffdb0dc>
 804370c:	00800434 	movhi	r2,16
 8043710:	84000234 	orhi	r16,r16,8
 8043714:	10bfffc4 	addi	r2,r2,-1
 8043718:	b009883a 	mov	r4,r22
 804371c:	80a0703a 	and	r16,r16,r2
 8043720:	003ef906 	br	8043308 <__alt_data_end+0xfffdb268>
 8043724:	103fca26 	beq	r2,zero,8043650 <__alt_data_end+0xfffdb5b0>
 8043728:	b421883a 	add	r16,r22,r16
 804372c:	a17fffc4 	addi	r5,r20,-1
 8043730:	8580422e 	bgeu	r16,r22,804383c <__divdf3+0x83c>
 8043734:	2829883a 	mov	r20,r5
 8043738:	813fc41e 	bne	r16,r4,804364c <__alt_data_end+0xfffdb5ac>
 804373c:	d9800017 	ldw	r6,0(sp)
 8043740:	30bfc21e 	bne	r6,r2,804364c <__alt_data_end+0xfffdb5ac>
 8043744:	003fc206 	br	8043650 <__alt_data_end+0xfffdb5b0>
 8043748:	143ff604 	addi	r16,r2,-40
 804374c:	8c20983a 	sll	r16,r17,r16
 8043750:	002b883a 	mov	r21,zero
 8043754:	003eb406 	br	8043228 <__alt_data_end+0xfffdb188>
 8043758:	d9800215 	stw	r6,8(sp)
 804375c:	d9c00515 	stw	r7,20(sp)
 8043760:	da000415 	stw	r8,16(sp)
 8043764:	80446c40 	call	80446c4 <__clzsi2>
 8043768:	10800804 	addi	r2,r2,32
 804376c:	da000417 	ldw	r8,16(sp)
 8043770:	d9c00517 	ldw	r7,20(sp)
 8043774:	d9800217 	ldw	r6,8(sp)
 8043778:	003ea106 	br	8043200 <__alt_data_end+0xfffdb160>
 804377c:	147ff604 	addi	r17,r2,-40
 8043780:	3462983a 	sll	r17,r6,r17
 8043784:	0029883a 	mov	r20,zero
 8043788:	003ec906 	br	80432b0 <__alt_data_end+0xfffdb210>
 804378c:	3009883a 	mov	r4,r6
 8043790:	d9400115 	stw	r5,4(sp)
 8043794:	d9800215 	stw	r6,8(sp)
 8043798:	da000415 	stw	r8,16(sp)
 804379c:	da400315 	stw	r9,12(sp)
 80437a0:	80446c40 	call	80446c4 <__clzsi2>
 80437a4:	10800804 	addi	r2,r2,32
 80437a8:	da400317 	ldw	r9,12(sp)
 80437ac:	da000417 	ldw	r8,16(sp)
 80437b0:	d9800217 	ldw	r6,8(sp)
 80437b4:	d9400117 	ldw	r5,4(sp)
 80437b8:	003eb306 	br	8043288 <__alt_data_end+0xfffdb1e8>
 80437bc:	d9800017 	ldw	r6,0(sp)
 80437c0:	a9ab883a 	add	r21,r21,r6
 80437c4:	a98b803a 	cmpltu	r5,r21,r6
 80437c8:	2d8b883a 	add	r5,r5,r22
 80437cc:	2a11883a 	add	r8,r5,r8
 80437d0:	897fffc4 	addi	r5,r17,-1
 80437d4:	b2000c2e 	bgeu	r22,r8,8043808 <__divdf3+0x808>
 80437d8:	41003f36 	bltu	r8,r4,80438d8 <__divdf3+0x8d8>
 80437dc:	22006c26 	beq	r4,r8,8043990 <__divdf3+0x990>
 80437e0:	4109c83a 	sub	r4,r8,r4
 80437e4:	2823883a 	mov	r17,r5
 80437e8:	003f3b06 	br	80434d8 <__alt_data_end+0xfffdb438>
 80437ec:	ad3ed336 	bltu	r21,r20,804333c <__alt_data_end+0xfffdb29c>
 80437f0:	a804d07a 	srli	r2,r21,1
 80437f4:	802e97fa 	slli	r23,r16,31
 80437f8:	a82a97fa 	slli	r21,r21,31
 80437fc:	8020d07a 	srli	r16,r16,1
 8043800:	b8aeb03a 	or	r23,r23,r2
 8043804:	003ed006 	br	8043348 <__alt_data_end+0xfffdb2a8>
 8043808:	b23ff51e 	bne	r22,r8,80437e0 <__alt_data_end+0xfffdb740>
 804380c:	d9800017 	ldw	r6,0(sp)
 8043810:	a9bff12e 	bgeu	r21,r6,80437d8 <__alt_data_end+0xfffdb738>
 8043814:	b109c83a 	sub	r4,r22,r4
 8043818:	2823883a 	mov	r17,r5
 804381c:	003f2e06 	br	80434d8 <__alt_data_end+0xfffdb438>
 8043820:	2021883a 	mov	r16,r4
 8043824:	003eff06 	br	8043424 <__alt_data_end+0xfffdb384>
 8043828:	2023883a 	mov	r17,r4
 804382c:	003ee406 	br	80433c0 <__alt_data_end+0xfffdb320>
 8043830:	a8bfe236 	bltu	r21,r2,80437bc <__alt_data_end+0xfffdb71c>
 8043834:	0009883a 	mov	r4,zero
 8043838:	003f2706 	br	80434d8 <__alt_data_end+0xfffdb438>
 804383c:	81002d36 	bltu	r16,r4,80438f4 <__divdf3+0x8f4>
 8043840:	24005626 	beq	r4,r16,804399c <__divdf3+0x99c>
 8043844:	2829883a 	mov	r20,r5
 8043848:	003f8006 	br	804364c <__alt_data_end+0xfffdb5ac>
 804384c:	053fffc4 	movi	r20,-1
 8043850:	003f7f06 	br	8043650 <__alt_data_end+0xfffdb5b0>
 8043854:	200f883a 	mov	r7,r4
 8043858:	003f3c06 	br	804354c <__alt_data_end+0xfffdb4ac>
 804385c:	1011883a 	mov	r8,r2
 8043860:	003f5506 	br	80435b8 <__alt_data_end+0xfffdb518>
 8043864:	e027883a 	mov	r19,fp
 8043868:	003f7906 	br	8043650 <__alt_data_end+0xfffdb5b0>
 804386c:	010007c4 	movi	r4,31
 8043870:	20c02816 	blt	r4,r3,8043914 <__divdf3+0x914>
 8043874:	00800804 	movi	r2,32
 8043878:	10c5c83a 	sub	r2,r2,r3
 804387c:	888a983a 	sll	r5,r17,r2
 8043880:	a0c8d83a 	srl	r4,r20,r3
 8043884:	a084983a 	sll	r2,r20,r2
 8043888:	88e2d83a 	srl	r17,r17,r3
 804388c:	2906b03a 	or	r3,r5,r4
 8043890:	1004c03a 	cmpne	r2,r2,zero
 8043894:	1886b03a 	or	r3,r3,r2
 8043898:	188001cc 	andi	r2,r3,7
 804389c:	10000726 	beq	r2,zero,80438bc <__divdf3+0x8bc>
 80438a0:	188003cc 	andi	r2,r3,15
 80438a4:	01000104 	movi	r4,4
 80438a8:	11000426 	beq	r2,r4,80438bc <__divdf3+0x8bc>
 80438ac:	1805883a 	mov	r2,r3
 80438b0:	10c00104 	addi	r3,r2,4
 80438b4:	1885803a 	cmpltu	r2,r3,r2
 80438b8:	88a3883a 	add	r17,r17,r2
 80438bc:	8880202c 	andhi	r2,r17,128
 80438c0:	10002926 	beq	r2,zero,8043968 <__divdf3+0x968>
 80438c4:	9900004c 	andi	r4,r19,1
 80438c8:	00800044 	movi	r2,1
 80438cc:	0021883a 	mov	r16,zero
 80438d0:	002b883a 	mov	r21,zero
 80438d4:	003e2906 	br	804317c <__alt_data_end+0xfffdb0dc>
 80438d8:	d9800017 	ldw	r6,0(sp)
 80438dc:	8c7fff84 	addi	r17,r17,-2
 80438e0:	a9ab883a 	add	r21,r21,r6
 80438e4:	a98b803a 	cmpltu	r5,r21,r6
 80438e8:	2d8b883a 	add	r5,r5,r22
 80438ec:	2a11883a 	add	r8,r5,r8
 80438f0:	003ef806 	br	80434d4 <__alt_data_end+0xfffdb434>
 80438f4:	d9800017 	ldw	r6,0(sp)
 80438f8:	318f883a 	add	r7,r6,r6
 80438fc:	398b803a 	cmpltu	r5,r7,r6
 8043900:	2d8d883a 	add	r6,r5,r22
 8043904:	81a1883a 	add	r16,r16,r6
 8043908:	a17fff84 	addi	r5,r20,-2
 804390c:	d9c00015 	stw	r7,0(sp)
 8043910:	003f8806 	br	8043734 <__alt_data_end+0xfffdb694>
 8043914:	013ff844 	movi	r4,-31
 8043918:	2085c83a 	sub	r2,r4,r2
 804391c:	8888d83a 	srl	r4,r17,r2
 8043920:	00800804 	movi	r2,32
 8043924:	18802126 	beq	r3,r2,80439ac <__divdf3+0x9ac>
 8043928:	04001004 	movi	r16,64
 804392c:	80c7c83a 	sub	r3,r16,r3
 8043930:	88e0983a 	sll	r16,r17,r3
 8043934:	8504b03a 	or	r2,r16,r20
 8043938:	1004c03a 	cmpne	r2,r2,zero
 804393c:	2084b03a 	or	r2,r4,r2
 8043940:	144001cc 	andi	r17,r2,7
 8043944:	88000d1e 	bne	r17,zero,804397c <__divdf3+0x97c>
 8043948:	0021883a 	mov	r16,zero
 804394c:	102ad0fa 	srli	r21,r2,3
 8043950:	9900004c 	andi	r4,r19,1
 8043954:	0005883a 	mov	r2,zero
 8043958:	ac6ab03a 	or	r21,r21,r17
 804395c:	003e0706 	br	804317c <__alt_data_end+0xfffdb0dc>
 8043960:	1007883a 	mov	r3,r2
 8043964:	0023883a 	mov	r17,zero
 8043968:	8820927a 	slli	r16,r17,9
 804396c:	1805883a 	mov	r2,r3
 8043970:	8822977a 	slli	r17,r17,29
 8043974:	8020d33a 	srli	r16,r16,12
 8043978:	003ff406 	br	804394c <__alt_data_end+0xfffdb8ac>
 804397c:	10c003cc 	andi	r3,r2,15
 8043980:	01000104 	movi	r4,4
 8043984:	193ff626 	beq	r3,r4,8043960 <__alt_data_end+0xfffdb8c0>
 8043988:	0023883a 	mov	r17,zero
 804398c:	003fc806 	br	80438b0 <__alt_data_end+0xfffdb810>
 8043990:	a8bfd136 	bltu	r21,r2,80438d8 <__alt_data_end+0xfffdb838>
 8043994:	2823883a 	mov	r17,r5
 8043998:	003fa606 	br	8043834 <__alt_data_end+0xfffdb794>
 804399c:	d9800017 	ldw	r6,0(sp)
 80439a0:	30bfd436 	bltu	r6,r2,80438f4 <__alt_data_end+0xfffdb854>
 80439a4:	2829883a 	mov	r20,r5
 80439a8:	003f6406 	br	804373c <__alt_data_end+0xfffdb69c>
 80439ac:	0021883a 	mov	r16,zero
 80439b0:	003fe006 	br	8043934 <__alt_data_end+0xfffdb894>
 80439b4:	00800434 	movhi	r2,16
 80439b8:	8c000234 	orhi	r16,r17,8
 80439bc:	10bfffc4 	addi	r2,r2,-1
 80439c0:	e009883a 	mov	r4,fp
 80439c4:	80a0703a 	and	r16,r16,r2
 80439c8:	a02b883a 	mov	r21,r20
 80439cc:	003e4e06 	br	8043308 <__alt_data_end+0xfffdb268>

080439d0 <__gedf2>:
 80439d0:	2804d53a 	srli	r2,r5,20
 80439d4:	3806d53a 	srli	r3,r7,20
 80439d8:	02000434 	movhi	r8,16
 80439dc:	423fffc4 	addi	r8,r8,-1
 80439e0:	1081ffcc 	andi	r2,r2,2047
 80439e4:	0241ffc4 	movi	r9,2047
 80439e8:	2a14703a 	and	r10,r5,r8
 80439ec:	18c1ffcc 	andi	r3,r3,2047
 80439f0:	3a10703a 	and	r8,r7,r8
 80439f4:	280ad7fa 	srli	r5,r5,31
 80439f8:	380ed7fa 	srli	r7,r7,31
 80439fc:	12401d26 	beq	r2,r9,8043a74 <__gedf2+0xa4>
 8043a00:	0241ffc4 	movi	r9,2047
 8043a04:	1a401226 	beq	r3,r9,8043a50 <__gedf2+0x80>
 8043a08:	1000081e 	bne	r2,zero,8043a2c <__gedf2+0x5c>
 8043a0c:	2296b03a 	or	r11,r4,r10
 8043a10:	5813003a 	cmpeq	r9,r11,zero
 8043a14:	1800091e 	bne	r3,zero,8043a3c <__gedf2+0x6c>
 8043a18:	3218b03a 	or	r12,r6,r8
 8043a1c:	6000071e 	bne	r12,zero,8043a3c <__gedf2+0x6c>
 8043a20:	0005883a 	mov	r2,zero
 8043a24:	5800101e 	bne	r11,zero,8043a68 <__gedf2+0x98>
 8043a28:	f800283a 	ret
 8043a2c:	18000c1e 	bne	r3,zero,8043a60 <__gedf2+0x90>
 8043a30:	3212b03a 	or	r9,r6,r8
 8043a34:	48000c26 	beq	r9,zero,8043a68 <__gedf2+0x98>
 8043a38:	0013883a 	mov	r9,zero
 8043a3c:	39c03fcc 	andi	r7,r7,255
 8043a40:	48000826 	beq	r9,zero,8043a64 <__gedf2+0x94>
 8043a44:	38000926 	beq	r7,zero,8043a6c <__gedf2+0x9c>
 8043a48:	00800044 	movi	r2,1
 8043a4c:	f800283a 	ret
 8043a50:	3212b03a 	or	r9,r6,r8
 8043a54:	483fec26 	beq	r9,zero,8043a08 <__alt_data_end+0xfffdb968>
 8043a58:	00bfff84 	movi	r2,-2
 8043a5c:	f800283a 	ret
 8043a60:	39c03fcc 	andi	r7,r7,255
 8043a64:	29c00626 	beq	r5,r7,8043a80 <__gedf2+0xb0>
 8043a68:	283ff726 	beq	r5,zero,8043a48 <__alt_data_end+0xfffdb9a8>
 8043a6c:	00bfffc4 	movi	r2,-1
 8043a70:	f800283a 	ret
 8043a74:	2292b03a 	or	r9,r4,r10
 8043a78:	483fe126 	beq	r9,zero,8043a00 <__alt_data_end+0xfffdb960>
 8043a7c:	003ff606 	br	8043a58 <__alt_data_end+0xfffdb9b8>
 8043a80:	18bff916 	blt	r3,r2,8043a68 <__alt_data_end+0xfffdb9c8>
 8043a84:	10c00316 	blt	r2,r3,8043a94 <__gedf2+0xc4>
 8043a88:	42bff736 	bltu	r8,r10,8043a68 <__alt_data_end+0xfffdb9c8>
 8043a8c:	52000326 	beq	r10,r8,8043a9c <__gedf2+0xcc>
 8043a90:	5200042e 	bgeu	r10,r8,8043aa4 <__gedf2+0xd4>
 8043a94:	283fec1e 	bne	r5,zero,8043a48 <__alt_data_end+0xfffdb9a8>
 8043a98:	003ff406 	br	8043a6c <__alt_data_end+0xfffdb9cc>
 8043a9c:	313ff236 	bltu	r6,r4,8043a68 <__alt_data_end+0xfffdb9c8>
 8043aa0:	21bffc36 	bltu	r4,r6,8043a94 <__alt_data_end+0xfffdb9f4>
 8043aa4:	0005883a 	mov	r2,zero
 8043aa8:	f800283a 	ret

08043aac <__ledf2>:
 8043aac:	2804d53a 	srli	r2,r5,20
 8043ab0:	3810d53a 	srli	r8,r7,20
 8043ab4:	00c00434 	movhi	r3,16
 8043ab8:	18ffffc4 	addi	r3,r3,-1
 8043abc:	1081ffcc 	andi	r2,r2,2047
 8043ac0:	0241ffc4 	movi	r9,2047
 8043ac4:	28d4703a 	and	r10,r5,r3
 8043ac8:	4201ffcc 	andi	r8,r8,2047
 8043acc:	38c6703a 	and	r3,r7,r3
 8043ad0:	280ad7fa 	srli	r5,r5,31
 8043ad4:	380ed7fa 	srli	r7,r7,31
 8043ad8:	12401f26 	beq	r2,r9,8043b58 <__ledf2+0xac>
 8043adc:	0241ffc4 	movi	r9,2047
 8043ae0:	42401426 	beq	r8,r9,8043b34 <__ledf2+0x88>
 8043ae4:	1000091e 	bne	r2,zero,8043b0c <__ledf2+0x60>
 8043ae8:	2296b03a 	or	r11,r4,r10
 8043aec:	5813003a 	cmpeq	r9,r11,zero
 8043af0:	29403fcc 	andi	r5,r5,255
 8043af4:	40000a1e 	bne	r8,zero,8043b20 <__ledf2+0x74>
 8043af8:	30d8b03a 	or	r12,r6,r3
 8043afc:	6000081e 	bne	r12,zero,8043b20 <__ledf2+0x74>
 8043b00:	0005883a 	mov	r2,zero
 8043b04:	5800111e 	bne	r11,zero,8043b4c <__ledf2+0xa0>
 8043b08:	f800283a 	ret
 8043b0c:	29403fcc 	andi	r5,r5,255
 8043b10:	40000c1e 	bne	r8,zero,8043b44 <__ledf2+0x98>
 8043b14:	30d2b03a 	or	r9,r6,r3
 8043b18:	48000c26 	beq	r9,zero,8043b4c <__ledf2+0xa0>
 8043b1c:	0013883a 	mov	r9,zero
 8043b20:	39c03fcc 	andi	r7,r7,255
 8043b24:	48000826 	beq	r9,zero,8043b48 <__ledf2+0x9c>
 8043b28:	38001126 	beq	r7,zero,8043b70 <__ledf2+0xc4>
 8043b2c:	00800044 	movi	r2,1
 8043b30:	f800283a 	ret
 8043b34:	30d2b03a 	or	r9,r6,r3
 8043b38:	483fea26 	beq	r9,zero,8043ae4 <__alt_data_end+0xfffdba44>
 8043b3c:	00800084 	movi	r2,2
 8043b40:	f800283a 	ret
 8043b44:	39c03fcc 	andi	r7,r7,255
 8043b48:	39400726 	beq	r7,r5,8043b68 <__ledf2+0xbc>
 8043b4c:	2800081e 	bne	r5,zero,8043b70 <__ledf2+0xc4>
 8043b50:	00800044 	movi	r2,1
 8043b54:	f800283a 	ret
 8043b58:	2292b03a 	or	r9,r4,r10
 8043b5c:	483fdf26 	beq	r9,zero,8043adc <__alt_data_end+0xfffdba3c>
 8043b60:	00800084 	movi	r2,2
 8043b64:	f800283a 	ret
 8043b68:	4080030e 	bge	r8,r2,8043b78 <__ledf2+0xcc>
 8043b6c:	383fef26 	beq	r7,zero,8043b2c <__alt_data_end+0xfffdba8c>
 8043b70:	00bfffc4 	movi	r2,-1
 8043b74:	f800283a 	ret
 8043b78:	123feb16 	blt	r2,r8,8043b28 <__alt_data_end+0xfffdba88>
 8043b7c:	1abff336 	bltu	r3,r10,8043b4c <__alt_data_end+0xfffdbaac>
 8043b80:	50c00326 	beq	r10,r3,8043b90 <__ledf2+0xe4>
 8043b84:	50c0042e 	bgeu	r10,r3,8043b98 <__ledf2+0xec>
 8043b88:	283fe81e 	bne	r5,zero,8043b2c <__alt_data_end+0xfffdba8c>
 8043b8c:	003ff806 	br	8043b70 <__alt_data_end+0xfffdbad0>
 8043b90:	313fee36 	bltu	r6,r4,8043b4c <__alt_data_end+0xfffdbaac>
 8043b94:	21bffc36 	bltu	r4,r6,8043b88 <__alt_data_end+0xfffdbae8>
 8043b98:	0005883a 	mov	r2,zero
 8043b9c:	f800283a 	ret

08043ba0 <__muldf3>:
 8043ba0:	deffee04 	addi	sp,sp,-72
 8043ba4:	dd000c15 	stw	r20,48(sp)
 8043ba8:	2828d53a 	srli	r20,r5,20
 8043bac:	ddc00f15 	stw	r23,60(sp)
 8043bb0:	282ed7fa 	srli	r23,r5,31
 8043bb4:	dc000815 	stw	r16,32(sp)
 8043bb8:	04000434 	movhi	r16,16
 8043bbc:	dcc00b15 	stw	r19,44(sp)
 8043bc0:	843fffc4 	addi	r16,r16,-1
 8043bc4:	dfc01115 	stw	ra,68(sp)
 8043bc8:	df001015 	stw	fp,64(sp)
 8043bcc:	dd800e15 	stw	r22,56(sp)
 8043bd0:	dd400d15 	stw	r21,52(sp)
 8043bd4:	dc800a15 	stw	r18,40(sp)
 8043bd8:	dc400915 	stw	r17,36(sp)
 8043bdc:	a501ffcc 	andi	r20,r20,2047
 8043be0:	2c20703a 	and	r16,r5,r16
 8043be4:	b827883a 	mov	r19,r23
 8043be8:	ba403fcc 	andi	r9,r23,255
 8043bec:	a0006026 	beq	r20,zero,8043d70 <__muldf3+0x1d0>
 8043bf0:	0081ffc4 	movi	r2,2047
 8043bf4:	202d883a 	mov	r22,r4
 8043bf8:	a0803626 	beq	r20,r2,8043cd4 <__muldf3+0x134>
 8043bfc:	84000434 	orhi	r16,r16,16
 8043c00:	200ad77a 	srli	r5,r4,29
 8043c04:	800490fa 	slli	r2,r16,3
 8043c08:	202c90fa 	slli	r22,r4,3
 8043c0c:	a53f0044 	addi	r20,r20,-1023
 8043c10:	28a0b03a 	or	r16,r5,r2
 8043c14:	002b883a 	mov	r21,zero
 8043c18:	000b883a 	mov	r5,zero
 8043c1c:	3804d53a 	srli	r2,r7,20
 8043c20:	3838d7fa 	srli	fp,r7,31
 8043c24:	04400434 	movhi	r17,16
 8043c28:	8c7fffc4 	addi	r17,r17,-1
 8043c2c:	1081ffcc 	andi	r2,r2,2047
 8043c30:	3025883a 	mov	r18,r6
 8043c34:	3c62703a 	and	r17,r7,r17
 8043c38:	e2803fcc 	andi	r10,fp,255
 8043c3c:	10006d26 	beq	r2,zero,8043df4 <__muldf3+0x254>
 8043c40:	00c1ffc4 	movi	r3,2047
 8043c44:	10c06526 	beq	r2,r3,8043ddc <__muldf3+0x23c>
 8043c48:	8c400434 	orhi	r17,r17,16
 8043c4c:	300ed77a 	srli	r7,r6,29
 8043c50:	880690fa 	slli	r3,r17,3
 8043c54:	302490fa 	slli	r18,r6,3
 8043c58:	10bf0044 	addi	r2,r2,-1023
 8043c5c:	38e2b03a 	or	r17,r7,r3
 8043c60:	000f883a 	mov	r7,zero
 8043c64:	a087883a 	add	r3,r20,r2
 8043c68:	010003c4 	movi	r4,15
 8043c6c:	3d44b03a 	or	r2,r7,r21
 8043c70:	e5ccf03a 	xor	r6,fp,r23
 8043c74:	1a000044 	addi	r8,r3,1
 8043c78:	20809b36 	bltu	r4,r2,8043ee8 <__muldf3+0x348>
 8043c7c:	100490ba 	slli	r2,r2,2
 8043c80:	01020134 	movhi	r4,2052
 8043c84:	210f2504 	addi	r4,r4,15508
 8043c88:	1105883a 	add	r2,r2,r4
 8043c8c:	10800017 	ldw	r2,0(r2)
 8043c90:	1000683a 	jmp	r2
 8043c94:	08043ee8 	cmpgeui	zero,at,4347
 8043c98:	08043cf4 	orhi	zero,at,4339
 8043c9c:	08043cf4 	orhi	zero,at,4339
 8043ca0:	08043cf0 	cmpltui	zero,at,4339
 8043ca4:	08043ec4 	addi	zero,at,4347
 8043ca8:	08043ec4 	addi	zero,at,4347
 8043cac:	08043eac 	andhi	zero,at,4346
 8043cb0:	08043cf0 	cmpltui	zero,at,4339
 8043cb4:	08043ec4 	addi	zero,at,4347
 8043cb8:	08043eac 	andhi	zero,at,4346
 8043cbc:	08043ec4 	addi	zero,at,4347
 8043cc0:	08043cf0 	cmpltui	zero,at,4339
 8043cc4:	08043ed4 	ori	zero,at,4347
 8043cc8:	08043ed4 	ori	zero,at,4347
 8043ccc:	08043ed4 	ori	zero,at,4347
 8043cd0:	08044234 	orhi	zero,at,4360
 8043cd4:	2404b03a 	or	r2,r4,r16
 8043cd8:	1000711e 	bne	r2,zero,8043ea0 <__muldf3+0x300>
 8043cdc:	05400204 	movi	r21,8
 8043ce0:	0021883a 	mov	r16,zero
 8043ce4:	002d883a 	mov	r22,zero
 8043ce8:	01400084 	movi	r5,2
 8043cec:	003fcb06 	br	8043c1c <__alt_data_end+0xfffdbb7c>
 8043cf0:	500d883a 	mov	r6,r10
 8043cf4:	00800084 	movi	r2,2
 8043cf8:	38805926 	beq	r7,r2,8043e60 <__muldf3+0x2c0>
 8043cfc:	008000c4 	movi	r2,3
 8043d00:	3881bb26 	beq	r7,r2,80443f0 <__muldf3+0x850>
 8043d04:	00800044 	movi	r2,1
 8043d08:	3881961e 	bne	r7,r2,8044364 <__muldf3+0x7c4>
 8043d0c:	3027883a 	mov	r19,r6
 8043d10:	0005883a 	mov	r2,zero
 8043d14:	0021883a 	mov	r16,zero
 8043d18:	002d883a 	mov	r22,zero
 8043d1c:	1004953a 	slli	r2,r2,20
 8043d20:	98c03fcc 	andi	r3,r19,255
 8043d24:	04400434 	movhi	r17,16
 8043d28:	8c7fffc4 	addi	r17,r17,-1
 8043d2c:	180697fa 	slli	r3,r3,31
 8043d30:	8460703a 	and	r16,r16,r17
 8043d34:	80a0b03a 	or	r16,r16,r2
 8043d38:	80c6b03a 	or	r3,r16,r3
 8043d3c:	b005883a 	mov	r2,r22
 8043d40:	dfc01117 	ldw	ra,68(sp)
 8043d44:	df001017 	ldw	fp,64(sp)
 8043d48:	ddc00f17 	ldw	r23,60(sp)
 8043d4c:	dd800e17 	ldw	r22,56(sp)
 8043d50:	dd400d17 	ldw	r21,52(sp)
 8043d54:	dd000c17 	ldw	r20,48(sp)
 8043d58:	dcc00b17 	ldw	r19,44(sp)
 8043d5c:	dc800a17 	ldw	r18,40(sp)
 8043d60:	dc400917 	ldw	r17,36(sp)
 8043d64:	dc000817 	ldw	r16,32(sp)
 8043d68:	dec01204 	addi	sp,sp,72
 8043d6c:	f800283a 	ret
 8043d70:	2404b03a 	or	r2,r4,r16
 8043d74:	202b883a 	mov	r21,r4
 8043d78:	10004426 	beq	r2,zero,8043e8c <__muldf3+0x2ec>
 8043d7c:	80015126 	beq	r16,zero,80442c4 <__muldf3+0x724>
 8043d80:	8009883a 	mov	r4,r16
 8043d84:	d9800715 	stw	r6,28(sp)
 8043d88:	d9c00215 	stw	r7,8(sp)
 8043d8c:	da400415 	stw	r9,16(sp)
 8043d90:	80446c40 	call	80446c4 <__clzsi2>
 8043d94:	d9800717 	ldw	r6,28(sp)
 8043d98:	d9c00217 	ldw	r7,8(sp)
 8043d9c:	da400417 	ldw	r9,16(sp)
 8043da0:	113ffd44 	addi	r4,r2,-11
 8043da4:	00c00704 	movi	r3,28
 8043da8:	19014216 	blt	r3,r4,80442b4 <__muldf3+0x714>
 8043dac:	00c00744 	movi	r3,29
 8043db0:	15bffe04 	addi	r22,r2,-8
 8043db4:	1907c83a 	sub	r3,r3,r4
 8043db8:	85a0983a 	sll	r16,r16,r22
 8043dbc:	a8c6d83a 	srl	r3,r21,r3
 8043dc0:	adac983a 	sll	r22,r21,r22
 8043dc4:	1c20b03a 	or	r16,r3,r16
 8043dc8:	1080fcc4 	addi	r2,r2,1011
 8043dcc:	00a9c83a 	sub	r20,zero,r2
 8043dd0:	002b883a 	mov	r21,zero
 8043dd4:	000b883a 	mov	r5,zero
 8043dd8:	003f9006 	br	8043c1c <__alt_data_end+0xfffdbb7c>
 8043ddc:	3446b03a 	or	r3,r6,r17
 8043de0:	1800281e 	bne	r3,zero,8043e84 <__muldf3+0x2e4>
 8043de4:	0023883a 	mov	r17,zero
 8043de8:	0025883a 	mov	r18,zero
 8043dec:	01c00084 	movi	r7,2
 8043df0:	003f9c06 	br	8043c64 <__alt_data_end+0xfffdbbc4>
 8043df4:	3446b03a 	or	r3,r6,r17
 8043df8:	18001e26 	beq	r3,zero,8043e74 <__muldf3+0x2d4>
 8043dfc:	88012126 	beq	r17,zero,8044284 <__muldf3+0x6e4>
 8043e00:	8809883a 	mov	r4,r17
 8043e04:	d9400215 	stw	r5,8(sp)
 8043e08:	d9800715 	stw	r6,28(sp)
 8043e0c:	da400415 	stw	r9,16(sp)
 8043e10:	da800315 	stw	r10,12(sp)
 8043e14:	80446c40 	call	80446c4 <__clzsi2>
 8043e18:	d9400217 	ldw	r5,8(sp)
 8043e1c:	d9800717 	ldw	r6,28(sp)
 8043e20:	da400417 	ldw	r9,16(sp)
 8043e24:	da800317 	ldw	r10,12(sp)
 8043e28:	113ffd44 	addi	r4,r2,-11
 8043e2c:	00c00704 	movi	r3,28
 8043e30:	19011016 	blt	r3,r4,8044274 <__muldf3+0x6d4>
 8043e34:	00c00744 	movi	r3,29
 8043e38:	14bffe04 	addi	r18,r2,-8
 8043e3c:	1907c83a 	sub	r3,r3,r4
 8043e40:	8ca2983a 	sll	r17,r17,r18
 8043e44:	30c6d83a 	srl	r3,r6,r3
 8043e48:	34a4983a 	sll	r18,r6,r18
 8043e4c:	1c62b03a 	or	r17,r3,r17
 8043e50:	1080fcc4 	addi	r2,r2,1011
 8043e54:	0085c83a 	sub	r2,zero,r2
 8043e58:	000f883a 	mov	r7,zero
 8043e5c:	003f8106 	br	8043c64 <__alt_data_end+0xfffdbbc4>
 8043e60:	3027883a 	mov	r19,r6
 8043e64:	0081ffc4 	movi	r2,2047
 8043e68:	0021883a 	mov	r16,zero
 8043e6c:	002d883a 	mov	r22,zero
 8043e70:	003faa06 	br	8043d1c <__alt_data_end+0xfffdbc7c>
 8043e74:	0023883a 	mov	r17,zero
 8043e78:	0025883a 	mov	r18,zero
 8043e7c:	01c00044 	movi	r7,1
 8043e80:	003f7806 	br	8043c64 <__alt_data_end+0xfffdbbc4>
 8043e84:	01c000c4 	movi	r7,3
 8043e88:	003f7606 	br	8043c64 <__alt_data_end+0xfffdbbc4>
 8043e8c:	05400104 	movi	r21,4
 8043e90:	0021883a 	mov	r16,zero
 8043e94:	002d883a 	mov	r22,zero
 8043e98:	01400044 	movi	r5,1
 8043e9c:	003f5f06 	br	8043c1c <__alt_data_end+0xfffdbb7c>
 8043ea0:	05400304 	movi	r21,12
 8043ea4:	014000c4 	movi	r5,3
 8043ea8:	003f5c06 	br	8043c1c <__alt_data_end+0xfffdbb7c>
 8043eac:	04000434 	movhi	r16,16
 8043eb0:	0027883a 	mov	r19,zero
 8043eb4:	843fffc4 	addi	r16,r16,-1
 8043eb8:	05bfffc4 	movi	r22,-1
 8043ebc:	0081ffc4 	movi	r2,2047
 8043ec0:	003f9606 	br	8043d1c <__alt_data_end+0xfffdbc7c>
 8043ec4:	8023883a 	mov	r17,r16
 8043ec8:	b025883a 	mov	r18,r22
 8043ecc:	280f883a 	mov	r7,r5
 8043ed0:	003f8806 	br	8043cf4 <__alt_data_end+0xfffdbc54>
 8043ed4:	8023883a 	mov	r17,r16
 8043ed8:	b025883a 	mov	r18,r22
 8043edc:	480d883a 	mov	r6,r9
 8043ee0:	280f883a 	mov	r7,r5
 8043ee4:	003f8306 	br	8043cf4 <__alt_data_end+0xfffdbc54>
 8043ee8:	b026d43a 	srli	r19,r22,16
 8043eec:	902ed43a 	srli	r23,r18,16
 8043ef0:	b5bfffcc 	andi	r22,r22,65535
 8043ef4:	94bfffcc 	andi	r18,r18,65535
 8043ef8:	b00b883a 	mov	r5,r22
 8043efc:	9009883a 	mov	r4,r18
 8043f00:	d8c00515 	stw	r3,20(sp)
 8043f04:	d9800715 	stw	r6,28(sp)
 8043f08:	da000615 	stw	r8,24(sp)
 8043f0c:	8042cd80 	call	8042cd8 <__mulsi3>
 8043f10:	980b883a 	mov	r5,r19
 8043f14:	9009883a 	mov	r4,r18
 8043f18:	1029883a 	mov	r20,r2
 8043f1c:	8042cd80 	call	8042cd8 <__mulsi3>
 8043f20:	b80b883a 	mov	r5,r23
 8043f24:	9809883a 	mov	r4,r19
 8043f28:	102b883a 	mov	r21,r2
 8043f2c:	8042cd80 	call	8042cd8 <__mulsi3>
 8043f30:	b809883a 	mov	r4,r23
 8043f34:	b00b883a 	mov	r5,r22
 8043f38:	1039883a 	mov	fp,r2
 8043f3c:	8042cd80 	call	8042cd8 <__mulsi3>
 8043f40:	a008d43a 	srli	r4,r20,16
 8043f44:	1545883a 	add	r2,r2,r21
 8043f48:	d8c00517 	ldw	r3,20(sp)
 8043f4c:	2085883a 	add	r2,r4,r2
 8043f50:	d9800717 	ldw	r6,28(sp)
 8043f54:	da000617 	ldw	r8,24(sp)
 8043f58:	1540022e 	bgeu	r2,r21,8043f64 <__muldf3+0x3c4>
 8043f5c:	01000074 	movhi	r4,1
 8043f60:	e139883a 	add	fp,fp,r4
 8043f64:	100e943a 	slli	r7,r2,16
 8043f68:	1004d43a 	srli	r2,r2,16
 8043f6c:	882ad43a 	srli	r21,r17,16
 8043f70:	a53fffcc 	andi	r20,r20,65535
 8043f74:	8c7fffcc 	andi	r17,r17,65535
 8043f78:	3d29883a 	add	r20,r7,r20
 8043f7c:	b00b883a 	mov	r5,r22
 8043f80:	8809883a 	mov	r4,r17
 8043f84:	d8c00515 	stw	r3,20(sp)
 8043f88:	d9800715 	stw	r6,28(sp)
 8043f8c:	da000615 	stw	r8,24(sp)
 8043f90:	dd000115 	stw	r20,4(sp)
 8043f94:	d8800015 	stw	r2,0(sp)
 8043f98:	8042cd80 	call	8042cd8 <__mulsi3>
 8043f9c:	980b883a 	mov	r5,r19
 8043fa0:	8809883a 	mov	r4,r17
 8043fa4:	d8800215 	stw	r2,8(sp)
 8043fa8:	8042cd80 	call	8042cd8 <__mulsi3>
 8043fac:	9809883a 	mov	r4,r19
 8043fb0:	a80b883a 	mov	r5,r21
 8043fb4:	1029883a 	mov	r20,r2
 8043fb8:	8042cd80 	call	8042cd8 <__mulsi3>
 8043fbc:	b00b883a 	mov	r5,r22
 8043fc0:	a809883a 	mov	r4,r21
 8043fc4:	d8800415 	stw	r2,16(sp)
 8043fc8:	8042cd80 	call	8042cd8 <__mulsi3>
 8043fcc:	d9c00217 	ldw	r7,8(sp)
 8043fd0:	1505883a 	add	r2,r2,r20
 8043fd4:	d8c00517 	ldw	r3,20(sp)
 8043fd8:	3826d43a 	srli	r19,r7,16
 8043fdc:	d9800717 	ldw	r6,28(sp)
 8043fe0:	da000617 	ldw	r8,24(sp)
 8043fe4:	9885883a 	add	r2,r19,r2
 8043fe8:	da400417 	ldw	r9,16(sp)
 8043fec:	1500022e 	bgeu	r2,r20,8043ff8 <__muldf3+0x458>
 8043ff0:	01000074 	movhi	r4,1
 8043ff4:	4913883a 	add	r9,r9,r4
 8043ff8:	1028d43a 	srli	r20,r2,16
 8043ffc:	1004943a 	slli	r2,r2,16
 8044000:	802cd43a 	srli	r22,r16,16
 8044004:	843fffcc 	andi	r16,r16,65535
 8044008:	3cffffcc 	andi	r19,r7,65535
 804400c:	9009883a 	mov	r4,r18
 8044010:	800b883a 	mov	r5,r16
 8044014:	a269883a 	add	r20,r20,r9
 8044018:	d8c00515 	stw	r3,20(sp)
 804401c:	d9800715 	stw	r6,28(sp)
 8044020:	da000615 	stw	r8,24(sp)
 8044024:	14e7883a 	add	r19,r2,r19
 8044028:	8042cd80 	call	8042cd8 <__mulsi3>
 804402c:	9009883a 	mov	r4,r18
 8044030:	b00b883a 	mov	r5,r22
 8044034:	d8800315 	stw	r2,12(sp)
 8044038:	8042cd80 	call	8042cd8 <__mulsi3>
 804403c:	b809883a 	mov	r4,r23
 8044040:	b00b883a 	mov	r5,r22
 8044044:	d8800215 	stw	r2,8(sp)
 8044048:	8042cd80 	call	8042cd8 <__mulsi3>
 804404c:	b80b883a 	mov	r5,r23
 8044050:	8009883a 	mov	r4,r16
 8044054:	d8800415 	stw	r2,16(sp)
 8044058:	8042cd80 	call	8042cd8 <__mulsi3>
 804405c:	da800317 	ldw	r10,12(sp)
 8044060:	d9c00217 	ldw	r7,8(sp)
 8044064:	d9000017 	ldw	r4,0(sp)
 8044068:	502ed43a 	srli	r23,r10,16
 804406c:	11c5883a 	add	r2,r2,r7
 8044070:	24e5883a 	add	r18,r4,r19
 8044074:	b885883a 	add	r2,r23,r2
 8044078:	d8c00517 	ldw	r3,20(sp)
 804407c:	d9800717 	ldw	r6,28(sp)
 8044080:	da000617 	ldw	r8,24(sp)
 8044084:	da400417 	ldw	r9,16(sp)
 8044088:	11c0022e 	bgeu	r2,r7,8044094 <__muldf3+0x4f4>
 804408c:	01000074 	movhi	r4,1
 8044090:	4913883a 	add	r9,r9,r4
 8044094:	100ed43a 	srli	r7,r2,16
 8044098:	1004943a 	slli	r2,r2,16
 804409c:	55ffffcc 	andi	r23,r10,65535
 80440a0:	3a53883a 	add	r9,r7,r9
 80440a4:	8809883a 	mov	r4,r17
 80440a8:	800b883a 	mov	r5,r16
 80440ac:	d8c00515 	stw	r3,20(sp)
 80440b0:	d9800715 	stw	r6,28(sp)
 80440b4:	da000615 	stw	r8,24(sp)
 80440b8:	da400415 	stw	r9,16(sp)
 80440bc:	15ef883a 	add	r23,r2,r23
 80440c0:	8042cd80 	call	8042cd8 <__mulsi3>
 80440c4:	8809883a 	mov	r4,r17
 80440c8:	b00b883a 	mov	r5,r22
 80440cc:	d8800215 	stw	r2,8(sp)
 80440d0:	8042cd80 	call	8042cd8 <__mulsi3>
 80440d4:	b00b883a 	mov	r5,r22
 80440d8:	a809883a 	mov	r4,r21
 80440dc:	d8800315 	stw	r2,12(sp)
 80440e0:	8042cd80 	call	8042cd8 <__mulsi3>
 80440e4:	8009883a 	mov	r4,r16
 80440e8:	a80b883a 	mov	r5,r21
 80440ec:	1023883a 	mov	r17,r2
 80440f0:	8042cd80 	call	8042cd8 <__mulsi3>
 80440f4:	d9c00217 	ldw	r7,8(sp)
 80440f8:	da800317 	ldw	r10,12(sp)
 80440fc:	d8c00517 	ldw	r3,20(sp)
 8044100:	3808d43a 	srli	r4,r7,16
 8044104:	1285883a 	add	r2,r2,r10
 8044108:	d9800717 	ldw	r6,28(sp)
 804410c:	2085883a 	add	r2,r4,r2
 8044110:	da000617 	ldw	r8,24(sp)
 8044114:	da400417 	ldw	r9,16(sp)
 8044118:	1280022e 	bgeu	r2,r10,8044124 <__muldf3+0x584>
 804411c:	01000074 	movhi	r4,1
 8044120:	8923883a 	add	r17,r17,r4
 8044124:	1008943a 	slli	r4,r2,16
 8044128:	39ffffcc 	andi	r7,r7,65535
 804412c:	e4b9883a 	add	fp,fp,r18
 8044130:	21cf883a 	add	r7,r4,r7
 8044134:	e4e7803a 	cmpltu	r19,fp,r19
 8044138:	3d0f883a 	add	r7,r7,r20
 804413c:	bf39883a 	add	fp,r23,fp
 8044140:	99c9883a 	add	r4,r19,r7
 8044144:	e5ef803a 	cmpltu	r23,fp,r23
 8044148:	490b883a 	add	r5,r9,r4
 804414c:	1004d43a 	srli	r2,r2,16
 8044150:	b965883a 	add	r18,r23,r5
 8044154:	24c9803a 	cmpltu	r4,r4,r19
 8044158:	3d29803a 	cmpltu	r20,r7,r20
 804415c:	a128b03a 	or	r20,r20,r4
 8044160:	95ef803a 	cmpltu	r23,r18,r23
 8044164:	2a53803a 	cmpltu	r9,r5,r9
 8044168:	a0a9883a 	add	r20,r20,r2
 804416c:	4deeb03a 	or	r23,r9,r23
 8044170:	a5ef883a 	add	r23,r20,r23
 8044174:	bc63883a 	add	r17,r23,r17
 8044178:	e004927a 	slli	r2,fp,9
 804417c:	d9000117 	ldw	r4,4(sp)
 8044180:	882e927a 	slli	r23,r17,9
 8044184:	9022d5fa 	srli	r17,r18,23
 8044188:	e038d5fa 	srli	fp,fp,23
 804418c:	1104b03a 	or	r2,r2,r4
 8044190:	9024927a 	slli	r18,r18,9
 8044194:	1004c03a 	cmpne	r2,r2,zero
 8044198:	bc62b03a 	or	r17,r23,r17
 804419c:	1738b03a 	or	fp,r2,fp
 80441a0:	8880402c 	andhi	r2,r17,256
 80441a4:	e4a4b03a 	or	r18,fp,r18
 80441a8:	10000726 	beq	r2,zero,80441c8 <__muldf3+0x628>
 80441ac:	9006d07a 	srli	r3,r18,1
 80441b0:	880497fa 	slli	r2,r17,31
 80441b4:	9480004c 	andi	r18,r18,1
 80441b8:	8822d07a 	srli	r17,r17,1
 80441bc:	1ca4b03a 	or	r18,r3,r18
 80441c0:	14a4b03a 	or	r18,r2,r18
 80441c4:	4007883a 	mov	r3,r8
 80441c8:	1880ffc4 	addi	r2,r3,1023
 80441cc:	0080460e 	bge	zero,r2,80442e8 <__muldf3+0x748>
 80441d0:	910001cc 	andi	r4,r18,7
 80441d4:	20000726 	beq	r4,zero,80441f4 <__muldf3+0x654>
 80441d8:	910003cc 	andi	r4,r18,15
 80441dc:	01400104 	movi	r5,4
 80441e0:	21400426 	beq	r4,r5,80441f4 <__muldf3+0x654>
 80441e4:	9149883a 	add	r4,r18,r5
 80441e8:	24a5803a 	cmpltu	r18,r4,r18
 80441ec:	8ca3883a 	add	r17,r17,r18
 80441f0:	2025883a 	mov	r18,r4
 80441f4:	8900402c 	andhi	r4,r17,256
 80441f8:	20000426 	beq	r4,zero,804420c <__muldf3+0x66c>
 80441fc:	18810004 	addi	r2,r3,1024
 8044200:	00ffc034 	movhi	r3,65280
 8044204:	18ffffc4 	addi	r3,r3,-1
 8044208:	88e2703a 	and	r17,r17,r3
 804420c:	00c1ff84 	movi	r3,2046
 8044210:	18bf1316 	blt	r3,r2,8043e60 <__alt_data_end+0xfffdbdc0>
 8044214:	882c977a 	slli	r22,r17,29
 8044218:	9024d0fa 	srli	r18,r18,3
 804421c:	8822927a 	slli	r17,r17,9
 8044220:	1081ffcc 	andi	r2,r2,2047
 8044224:	b4acb03a 	or	r22,r22,r18
 8044228:	8820d33a 	srli	r16,r17,12
 804422c:	3027883a 	mov	r19,r6
 8044230:	003eba06 	br	8043d1c <__alt_data_end+0xfffdbc7c>
 8044234:	8080022c 	andhi	r2,r16,8
 8044238:	10000926 	beq	r2,zero,8044260 <__muldf3+0x6c0>
 804423c:	8880022c 	andhi	r2,r17,8
 8044240:	1000071e 	bne	r2,zero,8044260 <__muldf3+0x6c0>
 8044244:	00800434 	movhi	r2,16
 8044248:	8c000234 	orhi	r16,r17,8
 804424c:	10bfffc4 	addi	r2,r2,-1
 8044250:	e027883a 	mov	r19,fp
 8044254:	80a0703a 	and	r16,r16,r2
 8044258:	902d883a 	mov	r22,r18
 804425c:	003f1706 	br	8043ebc <__alt_data_end+0xfffdbe1c>
 8044260:	00800434 	movhi	r2,16
 8044264:	84000234 	orhi	r16,r16,8
 8044268:	10bfffc4 	addi	r2,r2,-1
 804426c:	80a0703a 	and	r16,r16,r2
 8044270:	003f1206 	br	8043ebc <__alt_data_end+0xfffdbe1c>
 8044274:	147ff604 	addi	r17,r2,-40
 8044278:	3462983a 	sll	r17,r6,r17
 804427c:	0025883a 	mov	r18,zero
 8044280:	003ef306 	br	8043e50 <__alt_data_end+0xfffdbdb0>
 8044284:	3009883a 	mov	r4,r6
 8044288:	d9400215 	stw	r5,8(sp)
 804428c:	d9800715 	stw	r6,28(sp)
 8044290:	da400415 	stw	r9,16(sp)
 8044294:	da800315 	stw	r10,12(sp)
 8044298:	80446c40 	call	80446c4 <__clzsi2>
 804429c:	10800804 	addi	r2,r2,32
 80442a0:	da800317 	ldw	r10,12(sp)
 80442a4:	da400417 	ldw	r9,16(sp)
 80442a8:	d9800717 	ldw	r6,28(sp)
 80442ac:	d9400217 	ldw	r5,8(sp)
 80442b0:	003edd06 	br	8043e28 <__alt_data_end+0xfffdbd88>
 80442b4:	143ff604 	addi	r16,r2,-40
 80442b8:	ac20983a 	sll	r16,r21,r16
 80442bc:	002d883a 	mov	r22,zero
 80442c0:	003ec106 	br	8043dc8 <__alt_data_end+0xfffdbd28>
 80442c4:	d9800715 	stw	r6,28(sp)
 80442c8:	d9c00215 	stw	r7,8(sp)
 80442cc:	da400415 	stw	r9,16(sp)
 80442d0:	80446c40 	call	80446c4 <__clzsi2>
 80442d4:	10800804 	addi	r2,r2,32
 80442d8:	da400417 	ldw	r9,16(sp)
 80442dc:	d9c00217 	ldw	r7,8(sp)
 80442e0:	d9800717 	ldw	r6,28(sp)
 80442e4:	003eae06 	br	8043da0 <__alt_data_end+0xfffdbd00>
 80442e8:	00c00044 	movi	r3,1
 80442ec:	1887c83a 	sub	r3,r3,r2
 80442f0:	01000e04 	movi	r4,56
 80442f4:	20fe8516 	blt	r4,r3,8043d0c <__alt_data_end+0xfffdbc6c>
 80442f8:	010007c4 	movi	r4,31
 80442fc:	20c01b16 	blt	r4,r3,804436c <__muldf3+0x7cc>
 8044300:	00800804 	movi	r2,32
 8044304:	10c5c83a 	sub	r2,r2,r3
 8044308:	888a983a 	sll	r5,r17,r2
 804430c:	90c8d83a 	srl	r4,r18,r3
 8044310:	9084983a 	sll	r2,r18,r2
 8044314:	88e2d83a 	srl	r17,r17,r3
 8044318:	2906b03a 	or	r3,r5,r4
 804431c:	1004c03a 	cmpne	r2,r2,zero
 8044320:	1886b03a 	or	r3,r3,r2
 8044324:	188001cc 	andi	r2,r3,7
 8044328:	10000726 	beq	r2,zero,8044348 <__muldf3+0x7a8>
 804432c:	188003cc 	andi	r2,r3,15
 8044330:	01000104 	movi	r4,4
 8044334:	11000426 	beq	r2,r4,8044348 <__muldf3+0x7a8>
 8044338:	1805883a 	mov	r2,r3
 804433c:	10c00104 	addi	r3,r2,4
 8044340:	1885803a 	cmpltu	r2,r3,r2
 8044344:	88a3883a 	add	r17,r17,r2
 8044348:	8880202c 	andhi	r2,r17,128
 804434c:	10001c26 	beq	r2,zero,80443c0 <__muldf3+0x820>
 8044350:	3027883a 	mov	r19,r6
 8044354:	00800044 	movi	r2,1
 8044358:	0021883a 	mov	r16,zero
 804435c:	002d883a 	mov	r22,zero
 8044360:	003e6e06 	br	8043d1c <__alt_data_end+0xfffdbc7c>
 8044364:	4007883a 	mov	r3,r8
 8044368:	003f9706 	br	80441c8 <__alt_data_end+0xfffdc128>
 804436c:	017ff844 	movi	r5,-31
 8044370:	2885c83a 	sub	r2,r5,r2
 8044374:	888ad83a 	srl	r5,r17,r2
 8044378:	00800804 	movi	r2,32
 804437c:	18801a26 	beq	r3,r2,80443e8 <__muldf3+0x848>
 8044380:	01001004 	movi	r4,64
 8044384:	20c7c83a 	sub	r3,r4,r3
 8044388:	88e2983a 	sll	r17,r17,r3
 804438c:	8ca4b03a 	or	r18,r17,r18
 8044390:	9004c03a 	cmpne	r2,r18,zero
 8044394:	2884b03a 	or	r2,r5,r2
 8044398:	144001cc 	andi	r17,r2,7
 804439c:	88000d1e 	bne	r17,zero,80443d4 <__muldf3+0x834>
 80443a0:	0021883a 	mov	r16,zero
 80443a4:	102cd0fa 	srli	r22,r2,3
 80443a8:	3027883a 	mov	r19,r6
 80443ac:	0005883a 	mov	r2,zero
 80443b0:	b46cb03a 	or	r22,r22,r17
 80443b4:	003e5906 	br	8043d1c <__alt_data_end+0xfffdbc7c>
 80443b8:	1007883a 	mov	r3,r2
 80443bc:	0023883a 	mov	r17,zero
 80443c0:	8820927a 	slli	r16,r17,9
 80443c4:	1805883a 	mov	r2,r3
 80443c8:	8822977a 	slli	r17,r17,29
 80443cc:	8020d33a 	srli	r16,r16,12
 80443d0:	003ff406 	br	80443a4 <__alt_data_end+0xfffdc304>
 80443d4:	10c003cc 	andi	r3,r2,15
 80443d8:	01000104 	movi	r4,4
 80443dc:	193ff626 	beq	r3,r4,80443b8 <__alt_data_end+0xfffdc318>
 80443e0:	0023883a 	mov	r17,zero
 80443e4:	003fd506 	br	804433c <__alt_data_end+0xfffdc29c>
 80443e8:	0023883a 	mov	r17,zero
 80443ec:	003fe706 	br	804438c <__alt_data_end+0xfffdc2ec>
 80443f0:	00800434 	movhi	r2,16
 80443f4:	8c000234 	orhi	r16,r17,8
 80443f8:	10bfffc4 	addi	r2,r2,-1
 80443fc:	3027883a 	mov	r19,r6
 8044400:	80a0703a 	and	r16,r16,r2
 8044404:	902d883a 	mov	r22,r18
 8044408:	003eac06 	br	8043ebc <__alt_data_end+0xfffdbe1c>

0804440c <__extendsfdf2>:
 804440c:	200ad5fa 	srli	r5,r4,23
 8044410:	defffd04 	addi	sp,sp,-12
 8044414:	dc400115 	stw	r17,4(sp)
 8044418:	29403fcc 	andi	r5,r5,255
 804441c:	29800044 	addi	r6,r5,1
 8044420:	04402034 	movhi	r17,128
 8044424:	dc000015 	stw	r16,0(sp)
 8044428:	8c7fffc4 	addi	r17,r17,-1
 804442c:	dfc00215 	stw	ra,8(sp)
 8044430:	31803fcc 	andi	r6,r6,255
 8044434:	00800044 	movi	r2,1
 8044438:	8922703a 	and	r17,r17,r4
 804443c:	2020d7fa 	srli	r16,r4,31
 8044440:	1180110e 	bge	r2,r6,8044488 <__extendsfdf2+0x7c>
 8044444:	880cd0fa 	srli	r6,r17,3
 8044448:	8822977a 	slli	r17,r17,29
 804444c:	2940e004 	addi	r5,r5,896
 8044450:	2941ffcc 	andi	r5,r5,2047
 8044454:	2804953a 	slli	r2,r5,20
 8044458:	01400434 	movhi	r5,16
 804445c:	800697fa 	slli	r3,r16,31
 8044460:	297fffc4 	addi	r5,r5,-1
 8044464:	314a703a 	and	r5,r6,r5
 8044468:	288ab03a 	or	r5,r5,r2
 804446c:	28c6b03a 	or	r3,r5,r3
 8044470:	8805883a 	mov	r2,r17
 8044474:	dfc00217 	ldw	ra,8(sp)
 8044478:	dc400117 	ldw	r17,4(sp)
 804447c:	dc000017 	ldw	r16,0(sp)
 8044480:	dec00304 	addi	sp,sp,12
 8044484:	f800283a 	ret
 8044488:	2800111e 	bne	r5,zero,80444d0 <__extendsfdf2+0xc4>
 804448c:	88001c26 	beq	r17,zero,8044500 <__extendsfdf2+0xf4>
 8044490:	8809883a 	mov	r4,r17
 8044494:	80446c40 	call	80446c4 <__clzsi2>
 8044498:	00c00284 	movi	r3,10
 804449c:	18801b16 	blt	r3,r2,804450c <__extendsfdf2+0x100>
 80444a0:	018002c4 	movi	r6,11
 80444a4:	308dc83a 	sub	r6,r6,r2
 80444a8:	11000544 	addi	r4,r2,21
 80444ac:	8986d83a 	srl	r3,r17,r6
 80444b0:	8922983a 	sll	r17,r17,r4
 80444b4:	0180e244 	movi	r6,905
 80444b8:	01400434 	movhi	r5,16
 80444bc:	3085c83a 	sub	r2,r6,r2
 80444c0:	297fffc4 	addi	r5,r5,-1
 80444c4:	194c703a 	and	r6,r3,r5
 80444c8:	1141ffcc 	andi	r5,r2,2047
 80444cc:	003fe006 	br	8044450 <__alt_data_end+0xfffdc3b0>
 80444d0:	88000826 	beq	r17,zero,80444f4 <__extendsfdf2+0xe8>
 80444d4:	880cd0fa 	srli	r6,r17,3
 80444d8:	00800434 	movhi	r2,16
 80444dc:	10bfffc4 	addi	r2,r2,-1
 80444e0:	31800234 	orhi	r6,r6,8
 80444e4:	8822977a 	slli	r17,r17,29
 80444e8:	308c703a 	and	r6,r6,r2
 80444ec:	0141ffc4 	movi	r5,2047
 80444f0:	003fd706 	br	8044450 <__alt_data_end+0xfffdc3b0>
 80444f4:	0141ffc4 	movi	r5,2047
 80444f8:	000d883a 	mov	r6,zero
 80444fc:	003fd406 	br	8044450 <__alt_data_end+0xfffdc3b0>
 8044500:	000b883a 	mov	r5,zero
 8044504:	000d883a 	mov	r6,zero
 8044508:	003fd106 	br	8044450 <__alt_data_end+0xfffdc3b0>
 804450c:	11bffd44 	addi	r6,r2,-11
 8044510:	8986983a 	sll	r3,r17,r6
 8044514:	0023883a 	mov	r17,zero
 8044518:	003fe606 	br	80444b4 <__alt_data_end+0xfffdc414>

0804451c <__truncdfsf2>:
 804451c:	2810d53a 	srli	r8,r5,20
 8044520:	01c00434 	movhi	r7,16
 8044524:	39ffffc4 	addi	r7,r7,-1
 8044528:	29ce703a 	and	r7,r5,r7
 804452c:	4201ffcc 	andi	r8,r8,2047
 8044530:	380e90fa 	slli	r7,r7,3
 8044534:	200cd77a 	srli	r6,r4,29
 8044538:	42400044 	addi	r9,r8,1
 804453c:	4a41ffcc 	andi	r9,r9,2047
 8044540:	00c00044 	movi	r3,1
 8044544:	280ad7fa 	srli	r5,r5,31
 8044548:	31ceb03a 	or	r7,r6,r7
 804454c:	200490fa 	slli	r2,r4,3
 8044550:	1a40230e 	bge	r3,r9,80445e0 <__truncdfsf2+0xc4>
 8044554:	40ff2004 	addi	r3,r8,-896
 8044558:	01803f84 	movi	r6,254
 804455c:	30c01516 	blt	r6,r3,80445b4 <__truncdfsf2+0x98>
 8044560:	00c0380e 	bge	zero,r3,8044644 <__truncdfsf2+0x128>
 8044564:	200c91ba 	slli	r6,r4,6
 8044568:	380e90fa 	slli	r7,r7,3
 804456c:	1004d77a 	srli	r2,r2,29
 8044570:	300cc03a 	cmpne	r6,r6,zero
 8044574:	31ccb03a 	or	r6,r6,r7
 8044578:	308cb03a 	or	r6,r6,r2
 804457c:	308001cc 	andi	r2,r6,7
 8044580:	10000426 	beq	r2,zero,8044594 <__truncdfsf2+0x78>
 8044584:	308003cc 	andi	r2,r6,15
 8044588:	01000104 	movi	r4,4
 804458c:	11000126 	beq	r2,r4,8044594 <__truncdfsf2+0x78>
 8044590:	31800104 	addi	r6,r6,4
 8044594:	3081002c 	andhi	r2,r6,1024
 8044598:	10001626 	beq	r2,zero,80445f4 <__truncdfsf2+0xd8>
 804459c:	18c00044 	addi	r3,r3,1
 80445a0:	00803fc4 	movi	r2,255
 80445a4:	18800326 	beq	r3,r2,80445b4 <__truncdfsf2+0x98>
 80445a8:	300c91ba 	slli	r6,r6,6
 80445ac:	300cd27a 	srli	r6,r6,9
 80445b0:	00000206 	br	80445bc <__truncdfsf2+0xa0>
 80445b4:	00ffffc4 	movi	r3,-1
 80445b8:	000d883a 	mov	r6,zero
 80445bc:	18c03fcc 	andi	r3,r3,255
 80445c0:	180895fa 	slli	r4,r3,23
 80445c4:	00c02034 	movhi	r3,128
 80445c8:	280a97fa 	slli	r5,r5,31
 80445cc:	18ffffc4 	addi	r3,r3,-1
 80445d0:	30c6703a 	and	r3,r6,r3
 80445d4:	1906b03a 	or	r3,r3,r4
 80445d8:	1944b03a 	or	r2,r3,r5
 80445dc:	f800283a 	ret
 80445e0:	40000b1e 	bne	r8,zero,8044610 <__truncdfsf2+0xf4>
 80445e4:	388cb03a 	or	r6,r7,r2
 80445e8:	0007883a 	mov	r3,zero
 80445ec:	30000426 	beq	r6,zero,8044600 <__truncdfsf2+0xe4>
 80445f0:	01800144 	movi	r6,5
 80445f4:	00803fc4 	movi	r2,255
 80445f8:	300cd0fa 	srli	r6,r6,3
 80445fc:	18800a26 	beq	r3,r2,8044628 <__truncdfsf2+0x10c>
 8044600:	00802034 	movhi	r2,128
 8044604:	10bfffc4 	addi	r2,r2,-1
 8044608:	308c703a 	and	r6,r6,r2
 804460c:	003feb06 	br	80445bc <__alt_data_end+0xfffdc51c>
 8044610:	3888b03a 	or	r4,r7,r2
 8044614:	203fe726 	beq	r4,zero,80445b4 <__alt_data_end+0xfffdc514>
 8044618:	380c90fa 	slli	r6,r7,3
 804461c:	00c03fc4 	movi	r3,255
 8044620:	31808034 	orhi	r6,r6,512
 8044624:	003fd506 	br	804457c <__alt_data_end+0xfffdc4dc>
 8044628:	303fe226 	beq	r6,zero,80445b4 <__alt_data_end+0xfffdc514>
 804462c:	00802034 	movhi	r2,128
 8044630:	31801034 	orhi	r6,r6,64
 8044634:	10bfffc4 	addi	r2,r2,-1
 8044638:	00ffffc4 	movi	r3,-1
 804463c:	308c703a 	and	r6,r6,r2
 8044640:	003fde06 	br	80445bc <__alt_data_end+0xfffdc51c>
 8044644:	013ffa44 	movi	r4,-23
 8044648:	19000e16 	blt	r3,r4,8044684 <__truncdfsf2+0x168>
 804464c:	01000784 	movi	r4,30
 8044650:	20c9c83a 	sub	r4,r4,r3
 8044654:	018007c4 	movi	r6,31
 8044658:	39c02034 	orhi	r7,r7,128
 804465c:	31000b16 	blt	r6,r4,804468c <__truncdfsf2+0x170>
 8044660:	423f2084 	addi	r8,r8,-894
 8044664:	120c983a 	sll	r6,r2,r8
 8044668:	3a0e983a 	sll	r7,r7,r8
 804466c:	1104d83a 	srl	r2,r2,r4
 8044670:	300cc03a 	cmpne	r6,r6,zero
 8044674:	31ceb03a 	or	r7,r6,r7
 8044678:	388cb03a 	or	r6,r7,r2
 804467c:	0007883a 	mov	r3,zero
 8044680:	003fbe06 	br	804457c <__alt_data_end+0xfffdc4dc>
 8044684:	0007883a 	mov	r3,zero
 8044688:	003fd906 	br	80445f0 <__alt_data_end+0xfffdc550>
 804468c:	01bfff84 	movi	r6,-2
 8044690:	30cdc83a 	sub	r6,r6,r3
 8044694:	00c00804 	movi	r3,32
 8044698:	398cd83a 	srl	r6,r7,r6
 804469c:	20c00726 	beq	r4,r3,80446bc <__truncdfsf2+0x1a0>
 80446a0:	423f2884 	addi	r8,r8,-862
 80446a4:	3a0e983a 	sll	r7,r7,r8
 80446a8:	3884b03a 	or	r2,r7,r2
 80446ac:	1004c03a 	cmpne	r2,r2,zero
 80446b0:	118cb03a 	or	r6,r2,r6
 80446b4:	0007883a 	mov	r3,zero
 80446b8:	003fb006 	br	804457c <__alt_data_end+0xfffdc4dc>
 80446bc:	000f883a 	mov	r7,zero
 80446c0:	003ff906 	br	80446a8 <__alt_data_end+0xfffdc608>

080446c4 <__clzsi2>:
 80446c4:	00bfffd4 	movui	r2,65535
 80446c8:	11000536 	bltu	r2,r4,80446e0 <__clzsi2+0x1c>
 80446cc:	00803fc4 	movi	r2,255
 80446d0:	11000f36 	bltu	r2,r4,8044710 <__clzsi2+0x4c>
 80446d4:	00800804 	movi	r2,32
 80446d8:	0007883a 	mov	r3,zero
 80446dc:	00000506 	br	80446f4 <__clzsi2+0x30>
 80446e0:	00804034 	movhi	r2,256
 80446e4:	10bfffc4 	addi	r2,r2,-1
 80446e8:	11000c2e 	bgeu	r2,r4,804471c <__clzsi2+0x58>
 80446ec:	00800204 	movi	r2,8
 80446f0:	00c00604 	movi	r3,24
 80446f4:	20c8d83a 	srl	r4,r4,r3
 80446f8:	00c20174 	movhi	r3,2053
 80446fc:	18ce8484 	addi	r3,r3,14866
 8044700:	1909883a 	add	r4,r3,r4
 8044704:	20c00003 	ldbu	r3,0(r4)
 8044708:	10c5c83a 	sub	r2,r2,r3
 804470c:	f800283a 	ret
 8044710:	00800604 	movi	r2,24
 8044714:	00c00204 	movi	r3,8
 8044718:	003ff606 	br	80446f4 <__alt_data_end+0xfffdc654>
 804471c:	00800404 	movi	r2,16
 8044720:	1007883a 	mov	r3,r2
 8044724:	003ff306 	br	80446f4 <__alt_data_end+0xfffdc654>

08044728 <memcpy>:
 8044728:	defffd04 	addi	sp,sp,-12
 804472c:	dfc00215 	stw	ra,8(sp)
 8044730:	dc400115 	stw	r17,4(sp)
 8044734:	dc000015 	stw	r16,0(sp)
 8044738:	00c003c4 	movi	r3,15
 804473c:	2005883a 	mov	r2,r4
 8044740:	1980452e 	bgeu	r3,r6,8044858 <memcpy+0x130>
 8044744:	2906b03a 	or	r3,r5,r4
 8044748:	18c000cc 	andi	r3,r3,3
 804474c:	1800441e 	bne	r3,zero,8044860 <memcpy+0x138>
 8044750:	347ffc04 	addi	r17,r6,-16
 8044754:	8822d13a 	srli	r17,r17,4
 8044758:	28c00104 	addi	r3,r5,4
 804475c:	23400104 	addi	r13,r4,4
 8044760:	8820913a 	slli	r16,r17,4
 8044764:	2b000204 	addi	r12,r5,8
 8044768:	22c00204 	addi	r11,r4,8
 804476c:	84000504 	addi	r16,r16,20
 8044770:	2a800304 	addi	r10,r5,12
 8044774:	22400304 	addi	r9,r4,12
 8044778:	2c21883a 	add	r16,r5,r16
 804477c:	2811883a 	mov	r8,r5
 8044780:	200f883a 	mov	r7,r4
 8044784:	41000017 	ldw	r4,0(r8)
 8044788:	1fc00017 	ldw	ra,0(r3)
 804478c:	63c00017 	ldw	r15,0(r12)
 8044790:	39000015 	stw	r4,0(r7)
 8044794:	53800017 	ldw	r14,0(r10)
 8044798:	6fc00015 	stw	ra,0(r13)
 804479c:	5bc00015 	stw	r15,0(r11)
 80447a0:	4b800015 	stw	r14,0(r9)
 80447a4:	18c00404 	addi	r3,r3,16
 80447a8:	39c00404 	addi	r7,r7,16
 80447ac:	42000404 	addi	r8,r8,16
 80447b0:	6b400404 	addi	r13,r13,16
 80447b4:	63000404 	addi	r12,r12,16
 80447b8:	5ac00404 	addi	r11,r11,16
 80447bc:	52800404 	addi	r10,r10,16
 80447c0:	4a400404 	addi	r9,r9,16
 80447c4:	1c3fef1e 	bne	r3,r16,8044784 <__alt_data_end+0xfffdc6e4>
 80447c8:	89c00044 	addi	r7,r17,1
 80447cc:	380e913a 	slli	r7,r7,4
 80447d0:	310003cc 	andi	r4,r6,15
 80447d4:	02c000c4 	movi	r11,3
 80447d8:	11c7883a 	add	r3,r2,r7
 80447dc:	29cb883a 	add	r5,r5,r7
 80447e0:	5900212e 	bgeu	r11,r4,8044868 <memcpy+0x140>
 80447e4:	1813883a 	mov	r9,r3
 80447e8:	2811883a 	mov	r8,r5
 80447ec:	200f883a 	mov	r7,r4
 80447f0:	42800017 	ldw	r10,0(r8)
 80447f4:	4a400104 	addi	r9,r9,4
 80447f8:	39ffff04 	addi	r7,r7,-4
 80447fc:	4abfff15 	stw	r10,-4(r9)
 8044800:	42000104 	addi	r8,r8,4
 8044804:	59fffa36 	bltu	r11,r7,80447f0 <__alt_data_end+0xfffdc750>
 8044808:	213fff04 	addi	r4,r4,-4
 804480c:	2008d0ba 	srli	r4,r4,2
 8044810:	318000cc 	andi	r6,r6,3
 8044814:	21000044 	addi	r4,r4,1
 8044818:	2109883a 	add	r4,r4,r4
 804481c:	2109883a 	add	r4,r4,r4
 8044820:	1907883a 	add	r3,r3,r4
 8044824:	290b883a 	add	r5,r5,r4
 8044828:	30000626 	beq	r6,zero,8044844 <memcpy+0x11c>
 804482c:	198d883a 	add	r6,r3,r6
 8044830:	29c00003 	ldbu	r7,0(r5)
 8044834:	18c00044 	addi	r3,r3,1
 8044838:	29400044 	addi	r5,r5,1
 804483c:	19ffffc5 	stb	r7,-1(r3)
 8044840:	19bffb1e 	bne	r3,r6,8044830 <__alt_data_end+0xfffdc790>
 8044844:	dfc00217 	ldw	ra,8(sp)
 8044848:	dc400117 	ldw	r17,4(sp)
 804484c:	dc000017 	ldw	r16,0(sp)
 8044850:	dec00304 	addi	sp,sp,12
 8044854:	f800283a 	ret
 8044858:	2007883a 	mov	r3,r4
 804485c:	003ff206 	br	8044828 <__alt_data_end+0xfffdc788>
 8044860:	2007883a 	mov	r3,r4
 8044864:	003ff106 	br	804482c <__alt_data_end+0xfffdc78c>
 8044868:	200d883a 	mov	r6,r4
 804486c:	003fee06 	br	8044828 <__alt_data_end+0xfffdc788>

08044870 <memset>:
 8044870:	20c000cc 	andi	r3,r4,3
 8044874:	2005883a 	mov	r2,r4
 8044878:	18004426 	beq	r3,zero,804498c <memset+0x11c>
 804487c:	31ffffc4 	addi	r7,r6,-1
 8044880:	30004026 	beq	r6,zero,8044984 <memset+0x114>
 8044884:	2813883a 	mov	r9,r5
 8044888:	200d883a 	mov	r6,r4
 804488c:	2007883a 	mov	r3,r4
 8044890:	00000406 	br	80448a4 <memset+0x34>
 8044894:	3a3fffc4 	addi	r8,r7,-1
 8044898:	31800044 	addi	r6,r6,1
 804489c:	38003926 	beq	r7,zero,8044984 <memset+0x114>
 80448a0:	400f883a 	mov	r7,r8
 80448a4:	18c00044 	addi	r3,r3,1
 80448a8:	32400005 	stb	r9,0(r6)
 80448ac:	1a0000cc 	andi	r8,r3,3
 80448b0:	403ff81e 	bne	r8,zero,8044894 <__alt_data_end+0xfffdc7f4>
 80448b4:	010000c4 	movi	r4,3
 80448b8:	21c02d2e 	bgeu	r4,r7,8044970 <memset+0x100>
 80448bc:	29003fcc 	andi	r4,r5,255
 80448c0:	200c923a 	slli	r6,r4,8
 80448c4:	3108b03a 	or	r4,r6,r4
 80448c8:	200c943a 	slli	r6,r4,16
 80448cc:	218cb03a 	or	r6,r4,r6
 80448d0:	010003c4 	movi	r4,15
 80448d4:	21c0182e 	bgeu	r4,r7,8044938 <memset+0xc8>
 80448d8:	3b3ffc04 	addi	r12,r7,-16
 80448dc:	6018d13a 	srli	r12,r12,4
 80448e0:	1a000104 	addi	r8,r3,4
 80448e4:	1ac00204 	addi	r11,r3,8
 80448e8:	6008913a 	slli	r4,r12,4
 80448ec:	1a800304 	addi	r10,r3,12
 80448f0:	1813883a 	mov	r9,r3
 80448f4:	21000504 	addi	r4,r4,20
 80448f8:	1909883a 	add	r4,r3,r4
 80448fc:	49800015 	stw	r6,0(r9)
 8044900:	41800015 	stw	r6,0(r8)
 8044904:	59800015 	stw	r6,0(r11)
 8044908:	51800015 	stw	r6,0(r10)
 804490c:	42000404 	addi	r8,r8,16
 8044910:	4a400404 	addi	r9,r9,16
 8044914:	5ac00404 	addi	r11,r11,16
 8044918:	52800404 	addi	r10,r10,16
 804491c:	413ff71e 	bne	r8,r4,80448fc <__alt_data_end+0xfffdc85c>
 8044920:	63000044 	addi	r12,r12,1
 8044924:	6018913a 	slli	r12,r12,4
 8044928:	39c003cc 	andi	r7,r7,15
 804492c:	010000c4 	movi	r4,3
 8044930:	1b07883a 	add	r3,r3,r12
 8044934:	21c00e2e 	bgeu	r4,r7,8044970 <memset+0x100>
 8044938:	1813883a 	mov	r9,r3
 804493c:	3811883a 	mov	r8,r7
 8044940:	010000c4 	movi	r4,3
